
f103c8t-st7735.elf:     file format elf32-littlearm

Sections:
Idx Name          Size      VMA       LMA       File off  Algn
  0 .isr_vector   0000010c  08000000  08000000  00010000  2**0
                  CONTENTS, ALLOC, LOAD, READONLY, DATA
  1 .text         000031a4  0800010c  0800010c  0001010c  2**2
                  CONTENTS, ALLOC, LOAD, READONLY, CODE
  2 .rodata       00006dac  080032b0  080032b0  000132b0  2**2
                  CONTENTS, ALLOC, LOAD, READONLY, DATA
  3 .init_array   00000004  0800a05c  0800a05c  0001a05c  2**2
                  CONTENTS, ALLOC, LOAD, DATA
  4 .fini_array   00000004  0800a060  0800a060  0001a060  2**2
                  CONTENTS, ALLOC, LOAD, DATA
  5 .data         000000d4  20000000  0800a064  00020000  2**2
                  CONTENTS, ALLOC, LOAD, DATA
  6 .bss          000005e8  200000d4  0800a138  000200d4  2**2
                  ALLOC
  7 ._user_heap_stack 00000a00  200006bc  0800a138  000206bc  2**0
                  ALLOC
  8 .ARM.attributes 00000029  00000000  00000000  000200d4  2**0
                  CONTENTS, READONLY
  9 .debug_info   00014d77  00000000  00000000  000200fd  2**0
                  CONTENTS, READONLY, DEBUGGING
 10 .debug_abbrev 00002f5d  00000000  00000000  00034e74  2**0
                  CONTENTS, READONLY, DEBUGGING
 11 .debug_loc    00007276  00000000  00000000  00037dd1  2**0
                  CONTENTS, READONLY, DEBUGGING
 12 .debug_aranges 00000a18  00000000  00000000  0003f048  2**3
                  CONTENTS, READONLY, DEBUGGING
 13 .debug_ranges 00000d10  00000000  00000000  0003fa60  2**3
                  CONTENTS, READONLY, DEBUGGING
 14 .debug_line   000056a7  00000000  00000000  00040770  2**0
                  CONTENTS, READONLY, DEBUGGING
 15 .debug_str    000036e4  00000000  00000000  00045e17  2**0
                  CONTENTS, READONLY, DEBUGGING
 16 .comment      0000007c  00000000  00000000  000494fb  2**0
                  CONTENTS, READONLY
 17 .debug_frame  00002404  00000000  00000000  00049578  2**2
                  CONTENTS, READONLY, DEBUGGING

Disassembly of section .text:

0800010c <__do_global_dtors_aux>:
 800010c:	b510      	push	{r4, lr}
 800010e:	4c05      	ldr	r4, [pc, #20]	; (8000124 <__do_global_dtors_aux+0x18>)
 8000110:	7823      	ldrb	r3, [r4, #0]
 8000112:	b933      	cbnz	r3, 8000122 <__do_global_dtors_aux+0x16>
 8000114:	4b04      	ldr	r3, [pc, #16]	; (8000128 <__do_global_dtors_aux+0x1c>)
 8000116:	b113      	cbz	r3, 800011e <__do_global_dtors_aux+0x12>
 8000118:	4804      	ldr	r0, [pc, #16]	; (800012c <__do_global_dtors_aux+0x20>)
 800011a:	f3af 8000 	nop.w
 800011e:	2301      	movs	r3, #1
 8000120:	7023      	strb	r3, [r4, #0]
 8000122:	bd10      	pop	{r4, pc}
 8000124:	200000d4 	.word	0x200000d4
 8000128:	00000000 	.word	0x00000000
 800012c:	08003298 	.word	0x08003298

08000130 <frame_dummy>:
 8000130:	b508      	push	{r3, lr}
 8000132:	4b03      	ldr	r3, [pc, #12]	; (8000140 <frame_dummy+0x10>)
 8000134:	b11b      	cbz	r3, 800013e <frame_dummy+0xe>
 8000136:	4903      	ldr	r1, [pc, #12]	; (8000144 <frame_dummy+0x14>)
 8000138:	4803      	ldr	r0, [pc, #12]	; (8000148 <frame_dummy+0x18>)
 800013a:	f3af 8000 	nop.w
 800013e:	bd08      	pop	{r3, pc}
 8000140:	00000000 	.word	0x00000000
 8000144:	200000d8 	.word	0x200000d8
 8000148:	08003298 	.word	0x08003298

0800014c <HAL_Init>:
    defined(STM32F102x6) || defined(STM32F102xB) || \
    defined(STM32F103x6) || defined(STM32F103xB) || defined(STM32F103xE) || defined(STM32F103xG) || \
    defined(STM32F105xC) || defined(STM32F107xC)

  /* Prefetch buffer is not available on value line devices */
  __HAL_FLASH_PREFETCH_BUFFER_ENABLE();
 800014c:	4a07      	ldr	r2, [pc, #28]	; (800016c <HAL_Init+0x20>)
{
 800014e:	b508      	push	{r3, lr}
  __HAL_FLASH_PREFETCH_BUFFER_ENABLE();
 8000150:	6813      	ldr	r3, [r2, #0]
#endif
#endif /* PREFETCH_ENABLE */

  /* Set Interrupt Group Priority */
  HAL_NVIC_SetPriorityGrouping(NVIC_PRIORITYGROUP_4);
 8000152:	2003      	movs	r0, #3
  __HAL_FLASH_PREFETCH_BUFFER_ENABLE();
 8000154:	f043 0310 	orr.w	r3, r3, #16
 8000158:	6013      	str	r3, [r2, #0]
  HAL_NVIC_SetPriorityGrouping(NVIC_PRIORITYGROUP_4);
 800015a:	f000 f82d 	bl	80001b8 <HAL_NVIC_SetPriorityGrouping>

  /* Use systick as time base source and configure 1ms tick (default clock after Reset is HSI) */
  HAL_InitTick(TICK_INT_PRIORITY);
 800015e:	2000      	movs	r0, #0
 8000160:	f001 ffdc 	bl	800211c <HAL_InitTick>

  /* Init the low level hardware */
  HAL_MspInit();
 8000164:	f001 ff8a 	bl	800207c <HAL_MspInit>

  /* Return function status */
  return HAL_OK;
}
 8000168:	2000      	movs	r0, #0
 800016a:	bd08      	pop	{r3, pc}
 800016c:	40022000 	.word	0x40022000

08000170 <HAL_IncTick>:
  *      implementations in user file.
  * @retval None
  */
__weak void HAL_IncTick(void)
{
  uwTick += uwTickFreq;
 8000170:	4a03      	ldr	r2, [pc, #12]	; (8000180 <HAL_IncTick+0x10>)
 8000172:	4b04      	ldr	r3, [pc, #16]	; (8000184 <HAL_IncTick+0x14>)
 8000174:	6811      	ldr	r1, [r2, #0]
 8000176:	781b      	ldrb	r3, [r3, #0]
 8000178:	440b      	add	r3, r1
 800017a:	6013      	str	r3, [r2, #0]
 800017c:	4770      	bx	lr
 800017e:	bf00      	nop
 8000180:	20000468 	.word	0x20000468
 8000184:	20000000 	.word	0x20000000

08000188 <HAL_GetTick>:
  *       implementations in user file.
  * @retval tick value
  */
__weak uint32_t HAL_GetTick(void)
{
  return uwTick;
 8000188:	4b01      	ldr	r3, [pc, #4]	; (8000190 <HAL_GetTick+0x8>)
 800018a:	6818      	ldr	r0, [r3, #0]
}
 800018c:	4770      	bx	lr
 800018e:	bf00      	nop
 8000190:	20000468 	.word	0x20000468

08000194 <HAL_Delay>:
  *       implementations in user file.
  * @param Delay specifies the delay time length, in milliseconds.
  * @retval None
  */
__weak void HAL_Delay(uint32_t Delay)
{
 8000194:	b538      	push	{r3, r4, r5, lr}
 8000196:	4604      	mov	r4, r0
  uint32_t tickstart = HAL_GetTick();
 8000198:	f7ff fff6 	bl	8000188 <HAL_GetTick>
 800019c:	4605      	mov	r5, r0
  uint32_t wait = Delay;

  /* Add a freq to guarantee minimum wait */
  if (wait < HAL_MAX_DELAY)
 800019e:	1c63      	adds	r3, r4, #1
  {
    wait += (uint32_t)(uwTickFreq);
 80001a0:	bf1e      	ittt	ne
 80001a2:	4b04      	ldrne	r3, [pc, #16]	; (80001b4 <HAL_Delay+0x20>)
 80001a4:	781b      	ldrbne	r3, [r3, #0]
 80001a6:	18e4      	addne	r4, r4, r3
  }

  while ((HAL_GetTick() - tickstart) < wait)
 80001a8:	f7ff ffee 	bl	8000188 <HAL_GetTick>
 80001ac:	1b40      	subs	r0, r0, r5
 80001ae:	4284      	cmp	r4, r0
 80001b0:	d8fa      	bhi.n	80001a8 <HAL_Delay+0x14>
  {
  }
}
 80001b2:	bd38      	pop	{r3, r4, r5, pc}
 80001b4:	20000000 	.word	0x20000000

080001b8 <HAL_NVIC_SetPriorityGrouping>:
__STATIC_INLINE void NVIC_SetPriorityGrouping(uint32_t PriorityGroup)
{
  uint32_t reg_value;
  uint32_t PriorityGroupTmp = (PriorityGroup & (uint32_t)0x07UL);             /* only values 0..7 are used          */

  reg_value  =  SCB->AIRCR;                                                   /* read old register configuration    */
 80001b8:	4a07      	ldr	r2, [pc, #28]	; (80001d8 <HAL_NVIC_SetPriorityGrouping+0x20>)
  reg_value &= ~((uint32_t)(SCB_AIRCR_VECTKEY_Msk | SCB_AIRCR_PRIGROUP_Msk)); /* clear bits to change               */
  reg_value  =  (reg_value                                   |
                ((uint32_t)0x5FAUL << SCB_AIRCR_VECTKEY_Pos) |
                (PriorityGroupTmp << 8U)                      );              /* Insert write key and priorty group */
 80001ba:	0200      	lsls	r0, r0, #8
  reg_value  =  SCB->AIRCR;                                                   /* read old register configuration    */
 80001bc:	68d3      	ldr	r3, [r2, #12]
                (PriorityGroupTmp << 8U)                      );              /* Insert write key and priorty group */
 80001be:	f400 60e0 	and.w	r0, r0, #1792	; 0x700
  reg_value &= ~((uint32_t)(SCB_AIRCR_VECTKEY_Msk | SCB_AIRCR_PRIGROUP_Msk)); /* clear bits to change               */
 80001c2:	f423 63e0 	bic.w	r3, r3, #1792	; 0x700
 80001c6:	041b      	lsls	r3, r3, #16
 80001c8:	0c1b      	lsrs	r3, r3, #16
 80001ca:	f043 63bf 	orr.w	r3, r3, #100139008	; 0x5f80000
 80001ce:	f443 3300 	orr.w	r3, r3, #131072	; 0x20000
  reg_value  =  (reg_value                                   |
 80001d2:	4303      	orrs	r3, r0
  SCB->AIRCR =  reg_value;
 80001d4:	60d3      	str	r3, [r2, #12]
 80001d6:	4770      	bx	lr
 80001d8:	e000ed00 	.word	0xe000ed00

080001dc <HAL_NVIC_SetPriority>:
  \details Reads the priority grouping field from the NVIC Interrupt Controller.
  \return                Priority grouping field (SCB->AIRCR [10:8] PRIGROUP field).
 */
__STATIC_INLINE uint32_t NVIC_GetPriorityGrouping(void)
{
  return ((uint32_t)((SCB->AIRCR & SCB_AIRCR_PRIGROUP_Msk) >> SCB_AIRCR_PRIGROUP_Pos));
 80001dc:	4b17      	ldr	r3, [pc, #92]	; (800023c <HAL_NVIC_SetPriority+0x60>)
  *         This parameter can be a value between 0 and 15
  *         A lower priority value indicates a higher priority.          
  * @retval None
  */
void HAL_NVIC_SetPriority(IRQn_Type IRQn, uint32_t PreemptPriority, uint32_t SubPriority)
{ 
 80001de:	b530      	push	{r4, r5, lr}
 80001e0:	68dc      	ldr	r4, [r3, #12]
 80001e2:	f3c4 2402 	ubfx	r4, r4, #8, #3
{
  uint32_t PriorityGroupTmp = (PriorityGroup & (uint32_t)0x07UL);   /* only values 0..7 are used          */
  uint32_t PreemptPriorityBits;
  uint32_t SubPriorityBits;

  PreemptPriorityBits = ((7UL - PriorityGroupTmp) > (uint32_t)(__NVIC_PRIO_BITS)) ? (uint32_t)(__NVIC_PRIO_BITS) : (uint32_t)(7UL - PriorityGroupTmp);
 80001e6:	f1c4 0307 	rsb	r3, r4, #7
  SubPriorityBits     = ((PriorityGroupTmp + (uint32_t)(__NVIC_PRIO_BITS)) < (uint32_t)7UL) ? (uint32_t)0UL : (uint32_t)((PriorityGroupTmp - 7UL) + (uint32_t)(__NVIC_PRIO_BITS));
 80001ea:	1d25      	adds	r5, r4, #4
  PreemptPriorityBits = ((7UL - PriorityGroupTmp) > (uint32_t)(__NVIC_PRIO_BITS)) ? (uint32_t)(__NVIC_PRIO_BITS) : (uint32_t)(7UL - PriorityGroupTmp);
 80001ec:	2b04      	cmp	r3, #4
 80001ee:	bf28      	it	cs
 80001f0:	2304      	movcs	r3, #4
  SubPriorityBits     = ((PriorityGroupTmp + (uint32_t)(__NVIC_PRIO_BITS)) < (uint32_t)7UL) ? (uint32_t)0UL : (uint32_t)((PriorityGroupTmp - 7UL) + (uint32_t)(__NVIC_PRIO_BITS));
 80001f2:	2d06      	cmp	r5, #6

  return (
           ((PreemptPriority & (uint32_t)((1UL << (PreemptPriorityBits)) - 1UL)) << SubPriorityBits) |
 80001f4:	f04f 0501 	mov.w	r5, #1
  SubPriorityBits     = ((PriorityGroupTmp + (uint32_t)(__NVIC_PRIO_BITS)) < (uint32_t)7UL) ? (uint32_t)0UL : (uint32_t)((PriorityGroupTmp - 7UL) + (uint32_t)(__NVIC_PRIO_BITS));
 80001f8:	bf98      	it	ls
 80001fa:	2400      	movls	r4, #0
           ((PreemptPriority & (uint32_t)((1UL << (PreemptPriorityBits)) - 1UL)) << SubPriorityBits) |
 80001fc:	fa05 f303 	lsl.w	r3, r5, r3
 8000200:	f103 33ff 	add.w	r3, r3, #4294967295
  SubPriorityBits     = ((PriorityGroupTmp + (uint32_t)(__NVIC_PRIO_BITS)) < (uint32_t)7UL) ? (uint32_t)0UL : (uint32_t)((PriorityGroupTmp - 7UL) + (uint32_t)(__NVIC_PRIO_BITS));
 8000204:	bf88      	it	hi
 8000206:	3c03      	subhi	r4, #3
           ((PreemptPriority & (uint32_t)((1UL << (PreemptPriorityBits)) - 1UL)) << SubPriorityBits) |
 8000208:	4019      	ands	r1, r3
 800020a:	40a1      	lsls	r1, r4
           ((SubPriority     & (uint32_t)((1UL << (SubPriorityBits    )) - 1UL)))
 800020c:	fa05 f404 	lsl.w	r4, r5, r4
 8000210:	3c01      	subs	r4, #1
 8000212:	4022      	ands	r2, r4
  if ((int32_t)(IRQn) < 0)
 8000214:	2800      	cmp	r0, #0
           ((PreemptPriority & (uint32_t)((1UL << (PreemptPriorityBits)) - 1UL)) << SubPriorityBits) |
 8000216:	ea42 0201 	orr.w	r2, r2, r1
 800021a:	ea4f 1202 	mov.w	r2, r2, lsl #4
    NVIC->IP[((uint32_t)(int32_t)IRQn)]               = (uint8_t)((priority << (8U - __NVIC_PRIO_BITS)) & (uint32_t)0xFFUL);
 800021e:	bfaf      	iteee	ge
 8000220:	f100 4060 	addge.w	r0, r0, #3758096384	; 0xe0000000
    SCB->SHP[(((uint32_t)(int32_t)IRQn) & 0xFUL)-4UL] = (uint8_t)((priority << (8U - __NVIC_PRIO_BITS)) & (uint32_t)0xFFUL);
 8000224:	4b06      	ldrlt	r3, [pc, #24]	; (8000240 <HAL_NVIC_SetPriority+0x64>)
 8000226:	f000 000f 	andlt.w	r0, r0, #15
 800022a:	b2d2      	uxtblt	r2, r2
    NVIC->IP[((uint32_t)(int32_t)IRQn)]               = (uint8_t)((priority << (8U - __NVIC_PRIO_BITS)) & (uint32_t)0xFFUL);
 800022c:	bfa5      	ittet	ge
 800022e:	b2d2      	uxtbge	r2, r2
 8000230:	f500 4061 	addge.w	r0, r0, #57600	; 0xe100
    SCB->SHP[(((uint32_t)(int32_t)IRQn) & 0xFUL)-4UL] = (uint8_t)((priority << (8U - __NVIC_PRIO_BITS)) & (uint32_t)0xFFUL);
 8000234:	541a      	strblt	r2, [r3, r0]
    NVIC->IP[((uint32_t)(int32_t)IRQn)]               = (uint8_t)((priority << (8U - __NVIC_PRIO_BITS)) & (uint32_t)0xFFUL);
 8000236:	f880 2300 	strbge.w	r2, [r0, #768]	; 0x300
 800023a:	bd30      	pop	{r4, r5, pc}
 800023c:	e000ed00 	.word	0xe000ed00
 8000240:	e000ed14 	.word	0xe000ed14

08000244 <HAL_NVIC_EnableIRQ>:
  NVIC->ISER[(((uint32_t)(int32_t)IRQn) >> 5UL)] = (uint32_t)(1UL << (((uint32_t)(int32_t)IRQn) & 0x1FUL));
 8000244:	2301      	movs	r3, #1
 8000246:	0942      	lsrs	r2, r0, #5
 8000248:	f000 001f 	and.w	r0, r0, #31
 800024c:	fa03 f000 	lsl.w	r0, r3, r0
 8000250:	4b01      	ldr	r3, [pc, #4]	; (8000258 <HAL_NVIC_EnableIRQ+0x14>)
 8000252:	f843 0022 	str.w	r0, [r3, r2, lsl #2]
 8000256:	4770      	bx	lr
 8000258:	e000e100 	.word	0xe000e100

0800025c <HAL_SYSTICK_Config>:
           function <b>SysTick_Config</b> is not included. In this case, the file <b><i>device</i>.h</b>
           must contain a vendor-specific implementation of this function.
 */
__STATIC_INLINE uint32_t SysTick_Config(uint32_t ticks)
{
  if ((ticks - 1UL) > SysTick_LOAD_RELOAD_Msk)
 800025c:	3801      	subs	r0, #1
 800025e:	f1b0 7f80 	cmp.w	r0, #16777216	; 0x1000000
 8000262:	d20a      	bcs.n	800027a <HAL_SYSTICK_Config+0x1e>
    SCB->SHP[(((uint32_t)(int32_t)IRQn) & 0xFUL)-4UL] = (uint8_t)((priority << (8U - __NVIC_PRIO_BITS)) & (uint32_t)0xFFUL);
 8000264:	21f0      	movs	r1, #240	; 0xf0
  {
    return (1UL);                                                   /* Reload value impossible */
  }

  SysTick->LOAD  = (uint32_t)(ticks - 1UL);                         /* set reload register */
 8000266:	4b06      	ldr	r3, [pc, #24]	; (8000280 <HAL_SYSTICK_Config+0x24>)
    SCB->SHP[(((uint32_t)(int32_t)IRQn) & 0xFUL)-4UL] = (uint8_t)((priority << (8U - __NVIC_PRIO_BITS)) & (uint32_t)0xFFUL);
 8000268:	4a06      	ldr	r2, [pc, #24]	; (8000284 <HAL_SYSTICK_Config+0x28>)
  SysTick->LOAD  = (uint32_t)(ticks - 1UL);                         /* set reload register */
 800026a:	6058      	str	r0, [r3, #4]
    SCB->SHP[(((uint32_t)(int32_t)IRQn) & 0xFUL)-4UL] = (uint8_t)((priority << (8U - __NVIC_PRIO_BITS)) & (uint32_t)0xFFUL);
 800026c:	f882 1023 	strb.w	r1, [r2, #35]	; 0x23
  NVIC_SetPriority (SysTick_IRQn, (1UL << __NVIC_PRIO_BITS) - 1UL); /* set Priority for Systick Interrupt */
  SysTick->VAL   = 0UL;                                             /* Load the SysTick Counter Value */
 8000270:	2000      	movs	r0, #0
  SysTick->CTRL  = SysTick_CTRL_CLKSOURCE_Msk |
 8000272:	2207      	movs	r2, #7
  SysTick->VAL   = 0UL;                                             /* Load the SysTick Counter Value */
 8000274:	6098      	str	r0, [r3, #8]
  SysTick->CTRL  = SysTick_CTRL_CLKSOURCE_Msk |
 8000276:	601a      	str	r2, [r3, #0]
 8000278:	4770      	bx	lr
    return (1UL);                                                   /* Reload value impossible */
 800027a:	2001      	movs	r0, #1
  *                  - 1  Function failed.
  */
uint32_t HAL_SYSTICK_Config(uint32_t TicksNumb)
{
   return SysTick_Config(TicksNumb);
}
 800027c:	4770      	bx	lr
 800027e:	bf00      	nop
 8000280:	e000e010 	.word	0xe000e010
 8000284:	e000ed00 	.word	0xe000ed00

08000288 <HAL_SYSTICK_CLKSourceConfig>:
  *             @arg SYSTICK_CLKSOURCE_HCLK_DIV8: AHB clock divided by 8 selected as SysTick clock source.
  *             @arg SYSTICK_CLKSOURCE_HCLK: AHB clock selected as SysTick clock source.
  * @retval None
  */
void HAL_SYSTICK_CLKSourceConfig(uint32_t CLKSource)
{
 8000288:	4b04      	ldr	r3, [pc, #16]	; (800029c <HAL_SYSTICK_CLKSourceConfig+0x14>)
  /* Check the parameters */
  assert_param(IS_SYSTICK_CLK_SOURCE(CLKSource));
  if (CLKSource == SYSTICK_CLKSOURCE_HCLK)
 800028a:	2804      	cmp	r0, #4
  {
    SysTick->CTRL |= SYSTICK_CLKSOURCE_HCLK;
 800028c:	681a      	ldr	r2, [r3, #0]
 800028e:	bf0c      	ite	eq
 8000290:	f042 0204 	orreq.w	r2, r2, #4
  }
  else
  {
    SysTick->CTRL &= ~SYSTICK_CLKSOURCE_HCLK;
 8000294:	f022 0204 	bicne.w	r2, r2, #4
 8000298:	601a      	str	r2, [r3, #0]
 800029a:	4770      	bx	lr
 800029c:	e000e010 	.word	0xe000e010

080002a0 <HAL_SYSTICK_Callback>:
/**
  * @brief  SYSTICK callback.
  * @retval None
  */
__weak void HAL_SYSTICK_Callback(void)
{
 80002a0:	4770      	bx	lr

080002a2 <HAL_SYSTICK_IRQHandler>:
{
 80002a2:	b508      	push	{r3, lr}
  HAL_SYSTICK_Callback();
 80002a4:	f7ff fffc 	bl	80002a0 <HAL_SYSTICK_Callback>
 80002a8:	bd08      	pop	{r3, pc}
	...

080002ac <HAL_RCC_OscConfig>:
  /* Check the parameters */
  assert_param(RCC_OscInitStruct != NULL);
  assert_param(IS_RCC_OSCILLATORTYPE(RCC_OscInitStruct->OscillatorType));
  
  /*------------------------------- HSE Configuration ------------------------*/ 
  if(((RCC_OscInitStruct->OscillatorType) & RCC_OSCILLATORTYPE_HSE) == RCC_OSCILLATORTYPE_HSE)
 80002ac:	6803      	ldr	r3, [r0, #0]
{
 80002ae:	e92d 41f3 	stmdb	sp!, {r0, r1, r4, r5, r6, r7, r8, lr}
  if(((RCC_OscInitStruct->OscillatorType) & RCC_OSCILLATORTYPE_HSE) == RCC_OSCILLATORTYPE_HSE)
 80002b2:	07db      	lsls	r3, r3, #31
{
 80002b4:	4605      	mov	r5, r0
  if(((RCC_OscInitStruct->OscillatorType) & RCC_OSCILLATORTYPE_HSE) == RCC_OSCILLATORTYPE_HSE)
 80002b6:	d410      	bmi.n	80002da <HAL_RCC_OscConfig+0x2e>
        }
      }
    }
  }
  /*----------------------------- HSI Configuration --------------------------*/ 
  if(((RCC_OscInitStruct->OscillatorType) & RCC_OSCILLATORTYPE_HSI) == RCC_OSCILLATORTYPE_HSI)
 80002b8:	682b      	ldr	r3, [r5, #0]
 80002ba:	079f      	lsls	r7, r3, #30
 80002bc:	d45e      	bmi.n	800037c <HAL_RCC_OscConfig+0xd0>
        }
      }
    }
  }
  /*------------------------------ LSI Configuration -------------------------*/ 
  if(((RCC_OscInitStruct->OscillatorType) & RCC_OSCILLATORTYPE_LSI) == RCC_OSCILLATORTYPE_LSI)
 80002be:	682b      	ldr	r3, [r5, #0]
 80002c0:	0719      	lsls	r1, r3, #28
 80002c2:	f100 8095 	bmi.w	80003f0 <HAL_RCC_OscConfig+0x144>
        }
      }
    }
  }
  /*------------------------------ LSE Configuration -------------------------*/ 
  if(((RCC_OscInitStruct->OscillatorType) & RCC_OSCILLATORTYPE_LSE) == RCC_OSCILLATORTYPE_LSE)
 80002c6:	682b      	ldr	r3, [r5, #0]
 80002c8:	075a      	lsls	r2, r3, #29
 80002ca:	f100 80bf 	bmi.w	800044c <HAL_RCC_OscConfig+0x1a0>

#endif /* RCC_CR_PLL2ON */
  /*-------------------------------- PLL Configuration -----------------------*/
  /* Check the parameters */
  assert_param(IS_RCC_PLL(RCC_OscInitStruct->PLL.PLLState));
  if ((RCC_OscInitStruct->PLL.PLLState) != RCC_PLL_NONE)
 80002ce:	69ea      	ldr	r2, [r5, #28]
 80002d0:	2a00      	cmp	r2, #0
 80002d2:	f040 812d 	bne.w	8000530 <HAL_RCC_OscConfig+0x284>
    {
      return HAL_ERROR;
    }
  }
  
  return HAL_OK;
 80002d6:	2000      	movs	r0, #0
 80002d8:	e014      	b.n	8000304 <HAL_RCC_OscConfig+0x58>
    if((__HAL_RCC_GET_SYSCLK_SOURCE() == RCC_SYSCLKSOURCE_STATUS_HSE) 
 80002da:	4c90      	ldr	r4, [pc, #576]	; (800051c <HAL_RCC_OscConfig+0x270>)
 80002dc:	6863      	ldr	r3, [r4, #4]
 80002de:	f003 030c 	and.w	r3, r3, #12
 80002e2:	2b04      	cmp	r3, #4
 80002e4:	d007      	beq.n	80002f6 <HAL_RCC_OscConfig+0x4a>
       || ((__HAL_RCC_GET_SYSCLK_SOURCE() == RCC_SYSCLKSOURCE_STATUS_PLLCLK) && (__HAL_RCC_GET_PLL_OSCSOURCE() == RCC_PLLSOURCE_HSE)))
 80002e6:	6863      	ldr	r3, [r4, #4]
 80002e8:	f003 030c 	and.w	r3, r3, #12
 80002ec:	2b08      	cmp	r3, #8
 80002ee:	d10c      	bne.n	800030a <HAL_RCC_OscConfig+0x5e>
 80002f0:	6863      	ldr	r3, [r4, #4]
 80002f2:	03de      	lsls	r6, r3, #15
 80002f4:	d509      	bpl.n	800030a <HAL_RCC_OscConfig+0x5e>
      if((__HAL_RCC_GET_FLAG(RCC_FLAG_HSERDY) != RESET) && (RCC_OscInitStruct->HSEState == RCC_HSE_OFF))
 80002f6:	6823      	ldr	r3, [r4, #0]
 80002f8:	039c      	lsls	r4, r3, #14
 80002fa:	d5dd      	bpl.n	80002b8 <HAL_RCC_OscConfig+0xc>
 80002fc:	686b      	ldr	r3, [r5, #4]
 80002fe:	2b00      	cmp	r3, #0
 8000300:	d1da      	bne.n	80002b8 <HAL_RCC_OscConfig+0xc>
        return HAL_ERROR;
 8000302:	2001      	movs	r0, #1
}
 8000304:	b002      	add	sp, #8
 8000306:	e8bd 81f0 	ldmia.w	sp!, {r4, r5, r6, r7, r8, pc}
      __HAL_RCC_HSE_CONFIG(RCC_OscInitStruct->HSEState);
 800030a:	686b      	ldr	r3, [r5, #4]
 800030c:	f5b3 3f80 	cmp.w	r3, #65536	; 0x10000
 8000310:	d110      	bne.n	8000334 <HAL_RCC_OscConfig+0x88>
 8000312:	6823      	ldr	r3, [r4, #0]
 8000314:	f443 3380 	orr.w	r3, r3, #65536	; 0x10000
 8000318:	6023      	str	r3, [r4, #0]
        tickstart = HAL_GetTick();
 800031a:	f7ff ff35 	bl	8000188 <HAL_GetTick>
 800031e:	4606      	mov	r6, r0
        while(__HAL_RCC_GET_FLAG(RCC_FLAG_HSERDY) == RESET)
 8000320:	6823      	ldr	r3, [r4, #0]
 8000322:	0398      	lsls	r0, r3, #14
 8000324:	d4c8      	bmi.n	80002b8 <HAL_RCC_OscConfig+0xc>
          if((HAL_GetTick() - tickstart ) > HSE_TIMEOUT_VALUE)
 8000326:	f7ff ff2f 	bl	8000188 <HAL_GetTick>
 800032a:	1b80      	subs	r0, r0, r6
 800032c:	2864      	cmp	r0, #100	; 0x64
 800032e:	d9f7      	bls.n	8000320 <HAL_RCC_OscConfig+0x74>
            return HAL_TIMEOUT;
 8000330:	2003      	movs	r0, #3
 8000332:	e7e7      	b.n	8000304 <HAL_RCC_OscConfig+0x58>
      __HAL_RCC_HSE_CONFIG(RCC_OscInitStruct->HSEState);
 8000334:	b99b      	cbnz	r3, 800035e <HAL_RCC_OscConfig+0xb2>
 8000336:	6823      	ldr	r3, [r4, #0]
 8000338:	f423 3380 	bic.w	r3, r3, #65536	; 0x10000
 800033c:	6023      	str	r3, [r4, #0]
 800033e:	6823      	ldr	r3, [r4, #0]
 8000340:	f423 2380 	bic.w	r3, r3, #262144	; 0x40000
 8000344:	6023      	str	r3, [r4, #0]
        tickstart = HAL_GetTick();
 8000346:	f7ff ff1f 	bl	8000188 <HAL_GetTick>
 800034a:	4606      	mov	r6, r0
        while(__HAL_RCC_GET_FLAG(RCC_FLAG_HSERDY) != RESET)
 800034c:	6823      	ldr	r3, [r4, #0]
 800034e:	0399      	lsls	r1, r3, #14
 8000350:	d5b2      	bpl.n	80002b8 <HAL_RCC_OscConfig+0xc>
           if((HAL_GetTick() - tickstart ) > HSE_TIMEOUT_VALUE)
 8000352:	f7ff ff19 	bl	8000188 <HAL_GetTick>
 8000356:	1b80      	subs	r0, r0, r6
 8000358:	2864      	cmp	r0, #100	; 0x64
 800035a:	d9f7      	bls.n	800034c <HAL_RCC_OscConfig+0xa0>
 800035c:	e7e8      	b.n	8000330 <HAL_RCC_OscConfig+0x84>
      __HAL_RCC_HSE_CONFIG(RCC_OscInitStruct->HSEState);
 800035e:	f5b3 2fa0 	cmp.w	r3, #327680	; 0x50000
 8000362:	6823      	ldr	r3, [r4, #0]
 8000364:	d103      	bne.n	800036e <HAL_RCC_OscConfig+0xc2>
 8000366:	f443 2380 	orr.w	r3, r3, #262144	; 0x40000
 800036a:	6023      	str	r3, [r4, #0]
 800036c:	e7d1      	b.n	8000312 <HAL_RCC_OscConfig+0x66>
 800036e:	f423 3380 	bic.w	r3, r3, #65536	; 0x10000
 8000372:	6023      	str	r3, [r4, #0]
 8000374:	6823      	ldr	r3, [r4, #0]
 8000376:	f423 2380 	bic.w	r3, r3, #262144	; 0x40000
 800037a:	e7cd      	b.n	8000318 <HAL_RCC_OscConfig+0x6c>
    if((__HAL_RCC_GET_SYSCLK_SOURCE() == RCC_SYSCLKSOURCE_STATUS_HSI) 
 800037c:	4c67      	ldr	r4, [pc, #412]	; (800051c <HAL_RCC_OscConfig+0x270>)
 800037e:	6863      	ldr	r3, [r4, #4]
 8000380:	f013 0f0c 	tst.w	r3, #12
 8000384:	d007      	beq.n	8000396 <HAL_RCC_OscConfig+0xea>
       || ((__HAL_RCC_GET_SYSCLK_SOURCE() == RCC_SYSCLKSOURCE_STATUS_PLLCLK) && (__HAL_RCC_GET_PLL_OSCSOURCE() == RCC_PLLSOURCE_HSI_DIV2)))
 8000386:	6863      	ldr	r3, [r4, #4]
 8000388:	f003 030c 	and.w	r3, r3, #12
 800038c:	2b08      	cmp	r3, #8
 800038e:	d110      	bne.n	80003b2 <HAL_RCC_OscConfig+0x106>
 8000390:	6863      	ldr	r3, [r4, #4]
 8000392:	03da      	lsls	r2, r3, #15
 8000394:	d40d      	bmi.n	80003b2 <HAL_RCC_OscConfig+0x106>
      if((__HAL_RCC_GET_FLAG(RCC_FLAG_HSIRDY) != RESET) && (RCC_OscInitStruct->HSIState != RCC_HSI_ON))
 8000396:	6823      	ldr	r3, [r4, #0]
 8000398:	079b      	lsls	r3, r3, #30
 800039a:	d502      	bpl.n	80003a2 <HAL_RCC_OscConfig+0xf6>
 800039c:	692b      	ldr	r3, [r5, #16]
 800039e:	2b01      	cmp	r3, #1
 80003a0:	d1af      	bne.n	8000302 <HAL_RCC_OscConfig+0x56>
        __HAL_RCC_HSI_CALIBRATIONVALUE_ADJUST(RCC_OscInitStruct->HSICalibrationValue);
 80003a2:	6823      	ldr	r3, [r4, #0]
 80003a4:	696a      	ldr	r2, [r5, #20]
 80003a6:	f023 03f8 	bic.w	r3, r3, #248	; 0xf8
 80003aa:	ea43 03c2 	orr.w	r3, r3, r2, lsl #3
 80003ae:	6023      	str	r3, [r4, #0]
 80003b0:	e785      	b.n	80002be <HAL_RCC_OscConfig+0x12>
      if(RCC_OscInitStruct->HSIState != RCC_HSI_OFF)
 80003b2:	692a      	ldr	r2, [r5, #16]
 80003b4:	4b5a      	ldr	r3, [pc, #360]	; (8000520 <HAL_RCC_OscConfig+0x274>)
 80003b6:	b16a      	cbz	r2, 80003d4 <HAL_RCC_OscConfig+0x128>
        __HAL_RCC_HSI_ENABLE();
 80003b8:	2201      	movs	r2, #1
 80003ba:	601a      	str	r2, [r3, #0]
        tickstart = HAL_GetTick();
 80003bc:	f7ff fee4 	bl	8000188 <HAL_GetTick>
 80003c0:	4606      	mov	r6, r0
        while(__HAL_RCC_GET_FLAG(RCC_FLAG_HSIRDY) == RESET)
 80003c2:	6823      	ldr	r3, [r4, #0]
 80003c4:	079f      	lsls	r7, r3, #30
 80003c6:	d4ec      	bmi.n	80003a2 <HAL_RCC_OscConfig+0xf6>
          if((HAL_GetTick() - tickstart ) > HSI_TIMEOUT_VALUE)
 80003c8:	f7ff fede 	bl	8000188 <HAL_GetTick>
 80003cc:	1b80      	subs	r0, r0, r6
 80003ce:	2802      	cmp	r0, #2
 80003d0:	d9f7      	bls.n	80003c2 <HAL_RCC_OscConfig+0x116>
 80003d2:	e7ad      	b.n	8000330 <HAL_RCC_OscConfig+0x84>
        __HAL_RCC_HSI_DISABLE();
 80003d4:	601a      	str	r2, [r3, #0]
        tickstart = HAL_GetTick();
 80003d6:	f7ff fed7 	bl	8000188 <HAL_GetTick>
 80003da:	4606      	mov	r6, r0
        while(__HAL_RCC_GET_FLAG(RCC_FLAG_HSIRDY) != RESET)
 80003dc:	6823      	ldr	r3, [r4, #0]
 80003de:	0798      	lsls	r0, r3, #30
 80003e0:	f57f af6d 	bpl.w	80002be <HAL_RCC_OscConfig+0x12>
          if((HAL_GetTick() - tickstart ) > HSI_TIMEOUT_VALUE)
 80003e4:	f7ff fed0 	bl	8000188 <HAL_GetTick>
 80003e8:	1b80      	subs	r0, r0, r6
 80003ea:	2802      	cmp	r0, #2
 80003ec:	d9f6      	bls.n	80003dc <HAL_RCC_OscConfig+0x130>
 80003ee:	e79f      	b.n	8000330 <HAL_RCC_OscConfig+0x84>
    if(RCC_OscInitStruct->LSIState != RCC_LSI_OFF)
 80003f0:	69aa      	ldr	r2, [r5, #24]
 80003f2:	4c4a      	ldr	r4, [pc, #296]	; (800051c <HAL_RCC_OscConfig+0x270>)
 80003f4:	4b4b      	ldr	r3, [pc, #300]	; (8000524 <HAL_RCC_OscConfig+0x278>)
 80003f6:	b1da      	cbz	r2, 8000430 <HAL_RCC_OscConfig+0x184>
      __HAL_RCC_LSI_ENABLE();
 80003f8:	2201      	movs	r2, #1
 80003fa:	601a      	str	r2, [r3, #0]
      tickstart = HAL_GetTick();
 80003fc:	f7ff fec4 	bl	8000188 <HAL_GetTick>
 8000400:	4606      	mov	r6, r0
      while(__HAL_RCC_GET_FLAG(RCC_FLAG_LSIRDY) == RESET)
 8000402:	6a63      	ldr	r3, [r4, #36]	; 0x24
 8000404:	079b      	lsls	r3, r3, #30
 8000406:	d50d      	bpl.n	8000424 <HAL_RCC_OscConfig+0x178>
  * @param  mdelay: specifies the delay time length, in milliseconds.
  * @retval None
  */
static void RCC_Delay(uint32_t mdelay)
{
  __IO uint32_t Delay = mdelay * (SystemCoreClock / 8U / 1000U);
 8000408:	f44f 52fa 	mov.w	r2, #8000	; 0x1f40
 800040c:	4b46      	ldr	r3, [pc, #280]	; (8000528 <HAL_RCC_OscConfig+0x27c>)
 800040e:	681b      	ldr	r3, [r3, #0]
 8000410:	fbb3 f3f2 	udiv	r3, r3, r2
 8000414:	9301      	str	r3, [sp, #4]
  \brief   No Operation
  \details No Operation does nothing. This instruction can be used for code alignment purposes.
 */
__attribute__((always_inline)) __STATIC_INLINE void __NOP(void)
{
  __ASM volatile ("nop");
 8000416:	bf00      	nop
  do 
  {
    __NOP();
  } 
  while (Delay --);
 8000418:	9b01      	ldr	r3, [sp, #4]
 800041a:	1e5a      	subs	r2, r3, #1
 800041c:	9201      	str	r2, [sp, #4]
 800041e:	2b00      	cmp	r3, #0
 8000420:	d1f9      	bne.n	8000416 <HAL_RCC_OscConfig+0x16a>
 8000422:	e750      	b.n	80002c6 <HAL_RCC_OscConfig+0x1a>
        if((HAL_GetTick() - tickstart ) > LSI_TIMEOUT_VALUE)
 8000424:	f7ff feb0 	bl	8000188 <HAL_GetTick>
 8000428:	1b80      	subs	r0, r0, r6
 800042a:	2802      	cmp	r0, #2
 800042c:	d9e9      	bls.n	8000402 <HAL_RCC_OscConfig+0x156>
 800042e:	e77f      	b.n	8000330 <HAL_RCC_OscConfig+0x84>
      __HAL_RCC_LSI_DISABLE();
 8000430:	601a      	str	r2, [r3, #0]
      tickstart = HAL_GetTick();
 8000432:	f7ff fea9 	bl	8000188 <HAL_GetTick>
 8000436:	4606      	mov	r6, r0
      while(__HAL_RCC_GET_FLAG(RCC_FLAG_LSIRDY) != RESET)
 8000438:	6a63      	ldr	r3, [r4, #36]	; 0x24
 800043a:	079f      	lsls	r7, r3, #30
 800043c:	f57f af43 	bpl.w	80002c6 <HAL_RCC_OscConfig+0x1a>
        if((HAL_GetTick() - tickstart ) > LSI_TIMEOUT_VALUE)
 8000440:	f7ff fea2 	bl	8000188 <HAL_GetTick>
 8000444:	1b80      	subs	r0, r0, r6
 8000446:	2802      	cmp	r0, #2
 8000448:	d9f6      	bls.n	8000438 <HAL_RCC_OscConfig+0x18c>
 800044a:	e771      	b.n	8000330 <HAL_RCC_OscConfig+0x84>
    if(__HAL_RCC_PWR_IS_CLK_DISABLED())
 800044c:	4c33      	ldr	r4, [pc, #204]	; (800051c <HAL_RCC_OscConfig+0x270>)
 800044e:	69e3      	ldr	r3, [r4, #28]
 8000450:	00d8      	lsls	r0, r3, #3
 8000452:	d424      	bmi.n	800049e <HAL_RCC_OscConfig+0x1f2>
      pwrclkchanged = SET;
 8000454:	2701      	movs	r7, #1
      __HAL_RCC_PWR_CLK_ENABLE();
 8000456:	69e3      	ldr	r3, [r4, #28]
 8000458:	f043 5380 	orr.w	r3, r3, #268435456	; 0x10000000
 800045c:	61e3      	str	r3, [r4, #28]
 800045e:	69e3      	ldr	r3, [r4, #28]
 8000460:	f003 5380 	and.w	r3, r3, #268435456	; 0x10000000
 8000464:	9300      	str	r3, [sp, #0]
 8000466:	9b00      	ldr	r3, [sp, #0]
    if(HAL_IS_BIT_CLR(PWR->CR, PWR_CR_DBP))
 8000468:	4e30      	ldr	r6, [pc, #192]	; (800052c <HAL_RCC_OscConfig+0x280>)
 800046a:	6833      	ldr	r3, [r6, #0]
 800046c:	05d9      	lsls	r1, r3, #23
 800046e:	d518      	bpl.n	80004a2 <HAL_RCC_OscConfig+0x1f6>
    __HAL_RCC_LSE_CONFIG(RCC_OscInitStruct->LSEState);
 8000470:	68eb      	ldr	r3, [r5, #12]
 8000472:	2b01      	cmp	r3, #1
 8000474:	d126      	bne.n	80004c4 <HAL_RCC_OscConfig+0x218>
 8000476:	6a23      	ldr	r3, [r4, #32]
 8000478:	f043 0301 	orr.w	r3, r3, #1
 800047c:	6223      	str	r3, [r4, #32]
      tickstart = HAL_GetTick();
 800047e:	f7ff fe83 	bl	8000188 <HAL_GetTick>
        if((HAL_GetTick() - tickstart ) > RCC_LSE_TIMEOUT_VALUE)
 8000482:	f241 3688 	movw	r6, #5000	; 0x1388
      tickstart = HAL_GetTick();
 8000486:	4680      	mov	r8, r0
      while(__HAL_RCC_GET_FLAG(RCC_FLAG_LSERDY) == RESET)
 8000488:	6a23      	ldr	r3, [r4, #32]
 800048a:	079b      	lsls	r3, r3, #30
 800048c:	d53f      	bpl.n	800050e <HAL_RCC_OscConfig+0x262>
    if(pwrclkchanged == SET)
 800048e:	2f00      	cmp	r7, #0
 8000490:	f43f af1d 	beq.w	80002ce <HAL_RCC_OscConfig+0x22>
      __HAL_RCC_PWR_CLK_DISABLE();
 8000494:	69e3      	ldr	r3, [r4, #28]
 8000496:	f023 5380 	bic.w	r3, r3, #268435456	; 0x10000000
 800049a:	61e3      	str	r3, [r4, #28]
 800049c:	e717      	b.n	80002ce <HAL_RCC_OscConfig+0x22>
    FlagStatus       pwrclkchanged = RESET;
 800049e:	2700      	movs	r7, #0
 80004a0:	e7e2      	b.n	8000468 <HAL_RCC_OscConfig+0x1bc>
      SET_BIT(PWR->CR, PWR_CR_DBP);
 80004a2:	6833      	ldr	r3, [r6, #0]
 80004a4:	f443 7380 	orr.w	r3, r3, #256	; 0x100
 80004a8:	6033      	str	r3, [r6, #0]
      tickstart = HAL_GetTick();
 80004aa:	f7ff fe6d 	bl	8000188 <HAL_GetTick>
 80004ae:	4680      	mov	r8, r0
      while(HAL_IS_BIT_CLR(PWR->CR, PWR_CR_DBP))
 80004b0:	6833      	ldr	r3, [r6, #0]
 80004b2:	05da      	lsls	r2, r3, #23
 80004b4:	d4dc      	bmi.n	8000470 <HAL_RCC_OscConfig+0x1c4>
        if((HAL_GetTick() - tickstart) > RCC_DBP_TIMEOUT_VALUE)
 80004b6:	f7ff fe67 	bl	8000188 <HAL_GetTick>
 80004ba:	eba0 0008 	sub.w	r0, r0, r8
 80004be:	2864      	cmp	r0, #100	; 0x64
 80004c0:	d9f6      	bls.n	80004b0 <HAL_RCC_OscConfig+0x204>
 80004c2:	e735      	b.n	8000330 <HAL_RCC_OscConfig+0x84>
    __HAL_RCC_LSE_CONFIG(RCC_OscInitStruct->LSEState);
 80004c4:	b9ab      	cbnz	r3, 80004f2 <HAL_RCC_OscConfig+0x246>
 80004c6:	6a23      	ldr	r3, [r4, #32]
        if((HAL_GetTick() - tickstart ) > RCC_LSE_TIMEOUT_VALUE)
 80004c8:	f241 3888 	movw	r8, #5000	; 0x1388
    __HAL_RCC_LSE_CONFIG(RCC_OscInitStruct->LSEState);
 80004cc:	f023 0301 	bic.w	r3, r3, #1
 80004d0:	6223      	str	r3, [r4, #32]
 80004d2:	6a23      	ldr	r3, [r4, #32]
 80004d4:	f023 0304 	bic.w	r3, r3, #4
 80004d8:	6223      	str	r3, [r4, #32]
      tickstart = HAL_GetTick();
 80004da:	f7ff fe55 	bl	8000188 <HAL_GetTick>
 80004de:	4606      	mov	r6, r0
      while(__HAL_RCC_GET_FLAG(RCC_FLAG_LSERDY) != RESET)
 80004e0:	6a23      	ldr	r3, [r4, #32]
 80004e2:	0798      	lsls	r0, r3, #30
 80004e4:	d5d3      	bpl.n	800048e <HAL_RCC_OscConfig+0x1e2>
        if((HAL_GetTick() - tickstart ) > RCC_LSE_TIMEOUT_VALUE)
 80004e6:	f7ff fe4f 	bl	8000188 <HAL_GetTick>
 80004ea:	1b80      	subs	r0, r0, r6
 80004ec:	4540      	cmp	r0, r8
 80004ee:	d9f7      	bls.n	80004e0 <HAL_RCC_OscConfig+0x234>
 80004f0:	e71e      	b.n	8000330 <HAL_RCC_OscConfig+0x84>
    __HAL_RCC_LSE_CONFIG(RCC_OscInitStruct->LSEState);
 80004f2:	2b05      	cmp	r3, #5
 80004f4:	6a23      	ldr	r3, [r4, #32]
 80004f6:	d103      	bne.n	8000500 <HAL_RCC_OscConfig+0x254>
 80004f8:	f043 0304 	orr.w	r3, r3, #4
 80004fc:	6223      	str	r3, [r4, #32]
 80004fe:	e7ba      	b.n	8000476 <HAL_RCC_OscConfig+0x1ca>
 8000500:	f023 0301 	bic.w	r3, r3, #1
 8000504:	6223      	str	r3, [r4, #32]
 8000506:	6a23      	ldr	r3, [r4, #32]
 8000508:	f023 0304 	bic.w	r3, r3, #4
 800050c:	e7b6      	b.n	800047c <HAL_RCC_OscConfig+0x1d0>
        if((HAL_GetTick() - tickstart ) > RCC_LSE_TIMEOUT_VALUE)
 800050e:	f7ff fe3b 	bl	8000188 <HAL_GetTick>
 8000512:	eba0 0008 	sub.w	r0, r0, r8
 8000516:	42b0      	cmp	r0, r6
 8000518:	d9b6      	bls.n	8000488 <HAL_RCC_OscConfig+0x1dc>
 800051a:	e709      	b.n	8000330 <HAL_RCC_OscConfig+0x84>
 800051c:	40021000 	.word	0x40021000
 8000520:	42420000 	.word	0x42420000
 8000524:	42420480 	.word	0x42420480
 8000528:	2000006c 	.word	0x2000006c
 800052c:	40007000 	.word	0x40007000
    if(__HAL_RCC_GET_SYSCLK_SOURCE() != RCC_SYSCLKSOURCE_STATUS_PLLCLK)
 8000530:	4c22      	ldr	r4, [pc, #136]	; (80005bc <HAL_RCC_OscConfig+0x310>)
 8000532:	6863      	ldr	r3, [r4, #4]
 8000534:	f003 030c 	and.w	r3, r3, #12
 8000538:	2b08      	cmp	r3, #8
 800053a:	f43f aee2 	beq.w	8000302 <HAL_RCC_OscConfig+0x56>
 800053e:	2300      	movs	r3, #0
 8000540:	4e1f      	ldr	r6, [pc, #124]	; (80005c0 <HAL_RCC_OscConfig+0x314>)
      if((RCC_OscInitStruct->PLL.PLLState) == RCC_PLL_ON)
 8000542:	2a02      	cmp	r2, #2
        __HAL_RCC_PLL_DISABLE();
 8000544:	6033      	str	r3, [r6, #0]
      if((RCC_OscInitStruct->PLL.PLLState) == RCC_PLL_ON)
 8000546:	d12b      	bne.n	80005a0 <HAL_RCC_OscConfig+0x2f4>
        tickstart = HAL_GetTick();
 8000548:	f7ff fe1e 	bl	8000188 <HAL_GetTick>
 800054c:	4607      	mov	r7, r0
        while(__HAL_RCC_GET_FLAG(RCC_FLAG_PLLRDY)  != RESET)
 800054e:	6823      	ldr	r3, [r4, #0]
 8000550:	0199      	lsls	r1, r3, #6
 8000552:	d41f      	bmi.n	8000594 <HAL_RCC_OscConfig+0x2e8>
        if(RCC_OscInitStruct->PLL.PLLSource == RCC_PLLSOURCE_HSE)
 8000554:	6a2b      	ldr	r3, [r5, #32]
 8000556:	f5b3 3f80 	cmp.w	r3, #65536	; 0x10000
 800055a:	d105      	bne.n	8000568 <HAL_RCC_OscConfig+0x2bc>
          __HAL_RCC_HSE_PREDIV_CONFIG(RCC_OscInitStruct->HSEPredivValue);
 800055c:	6862      	ldr	r2, [r4, #4]
 800055e:	68a9      	ldr	r1, [r5, #8]
 8000560:	f422 3200 	bic.w	r2, r2, #131072	; 0x20000
 8000564:	430a      	orrs	r2, r1
 8000566:	6062      	str	r2, [r4, #4]
        __HAL_RCC_PLL_CONFIG(RCC_OscInitStruct->PLL.PLLSource,
 8000568:	6a69      	ldr	r1, [r5, #36]	; 0x24
 800056a:	6862      	ldr	r2, [r4, #4]
 800056c:	430b      	orrs	r3, r1
 800056e:	f422 1274 	bic.w	r2, r2, #3997696	; 0x3d0000
 8000572:	4313      	orrs	r3, r2
 8000574:	6063      	str	r3, [r4, #4]
        __HAL_RCC_PLL_ENABLE();
 8000576:	2301      	movs	r3, #1
 8000578:	6033      	str	r3, [r6, #0]
        tickstart = HAL_GetTick();
 800057a:	f7ff fe05 	bl	8000188 <HAL_GetTick>
 800057e:	4605      	mov	r5, r0
        while(__HAL_RCC_GET_FLAG(RCC_FLAG_PLLRDY)  == RESET)
 8000580:	6823      	ldr	r3, [r4, #0]
 8000582:	019a      	lsls	r2, r3, #6
 8000584:	f53f aea7 	bmi.w	80002d6 <HAL_RCC_OscConfig+0x2a>
          if((HAL_GetTick() - tickstart ) > PLL_TIMEOUT_VALUE)
 8000588:	f7ff fdfe 	bl	8000188 <HAL_GetTick>
 800058c:	1b40      	subs	r0, r0, r5
 800058e:	2802      	cmp	r0, #2
 8000590:	d9f6      	bls.n	8000580 <HAL_RCC_OscConfig+0x2d4>
 8000592:	e6cd      	b.n	8000330 <HAL_RCC_OscConfig+0x84>
          if((HAL_GetTick() - tickstart ) > PLL_TIMEOUT_VALUE)
 8000594:	f7ff fdf8 	bl	8000188 <HAL_GetTick>
 8000598:	1bc0      	subs	r0, r0, r7
 800059a:	2802      	cmp	r0, #2
 800059c:	d9d7      	bls.n	800054e <HAL_RCC_OscConfig+0x2a2>
 800059e:	e6c7      	b.n	8000330 <HAL_RCC_OscConfig+0x84>
        tickstart = HAL_GetTick();
 80005a0:	f7ff fdf2 	bl	8000188 <HAL_GetTick>
 80005a4:	4605      	mov	r5, r0
        while(__HAL_RCC_GET_FLAG(RCC_FLAG_PLLRDY)  != RESET)
 80005a6:	6823      	ldr	r3, [r4, #0]
 80005a8:	019b      	lsls	r3, r3, #6
 80005aa:	f57f ae94 	bpl.w	80002d6 <HAL_RCC_OscConfig+0x2a>
          if((HAL_GetTick() - tickstart ) > PLL_TIMEOUT_VALUE)
 80005ae:	f7ff fdeb 	bl	8000188 <HAL_GetTick>
 80005b2:	1b40      	subs	r0, r0, r5
 80005b4:	2802      	cmp	r0, #2
 80005b6:	d9f6      	bls.n	80005a6 <HAL_RCC_OscConfig+0x2fa>
 80005b8:	e6ba      	b.n	8000330 <HAL_RCC_OscConfig+0x84>
 80005ba:	bf00      	nop
 80005bc:	40021000 	.word	0x40021000
 80005c0:	42420060 	.word	0x42420060

080005c4 <HAL_RCC_GetSysClockFreq>:
{
 80005c4:	b530      	push	{r4, r5, lr}
  const uint8_t aPLLMULFactorTable[16] = {2, 3, 4, 5, 6, 7, 8, 9, 10, 11, 12, 13, 14, 15, 16, 16};
 80005c6:	4b19      	ldr	r3, [pc, #100]	; (800062c <HAL_RCC_GetSysClockFreq+0x68>)
{
 80005c8:	b087      	sub	sp, #28
  const uint8_t aPLLMULFactorTable[16] = {2, 3, 4, 5, 6, 7, 8, 9, 10, 11, 12, 13, 14, 15, 16, 16};
 80005ca:	ac02      	add	r4, sp, #8
 80005cc:	f103 0510 	add.w	r5, r3, #16
 80005d0:	4622      	mov	r2, r4
 80005d2:	6818      	ldr	r0, [r3, #0]
 80005d4:	6859      	ldr	r1, [r3, #4]
 80005d6:	3308      	adds	r3, #8
 80005d8:	c203      	stmia	r2!, {r0, r1}
 80005da:	42ab      	cmp	r3, r5
 80005dc:	4614      	mov	r4, r2
 80005de:	d1f7      	bne.n	80005d0 <HAL_RCC_GetSysClockFreq+0xc>
  const uint8_t aPredivFactorTable[2] = {1, 2};
 80005e0:	2301      	movs	r3, #1
 80005e2:	f88d 3004 	strb.w	r3, [sp, #4]
 80005e6:	2302      	movs	r3, #2
  tmpreg = RCC->CFGR;
 80005e8:	4911      	ldr	r1, [pc, #68]	; (8000630 <HAL_RCC_GetSysClockFreq+0x6c>)
  const uint8_t aPredivFactorTable[2] = {1, 2};
 80005ea:	f88d 3005 	strb.w	r3, [sp, #5]
  tmpreg = RCC->CFGR;
 80005ee:	684b      	ldr	r3, [r1, #4]
  switch (tmpreg & RCC_CFGR_SWS)
 80005f0:	f003 020c 	and.w	r2, r3, #12
 80005f4:	2a08      	cmp	r2, #8
 80005f6:	d117      	bne.n	8000628 <HAL_RCC_GetSysClockFreq+0x64>
      pllmul = aPLLMULFactorTable[(uint32_t)(tmpreg & RCC_CFGR_PLLMULL) >> RCC_CFGR_PLLMULL_Pos];
 80005f8:	f3c3 4283 	ubfx	r2, r3, #18, #4
 80005fc:	a806      	add	r0, sp, #24
 80005fe:	4402      	add	r2, r0
      if ((tmpreg & RCC_CFGR_PLLSRC) != RCC_PLLSOURCE_HSI_DIV2)
 8000600:	03db      	lsls	r3, r3, #15
      pllmul = aPLLMULFactorTable[(uint32_t)(tmpreg & RCC_CFGR_PLLMULL) >> RCC_CFGR_PLLMULL_Pos];
 8000602:	f812 2c10 	ldrb.w	r2, [r2, #-16]
      if ((tmpreg & RCC_CFGR_PLLSRC) != RCC_PLLSOURCE_HSI_DIV2)
 8000606:	d50c      	bpl.n	8000622 <HAL_RCC_GetSysClockFreq+0x5e>
        prediv = aPredivFactorTable[(uint32_t)(RCC->CFGR & RCC_CFGR_PLLXTPRE) >> RCC_CFGR_PLLXTPRE_Pos];
 8000608:	684b      	ldr	r3, [r1, #4]
        pllclk = (uint32_t)((HSE_VALUE  * pllmul) / prediv);
 800060a:	480a      	ldr	r0, [pc, #40]	; (8000634 <HAL_RCC_GetSysClockFreq+0x70>)
        prediv = aPredivFactorTable[(uint32_t)(RCC->CFGR & RCC_CFGR_PLLXTPRE) >> RCC_CFGR_PLLXTPRE_Pos];
 800060c:	f3c3 4340 	ubfx	r3, r3, #17, #1
        pllclk = (uint32_t)((HSE_VALUE  * pllmul) / prediv);
 8000610:	4350      	muls	r0, r2
        prediv = aPredivFactorTable[(uint32_t)(RCC->CFGR & RCC_CFGR_PLLXTPRE) >> RCC_CFGR_PLLXTPRE_Pos];
 8000612:	aa06      	add	r2, sp, #24
 8000614:	4413      	add	r3, r2
 8000616:	f813 3c14 	ldrb.w	r3, [r3, #-20]
        pllclk = (uint32_t)((HSE_VALUE  * pllmul) / prediv);
 800061a:	fbb0 f0f3 	udiv	r0, r0, r3
}
 800061e:	b007      	add	sp, #28
 8000620:	bd30      	pop	{r4, r5, pc}
        pllclk = (uint32_t)((HSI_VALUE >> 1) * pllmul);
 8000622:	4805      	ldr	r0, [pc, #20]	; (8000638 <HAL_RCC_GetSysClockFreq+0x74>)
 8000624:	4350      	muls	r0, r2
 8000626:	e7fa      	b.n	800061e <HAL_RCC_GetSysClockFreq+0x5a>
      sysclockfreq = HSE_VALUE;
 8000628:	4802      	ldr	r0, [pc, #8]	; (8000634 <HAL_RCC_GetSysClockFreq+0x70>)
  return sysclockfreq;
 800062a:	e7f8      	b.n	800061e <HAL_RCC_GetSysClockFreq+0x5a>
 800062c:	080032b0 	.word	0x080032b0
 8000630:	40021000 	.word	0x40021000
 8000634:	007a1200 	.word	0x007a1200
 8000638:	003d0900 	.word	0x003d0900

0800063c <HAL_RCC_ClockConfig>:
  if(FLatency > (FLASH->ACR & FLASH_ACR_LATENCY))
 800063c:	4a4d      	ldr	r2, [pc, #308]	; (8000774 <HAL_RCC_ClockConfig+0x138>)
{
 800063e:	e92d 41f0 	stmdb	sp!, {r4, r5, r6, r7, r8, lr}
  if(FLatency > (FLASH->ACR & FLASH_ACR_LATENCY))
 8000642:	6813      	ldr	r3, [r2, #0]
{
 8000644:	4605      	mov	r5, r0
  if(FLatency > (FLASH->ACR & FLASH_ACR_LATENCY))
 8000646:	f003 0307 	and.w	r3, r3, #7
 800064a:	428b      	cmp	r3, r1
{
 800064c:	460e      	mov	r6, r1
  if(FLatency > (FLASH->ACR & FLASH_ACR_LATENCY))
 800064e:	d328      	bcc.n	80006a2 <HAL_RCC_ClockConfig+0x66>
  if(((RCC_ClkInitStruct->ClockType) & RCC_CLOCKTYPE_HCLK) == RCC_CLOCKTYPE_HCLK)
 8000650:	682a      	ldr	r2, [r5, #0]
 8000652:	0791      	lsls	r1, r2, #30
 8000654:	d432      	bmi.n	80006bc <HAL_RCC_ClockConfig+0x80>
  if(((RCC_ClkInitStruct->ClockType) & RCC_CLOCKTYPE_SYSCLK) == RCC_CLOCKTYPE_SYSCLK)
 8000656:	07d2      	lsls	r2, r2, #31
 8000658:	d438      	bmi.n	80006cc <HAL_RCC_ClockConfig+0x90>
  if(FLatency < (FLASH->ACR & FLASH_ACR_LATENCY))
 800065a:	4a46      	ldr	r2, [pc, #280]	; (8000774 <HAL_RCC_ClockConfig+0x138>)
 800065c:	6813      	ldr	r3, [r2, #0]
 800065e:	f003 0307 	and.w	r3, r3, #7
 8000662:	429e      	cmp	r6, r3
 8000664:	d373      	bcc.n	800074e <HAL_RCC_ClockConfig+0x112>
  if(((RCC_ClkInitStruct->ClockType) & RCC_CLOCKTYPE_PCLK1) == RCC_CLOCKTYPE_PCLK1)
 8000666:	682a      	ldr	r2, [r5, #0]
 8000668:	4c43      	ldr	r4, [pc, #268]	; (8000778 <HAL_RCC_ClockConfig+0x13c>)
 800066a:	f012 0f04 	tst.w	r2, #4
 800066e:	d179      	bne.n	8000764 <HAL_RCC_ClockConfig+0x128>
  if(((RCC_ClkInitStruct->ClockType) & RCC_CLOCKTYPE_PCLK2) == RCC_CLOCKTYPE_PCLK2)
 8000670:	0713      	lsls	r3, r2, #28
 8000672:	d506      	bpl.n	8000682 <HAL_RCC_ClockConfig+0x46>
    MODIFY_REG(RCC->CFGR, RCC_CFGR_PPRE2, ((RCC_ClkInitStruct->APB2CLKDivider) << 3));
 8000674:	6863      	ldr	r3, [r4, #4]
 8000676:	692a      	ldr	r2, [r5, #16]
 8000678:	f423 5360 	bic.w	r3, r3, #14336	; 0x3800
 800067c:	ea43 03c2 	orr.w	r3, r3, r2, lsl #3
 8000680:	6063      	str	r3, [r4, #4]
  SystemCoreClock = HAL_RCC_GetSysClockFreq() >> AHBPrescTable[(RCC->CFGR & RCC_CFGR_HPRE)>> RCC_CFGR_HPRE_Pos];
 8000682:	f7ff ff9f 	bl	80005c4 <HAL_RCC_GetSysClockFreq>
 8000686:	6863      	ldr	r3, [r4, #4]
 8000688:	4a3c      	ldr	r2, [pc, #240]	; (800077c <HAL_RCC_ClockConfig+0x140>)
 800068a:	f3c3 1303 	ubfx	r3, r3, #4, #4
 800068e:	5cd3      	ldrb	r3, [r2, r3]
 8000690:	40d8      	lsrs	r0, r3
 8000692:	4b3b      	ldr	r3, [pc, #236]	; (8000780 <HAL_RCC_ClockConfig+0x144>)
 8000694:	6018      	str	r0, [r3, #0]
  HAL_InitTick (TICK_INT_PRIORITY);
 8000696:	2000      	movs	r0, #0
 8000698:	f001 fd40 	bl	800211c <HAL_InitTick>
  return HAL_OK;
 800069c:	2000      	movs	r0, #0
}
 800069e:	e8bd 81f0 	ldmia.w	sp!, {r4, r5, r6, r7, r8, pc}
    __HAL_FLASH_SET_LATENCY(FLatency);
 80006a2:	6813      	ldr	r3, [r2, #0]
 80006a4:	f023 0307 	bic.w	r3, r3, #7
 80006a8:	430b      	orrs	r3, r1
 80006aa:	6013      	str	r3, [r2, #0]
    if((FLASH->ACR & FLASH_ACR_LATENCY) != FLatency)
 80006ac:	6813      	ldr	r3, [r2, #0]
 80006ae:	f003 0307 	and.w	r3, r3, #7
 80006b2:	4299      	cmp	r1, r3
 80006b4:	d0cc      	beq.n	8000650 <HAL_RCC_ClockConfig+0x14>
      return HAL_ERROR;
 80006b6:	2001      	movs	r0, #1
 80006b8:	e8bd 81f0 	ldmia.w	sp!, {r4, r5, r6, r7, r8, pc}
    MODIFY_REG(RCC->CFGR, RCC_CFGR_HPRE, RCC_ClkInitStruct->AHBCLKDivider);
 80006bc:	492e      	ldr	r1, [pc, #184]	; (8000778 <HAL_RCC_ClockConfig+0x13c>)
 80006be:	68a8      	ldr	r0, [r5, #8]
 80006c0:	684b      	ldr	r3, [r1, #4]
 80006c2:	f023 03f0 	bic.w	r3, r3, #240	; 0xf0
 80006c6:	4303      	orrs	r3, r0
 80006c8:	604b      	str	r3, [r1, #4]
 80006ca:	e7c4      	b.n	8000656 <HAL_RCC_ClockConfig+0x1a>
    if(RCC_ClkInitStruct->SYSCLKSource == RCC_SYSCLKSOURCE_HSE)
 80006cc:	686a      	ldr	r2, [r5, #4]
 80006ce:	4c2a      	ldr	r4, [pc, #168]	; (8000778 <HAL_RCC_ClockConfig+0x13c>)
 80006d0:	2a01      	cmp	r2, #1
      if(__HAL_RCC_GET_FLAG(RCC_FLAG_HSERDY) == RESET)
 80006d2:	6823      	ldr	r3, [r4, #0]
    if(RCC_ClkInitStruct->SYSCLKSource == RCC_SYSCLKSOURCE_HSE)
 80006d4:	d11c      	bne.n	8000710 <HAL_RCC_ClockConfig+0xd4>
      if(__HAL_RCC_GET_FLAG(RCC_FLAG_HSERDY) == RESET)
 80006d6:	f413 3f00 	tst.w	r3, #131072	; 0x20000
      if(__HAL_RCC_GET_FLAG(RCC_FLAG_HSIRDY) == RESET)
 80006da:	d0ec      	beq.n	80006b6 <HAL_RCC_ClockConfig+0x7a>
    __HAL_RCC_SYSCLK_CONFIG(RCC_ClkInitStruct->SYSCLKSource);
 80006dc:	6863      	ldr	r3, [r4, #4]
        if((HAL_GetTick() - tickstart ) > CLOCKSWITCH_TIMEOUT_VALUE)
 80006de:	f241 3888 	movw	r8, #5000	; 0x1388
    __HAL_RCC_SYSCLK_CONFIG(RCC_ClkInitStruct->SYSCLKSource);
 80006e2:	f023 0303 	bic.w	r3, r3, #3
 80006e6:	4313      	orrs	r3, r2
 80006e8:	6063      	str	r3, [r4, #4]
    tickstart = HAL_GetTick();
 80006ea:	f7ff fd4d 	bl	8000188 <HAL_GetTick>
    if(RCC_ClkInitStruct->SYSCLKSource == RCC_SYSCLKSOURCE_HSE)
 80006ee:	686b      	ldr	r3, [r5, #4]
    tickstart = HAL_GetTick();
 80006f0:	4607      	mov	r7, r0
    if(RCC_ClkInitStruct->SYSCLKSource == RCC_SYSCLKSOURCE_HSE)
 80006f2:	2b01      	cmp	r3, #1
 80006f4:	d114      	bne.n	8000720 <HAL_RCC_ClockConfig+0xe4>
      while (__HAL_RCC_GET_SYSCLK_SOURCE() != RCC_SYSCLKSOURCE_STATUS_HSE)
 80006f6:	6863      	ldr	r3, [r4, #4]
 80006f8:	f003 030c 	and.w	r3, r3, #12
 80006fc:	2b04      	cmp	r3, #4
 80006fe:	d0ac      	beq.n	800065a <HAL_RCC_ClockConfig+0x1e>
        if((HAL_GetTick() - tickstart ) > CLOCKSWITCH_TIMEOUT_VALUE)
 8000700:	f7ff fd42 	bl	8000188 <HAL_GetTick>
 8000704:	1bc0      	subs	r0, r0, r7
 8000706:	4540      	cmp	r0, r8
 8000708:	d9f5      	bls.n	80006f6 <HAL_RCC_ClockConfig+0xba>
          return HAL_TIMEOUT;
 800070a:	2003      	movs	r0, #3
 800070c:	e8bd 81f0 	ldmia.w	sp!, {r4, r5, r6, r7, r8, pc}
    else if(RCC_ClkInitStruct->SYSCLKSource == RCC_SYSCLKSOURCE_PLLCLK)
 8000710:	2a02      	cmp	r2, #2
 8000712:	d102      	bne.n	800071a <HAL_RCC_ClockConfig+0xde>
      if(__HAL_RCC_GET_FLAG(RCC_FLAG_PLLRDY) == RESET)
 8000714:	f013 7f00 	tst.w	r3, #33554432	; 0x2000000
 8000718:	e7df      	b.n	80006da <HAL_RCC_ClockConfig+0x9e>
      if(__HAL_RCC_GET_FLAG(RCC_FLAG_HSIRDY) == RESET)
 800071a:	f013 0f02 	tst.w	r3, #2
 800071e:	e7dc      	b.n	80006da <HAL_RCC_ClockConfig+0x9e>
    else if(RCC_ClkInitStruct->SYSCLKSource == RCC_SYSCLKSOURCE_PLLCLK)
 8000720:	2b02      	cmp	r3, #2
 8000722:	d10f      	bne.n	8000744 <HAL_RCC_ClockConfig+0x108>
      while (__HAL_RCC_GET_SYSCLK_SOURCE() != RCC_SYSCLKSOURCE_STATUS_PLLCLK)
 8000724:	6863      	ldr	r3, [r4, #4]
 8000726:	f003 030c 	and.w	r3, r3, #12
 800072a:	2b08      	cmp	r3, #8
 800072c:	d095      	beq.n	800065a <HAL_RCC_ClockConfig+0x1e>
        if((HAL_GetTick() - tickstart ) > CLOCKSWITCH_TIMEOUT_VALUE)
 800072e:	f7ff fd2b 	bl	8000188 <HAL_GetTick>
 8000732:	1bc0      	subs	r0, r0, r7
 8000734:	4540      	cmp	r0, r8
 8000736:	d9f5      	bls.n	8000724 <HAL_RCC_ClockConfig+0xe8>
 8000738:	e7e7      	b.n	800070a <HAL_RCC_ClockConfig+0xce>
        if((HAL_GetTick() - tickstart ) > CLOCKSWITCH_TIMEOUT_VALUE)
 800073a:	f7ff fd25 	bl	8000188 <HAL_GetTick>
 800073e:	1bc0      	subs	r0, r0, r7
 8000740:	4540      	cmp	r0, r8
 8000742:	d8e2      	bhi.n	800070a <HAL_RCC_ClockConfig+0xce>
      while (__HAL_RCC_GET_SYSCLK_SOURCE() != RCC_SYSCLKSOURCE_STATUS_HSI)
 8000744:	6863      	ldr	r3, [r4, #4]
 8000746:	f013 0f0c 	tst.w	r3, #12
 800074a:	d1f6      	bne.n	800073a <HAL_RCC_ClockConfig+0xfe>
 800074c:	e785      	b.n	800065a <HAL_RCC_ClockConfig+0x1e>
    __HAL_FLASH_SET_LATENCY(FLatency);
 800074e:	6813      	ldr	r3, [r2, #0]
 8000750:	f023 0307 	bic.w	r3, r3, #7
 8000754:	4333      	orrs	r3, r6
 8000756:	6013      	str	r3, [r2, #0]
    if((FLASH->ACR & FLASH_ACR_LATENCY) != FLatency)
 8000758:	6813      	ldr	r3, [r2, #0]
 800075a:	f003 0307 	and.w	r3, r3, #7
 800075e:	429e      	cmp	r6, r3
 8000760:	d1a9      	bne.n	80006b6 <HAL_RCC_ClockConfig+0x7a>
 8000762:	e780      	b.n	8000666 <HAL_RCC_ClockConfig+0x2a>
    MODIFY_REG(RCC->CFGR, RCC_CFGR_PPRE1, RCC_ClkInitStruct->APB1CLKDivider);
 8000764:	6863      	ldr	r3, [r4, #4]
 8000766:	68e9      	ldr	r1, [r5, #12]
 8000768:	f423 63e0 	bic.w	r3, r3, #1792	; 0x700
 800076c:	430b      	orrs	r3, r1
 800076e:	6063      	str	r3, [r4, #4]
 8000770:	e77e      	b.n	8000670 <HAL_RCC_ClockConfig+0x34>
 8000772:	bf00      	nop
 8000774:	40022000 	.word	0x40022000
 8000778:	40021000 	.word	0x40021000
 800077c:	08009faa 	.word	0x08009faa
 8000780:	2000006c 	.word	0x2000006c

08000784 <HAL_RCC_GetHCLKFreq>:
}
 8000784:	4b01      	ldr	r3, [pc, #4]	; (800078c <HAL_RCC_GetHCLKFreq+0x8>)
 8000786:	6818      	ldr	r0, [r3, #0]
 8000788:	4770      	bx	lr
 800078a:	bf00      	nop
 800078c:	2000006c 	.word	0x2000006c

08000790 <HAL_RCC_GetPCLK1Freq>:
  return (HAL_RCC_GetHCLKFreq() >> APBPrescTable[(RCC->CFGR & RCC_CFGR_PPRE1) >> RCC_CFGR_PPRE1_Pos]);
 8000790:	4b04      	ldr	r3, [pc, #16]	; (80007a4 <HAL_RCC_GetPCLK1Freq+0x14>)
 8000792:	4a05      	ldr	r2, [pc, #20]	; (80007a8 <HAL_RCC_GetPCLK1Freq+0x18>)
 8000794:	685b      	ldr	r3, [r3, #4]
 8000796:	f3c3 2302 	ubfx	r3, r3, #8, #3
 800079a:	5cd3      	ldrb	r3, [r2, r3]
 800079c:	4a03      	ldr	r2, [pc, #12]	; (80007ac <HAL_RCC_GetPCLK1Freq+0x1c>)
 800079e:	6810      	ldr	r0, [r2, #0]
}    
 80007a0:	40d8      	lsrs	r0, r3
 80007a2:	4770      	bx	lr
 80007a4:	40021000 	.word	0x40021000
 80007a8:	08009fba 	.word	0x08009fba
 80007ac:	2000006c 	.word	0x2000006c

080007b0 <HAL_RCC_GetClockConfig>:
  RCC_ClkInitStruct->ClockType = RCC_CLOCKTYPE_SYSCLK | RCC_CLOCKTYPE_HCLK | RCC_CLOCKTYPE_PCLK1 | RCC_CLOCKTYPE_PCLK2;
 80007b0:	230f      	movs	r3, #15
 80007b2:	6003      	str	r3, [r0, #0]
  RCC_ClkInitStruct->SYSCLKSource = (uint32_t)(RCC->CFGR & RCC_CFGR_SW);
 80007b4:	4b0b      	ldr	r3, [pc, #44]	; (80007e4 <HAL_RCC_GetClockConfig+0x34>)
 80007b6:	685a      	ldr	r2, [r3, #4]
 80007b8:	f002 0203 	and.w	r2, r2, #3
 80007bc:	6042      	str	r2, [r0, #4]
  RCC_ClkInitStruct->AHBCLKDivider = (uint32_t)(RCC->CFGR & RCC_CFGR_HPRE); 
 80007be:	685a      	ldr	r2, [r3, #4]
 80007c0:	f002 02f0 	and.w	r2, r2, #240	; 0xf0
 80007c4:	6082      	str	r2, [r0, #8]
  RCC_ClkInitStruct->APB1CLKDivider = (uint32_t)(RCC->CFGR & RCC_CFGR_PPRE1);   
 80007c6:	685a      	ldr	r2, [r3, #4]
 80007c8:	f402 62e0 	and.w	r2, r2, #1792	; 0x700
 80007cc:	60c2      	str	r2, [r0, #12]
  RCC_ClkInitStruct->APB2CLKDivider = (uint32_t)((RCC->CFGR & RCC_CFGR_PPRE2) >> 3);
 80007ce:	685b      	ldr	r3, [r3, #4]
 80007d0:	08db      	lsrs	r3, r3, #3
 80007d2:	f403 63e0 	and.w	r3, r3, #1792	; 0x700
 80007d6:	6103      	str	r3, [r0, #16]
  *pFLatency = (uint32_t)(FLASH->ACR & FLASH_ACR_LATENCY); 
 80007d8:	4b03      	ldr	r3, [pc, #12]	; (80007e8 <HAL_RCC_GetClockConfig+0x38>)
 80007da:	681b      	ldr	r3, [r3, #0]
 80007dc:	f003 0307 	and.w	r3, r3, #7
 80007e0:	600b      	str	r3, [r1, #0]
 80007e2:	4770      	bx	lr
 80007e4:	40021000 	.word	0x40021000
 80007e8:	40022000 	.word	0x40022000

080007ec <HAL_TIM_Base_MspInit>:
 80007ec:	4770      	bx	lr

080007ee <HAL_TIM_Base_Start_IT>:
{
  /* Check the parameters */
  assert_param(IS_TIM_INSTANCE(htim->Instance));

   /* Enable the TIM Update interrupt */
   __HAL_TIM_ENABLE_IT(htim, TIM_IT_UPDATE);
 80007ee:	6803      	ldr	r3, [r0, #0]
   /* Enable the Peripheral */
  __HAL_TIM_ENABLE(htim);

  /* Return function status */
  return HAL_OK;
}
 80007f0:	2000      	movs	r0, #0
   __HAL_TIM_ENABLE_IT(htim, TIM_IT_UPDATE);
 80007f2:	68da      	ldr	r2, [r3, #12]
 80007f4:	f042 0201 	orr.w	r2, r2, #1
 80007f8:	60da      	str	r2, [r3, #12]
  __HAL_TIM_ENABLE(htim);
 80007fa:	681a      	ldr	r2, [r3, #0]
 80007fc:	f042 0201 	orr.w	r2, r2, #1
 8000800:	601a      	str	r2, [r3, #0]
}
 8000802:	4770      	bx	lr

08000804 <HAL_TIM_OC_DelayElapsedCallback>:
 8000804:	4770      	bx	lr

08000806 <HAL_TIM_IC_CaptureCallback>:
 8000806:	4770      	bx	lr

08000808 <HAL_TIM_PWM_PulseFinishedCallback>:
 8000808:	4770      	bx	lr

0800080a <HAL_TIM_TriggerCallback>:
 800080a:	4770      	bx	lr

0800080c <HAL_TIM_IRQHandler>:
  * @retval None
  */
void HAL_TIM_IRQHandler(TIM_HandleTypeDef *htim)
{
  /* Capture compare 1 event */
  if(__HAL_TIM_GET_FLAG(htim, TIM_FLAG_CC1) != RESET)
 800080c:	6803      	ldr	r3, [r0, #0]
{
 800080e:	b510      	push	{r4, lr}
  if(__HAL_TIM_GET_FLAG(htim, TIM_FLAG_CC1) != RESET)
 8000810:	691a      	ldr	r2, [r3, #16]
{
 8000812:	4604      	mov	r4, r0
  if(__HAL_TIM_GET_FLAG(htim, TIM_FLAG_CC1) != RESET)
 8000814:	0791      	lsls	r1, r2, #30
 8000816:	d50e      	bpl.n	8000836 <HAL_TIM_IRQHandler+0x2a>
  {
    if(__HAL_TIM_GET_IT_SOURCE(htim, TIM_IT_CC1) !=RESET)
 8000818:	68da      	ldr	r2, [r3, #12]
 800081a:	0792      	lsls	r2, r2, #30
 800081c:	d50b      	bpl.n	8000836 <HAL_TIM_IRQHandler+0x2a>
    {
      {
        __HAL_TIM_CLEAR_IT(htim, TIM_IT_CC1);
 800081e:	f06f 0202 	mvn.w	r2, #2
 8000822:	611a      	str	r2, [r3, #16]
        htim->Channel = HAL_TIM_ACTIVE_CHANNEL_1;
 8000824:	2201      	movs	r2, #1

        /* Input capture event */
        if((htim->Instance->CCMR1 & TIM_CCMR1_CC1S) != 0x00U)
 8000826:	699b      	ldr	r3, [r3, #24]
        htim->Channel = HAL_TIM_ACTIVE_CHANNEL_1;
 8000828:	7702      	strb	r2, [r0, #28]
        if((htim->Instance->CCMR1 & TIM_CCMR1_CC1S) != 0x00U)
 800082a:	079b      	lsls	r3, r3, #30
 800082c:	d077      	beq.n	800091e <HAL_TIM_IRQHandler+0x112>
        {
          HAL_TIM_IC_CaptureCallback(htim);
 800082e:	f7ff ffea 	bl	8000806 <HAL_TIM_IC_CaptureCallback>
        else
        {
          HAL_TIM_OC_DelayElapsedCallback(htim);
          HAL_TIM_PWM_PulseFinishedCallback(htim);
        }
        htim->Channel = HAL_TIM_ACTIVE_CHANNEL_CLEARED;
 8000832:	2300      	movs	r3, #0
 8000834:	7723      	strb	r3, [r4, #28]
      }
    }
  }
  /* Capture compare 2 event */
  if(__HAL_TIM_GET_FLAG(htim, TIM_FLAG_CC2) != RESET)
 8000836:	6823      	ldr	r3, [r4, #0]
 8000838:	691a      	ldr	r2, [r3, #16]
 800083a:	0750      	lsls	r0, r2, #29
 800083c:	d510      	bpl.n	8000860 <HAL_TIM_IRQHandler+0x54>
  {
    if(__HAL_TIM_GET_IT_SOURCE(htim, TIM_IT_CC2) !=RESET)
 800083e:	68da      	ldr	r2, [r3, #12]
 8000840:	0751      	lsls	r1, r2, #29
 8000842:	d50d      	bpl.n	8000860 <HAL_TIM_IRQHandler+0x54>
    {
      __HAL_TIM_CLEAR_IT(htim, TIM_IT_CC2);
 8000844:	f06f 0204 	mvn.w	r2, #4
 8000848:	611a      	str	r2, [r3, #16]
      htim->Channel = HAL_TIM_ACTIVE_CHANNEL_2;
 800084a:	2202      	movs	r2, #2
      /* Input capture event */
      if((htim->Instance->CCMR1 & TIM_CCMR1_CC2S) != 0x00U)
 800084c:	699b      	ldr	r3, [r3, #24]
      htim->Channel = HAL_TIM_ACTIVE_CHANNEL_2;
 800084e:	7722      	strb	r2, [r4, #28]
      if((htim->Instance->CCMR1 & TIM_CCMR1_CC2S) != 0x00U)
 8000850:	f413 7f40 	tst.w	r3, #768	; 0x300
      {
        HAL_TIM_IC_CaptureCallback(htim);
 8000854:	4620      	mov	r0, r4
      if((htim->Instance->CCMR1 & TIM_CCMR1_CC2S) != 0x00U)
 8000856:	d068      	beq.n	800092a <HAL_TIM_IRQHandler+0x11e>
        HAL_TIM_IC_CaptureCallback(htim);
 8000858:	f7ff ffd5 	bl	8000806 <HAL_TIM_IC_CaptureCallback>
      else
      {
        HAL_TIM_OC_DelayElapsedCallback(htim);
        HAL_TIM_PWM_PulseFinishedCallback(htim);
      }
      htim->Channel = HAL_TIM_ACTIVE_CHANNEL_CLEARED;
 800085c:	2300      	movs	r3, #0
 800085e:	7723      	strb	r3, [r4, #28]
    }
  }
  /* Capture compare 3 event */
  if(__HAL_TIM_GET_FLAG(htim, TIM_FLAG_CC3) != RESET)
 8000860:	6823      	ldr	r3, [r4, #0]
 8000862:	691a      	ldr	r2, [r3, #16]
 8000864:	0712      	lsls	r2, r2, #28
 8000866:	d50f      	bpl.n	8000888 <HAL_TIM_IRQHandler+0x7c>
  {
    if(__HAL_TIM_GET_IT_SOURCE(htim, TIM_IT_CC3) !=RESET)
 8000868:	68da      	ldr	r2, [r3, #12]
 800086a:	0710      	lsls	r0, r2, #28
 800086c:	d50c      	bpl.n	8000888 <HAL_TIM_IRQHandler+0x7c>
    {
      __HAL_TIM_CLEAR_IT(htim, TIM_IT_CC3);
 800086e:	f06f 0208 	mvn.w	r2, #8
 8000872:	611a      	str	r2, [r3, #16]
      htim->Channel = HAL_TIM_ACTIVE_CHANNEL_3;
 8000874:	2204      	movs	r2, #4
      /* Input capture event */
      if((htim->Instance->CCMR2 & TIM_CCMR2_CC3S) != 0x00U)
 8000876:	69db      	ldr	r3, [r3, #28]
      htim->Channel = HAL_TIM_ACTIVE_CHANNEL_3;
 8000878:	7722      	strb	r2, [r4, #28]
      if((htim->Instance->CCMR2 & TIM_CCMR2_CC3S) != 0x00U)
 800087a:	0799      	lsls	r1, r3, #30
      {
        HAL_TIM_IC_CaptureCallback(htim);
 800087c:	4620      	mov	r0, r4
      if((htim->Instance->CCMR2 & TIM_CCMR2_CC3S) != 0x00U)
 800087e:	d05a      	beq.n	8000936 <HAL_TIM_IRQHandler+0x12a>
        HAL_TIM_IC_CaptureCallback(htim);
 8000880:	f7ff ffc1 	bl	8000806 <HAL_TIM_IC_CaptureCallback>
      else
      {
        HAL_TIM_OC_DelayElapsedCallback(htim);
        HAL_TIM_PWM_PulseFinishedCallback(htim);
      }
      htim->Channel = HAL_TIM_ACTIVE_CHANNEL_CLEARED;
 8000884:	2300      	movs	r3, #0
 8000886:	7723      	strb	r3, [r4, #28]
    }
  }
  /* Capture compare 4 event */
  if(__HAL_TIM_GET_FLAG(htim, TIM_FLAG_CC4) != RESET)
 8000888:	6823      	ldr	r3, [r4, #0]
 800088a:	691a      	ldr	r2, [r3, #16]
 800088c:	06d2      	lsls	r2, r2, #27
 800088e:	d510      	bpl.n	80008b2 <HAL_TIM_IRQHandler+0xa6>
  {
    if(__HAL_TIM_GET_IT_SOURCE(htim, TIM_IT_CC4) !=RESET)
 8000890:	68da      	ldr	r2, [r3, #12]
 8000892:	06d0      	lsls	r0, r2, #27
 8000894:	d50d      	bpl.n	80008b2 <HAL_TIM_IRQHandler+0xa6>
    {
      __HAL_TIM_CLEAR_IT(htim, TIM_IT_CC4);
 8000896:	f06f 0210 	mvn.w	r2, #16
 800089a:	611a      	str	r2, [r3, #16]
      htim->Channel = HAL_TIM_ACTIVE_CHANNEL_4;
 800089c:	2208      	movs	r2, #8
      /* Input capture event */
      if((htim->Instance->CCMR2 & TIM_CCMR2_CC4S) != 0x00U)
 800089e:	69db      	ldr	r3, [r3, #28]
      htim->Channel = HAL_TIM_ACTIVE_CHANNEL_4;
 80008a0:	7722      	strb	r2, [r4, #28]
      if((htim->Instance->CCMR2 & TIM_CCMR2_CC4S) != 0x00U)
 80008a2:	f413 7f40 	tst.w	r3, #768	; 0x300
      {
        HAL_TIM_IC_CaptureCallback(htim);
 80008a6:	4620      	mov	r0, r4
      if((htim->Instance->CCMR2 & TIM_CCMR2_CC4S) != 0x00U)
 80008a8:	d04b      	beq.n	8000942 <HAL_TIM_IRQHandler+0x136>
        HAL_TIM_IC_CaptureCallback(htim);
 80008aa:	f7ff ffac 	bl	8000806 <HAL_TIM_IC_CaptureCallback>
      else
      {
        HAL_TIM_OC_DelayElapsedCallback(htim);
        HAL_TIM_PWM_PulseFinishedCallback(htim);
      }
      htim->Channel = HAL_TIM_ACTIVE_CHANNEL_CLEARED;
 80008ae:	2300      	movs	r3, #0
 80008b0:	7723      	strb	r3, [r4, #28]
    }
  }
  /* TIM Update event */
  if(__HAL_TIM_GET_FLAG(htim, TIM_FLAG_UPDATE) != RESET)
 80008b2:	6823      	ldr	r3, [r4, #0]
 80008b4:	691a      	ldr	r2, [r3, #16]
 80008b6:	07d1      	lsls	r1, r2, #31
 80008b8:	d508      	bpl.n	80008cc <HAL_TIM_IRQHandler+0xc0>
  {
    if(__HAL_TIM_GET_IT_SOURCE(htim, TIM_IT_UPDATE) !=RESET)
 80008ba:	68da      	ldr	r2, [r3, #12]
 80008bc:	07d2      	lsls	r2, r2, #31
 80008be:	d505      	bpl.n	80008cc <HAL_TIM_IRQHandler+0xc0>
    {
      __HAL_TIM_CLEAR_IT(htim, TIM_IT_UPDATE);
 80008c0:	f06f 0201 	mvn.w	r2, #1
      HAL_TIM_PeriodElapsedCallback(htim);
 80008c4:	4620      	mov	r0, r4
      __HAL_TIM_CLEAR_IT(htim, TIM_IT_UPDATE);
 80008c6:	611a      	str	r2, [r3, #16]
      HAL_TIM_PeriodElapsedCallback(htim);
 80008c8:	f001 fbce 	bl	8002068 <HAL_TIM_PeriodElapsedCallback>
    }
  }
  /* TIM Break input event */
  if(__HAL_TIM_GET_FLAG(htim, TIM_FLAG_BREAK) != RESET)
 80008cc:	6823      	ldr	r3, [r4, #0]
 80008ce:	691a      	ldr	r2, [r3, #16]
 80008d0:	0610      	lsls	r0, r2, #24
 80008d2:	d508      	bpl.n	80008e6 <HAL_TIM_IRQHandler+0xda>
  {
    if(__HAL_TIM_GET_IT_SOURCE(htim, TIM_IT_BREAK) !=RESET)
 80008d4:	68da      	ldr	r2, [r3, #12]
 80008d6:	0611      	lsls	r1, r2, #24
 80008d8:	d505      	bpl.n	80008e6 <HAL_TIM_IRQHandler+0xda>
    {
      __HAL_TIM_CLEAR_IT(htim, TIM_IT_BREAK);
 80008da:	f06f 0280 	mvn.w	r2, #128	; 0x80
      HAL_TIMEx_BreakCallback(htim);
 80008de:	4620      	mov	r0, r4
      __HAL_TIM_CLEAR_IT(htim, TIM_IT_BREAK);
 80008e0:	611a      	str	r2, [r3, #16]
      HAL_TIMEx_BreakCallback(htim);
 80008e2:	f000 f888 	bl	80009f6 <HAL_TIMEx_BreakCallback>
    }
  }
  /* TIM Trigger detection event */
  if(__HAL_TIM_GET_FLAG(htim, TIM_FLAG_TRIGGER) != RESET)
 80008e6:	6823      	ldr	r3, [r4, #0]
 80008e8:	691a      	ldr	r2, [r3, #16]
 80008ea:	0652      	lsls	r2, r2, #25
 80008ec:	d508      	bpl.n	8000900 <HAL_TIM_IRQHandler+0xf4>
  {
    if(__HAL_TIM_GET_IT_SOURCE(htim, TIM_IT_TRIGGER) !=RESET)
 80008ee:	68da      	ldr	r2, [r3, #12]
 80008f0:	0650      	lsls	r0, r2, #25
 80008f2:	d505      	bpl.n	8000900 <HAL_TIM_IRQHandler+0xf4>
    {
      __HAL_TIM_CLEAR_IT(htim, TIM_IT_TRIGGER);
 80008f4:	f06f 0240 	mvn.w	r2, #64	; 0x40
      HAL_TIM_TriggerCallback(htim);
 80008f8:	4620      	mov	r0, r4
      __HAL_TIM_CLEAR_IT(htim, TIM_IT_TRIGGER);
 80008fa:	611a      	str	r2, [r3, #16]
      HAL_TIM_TriggerCallback(htim);
 80008fc:	f7ff ff85 	bl	800080a <HAL_TIM_TriggerCallback>
    }
  }
  /* TIM commutation event */
  if(__HAL_TIM_GET_FLAG(htim, TIM_FLAG_COM) != RESET)
 8000900:	6823      	ldr	r3, [r4, #0]
 8000902:	691a      	ldr	r2, [r3, #16]
 8000904:	0691      	lsls	r1, r2, #26
 8000906:	d522      	bpl.n	800094e <HAL_TIM_IRQHandler+0x142>
  {
    if(__HAL_TIM_GET_IT_SOURCE(htim, TIM_IT_COM) !=RESET)
 8000908:	68da      	ldr	r2, [r3, #12]
 800090a:	0692      	lsls	r2, r2, #26
 800090c:	d51f      	bpl.n	800094e <HAL_TIM_IRQHandler+0x142>
    {
      __HAL_TIM_CLEAR_IT(htim, TIM_FLAG_COM);
 800090e:	f06f 0220 	mvn.w	r2, #32
      HAL_TIMEx_CommutationCallback(htim);
 8000912:	4620      	mov	r0, r4
    }
  }
}
 8000914:	e8bd 4010 	ldmia.w	sp!, {r4, lr}
      __HAL_TIM_CLEAR_IT(htim, TIM_FLAG_COM);
 8000918:	611a      	str	r2, [r3, #16]
      HAL_TIMEx_CommutationCallback(htim);
 800091a:	f000 b86b 	b.w	80009f4 <HAL_TIMEx_CommutationCallback>
          HAL_TIM_OC_DelayElapsedCallback(htim);
 800091e:	f7ff ff71 	bl	8000804 <HAL_TIM_OC_DelayElapsedCallback>
          HAL_TIM_PWM_PulseFinishedCallback(htim);
 8000922:	4620      	mov	r0, r4
 8000924:	f7ff ff70 	bl	8000808 <HAL_TIM_PWM_PulseFinishedCallback>
 8000928:	e783      	b.n	8000832 <HAL_TIM_IRQHandler+0x26>
        HAL_TIM_OC_DelayElapsedCallback(htim);
 800092a:	f7ff ff6b 	bl	8000804 <HAL_TIM_OC_DelayElapsedCallback>
        HAL_TIM_PWM_PulseFinishedCallback(htim);
 800092e:	4620      	mov	r0, r4
 8000930:	f7ff ff6a 	bl	8000808 <HAL_TIM_PWM_PulseFinishedCallback>
 8000934:	e792      	b.n	800085c <HAL_TIM_IRQHandler+0x50>
        HAL_TIM_OC_DelayElapsedCallback(htim);
 8000936:	f7ff ff65 	bl	8000804 <HAL_TIM_OC_DelayElapsedCallback>
        HAL_TIM_PWM_PulseFinishedCallback(htim);
 800093a:	4620      	mov	r0, r4
 800093c:	f7ff ff64 	bl	8000808 <HAL_TIM_PWM_PulseFinishedCallback>
 8000940:	e7a0      	b.n	8000884 <HAL_TIM_IRQHandler+0x78>
        HAL_TIM_OC_DelayElapsedCallback(htim);
 8000942:	f7ff ff5f 	bl	8000804 <HAL_TIM_OC_DelayElapsedCallback>
        HAL_TIM_PWM_PulseFinishedCallback(htim);
 8000946:	4620      	mov	r0, r4
 8000948:	f7ff ff5e 	bl	8000808 <HAL_TIM_PWM_PulseFinishedCallback>
 800094c:	e7af      	b.n	80008ae <HAL_TIM_IRQHandler+0xa2>
 800094e:	bd10      	pop	{r4, pc}

08000950 <TIM_Base_SetConfig>:
{
  uint32_t tmpcr1 = 0U;
  tmpcr1 = TIMx->CR1;

  /* Set TIM Time Base Unit parameters ---------------------------------------*/
  if (IS_TIM_COUNTER_MODE_SELECT_INSTANCE(TIMx))
 8000950:	4a1a      	ldr	r2, [pc, #104]	; (80009bc <TIM_Base_SetConfig+0x6c>)
  tmpcr1 = TIMx->CR1;
 8000952:	6803      	ldr	r3, [r0, #0]
  if (IS_TIM_COUNTER_MODE_SELECT_INSTANCE(TIMx))
 8000954:	4290      	cmp	r0, r2
 8000956:	d00a      	beq.n	800096e <TIM_Base_SetConfig+0x1e>
 8000958:	f1b0 4f80 	cmp.w	r0, #1073741824	; 0x40000000
 800095c:	d007      	beq.n	800096e <TIM_Base_SetConfig+0x1e>
 800095e:	f5a2 3294 	sub.w	r2, r2, #75776	; 0x12800
 8000962:	4290      	cmp	r0, r2
 8000964:	d003      	beq.n	800096e <TIM_Base_SetConfig+0x1e>
 8000966:	f502 6280 	add.w	r2, r2, #1024	; 0x400
 800096a:	4290      	cmp	r0, r2
 800096c:	d115      	bne.n	800099a <TIM_Base_SetConfig+0x4a>
  {
    /* Select the Counter Mode */
    tmpcr1 &= ~(TIM_CR1_DIR | TIM_CR1_CMS);
    tmpcr1 |= Structure->CounterMode;
 800096e:	684a      	ldr	r2, [r1, #4]
    tmpcr1 &= ~(TIM_CR1_DIR | TIM_CR1_CMS);
 8000970:	f023 0370 	bic.w	r3, r3, #112	; 0x70
    tmpcr1 |= Structure->CounterMode;
 8000974:	4313      	orrs	r3, r2
  }

  if(IS_TIM_CLOCK_DIVISION_INSTANCE(TIMx))
 8000976:	4a11      	ldr	r2, [pc, #68]	; (80009bc <TIM_Base_SetConfig+0x6c>)
 8000978:	4290      	cmp	r0, r2
 800097a:	d00a      	beq.n	8000992 <TIM_Base_SetConfig+0x42>
 800097c:	f1b0 4f80 	cmp.w	r0, #1073741824	; 0x40000000
 8000980:	d007      	beq.n	8000992 <TIM_Base_SetConfig+0x42>
 8000982:	f5a2 3294 	sub.w	r2, r2, #75776	; 0x12800
 8000986:	4290      	cmp	r0, r2
 8000988:	d003      	beq.n	8000992 <TIM_Base_SetConfig+0x42>
 800098a:	f502 6280 	add.w	r2, r2, #1024	; 0x400
 800098e:	4290      	cmp	r0, r2
 8000990:	d103      	bne.n	800099a <TIM_Base_SetConfig+0x4a>
  {
    /* Set the clock division */
    tmpcr1 &= ~TIM_CR1_CKD;
    tmpcr1 |= (uint32_t)Structure->ClockDivision;
 8000992:	68ca      	ldr	r2, [r1, #12]
    tmpcr1 &= ~TIM_CR1_CKD;
 8000994:	f423 7340 	bic.w	r3, r3, #768	; 0x300
    tmpcr1 |= (uint32_t)Structure->ClockDivision;
 8000998:	4313      	orrs	r3, r2
  }

  /* Set the auto-reload preload */
  tmpcr1 &= ~TIM_CR1_ARPE;
  tmpcr1 |= (uint32_t)Structure->AutoReloadPreload;
 800099a:	694a      	ldr	r2, [r1, #20]
  tmpcr1 &= ~TIM_CR1_ARPE;
 800099c:	f023 0380 	bic.w	r3, r3, #128	; 0x80
  tmpcr1 |= (uint32_t)Structure->AutoReloadPreload;
 80009a0:	4313      	orrs	r3, r2

  TIMx->CR1 = tmpcr1;
 80009a2:	6003      	str	r3, [r0, #0]

  /* Set the Autoreload value */
  TIMx->ARR = (uint32_t)Structure->Period ;
 80009a4:	688b      	ldr	r3, [r1, #8]
 80009a6:	62c3      	str	r3, [r0, #44]	; 0x2c

  /* Set the Prescaler value */
  TIMx->PSC = (uint32_t)Structure->Prescaler;
 80009a8:	680b      	ldr	r3, [r1, #0]
 80009aa:	6283      	str	r3, [r0, #40]	; 0x28

  if (IS_TIM_REPETITION_COUNTER_INSTANCE(TIMx))
 80009ac:	4b03      	ldr	r3, [pc, #12]	; (80009bc <TIM_Base_SetConfig+0x6c>)
 80009ae:	4298      	cmp	r0, r3
  {
    /* Set the Repetition Counter value */
    TIMx->RCR = Structure->RepetitionCounter;
 80009b0:	bf04      	itt	eq
 80009b2:	690b      	ldreq	r3, [r1, #16]
 80009b4:	6303      	streq	r3, [r0, #48]	; 0x30
  }

  /* Generate an update event to reload the Prescaler 
     and the repetition counter(only for TIM1 and TIM8) value immediatly */
  TIMx->EGR = TIM_EGR_UG;
 80009b6:	2301      	movs	r3, #1
 80009b8:	6143      	str	r3, [r0, #20]
 80009ba:	4770      	bx	lr
 80009bc:	40012c00 	.word	0x40012c00

080009c0 <HAL_TIM_Base_Init>:
{
 80009c0:	b510      	push	{r4, lr}
  if(htim == NULL)
 80009c2:	4604      	mov	r4, r0
 80009c4:	b1a0      	cbz	r0, 80009f0 <HAL_TIM_Base_Init+0x30>
  if(htim->State == HAL_TIM_STATE_RESET)
 80009c6:	f890 303d 	ldrb.w	r3, [r0, #61]	; 0x3d
 80009ca:	f003 02ff 	and.w	r2, r3, #255	; 0xff
 80009ce:	b91b      	cbnz	r3, 80009d8 <HAL_TIM_Base_Init+0x18>
    htim->Lock = HAL_UNLOCKED;
 80009d0:	f880 203c 	strb.w	r2, [r0, #60]	; 0x3c
    HAL_TIM_Base_MspInit(htim);
 80009d4:	f7ff ff0a 	bl	80007ec <HAL_TIM_Base_MspInit>
  htim->State= HAL_TIM_STATE_BUSY;
 80009d8:	2302      	movs	r3, #2
  TIM_Base_SetConfig(htim->Instance, &htim->Init);
 80009da:	6820      	ldr	r0, [r4, #0]
  htim->State= HAL_TIM_STATE_BUSY;
 80009dc:	f884 303d 	strb.w	r3, [r4, #61]	; 0x3d
  TIM_Base_SetConfig(htim->Instance, &htim->Init);
 80009e0:	1d21      	adds	r1, r4, #4
 80009e2:	f7ff ffb5 	bl	8000950 <TIM_Base_SetConfig>
  htim->State= HAL_TIM_STATE_READY;
 80009e6:	2301      	movs	r3, #1
  return HAL_OK;
 80009e8:	2000      	movs	r0, #0
  htim->State= HAL_TIM_STATE_READY;
 80009ea:	f884 303d 	strb.w	r3, [r4, #61]	; 0x3d
  return HAL_OK;
 80009ee:	bd10      	pop	{r4, pc}
    return HAL_ERROR;
 80009f0:	2001      	movs	r0, #1
}
 80009f2:	bd10      	pop	{r4, pc}

080009f4 <HAL_TIMEx_CommutationCallback>:
 80009f4:	4770      	bx	lr

080009f6 <HAL_TIMEx_BreakCallback>:
  * @brief  Hall Break detection callback in non blocking mode
  * @param  htim : TIM handle
  * @retval None
  */
__weak void HAL_TIMEx_BreakCallback(TIM_HandleTypeDef *htim)
{
 80009f6:	4770      	bx	lr

080009f8 <LCD_IO_Delay>:

//-----------------------------------------------------------------------------
#pragma GCC push_options
#pragma GCC optimize("O0")
void LCD_IO_Delay(volatile uint32_t c)
{
 80009f8:	b480      	push	{r7}
 80009fa:	b083      	sub	sp, #12
 80009fc:	af00      	add	r7, sp, #0
 80009fe:	6078      	str	r0, [r7, #4]
  while(c--);
 8000a00:	bf00      	nop
 8000a02:	687b      	ldr	r3, [r7, #4]
 8000a04:	1e5a      	subs	r2, r3, #1
 8000a06:	607a      	str	r2, [r7, #4]
 8000a08:	2b00      	cmp	r3, #0
 8000a0a:	d1fa      	bne.n	8000a02 <LCD_IO_Delay+0xa>
}
 8000a0c:	bf00      	nop
 8000a0e:	370c      	adds	r7, #12
 8000a10:	46bd      	mov	sp, r7
 8000a12:	bc80      	pop	{r7}
 8000a14:	4770      	bx	lr

08000a16 <LCD_Delay>:
#pragma GCC pop_options

//-----------------------------------------------------------------------------
void LCD_Delay(uint32_t Delay)
{
  HAL_Delay(Delay);
 8000a16:	f7ff bbbd 	b.w	8000194 <HAL_Delay>
	...

08000a1c <LCD_IO_Bl_OnOff>:
}

//-----------------------------------------------------------------------------
void LCD_IO_Bl_OnOff(uint8_t Bl)
{
 8000a1c:	4b03      	ldr	r3, [pc, #12]	; (8000a2c <LCD_IO_Bl_OnOff+0x10>)
  #ifdef LCD_BL
  if(Bl)
 8000a1e:	b110      	cbz	r0, 8000a26 <LCD_IO_Bl_OnOff+0xa>
    GPIOX_ODR(LCD_BL) = LCD_BLON;
 8000a20:	2200      	movs	r2, #0
 8000a22:	601a      	str	r2, [r3, #0]
 8000a24:	4770      	bx	lr
  else
    GPIOX_ODR(LCD_BL) = 1 - LCD_BLON;
 8000a26:	2201      	movs	r2, #1
 8000a28:	601a      	str	r2, [r3, #0]
 8000a2a:	4770      	bx	lr
 8000a2c:	422201b4 	.word	0x422201b4

08000a30 <LCD_IO_Init>:
  #endif
}

//-----------------------------------------------------------------------------
void LCD_IO_Init(void)
{
 8000a30:	b570      	push	{r4, r5, r6, lr}
    GPIOX_ODR(LCD_BL) = LCD_BLON;
 8000a32:	2500      	movs	r5, #0
  LCD_IO_Bl_OnOff(1);
  #endif

  RCC->APB2ENR |= RCC_APB2ENR_AFIOEN;

  LCD_RST_OFF;
 8000a34:	2401      	movs	r4, #1
  RCC->APB2ENR |= GPIOX_CLOCK(LCD_RS) | GPIOX_CLOCK(LCD_RST) | GPIOX_CLOCK(LCD_CS) | GPIOX_CLOCK(LCD_SCK) | GPIOX_CLOCK(LCD_MOSI);
 8000a36:	4b27      	ldr	r3, [pc, #156]	; (8000ad4 <LCD_IO_Init+0xa4>)
  GPIOX_SETMODE(MODE_PP_OUT_2MHZ, LCD_BL);
 8000a38:	4927      	ldr	r1, [pc, #156]	; (8000ad8 <LCD_IO_Init+0xa8>)
  RCC->APB2ENR |= GPIOX_CLOCK(LCD_RS) | GPIOX_CLOCK(LCD_RST) | GPIOX_CLOCK(LCD_CS) | GPIOX_CLOCK(LCD_SCK) | GPIOX_CLOCK(LCD_MOSI);
 8000a3a:	699a      	ldr	r2, [r3, #24]
  LCD_RST_OFF;
 8000a3c:	4e27      	ldr	r6, [pc, #156]	; (8000adc <LCD_IO_Init+0xac>)
  RCC->APB2ENR |= GPIOX_CLOCK(LCD_RS) | GPIOX_CLOCK(LCD_RST) | GPIOX_CLOCK(LCD_CS) | GPIOX_CLOCK(LCD_SCK) | GPIOX_CLOCK(LCD_MOSI);
 8000a3e:	f042 0208 	orr.w	r2, r2, #8
 8000a42:	619a      	str	r2, [r3, #24]
  RCC->APB2ENR |= GPIOX_CLOCK(LCD_BL);
 8000a44:	699a      	ldr	r2, [r3, #24]
  HAL_Delay(Delay);
 8000a46:	200a      	movs	r0, #10
  RCC->APB2ENR |= GPIOX_CLOCK(LCD_BL);
 8000a48:	f042 0210 	orr.w	r2, r2, #16
 8000a4c:	619a      	str	r2, [r3, #24]
  GPIOX_SETMODE(MODE_PP_OUT_2MHZ, LCD_BL);
 8000a4e:	680a      	ldr	r2, [r1, #0]
 8000a50:	f422 0270 	bic.w	r2, r2, #15728640	; 0xf00000
 8000a54:	f442 1200 	orr.w	r2, r2, #2097152	; 0x200000
 8000a58:	600a      	str	r2, [r1, #0]
    GPIOX_ODR(LCD_BL) = LCD_BLON;
 8000a5a:	4a21      	ldr	r2, [pc, #132]	; (8000ae0 <LCD_IO_Init+0xb0>)
 8000a5c:	6015      	str	r5, [r2, #0]
  RCC->APB2ENR |= RCC_APB2ENR_AFIOEN;
 8000a5e:	699a      	ldr	r2, [r3, #24]
 8000a60:	f042 0201 	orr.w	r2, r2, #1
 8000a64:	619a      	str	r2, [r3, #24]
  LCD_RS_DATA;
 8000a66:	4b1f      	ldr	r3, [pc, #124]	; (8000ae4 <LCD_IO_Init+0xb4>)
  LCD_RST_OFF;
 8000a68:	6034      	str	r4, [r6, #0]
  LCD_RS_DATA;
 8000a6a:	601c      	str	r4, [r3, #0]
  GPIOX_SETMODE(MODE_PP_OUT_50MHZ, LCD_RST);
 8000a6c:	4b1e      	ldr	r3, [pc, #120]	; (8000ae8 <LCD_IO_Init+0xb8>)
 8000a6e:	681a      	ldr	r2, [r3, #0]
 8000a70:	f422 4270 	bic.w	r2, r2, #61440	; 0xf000
 8000a74:	f442 5240 	orr.w	r2, r2, #12288	; 0x3000
 8000a78:	601a      	str	r2, [r3, #0]
  GPIOX_SETMODE(MODE_PP_OUT_50MHZ, LCD_RS);
 8000a7a:	681a      	ldr	r2, [r3, #0]
 8000a7c:	f022 6270 	bic.w	r2, r2, #251658240	; 0xf000000
 8000a80:	f042 7240 	orr.w	r2, r2, #50331648	; 0x3000000
 8000a84:	601a      	str	r2, [r3, #0]
  GPIOX_SETMODE(MODE_PP_OUT_50MHZ, LCD_CS); // CS
  GPIOX_SETMODE(MODE_PP_OUT_50MHZ, LCD_SCK);
  GPIOX_SETMODE(MODE_PP_OUT_50MHZ, LCD_MOSI);

  #else                                 // Hardver SPI
  LCD_SPI_RCC_EN;
 8000a86:	4a19      	ldr	r2, [pc, #100]	; (8000aec <LCD_IO_Init+0xbc>)
 8000a88:	6014      	str	r4, [r2, #0]

  GPIOX_SETMODE(MODE_PP_ALTER_50MHZ, LCD_SCK);
 8000a8a:	681a      	ldr	r2, [r3, #0]
 8000a8c:	f422 0270 	bic.w	r2, r2, #15728640	; 0xf00000
 8000a90:	f442 0230 	orr.w	r2, r2, #11534336	; 0xb00000
 8000a94:	601a      	str	r2, [r3, #0]
  GPIOX_SETMODE(MODE_PP_ALTER_50MHZ, LCD_MOSI);
 8000a96:	681a      	ldr	r2, [r3, #0]
 8000a98:	f022 4270 	bic.w	r2, r2, #4026531840	; 0xf0000000
 8000a9c:	f042 4230 	orr.w	r2, r2, #2952790016	; 0xb0000000
 8000aa0:	601a      	str	r2, [r3, #0]

  GPIOX_SETMODE(MODE_PP_OUT_50MHZ, LCD_CS);
 8000aa2:	681a      	ldr	r2, [r3, #0]
 8000aa4:	f422 2270 	bic.w	r2, r2, #983040	; 0xf0000
 8000aa8:	f442 3240 	orr.w	r2, r2, #196608	; 0x30000
 8000aac:	601a      	str	r2, [r3, #0]
  GPIOX_ODR(LCD_CS) = 1;

  #if LCD_SPI_MODE == 1
  // Half duplex (adatirny vltogats)
  SPIX->CR1 = SPI_CR1_CPHA | SPI_CR1_CPOL | SPI_CR1_MSTR | SPI_CR1_SPE | SPI_CR1_SSM | SPI_CR1_SSI | (LCD_SPI_SPD << SPI_CR1_BR_Pos) | SPI_CR1_BIDIMODE | SPI_CR1_BIDIOE;
 8000aae:	f24c 324f 	movw	r2, #49999	; 0xc34f
  GPIOX_ODR(LCD_CS) = 1;
 8000ab2:	4b0f      	ldr	r3, [pc, #60]	; (8000af0 <LCD_IO_Init+0xc0>)
 8000ab4:	601c      	str	r4, [r3, #0]
  SPIX->CR1 = SPI_CR1_CPHA | SPI_CR1_CPOL | SPI_CR1_MSTR | SPI_CR1_SPE | SPI_CR1_SSM | SPI_CR1_SSI | (LCD_SPI_SPD << SPI_CR1_BR_Pos) | SPI_CR1_BIDIMODE | SPI_CR1_BIDIOE;
 8000ab6:	4b0f      	ldr	r3, [pc, #60]	; (8000af4 <LCD_IO_Init+0xc4>)
 8000ab8:	601a      	str	r2, [r3, #0]
  HAL_Delay(Delay);
 8000aba:	f7ff fb6b 	bl	8000194 <HAL_Delay>

  #endif // #else LCD_SPI == 0

  /* Set or Reset the control line */
  LCD_Delay(10);
  LCD_RST_ON;
 8000abe:	6035      	str	r5, [r6, #0]
  HAL_Delay(Delay);
 8000ac0:	200a      	movs	r0, #10
 8000ac2:	f7ff fb67 	bl	8000194 <HAL_Delay>
  LCD_Delay(10);
  LCD_RST_OFF;
 8000ac6:	6034      	str	r4, [r6, #0]
  HAL_Delay(Delay);
 8000ac8:	200a      	movs	r0, #10
  LCD_Delay(10);
}
 8000aca:	e8bd 4070 	ldmia.w	sp!, {r4, r5, r6, lr}
  HAL_Delay(Delay);
 8000ace:	f7ff bb61 	b.w	8000194 <HAL_Delay>
 8000ad2:	bf00      	nop
 8000ad4:	40021000 	.word	0x40021000
 8000ad8:	40011004 	.word	0x40011004
 8000adc:	422181ac 	.word	0x422181ac
 8000ae0:	422201b4 	.word	0x422201b4
 8000ae4:	422181b8 	.word	0x422181b8
 8000ae8:	40010c04 	.word	0x40010c04
 8000aec:	424203b8 	.word	0x424203b8
 8000af0:	422181b0 	.word	0x422181b0
 8000af4:	40003800 	.word	0x40003800

08000af8 <LCD_IO_WriteCmd8>:

//-----------------------------------------------------------------------------
void LCD_IO_WriteCmd8(uint8_t Cmd)
{
  LCD_RS_CMD;
 8000af8:	2300      	movs	r3, #0
{
 8000afa:	b510      	push	{r4, lr}
  LCD_RS_CMD;
 8000afc:	4a07      	ldr	r2, [pc, #28]	; (8000b1c <LCD_IO_WriteCmd8+0x24>)
  LCD_CS_ON;
 8000afe:	4c08      	ldr	r4, [pc, #32]	; (8000b20 <LCD_IO_WriteCmd8+0x28>)
  LCD_RS_CMD;
 8000b00:	6013      	str	r3, [r2, #0]
  LCD_CS_ON;
 8000b02:	6023      	str	r3, [r4, #0]
  LCD_DATA_WRITE(Cmd);
 8000b04:	4b07      	ldr	r3, [pc, #28]	; (8000b24 <LCD_IO_WriteCmd8+0x2c>)
 8000b06:	60d8      	str	r0, [r3, #12]
  LCD_SPI_WAIT_TX_BUSY;
 8000b08:	2001      	movs	r0, #1
 8000b0a:	f7ff ff75 	bl	80009f8 <LCD_IO_Delay>
 8000b0e:	4a06      	ldr	r2, [pc, #24]	; (8000b28 <LCD_IO_WriteCmd8+0x30>)
 8000b10:	6813      	ldr	r3, [r2, #0]
 8000b12:	2b00      	cmp	r3, #0
 8000b14:	d1fc      	bne.n	8000b10 <LCD_IO_WriteCmd8+0x18>
  LCD_CS_OFF;
 8000b16:	2301      	movs	r3, #1
 8000b18:	6023      	str	r3, [r4, #0]
 8000b1a:	bd10      	pop	{r4, pc}
 8000b1c:	422181b8 	.word	0x422181b8
 8000b20:	422181b0 	.word	0x422181b0
 8000b24:	40003800 	.word	0x40003800
 8000b28:	4207011c 	.word	0x4207011c

08000b2c <LCD_IO_WriteData8>:
}

//-----------------------------------------------------------------------------
void LCD_IO_WriteData8(uint8_t Data)
{
  LCD_RS_DATA;
 8000b2c:	2301      	movs	r3, #1
 8000b2e:	4a09      	ldr	r2, [pc, #36]	; (8000b54 <LCD_IO_WriteData8+0x28>)
{
 8000b30:	b510      	push	{r4, lr}
  LCD_RS_DATA;
 8000b32:	6013      	str	r3, [r2, #0]
  LCD_CS_ON;
 8000b34:	2200      	movs	r2, #0
 8000b36:	4c08      	ldr	r4, [pc, #32]	; (8000b58 <LCD_IO_WriteData8+0x2c>)
 8000b38:	6022      	str	r2, [r4, #0]
  LCD_DATA_WRITE(Data);
 8000b3a:	4a08      	ldr	r2, [pc, #32]	; (8000b5c <LCD_IO_WriteData8+0x30>)
 8000b3c:	60d0      	str	r0, [r2, #12]
  LCD_SPI_WAIT_TX_BUSY;
 8000b3e:	4618      	mov	r0, r3
 8000b40:	f7ff ff5a 	bl	80009f8 <LCD_IO_Delay>
 8000b44:	4a06      	ldr	r2, [pc, #24]	; (8000b60 <LCD_IO_WriteData8+0x34>)
 8000b46:	6813      	ldr	r3, [r2, #0]
 8000b48:	2b00      	cmp	r3, #0
 8000b4a:	d1fc      	bne.n	8000b46 <LCD_IO_WriteData8+0x1a>
  LCD_CS_OFF;
 8000b4c:	2301      	movs	r3, #1
 8000b4e:	6023      	str	r3, [r4, #0]
 8000b50:	bd10      	pop	{r4, pc}
 8000b52:	bf00      	nop
 8000b54:	422181b8 	.word	0x422181b8
 8000b58:	422181b0 	.word	0x422181b0
 8000b5c:	40003800 	.word	0x40003800
 8000b60:	4207011c 	.word	0x4207011c

08000b64 <LCD_IO_WriteData16>:
}

//-----------------------------------------------------------------------------
void LCD_IO_WriteData16(uint16_t Data)
{
  LCD_RS_DATA;
 8000b64:	2201      	movs	r2, #1
 8000b66:	4b0c      	ldr	r3, [pc, #48]	; (8000b98 <LCD_IO_WriteData16+0x34>)
{
 8000b68:	b510      	push	{r4, lr}
  LCD_RS_DATA;
 8000b6a:	601a      	str	r2, [r3, #0]
  LCD_CS_ON;
 8000b6c:	2200      	movs	r2, #0
 8000b6e:	4c0b      	ldr	r4, [pc, #44]	; (8000b9c <LCD_IO_WriteData16+0x38>)
  LCD_DATA_WRITE(Data >> 8);
 8000b70:	0a01      	lsrs	r1, r0, #8
  LCD_CS_ON;
 8000b72:	6022      	str	r2, [r4, #0]
  LCD_DATA_WRITE(Data >> 8);
 8000b74:	4a0a      	ldr	r2, [pc, #40]	; (8000ba0 <LCD_IO_WriteData16+0x3c>)
 8000b76:	60d1      	str	r1, [r2, #12]
  LCD_SPI_WAIT_TX_FREE;
 8000b78:	490a      	ldr	r1, [pc, #40]	; (8000ba4 <LCD_IO_WriteData16+0x40>)
 8000b7a:	680b      	ldr	r3, [r1, #0]
 8000b7c:	2b00      	cmp	r3, #0
 8000b7e:	d0fc      	beq.n	8000b7a <LCD_IO_WriteData16+0x16>
  LCD_DATA_WRITE(Data);
 8000b80:	60d0      	str	r0, [r2, #12]
  LCD_SPI_WAIT_TX_BUSY;
 8000b82:	2001      	movs	r0, #1
 8000b84:	f7ff ff38 	bl	80009f8 <LCD_IO_Delay>
 8000b88:	4a07      	ldr	r2, [pc, #28]	; (8000ba8 <LCD_IO_WriteData16+0x44>)
 8000b8a:	6813      	ldr	r3, [r2, #0]
 8000b8c:	2b00      	cmp	r3, #0
 8000b8e:	d1fc      	bne.n	8000b8a <LCD_IO_WriteData16+0x26>
  LCD_CS_OFF;
 8000b90:	2301      	movs	r3, #1
 8000b92:	6023      	str	r3, [r4, #0]
 8000b94:	bd10      	pop	{r4, pc}
 8000b96:	bf00      	nop
 8000b98:	422181b8 	.word	0x422181b8
 8000b9c:	422181b0 	.word	0x422181b0
 8000ba0:	40003800 	.word	0x40003800
 8000ba4:	42070104 	.word	0x42070104
 8000ba8:	4207011c 	.word	0x4207011c

08000bac <LCD_IO_WriteDataFill16>:
//-----------------------------------------------------------------------------
void LCD_IO_WriteDataFill16(uint8_t Cmd, uint16_t Data, uint32_t Size)
{
  uint32_t counter;

  LCD_RS_CMD;
 8000bac:	2300      	movs	r3, #0
{
 8000bae:	e92d 4370 	stmdb	sp!, {r4, r5, r6, r8, r9, lr}
  LCD_RS_CMD;
 8000bb2:	4c16      	ldr	r4, [pc, #88]	; (8000c0c <LCD_IO_WriteDataFill16+0x60>)
  LCD_CS_ON;
 8000bb4:	4d16      	ldr	r5, [pc, #88]	; (8000c10 <LCD_IO_WriteDataFill16+0x64>)
  LCD_RS_CMD;
 8000bb6:	6023      	str	r3, [r4, #0]
  LCD_CS_ON;
 8000bb8:	602b      	str	r3, [r5, #0]
  LCD_DATA_WRITE(Cmd);
 8000bba:	4b16      	ldr	r3, [pc, #88]	; (8000c14 <LCD_IO_WriteDataFill16+0x68>)
{
 8000bbc:	4688      	mov	r8, r1
  LCD_DATA_WRITE(Cmd);
 8000bbe:	60d8      	str	r0, [r3, #12]
  LCD_SPI_WAIT_TX_BUSY;
 8000bc0:	2001      	movs	r0, #1
{
 8000bc2:	4616      	mov	r6, r2
  LCD_SPI_WAIT_TX_BUSY;
 8000bc4:	f7ff ff18 	bl	80009f8 <LCD_IO_Delay>
 8000bc8:	4b13      	ldr	r3, [pc, #76]	; (8000c18 <LCD_IO_WriteDataFill16+0x6c>)
 8000bca:	4699      	mov	r9, r3
 8000bcc:	681a      	ldr	r2, [r3, #0]
 8000bce:	2a00      	cmp	r2, #0
 8000bd0:	d1fc      	bne.n	8000bcc <LCD_IO_WriteDataFill16+0x20>

  LCD_RS_DATA;
 8000bd2:	2301      	movs	r3, #1
  for (counter = Size; counter != 0; counter--)
  {
    LCD_SPI_WAIT_TX_FREE;
    LCD_DATA_WRITE(Data >> 8);
 8000bd4:	480f      	ldr	r0, [pc, #60]	; (8000c14 <LCD_IO_WriteDataFill16+0x68>)
  LCD_RS_DATA;
 8000bd6:	6023      	str	r3, [r4, #0]
    LCD_SPI_WAIT_TX_FREE;
 8000bd8:	4b10      	ldr	r3, [pc, #64]	; (8000c1c <LCD_IO_WriteDataFill16+0x70>)
    LCD_DATA_WRITE(Data >> 8);
 8000bda:	ea4f 2218 	mov.w	r2, r8, lsr #8
  for (counter = Size; counter != 0; counter--)
 8000bde:	b956      	cbnz	r6, 8000bf6 <LCD_IO_WriteDataFill16+0x4a>
    LCD_SPI_WAIT_TX_FREE;
    LCD_DATA_WRITE(Data);
  }
  LCD_SPI_WAIT_TX_BUSY;
 8000be0:	2001      	movs	r0, #1
 8000be2:	f7ff ff09 	bl	80009f8 <LCD_IO_Delay>
 8000be6:	f8d9 3000 	ldr.w	r3, [r9]
 8000bea:	2b00      	cmp	r3, #0
 8000bec:	d1fb      	bne.n	8000be6 <LCD_IO_WriteDataFill16+0x3a>
  LCD_CS_OFF;
 8000bee:	2301      	movs	r3, #1
 8000bf0:	602b      	str	r3, [r5, #0]
 8000bf2:	e8bd 8370 	ldmia.w	sp!, {r4, r5, r6, r8, r9, pc}
    LCD_SPI_WAIT_TX_FREE;
 8000bf6:	6819      	ldr	r1, [r3, #0]
 8000bf8:	2900      	cmp	r1, #0
 8000bfa:	d0fc      	beq.n	8000bf6 <LCD_IO_WriteDataFill16+0x4a>
    LCD_DATA_WRITE(Data >> 8);
 8000bfc:	60c2      	str	r2, [r0, #12]
    LCD_SPI_WAIT_TX_FREE;
 8000bfe:	6819      	ldr	r1, [r3, #0]
 8000c00:	2900      	cmp	r1, #0
 8000c02:	d0fc      	beq.n	8000bfe <LCD_IO_WriteDataFill16+0x52>
    LCD_DATA_WRITE(Data);
 8000c04:	f8c0 800c 	str.w	r8, [r0, #12]
  for (counter = Size; counter != 0; counter--)
 8000c08:	3e01      	subs	r6, #1
 8000c0a:	e7e8      	b.n	8000bde <LCD_IO_WriteDataFill16+0x32>
 8000c0c:	422181b8 	.word	0x422181b8
 8000c10:	422181b0 	.word	0x422181b0
 8000c14:	40003800 	.word	0x40003800
 8000c18:	4207011c 	.word	0x4207011c
 8000c1c:	42070104 	.word	0x42070104

08000c20 <LCD_IO_WriteMultipleData8>:
//-----------------------------------------------------------------------------
void LCD_IO_WriteMultipleData8(uint8_t Cmd, uint8_t *pData, uint32_t Size)
{
  uint32_t counter = 0;

  LCD_RS_CMD;
 8000c20:	2300      	movs	r3, #0
{
 8000c22:	e92d 4370 	stmdb	sp!, {r4, r5, r6, r8, r9, lr}
  LCD_RS_CMD;
 8000c26:	4c14      	ldr	r4, [pc, #80]	; (8000c78 <LCD_IO_WriteMultipleData8+0x58>)
  LCD_CS_ON;
 8000c28:	4e14      	ldr	r6, [pc, #80]	; (8000c7c <LCD_IO_WriteMultipleData8+0x5c>)
  LCD_RS_CMD;
 8000c2a:	6023      	str	r3, [r4, #0]
  LCD_CS_ON;
 8000c2c:	6033      	str	r3, [r6, #0]
  LCD_DATA_WRITE(Cmd);
 8000c2e:	4b14      	ldr	r3, [pc, #80]	; (8000c80 <LCD_IO_WriteMultipleData8+0x60>)
{
 8000c30:	4688      	mov	r8, r1
  LCD_DATA_WRITE(Cmd);
 8000c32:	60d8      	str	r0, [r3, #12]
  LCD_SPI_WAIT_TX_BUSY;
 8000c34:	2001      	movs	r0, #1
{
 8000c36:	4615      	mov	r5, r2
  LCD_SPI_WAIT_TX_BUSY;
 8000c38:	f7ff fede 	bl	80009f8 <LCD_IO_Delay>
 8000c3c:	4b11      	ldr	r3, [pc, #68]	; (8000c84 <LCD_IO_WriteMultipleData8+0x64>)
 8000c3e:	4699      	mov	r9, r3
 8000c40:	681a      	ldr	r2, [r3, #0]
 8000c42:	2a00      	cmp	r2, #0
 8000c44:	d1fc      	bne.n	8000c40 <LCD_IO_WriteMultipleData8+0x20>

  LCD_RS_DATA;
 8000c46:	2301      	movs	r3, #1
  for (counter = Size; counter != 0; counter--)
  {
    LCD_SPI_WAIT_TX_FREE;
    LCD_DATA_WRITE(*pData);
 8000c48:	4a0d      	ldr	r2, [pc, #52]	; (8000c80 <LCD_IO_WriteMultipleData8+0x60>)
  LCD_RS_DATA;
 8000c4a:	6023      	str	r3, [r4, #0]
    LCD_SPI_WAIT_TX_FREE;
 8000c4c:	4b0e      	ldr	r3, [pc, #56]	; (8000c88 <LCD_IO_WriteMultipleData8+0x68>)
 8000c4e:	4445      	add	r5, r8
  for (counter = Size; counter != 0; counter--)
 8000c50:	45a8      	cmp	r8, r5
 8000c52:	d10a      	bne.n	8000c6a <LCD_IO_WriteMultipleData8+0x4a>
    pData ++;
  }
  LCD_SPI_WAIT_TX_BUSY;
 8000c54:	2001      	movs	r0, #1
 8000c56:	f7ff fecf 	bl	80009f8 <LCD_IO_Delay>
 8000c5a:	f8d9 3000 	ldr.w	r3, [r9]
 8000c5e:	2b00      	cmp	r3, #0
 8000c60:	d1fb      	bne.n	8000c5a <LCD_IO_WriteMultipleData8+0x3a>
  LCD_CS_OFF;
 8000c62:	2301      	movs	r3, #1
 8000c64:	6033      	str	r3, [r6, #0]
 8000c66:	e8bd 8370 	ldmia.w	sp!, {r4, r5, r6, r8, r9, pc}
    LCD_SPI_WAIT_TX_FREE;
 8000c6a:	6819      	ldr	r1, [r3, #0]
 8000c6c:	2900      	cmp	r1, #0
 8000c6e:	d0fc      	beq.n	8000c6a <LCD_IO_WriteMultipleData8+0x4a>
    LCD_DATA_WRITE(*pData);
 8000c70:	f818 1b01 	ldrb.w	r1, [r8], #1
 8000c74:	60d1      	str	r1, [r2, #12]
 8000c76:	e7eb      	b.n	8000c50 <LCD_IO_WriteMultipleData8+0x30>
 8000c78:	422181b8 	.word	0x422181b8
 8000c7c:	422181b0 	.word	0x422181b0
 8000c80:	40003800 	.word	0x40003800
 8000c84:	4207011c 	.word	0x4207011c
 8000c88:	42070104 	.word	0x42070104

08000c8c <LCD_IO_WriteMultipleData16>:
//-----------------------------------------------------------------------------
void LCD_IO_WriteMultipleData16(uint8_t Cmd, uint16_t *pData, uint32_t Size)
{
  uint32_t counter = 0;

  LCD_RS_CMD;
 8000c8c:	2300      	movs	r3, #0
{
 8000c8e:	e92d 4370 	stmdb	sp!, {r4, r5, r6, r8, r9, lr}
  LCD_RS_CMD;
 8000c92:	4c17      	ldr	r4, [pc, #92]	; (8000cf0 <LCD_IO_WriteMultipleData16+0x64>)
  LCD_CS_ON;
 8000c94:	4d17      	ldr	r5, [pc, #92]	; (8000cf4 <LCD_IO_WriteMultipleData16+0x68>)
  LCD_RS_CMD;
 8000c96:	6023      	str	r3, [r4, #0]
  LCD_CS_ON;
 8000c98:	602b      	str	r3, [r5, #0]
  LCD_DATA_WRITE(Cmd);
 8000c9a:	4b17      	ldr	r3, [pc, #92]	; (8000cf8 <LCD_IO_WriteMultipleData16+0x6c>)
{
 8000c9c:	4688      	mov	r8, r1
  LCD_DATA_WRITE(Cmd);
 8000c9e:	60d8      	str	r0, [r3, #12]
  LCD_SPI_WAIT_TX_BUSY;
 8000ca0:	2001      	movs	r0, #1
{
 8000ca2:	4616      	mov	r6, r2
  LCD_SPI_WAIT_TX_BUSY;
 8000ca4:	f7ff fea8 	bl	80009f8 <LCD_IO_Delay>
 8000ca8:	4b14      	ldr	r3, [pc, #80]	; (8000cfc <LCD_IO_WriteMultipleData16+0x70>)
 8000caa:	4699      	mov	r9, r3
 8000cac:	681a      	ldr	r2, [r3, #0]
 8000cae:	2a00      	cmp	r2, #0
 8000cb0:	d1fc      	bne.n	8000cac <LCD_IO_WriteMultipleData16+0x20>

  LCD_RS_DATA;
 8000cb2:	2301      	movs	r3, #1
  for (counter = Size; counter != 0; counter--)
  {
    /* Need to invert bytes for LCD*/
    LCD_SPI_WAIT_TX_FREE;
    LCD_DATA_WRITE(*((uint8_t *)pData + 1));
 8000cb4:	4810      	ldr	r0, [pc, #64]	; (8000cf8 <LCD_IO_WriteMultipleData16+0x6c>)
  LCD_RS_DATA;
 8000cb6:	6023      	str	r3, [r4, #0]
    LCD_SPI_WAIT_TX_FREE;
 8000cb8:	4b11      	ldr	r3, [pc, #68]	; (8000d00 <LCD_IO_WriteMultipleData16+0x74>)
  for (counter = Size; counter != 0; counter--)
 8000cba:	b956      	cbnz	r6, 8000cd2 <LCD_IO_WriteMultipleData16+0x46>
    LCD_SPI_WAIT_TX_FREE;
    LCD_DATA_WRITE(*pData);
    pData ++;
  }
  LCD_SPI_WAIT_TX_BUSY;
 8000cbc:	2001      	movs	r0, #1
 8000cbe:	f7ff fe9b 	bl	80009f8 <LCD_IO_Delay>
 8000cc2:	f8d9 3000 	ldr.w	r3, [r9]
 8000cc6:	2b00      	cmp	r3, #0
 8000cc8:	d1fb      	bne.n	8000cc2 <LCD_IO_WriteMultipleData16+0x36>
  LCD_CS_OFF;
 8000cca:	2301      	movs	r3, #1
 8000ccc:	602b      	str	r3, [r5, #0]
 8000cce:	e8bd 8370 	ldmia.w	sp!, {r4, r5, r6, r8, r9, pc}
    LCD_SPI_WAIT_TX_FREE;
 8000cd2:	681a      	ldr	r2, [r3, #0]
 8000cd4:	2a00      	cmp	r2, #0
 8000cd6:	d0fc      	beq.n	8000cd2 <LCD_IO_WriteMultipleData16+0x46>
    LCD_DATA_WRITE(*((uint8_t *)pData + 1));
 8000cd8:	f898 2001 	ldrb.w	r2, [r8, #1]
 8000cdc:	60c2      	str	r2, [r0, #12]
    LCD_SPI_WAIT_TX_FREE;
 8000cde:	681a      	ldr	r2, [r3, #0]
 8000ce0:	2a00      	cmp	r2, #0
 8000ce2:	d0fc      	beq.n	8000cde <LCD_IO_WriteMultipleData16+0x52>
    LCD_DATA_WRITE(*pData);
 8000ce4:	f838 2b02 	ldrh.w	r2, [r8], #2
  for (counter = Size; counter != 0; counter--)
 8000ce8:	3e01      	subs	r6, #1
    LCD_DATA_WRITE(*pData);
 8000cea:	60c2      	str	r2, [r0, #12]
 8000cec:	e7e5      	b.n	8000cba <LCD_IO_WriteMultipleData16+0x2e>
 8000cee:	bf00      	nop
 8000cf0:	422181b8 	.word	0x422181b8
 8000cf4:	422181b0 	.word	0x422181b0
 8000cf8:	40003800 	.word	0x40003800
 8000cfc:	4207011c 	.word	0x4207011c
 8000d00:	42070104 	.word	0x42070104

08000d04 <LCD_IO_ReadMultipleData8>:
__weak void LCD_IO_ReadMultipleData24to16(uint8_t Cmd, uint16_t *pData, uint32_t Size) {}
#else

//-----------------------------------------------------------------------------
void LCD_IO_ReadMultipleData8(uint8_t Cmd, uint8_t *pData, uint32_t Size)
{
 8000d04:	e92d 4178 	stmdb	sp!, {r3, r4, r5, r6, r8, lr}
  uint32_t counter;

  LCD_RS_CMD;
 8000d08:	2300      	movs	r3, #0
  LCD_CS_ON;
 8000d0a:	f8df 80e0 	ldr.w	r8, [pc, #224]	; 8000dec <LCD_IO_ReadMultipleData8+0xe8>
  LCD_RS_CMD;
 8000d0e:	4e30      	ldr	r6, [pc, #192]	; (8000dd0 <LCD_IO_ReadMultipleData8+0xcc>)
{
 8000d10:	460c      	mov	r4, r1
  LCD_RS_CMD;
 8000d12:	6033      	str	r3, [r6, #0]
  LCD_CS_ON;
 8000d14:	f8c8 3000 	str.w	r3, [r8]
  LCD_DATA_WRITE(Cmd);
 8000d18:	4b2e      	ldr	r3, [pc, #184]	; (8000dd4 <LCD_IO_ReadMultipleData8+0xd0>)
{
 8000d1a:	4615      	mov	r5, r2
  LCD_DATA_WRITE(Cmd);
 8000d1c:	60d8      	str	r0, [r3, #12]
  LCD_SPI_WAIT_TX_BUSY;
 8000d1e:	2001      	movs	r0, #1
 8000d20:	f7ff fe6a 	bl	80009f8 <LCD_IO_Delay>
 8000d24:	4640      	mov	r0, r8
 8000d26:	4b2c      	ldr	r3, [pc, #176]	; (8000dd8 <LCD_IO_ReadMultipleData8+0xd4>)
 8000d28:	f8d3 e000 	ldr.w	lr, [r3]
 8000d2c:	f1be 0f00 	cmp.w	lr, #0
 8000d30:	d1fa      	bne.n	8000d28 <LCD_IO_ReadMultipleData8+0x24>

  LCD_RS_DATA;
 8000d32:	2101      	movs	r1, #1

  if(Size == 1)
 8000d34:	428d      	cmp	r5, r1
  LCD_RS_DATA;
 8000d36:	6031      	str	r1, [r6, #0]
  if(Size == 1)
 8000d38:	d124      	bne.n	8000d84 <LCD_IO_ReadMultipleData8+0x80>
  {
    LCD_DATA_DIRREAD;
 8000d3a:	4a26      	ldr	r2, [pc, #152]	; (8000dd4 <LCD_IO_ReadMultipleData8+0xd0>)
    LCD_DATA_READ(*pData);
 8000d3c:	4927      	ldr	r1, [pc, #156]	; (8000ddc <LCD_IO_ReadMultipleData8+0xd8>)
    LCD_DATA_DIRREAD;
 8000d3e:	6813      	ldr	r3, [r2, #0]
 8000d40:	f423 4380 	bic.w	r3, r3, #16384	; 0x4000
 8000d44:	f023 0338 	bic.w	r3, r3, #56	; 0x38
 8000d48:	f043 0320 	orr.w	r3, r3, #32
 8000d4c:	6013      	str	r3, [r2, #0]
    LCD_DATA_READ(*pData);
 8000d4e:	680b      	ldr	r3, [r1, #0]
 8000d50:	2b00      	cmp	r3, #0
 8000d52:	d0fc      	beq.n	8000d4e <LCD_IO_ReadMultipleData8+0x4a>
 8000d54:	68d3      	ldr	r3, [r2, #12]
 8000d56:	7023      	strb	r3, [r4, #0]
      LCD_DATA_READ(*pData);
      pData++;
    }
  }

  LCD_CS_OFF;
 8000d58:	2501      	movs	r5, #1
  LCD_DATA_DIRWRITE;
 8000d5a:	4a1e      	ldr	r2, [pc, #120]	; (8000dd4 <LCD_IO_ReadMultipleData8+0xd0>)
  LCD_CS_OFF;
 8000d5c:	6005      	str	r5, [r0, #0]
  LCD_DATA_DIRWRITE;
 8000d5e:	6813      	ldr	r3, [r2, #0]
 8000d60:	4c1f      	ldr	r4, [pc, #124]	; (8000de0 <LCD_IO_ReadMultipleData8+0xdc>)
 8000d62:	f423 4380 	bic.w	r3, r3, #16384	; 0x4000
 8000d66:	f023 0338 	bic.w	r3, r3, #56	; 0x38
 8000d6a:	f443 4380 	orr.w	r3, r3, #16384	; 0x4000
 8000d6e:	f043 0308 	orr.w	r3, r3, #8
 8000d72:	6013      	str	r3, [r2, #0]
 8000d74:	2300      	movs	r3, #0
 8000d76:	2003      	movs	r0, #3
 8000d78:	6023      	str	r3, [r4, #0]
 8000d7a:	f7ff fe3d 	bl	80009f8 <LCD_IO_Delay>
 8000d7e:	6025      	str	r5, [r4, #0]
 8000d80:	e8bd 8178 	ldmia.w	sp!, {r3, r4, r5, r6, r8, pc}
    LCD_SPI_DUMMYCLK;         // Dummy clock
 8000d84:	4a17      	ldr	r2, [pc, #92]	; (8000de4 <LCD_IO_ReadMultipleData8+0xe0>)
 8000d86:	4425      	add	r5, r4
 8000d88:	6813      	ldr	r3, [r2, #0]
 8000d8a:	f423 0370 	bic.w	r3, r3, #15728640	; 0xf00000
 8000d8e:	f443 1340 	orr.w	r3, r3, #3145728	; 0x300000
 8000d92:	6013      	str	r3, [r2, #0]
 8000d94:	4b14      	ldr	r3, [pc, #80]	; (8000de8 <LCD_IO_ReadMultipleData8+0xe4>)
 8000d96:	f8c3 e000 	str.w	lr, [r3]
 8000d9a:	6019      	str	r1, [r3, #0]
 8000d9c:	6813      	ldr	r3, [r2, #0]
    LCD_DATA_DIRREAD;
 8000d9e:	490d      	ldr	r1, [pc, #52]	; (8000dd4 <LCD_IO_ReadMultipleData8+0xd0>)
    LCD_SPI_DUMMYCLK;         // Dummy clock
 8000da0:	f423 0370 	bic.w	r3, r3, #15728640	; 0xf00000
 8000da4:	f443 0330 	orr.w	r3, r3, #11534336	; 0xb00000
 8000da8:	6013      	str	r3, [r2, #0]
    LCD_DATA_DIRREAD;
 8000daa:	680b      	ldr	r3, [r1, #0]
 8000dac:	f423 4380 	bic.w	r3, r3, #16384	; 0x4000
 8000db0:	f023 0338 	bic.w	r3, r3, #56	; 0x38
 8000db4:	f043 0320 	orr.w	r3, r3, #32
 8000db8:	600b      	str	r3, [r1, #0]
      LCD_DATA_READ(*pData);
 8000dba:	4b08      	ldr	r3, [pc, #32]	; (8000ddc <LCD_IO_ReadMultipleData8+0xd8>)
    for (counter = Size; counter != 0; counter--)
 8000dbc:	42ac      	cmp	r4, r5
 8000dbe:	d0cb      	beq.n	8000d58 <LCD_IO_ReadMultipleData8+0x54>
      LCD_DATA_READ(*pData);
 8000dc0:	681a      	ldr	r2, [r3, #0]
 8000dc2:	2a00      	cmp	r2, #0
 8000dc4:	d0fc      	beq.n	8000dc0 <LCD_IO_ReadMultipleData8+0xbc>
 8000dc6:	68ca      	ldr	r2, [r1, #12]
 8000dc8:	f804 2b01 	strb.w	r2, [r4], #1
 8000dcc:	e7f6      	b.n	8000dbc <LCD_IO_ReadMultipleData8+0xb8>
 8000dce:	bf00      	nop
 8000dd0:	422181b8 	.word	0x422181b8
 8000dd4:	40003800 	.word	0x40003800
 8000dd8:	4207011c 	.word	0x4207011c
 8000ddc:	42070100 	.word	0x42070100
 8000de0:	42070018 	.word	0x42070018
 8000de4:	40010c04 	.word	0x40010c04
 8000de8:	422181b4 	.word	0x422181b4
 8000dec:	422181b0 	.word	0x422181b0

08000df0 <LCD_IO_ReadMultipleData24to16>:
  LCD_DATA_DIRWRITE;
}

//-----------------------------------------------------------------------------
void LCD_IO_ReadMultipleData24to16(uint8_t Cmd, uint16_t *pData, uint32_t Size)
{
 8000df0:	e92d 4178 	stmdb	sp!, {r3, r4, r5, r6, r8, lr}
  uint32_t counter;
  uint8_t rgb888[3];

  LCD_RS_CMD;
 8000df4:	2300      	movs	r3, #0
  LCD_CS_ON;
 8000df6:	f8df 80f0 	ldr.w	r8, [pc, #240]	; 8000ee8 <LCD_IO_ReadMultipleData24to16+0xf8>
  LCD_RS_CMD;
 8000dfa:	4e34      	ldr	r6, [pc, #208]	; (8000ecc <LCD_IO_ReadMultipleData24to16+0xdc>)
{
 8000dfc:	460d      	mov	r5, r1
  LCD_RS_CMD;
 8000dfe:	6033      	str	r3, [r6, #0]
  LCD_CS_ON;
 8000e00:	f8c8 3000 	str.w	r3, [r8]
  LCD_DATA_WRITE(Cmd);
 8000e04:	4b32      	ldr	r3, [pc, #200]	; (8000ed0 <LCD_IO_ReadMultipleData24to16+0xe0>)
{
 8000e06:	4614      	mov	r4, r2
  LCD_DATA_WRITE(Cmd);
 8000e08:	60d8      	str	r0, [r3, #12]

  LCD_SPI_WAIT_TX_BUSY;
 8000e0a:	2001      	movs	r0, #1
 8000e0c:	f7ff fdf4 	bl	80009f8 <LCD_IO_Delay>
 8000e10:	4641      	mov	r1, r8
 8000e12:	4b30      	ldr	r3, [pc, #192]	; (8000ed4 <LCD_IO_ReadMultipleData24to16+0xe4>)
 8000e14:	f8d3 e000 	ldr.w	lr, [r3]
 8000e18:	f1be 0f00 	cmp.w	lr, #0
 8000e1c:	d1fa      	bne.n	8000e14 <LCD_IO_ReadMultipleData24to16+0x24>
  LCD_RS_DATA;
 8000e1e:	2001      	movs	r0, #1

  LCD_SPI_DUMMYCLK;           // Dummy clock
 8000e20:	4a2d      	ldr	r2, [pc, #180]	; (8000ed8 <LCD_IO_ReadMultipleData24to16+0xe8>)
  LCD_RS_DATA;
 8000e22:	6030      	str	r0, [r6, #0]
  LCD_SPI_DUMMYCLK;           // Dummy clock
 8000e24:	6813      	ldr	r3, [r2, #0]
 8000e26:	f423 0370 	bic.w	r3, r3, #15728640	; 0xf00000
 8000e2a:	f443 1340 	orr.w	r3, r3, #3145728	; 0x300000
 8000e2e:	6013      	str	r3, [r2, #0]
 8000e30:	4b2a      	ldr	r3, [pc, #168]	; (8000edc <LCD_IO_ReadMultipleData24to16+0xec>)
 8000e32:	f8c3 e000 	str.w	lr, [r3]
 8000e36:	6018      	str	r0, [r3, #0]
 8000e38:	6813      	ldr	r3, [r2, #0]
 8000e3a:	f423 0370 	bic.w	r3, r3, #15728640	; 0xf00000
 8000e3e:	f443 0330 	orr.w	r3, r3, #11534336	; 0xb00000
 8000e42:	6013      	str	r3, [r2, #0]
  LCD_DATA_DIRREAD;
 8000e44:	4a22      	ldr	r2, [pc, #136]	; (8000ed0 <LCD_IO_ReadMultipleData24to16+0xe0>)
 8000e46:	6813      	ldr	r3, [r2, #0]
 8000e48:	f423 4380 	bic.w	r3, r3, #16384	; 0x4000
 8000e4c:	f023 0338 	bic.w	r3, r3, #56	; 0x38
 8000e50:	f043 0320 	orr.w	r3, r3, #32
 8000e54:	6013      	str	r3, [r2, #0]

  LCD_DATA_READ(rgb888[0]);   // Dummy data
 8000e56:	4b22      	ldr	r3, [pc, #136]	; (8000ee0 <LCD_IO_ReadMultipleData24to16+0xf0>)
 8000e58:	4618      	mov	r0, r3
 8000e5a:	681e      	ldr	r6, [r3, #0]
 8000e5c:	2e00      	cmp	r6, #0
 8000e5e:	d0fc      	beq.n	8000e5a <LCD_IO_ReadMultipleData24to16+0x6a>
 8000e60:	68d3      	ldr	r3, [r2, #12]
  for (counter = Size; counter != 0; counter--)
  {
    LCD_DATA_READ(rgb888[0]);
 8000e62:	4e1b      	ldr	r6, [pc, #108]	; (8000ed0 <LCD_IO_ReadMultipleData24to16+0xe0>)
    LCD_DATA_READ(rgb888[1]);
    LCD_DATA_READ(rgb888[2]);
    *pData = ((rgb888[0] & 0b11111000) << 8 | (rgb888[1] & 0b11111100) << 3 | rgb888[2] >> 3);
 8000e64:	f8df e084 	ldr.w	lr, [pc, #132]	; 8000eec <LCD_IO_ReadMultipleData24to16+0xfc>
  for (counter = Size; counter != 0; counter--)
 8000e68:	b9a4      	cbnz	r4, 8000e94 <LCD_IO_ReadMultipleData24to16+0xa4>
    pData++;
  }
  LCD_CS_OFF;
 8000e6a:	2601      	movs	r6, #1
  LCD_DATA_DIRWRITE;
 8000e6c:	4a18      	ldr	r2, [pc, #96]	; (8000ed0 <LCD_IO_ReadMultipleData24to16+0xe0>)
  LCD_CS_OFF;
 8000e6e:	600e      	str	r6, [r1, #0]
  LCD_DATA_DIRWRITE;
 8000e70:	6813      	ldr	r3, [r2, #0]
 8000e72:	4d1c      	ldr	r5, [pc, #112]	; (8000ee4 <LCD_IO_ReadMultipleData24to16+0xf4>)
 8000e74:	f423 4380 	bic.w	r3, r3, #16384	; 0x4000
 8000e78:	f023 0338 	bic.w	r3, r3, #56	; 0x38
 8000e7c:	f443 4380 	orr.w	r3, r3, #16384	; 0x4000
 8000e80:	f043 0308 	orr.w	r3, r3, #8
 8000e84:	6013      	str	r3, [r2, #0]
 8000e86:	2003      	movs	r0, #3
 8000e88:	602c      	str	r4, [r5, #0]
 8000e8a:	f7ff fdb5 	bl	80009f8 <LCD_IO_Delay>
 8000e8e:	602e      	str	r6, [r5, #0]
 8000e90:	e8bd 8178 	ldmia.w	sp!, {r3, r4, r5, r6, r8, pc}
    LCD_DATA_READ(rgb888[0]);
 8000e94:	6803      	ldr	r3, [r0, #0]
 8000e96:	2b00      	cmp	r3, #0
 8000e98:	d0fc      	beq.n	8000e94 <LCD_IO_ReadMultipleData24to16+0xa4>
 8000e9a:	f8d6 c00c 	ldr.w	ip, [r6, #12]
    LCD_DATA_READ(rgb888[1]);
 8000e9e:	6803      	ldr	r3, [r0, #0]
 8000ea0:	2b00      	cmp	r3, #0
 8000ea2:	d0fc      	beq.n	8000e9e <LCD_IO_ReadMultipleData24to16+0xae>
 8000ea4:	68f2      	ldr	r2, [r6, #12]
    LCD_DATA_READ(rgb888[2]);
 8000ea6:	6803      	ldr	r3, [r0, #0]
 8000ea8:	2b00      	cmp	r3, #0
 8000eaa:	d0fc      	beq.n	8000ea6 <LCD_IO_ReadMultipleData24to16+0xb6>
 8000eac:	68f3      	ldr	r3, [r6, #12]
    *pData = ((rgb888[0] & 0b11111000) << 8 | (rgb888[1] & 0b11111100) << 3 | rgb888[2] >> 3);
 8000eae:	ea0e 2c0c 	and.w	ip, lr, ip, lsl #8
 8000eb2:	f3c3 03c4 	ubfx	r3, r3, #3, #5
 8000eb6:	00d2      	lsls	r2, r2, #3
 8000eb8:	ea43 030c 	orr.w	r3, r3, ip
 8000ebc:	f402 62fc 	and.w	r2, r2, #2016	; 0x7e0
 8000ec0:	4313      	orrs	r3, r2
 8000ec2:	f825 3b02 	strh.w	r3, [r5], #2
  for (counter = Size; counter != 0; counter--)
 8000ec6:	3c01      	subs	r4, #1
 8000ec8:	e7ce      	b.n	8000e68 <LCD_IO_ReadMultipleData24to16+0x78>
 8000eca:	bf00      	nop
 8000ecc:	422181b8 	.word	0x422181b8
 8000ed0:	40003800 	.word	0x40003800
 8000ed4:	4207011c 	.word	0x4207011c
 8000ed8:	40010c04 	.word	0x40010c04
 8000edc:	422181b4 	.word	0x422181b4
 8000ee0:	42070100 	.word	0x42070100
 8000ee4:	42070018 	.word	0x42070018
 8000ee8:	422181b0 	.word	0x422181b0
 8000eec:	fffff800 	.word	0xfffff800

08000ef0 <st7735_GetLcdPixelWidth>:
  * @retval The Lcd Pixel Width
  */
uint16_t st7735_GetLcdPixelWidth(void)
{
  return ST7735_MAX_X + 1;
}
 8000ef0:	20a0      	movs	r0, #160	; 0xa0
 8000ef2:	4770      	bx	lr

08000ef4 <st7735_GetLcdPixelHeight>:
  * @retval The Lcd Pixel Height
  */
uint16_t st7735_GetLcdPixelHeight(void)
{
  return ST7735_MAX_Y + 1;
}
 8000ef4:	2080      	movs	r0, #128	; 0x80
 8000ef6:	4770      	bx	lr

08000ef8 <st7735_Init>:
{
 8000ef8:	b510      	push	{r4, lr}
  if((Is_st7735_Initialized & ST7735_LCD_INITIALIZED) == 0)
 8000efa:	4c31      	ldr	r4, [pc, #196]	; (8000fc0 <st7735_Init+0xc8>)
 8000efc:	7823      	ldrb	r3, [r4, #0]
 8000efe:	07da      	lsls	r2, r3, #31
 8000f00:	d40a      	bmi.n	8000f18 <st7735_Init+0x20>
    Is_st7735_Initialized |= ST7735_LCD_INITIALIZED;
 8000f02:	f043 0201 	orr.w	r2, r3, #1
    if((Is_st7735_Initialized & ST7735_IO_INITIALIZED) == 0)
 8000f06:	079b      	lsls	r3, r3, #30
    Is_st7735_Initialized |= ST7735_LCD_INITIALIZED;
 8000f08:	7022      	strb	r2, [r4, #0]
    if((Is_st7735_Initialized & ST7735_IO_INITIALIZED) == 0)
 8000f0a:	d401      	bmi.n	8000f10 <st7735_Init+0x18>
      LCD_IO_Init();
 8000f0c:	f7ff fd90 	bl	8000a30 <LCD_IO_Init>
    Is_st7735_Initialized |= ST7735_IO_INITIALIZED;
 8000f10:	7823      	ldrb	r3, [r4, #0]
 8000f12:	f043 0302 	orr.w	r3, r3, #2
 8000f16:	7023      	strb	r3, [r4, #0]
  LCD_Delay(1);
 8000f18:	2001      	movs	r0, #1
 8000f1a:	f7ff fd7c 	bl	8000a16 <LCD_Delay>
  LCD_IO_WriteCmd8(ST7735_SWRESET);
 8000f1e:	2001      	movs	r0, #1
 8000f20:	f7ff fdea 	bl	8000af8 <LCD_IO_WriteCmd8>
  LCD_Delay(1);
 8000f24:	2001      	movs	r0, #1
 8000f26:	f7ff fd76 	bl	8000a16 <LCD_Delay>
  LCD_IO_WriteMultipleData8(ST7735_GMCTRP1, (uint8_t *)"\x09\x16\x09\x20\x21\x1B\x13\x19\x17\x15\x1E\x2B\x04\x05\x02\x0E", 16);
 8000f2a:	2210      	movs	r2, #16
 8000f2c:	4925      	ldr	r1, [pc, #148]	; (8000fc4 <st7735_Init+0xcc>)
 8000f2e:	20e0      	movs	r0, #224	; 0xe0
 8000f30:	f7ff fe76 	bl	8000c20 <LCD_IO_WriteMultipleData8>
  LCD_IO_WriteMultipleData8(ST7735_GMCTRN1, (uint8_t *)"\x0B\x14\x08\x1E\x22\x1D\x18\x1E\x1B\x1A\x24\x2B\x06\x06\x02\x0F", 16);
 8000f34:	2210      	movs	r2, #16
 8000f36:	4924      	ldr	r1, [pc, #144]	; (8000fc8 <st7735_Init+0xd0>)
 8000f38:	20e1      	movs	r0, #225	; 0xe1
 8000f3a:	f7ff fe71 	bl	8000c20 <LCD_IO_WriteMultipleData8>
  LCD_IO_WriteMultipleData8(ST7735_PWCTR1, (uint8_t *)"\x17\x15", 2);
 8000f3e:	2202      	movs	r2, #2
 8000f40:	4922      	ldr	r1, [pc, #136]	; (8000fcc <st7735_Init+0xd4>)
 8000f42:	20c0      	movs	r0, #192	; 0xc0
 8000f44:	f7ff fe6c 	bl	8000c20 <LCD_IO_WriteMultipleData8>
  LCD_IO_WriteMultipleData8(ST7735_PWCTR2, (uint8_t *)"\x41", 1);
 8000f48:	2201      	movs	r2, #1
 8000f4a:	4921      	ldr	r1, [pc, #132]	; (8000fd0 <st7735_Init+0xd8>)
 8000f4c:	20c1      	movs	r0, #193	; 0xc1
 8000f4e:	f7ff fe67 	bl	8000c20 <LCD_IO_WriteMultipleData8>
  LCD_IO_WriteMultipleData8(ST7735_VMCTR1, (uint8_t *)"\x00\x12\x80", 3);
 8000f52:	2203      	movs	r2, #3
 8000f54:	491f      	ldr	r1, [pc, #124]	; (8000fd4 <st7735_Init+0xdc>)
 8000f56:	20c5      	movs	r0, #197	; 0xc5
 8000f58:	f7ff fe62 	bl	8000c20 <LCD_IO_WriteMultipleData8>
  LCD_IO_WriteMultipleData8(ST7735_COLMOD, (uint8_t *)"\x05", 1); // Interface Pixel Format (16 bit)
 8000f5c:	2201      	movs	r2, #1
 8000f5e:	491e      	ldr	r1, [pc, #120]	; (8000fd8 <st7735_Init+0xe0>)
 8000f60:	203a      	movs	r0, #58	; 0x3a
 8000f62:	f7ff fe5d 	bl	8000c20 <LCD_IO_WriteMultipleData8>
  LCD_IO_WriteMultipleData8(0xB0, (uint8_t *)"\x80", 1); // Interface Mode Control (SDO NOT USE)
 8000f66:	2201      	movs	r2, #1
 8000f68:	491c      	ldr	r1, [pc, #112]	; (8000fdc <st7735_Init+0xe4>)
 8000f6a:	20b0      	movs	r0, #176	; 0xb0
 8000f6c:	f7ff fe58 	bl	8000c20 <LCD_IO_WriteMultipleData8>
  LCD_IO_WriteMultipleData8(0xB1, (uint8_t *)"\xA0", 1);// Frame rate (60Hz)
 8000f70:	2201      	movs	r2, #1
 8000f72:	491b      	ldr	r1, [pc, #108]	; (8000fe0 <st7735_Init+0xe8>)
 8000f74:	20b1      	movs	r0, #177	; 0xb1
 8000f76:	f7ff fe53 	bl	8000c20 <LCD_IO_WriteMultipleData8>
  LCD_IO_WriteMultipleData8(0xB4, (uint8_t *)"\x02", 1);// Display Inversion Control (2-dot)
 8000f7a:	2201      	movs	r2, #1
 8000f7c:	4919      	ldr	r1, [pc, #100]	; (8000fe4 <st7735_Init+0xec>)
 8000f7e:	20b4      	movs	r0, #180	; 0xb4
 8000f80:	f7ff fe4e 	bl	8000c20 <LCD_IO_WriteMultipleData8>
  LCD_IO_WriteMultipleData8(0xB6, (uint8_t *)"\x02\x02", 2); // Display Function Control RGB/MCU Interface Control
 8000f84:	2202      	movs	r2, #2
 8000f86:	4918      	ldr	r1, [pc, #96]	; (8000fe8 <st7735_Init+0xf0>)
 8000f88:	20b6      	movs	r0, #182	; 0xb6
 8000f8a:	f7ff fe49 	bl	8000c20 <LCD_IO_WriteMultipleData8>
  LCD_IO_WriteMultipleData8(0xE9, (uint8_t *)"\x00", 1);// Set Image Functio (Disable 24 bit data)
 8000f8e:	2201      	movs	r2, #1
 8000f90:	4916      	ldr	r1, [pc, #88]	; (8000fec <st7735_Init+0xf4>)
 8000f92:	20e9      	movs	r0, #233	; 0xe9
 8000f94:	f7ff fe44 	bl	8000c20 <LCD_IO_WriteMultipleData8>
  LCD_IO_WriteMultipleData8(0xF7, (uint8_t *)"\xA9\x51\x2C\x82", 4);// Adjust Control (D7 stream, loose)
 8000f98:	2204      	movs	r2, #4
 8000f9a:	4915      	ldr	r1, [pc, #84]	; (8000ff0 <st7735_Init+0xf8>)
 8000f9c:	20f7      	movs	r0, #247	; 0xf7
 8000f9e:	f7ff fe3f 	bl	8000c20 <LCD_IO_WriteMultipleData8>
  LCD_IO_WriteCmd8(ST7735_MADCTL); LCD_IO_WriteData8(ST7735_MAD_DATA_RIGHT_THEN_DOWN);
 8000fa2:	2036      	movs	r0, #54	; 0x36
 8000fa4:	f7ff fda8 	bl	8000af8 <LCD_IO_WriteCmd8>
 8000fa8:	20a0      	movs	r0, #160	; 0xa0
 8000faa:	f7ff fdbf 	bl	8000b2c <LCD_IO_WriteData8>
  LCD_IO_WriteCmd8(ST7735_SLPOUT);    // Exit Sleep
 8000fae:	2011      	movs	r0, #17
 8000fb0:	f7ff fda2 	bl	8000af8 <LCD_IO_WriteCmd8>
}
 8000fb4:	e8bd 4010 	ldmia.w	sp!, {r4, lr}
  LCD_IO_WriteCmd8(ST7735_DISPON);    // Display on
 8000fb8:	2029      	movs	r0, #41	; 0x29
 8000fba:	f7ff bd9d 	b.w	8000af8 <LCD_IO_WriteCmd8>
 8000fbe:	bf00      	nop
 8000fc0:	200000f0 	.word	0x200000f0
 8000fc4:	08006fa2 	.word	0x08006fa2
 8000fc8:	08006fb3 	.word	0x08006fb3
 8000fcc:	08006fc4 	.word	0x08006fc4
 8000fd0:	08006fc7 	.word	0x08006fc7
 8000fd4:	080032c0 	.word	0x080032c0
 8000fd8:	08006fc9 	.word	0x08006fc9
 8000fdc:	08006fcb 	.word	0x08006fcb
 8000fe0:	08006fcd 	.word	0x08006fcd
 8000fe4:	08006fd0 	.word	0x08006fd0
 8000fe8:	08006fcf 	.word	0x08006fcf
 8000fec:	080032c4 	.word	0x080032c4
 8000ff0:	08006fd2 	.word	0x08006fd2

08000ff4 <st7735_DisplayOn>:
{
 8000ff4:	b508      	push	{r3, lr}
  LCD_IO_WriteCmd8(ST7735_SLPOUT);    // Exit Sleep
 8000ff6:	2011      	movs	r0, #17
 8000ff8:	f7ff fd7e 	bl	8000af8 <LCD_IO_WriteCmd8>
}
 8000ffc:	e8bd 4008 	ldmia.w	sp!, {r3, lr}
  LCD_IO_Bl_OnOff(1);
 8001000:	2001      	movs	r0, #1
 8001002:	f7ff bd0b 	b.w	8000a1c <LCD_IO_Bl_OnOff>

08001006 <st7735_DisplayOff>:
{
 8001006:	b508      	push	{r3, lr}
  LCD_IO_WriteCmd8(ST7735_SLPIN);    // Sleep
 8001008:	2010      	movs	r0, #16
 800100a:	f7ff fd75 	bl	8000af8 <LCD_IO_WriteCmd8>
}
 800100e:	e8bd 4008 	ldmia.w	sp!, {r3, lr}
  LCD_IO_Bl_OnOff(0);
 8001012:	2000      	movs	r0, #0
 8001014:	f7ff bd02 	b.w	8000a1c <LCD_IO_Bl_OnOff>

08001018 <st7735_ReadID>:
  * @param  None
  * @retval The ST7783 ID
  */
uint16_t st7735_ReadID(void)
{
  uint32_t dt = 0;
 8001018:	2300      	movs	r3, #0
{
 800101a:	b507      	push	{r0, r1, r2, lr}
  uint32_t dt = 0;
 800101c:	a902      	add	r1, sp, #8
 800101e:	f841 3d04 	str.w	r3, [r1, #-4]!
  LCD_IO_ReadMultipleData8(ST7735_RDDID, (uint8_t *)&dt, 3);
 8001022:	2203      	movs	r2, #3
 8001024:	2004      	movs	r0, #4
 8001026:	f7ff fe6d 	bl	8000d04 <LCD_IO_ReadMultipleData8>
  if(dt == 0xF0897C) // ID1 = 0x7C, ID2 = 0x89, ID3 = 0xF0
    return 0x7735;
  else
    return 0;
}
 800102a:	f247 7335 	movw	r3, #30517	; 0x7735
 800102e:	9801      	ldr	r0, [sp, #4]
 8001030:	4a03      	ldr	r2, [pc, #12]	; (8001040 <st7735_ReadID+0x28>)
 8001032:	4290      	cmp	r0, r2
 8001034:	bf0c      	ite	eq
 8001036:	4618      	moveq	r0, r3
 8001038:	2000      	movne	r0, #0
 800103a:	b003      	add	sp, #12
 800103c:	f85d fb04 	ldr.w	pc, [sp], #4
 8001040:	00f0897c 	.word	0x00f0897c

08001044 <st7735_SetCursor>:
  * @param  Xpos: specifies the X position.
  * @param  Ypos: specifies the Y position.
  * @retval None
  */
void st7735_SetCursor(uint16_t Xpos, uint16_t Ypos)
{
 8001044:	b510      	push	{r4, lr}
 8001046:	460c      	mov	r4, r1
  ST7735_SETCURSOR(Xpos, Ypos);
 8001048:	2202      	movs	r2, #2
 800104a:	4601      	mov	r1, r0
 800104c:	202a      	movs	r0, #42	; 0x2a
 800104e:	f7ff fdad 	bl	8000bac <LCD_IO_WriteDataFill16>
 8001052:	4621      	mov	r1, r4
}
 8001054:	e8bd 4010 	ldmia.w	sp!, {r4, lr}
  ST7735_SETCURSOR(Xpos, Ypos);
 8001058:	2202      	movs	r2, #2
 800105a:	202b      	movs	r0, #43	; 0x2b
 800105c:	f7ff bda6 	b.w	8000bac <LCD_IO_WriteDataFill16>

08001060 <st7735_WritePixel>:
  * @param  Ypos: specifies the Y position.
  * @param  RGBCode: the RGB pixel color
  * @retval None
  */
void st7735_WritePixel(uint16_t Xpos, uint16_t Ypos, uint16_t RGBCode)
{
 8001060:	b538      	push	{r3, r4, r5, lr}
 8001062:	460d      	mov	r5, r1
 8001064:	4614      	mov	r4, r2
  ST7735_SETCURSOR(Xpos, Ypos);
 8001066:	4601      	mov	r1, r0
 8001068:	2202      	movs	r2, #2
 800106a:	202a      	movs	r0, #42	; 0x2a
 800106c:	f7ff fd9e 	bl	8000bac <LCD_IO_WriteDataFill16>
 8001070:	4629      	mov	r1, r5
 8001072:	2202      	movs	r2, #2
 8001074:	202b      	movs	r0, #43	; 0x2b
 8001076:	f7ff fd99 	bl	8000bac <LCD_IO_WriteDataFill16>
  LCD_IO_WriteCmd8(ST7735_RAMWR); LCD_IO_WriteData16(RGBCode);
 800107a:	202c      	movs	r0, #44	; 0x2c
 800107c:	f7ff fd3c 	bl	8000af8 <LCD_IO_WriteCmd8>
 8001080:	4620      	mov	r0, r4
}
 8001082:	e8bd 4038 	ldmia.w	sp!, {r3, r4, r5, lr}
  LCD_IO_WriteCmd8(ST7735_RAMWR); LCD_IO_WriteData16(RGBCode);
 8001086:	f7ff bd6d 	b.w	8000b64 <LCD_IO_WriteData16>
	...

0800108c <st7735_SetDisplayWindow>:
  * @param  Height: display window height.
  * @param  Width:  display window width.
  * @retval None
  */
void st7735_SetDisplayWindow(uint16_t Xpos, uint16_t Ypos, uint16_t Width, uint16_t Height)
{
 800108c:	b5f8      	push	{r3, r4, r5, r6, r7, lr}
 800108e:	4605      	mov	r5, r0
 8001090:	4617      	mov	r7, r2
 8001092:	460e      	mov	r6, r1
  yStart = Ypos; yEnd = Ypos + Height - 1;
 8001094:	1e5c      	subs	r4, r3, #1
 8001096:	4a0e      	ldr	r2, [pc, #56]	; (80010d0 <st7735_SetDisplayWindow+0x44>)
 8001098:	4b0e      	ldr	r3, [pc, #56]	; (80010d4 <st7735_SetDisplayWindow+0x48>)
 800109a:	440c      	add	r4, r1
 800109c:	b2a4      	uxth	r4, r4
  LCD_IO_WriteCmd8(ST7735_CASET); LCD_IO_WriteData16(Xpos); LCD_IO_WriteData16(Xpos + Width - 1);
 800109e:	202a      	movs	r0, #42	; 0x2a
  yStart = Ypos; yEnd = Ypos + Height - 1;
 80010a0:	801c      	strh	r4, [r3, #0]
 80010a2:	8011      	strh	r1, [r2, #0]
  LCD_IO_WriteCmd8(ST7735_CASET); LCD_IO_WriteData16(Xpos); LCD_IO_WriteData16(Xpos + Width - 1);
 80010a4:	f7ff fd28 	bl	8000af8 <LCD_IO_WriteCmd8>
 80010a8:	4628      	mov	r0, r5
 80010aa:	f7ff fd5b 	bl	8000b64 <LCD_IO_WriteData16>
 80010ae:	1e78      	subs	r0, r7, #1
 80010b0:	4428      	add	r0, r5
 80010b2:	b280      	uxth	r0, r0
 80010b4:	f7ff fd56 	bl	8000b64 <LCD_IO_WriteData16>
  LCD_IO_WriteCmd8(ST7735_PASET); LCD_IO_WriteData16(Ypos); LCD_IO_WriteData16(Ypos + Height - 1);
 80010b8:	202b      	movs	r0, #43	; 0x2b
 80010ba:	f7ff fd1d 	bl	8000af8 <LCD_IO_WriteCmd8>
 80010be:	4630      	mov	r0, r6
 80010c0:	f7ff fd50 	bl	8000b64 <LCD_IO_WriteData16>
 80010c4:	4620      	mov	r0, r4
}
 80010c6:	e8bd 40f8 	ldmia.w	sp!, {r3, r4, r5, r6, r7, lr}
  LCD_IO_WriteCmd8(ST7735_PASET); LCD_IO_WriteData16(Ypos); LCD_IO_WriteData16(Ypos + Height - 1);
 80010ca:	f7ff bd4b 	b.w	8000b64 <LCD_IO_WriteData16>
 80010ce:	bf00      	nop
 80010d0:	200000f4 	.word	0x200000f4
 80010d4:	200000f2 	.word	0x200000f2

080010d8 <st7735_DrawHLine>:
  * @param  Ypos:     specifies the Y position.
  * @param  Length:   specifies the Line length.
  * @retval None
  */
void st7735_DrawHLine(uint16_t RGBCode, uint16_t Xpos, uint16_t Ypos, uint16_t Length)
{
 80010d8:	b5f8      	push	{r3, r4, r5, r6, r7, lr}
 80010da:	460c      	mov	r4, r1
 80010dc:	461d      	mov	r5, r3
 80010de:	4616      	mov	r6, r2
 80010e0:	4607      	mov	r7, r0
  LCD_IO_WriteCmd8(ST7735_CASET); LCD_IO_WriteData16(Xpos); LCD_IO_WriteData16(Xpos + Length - 1);
 80010e2:	202a      	movs	r0, #42	; 0x2a
 80010e4:	f7ff fd08 	bl	8000af8 <LCD_IO_WriteCmd8>
 80010e8:	4620      	mov	r0, r4
 80010ea:	f7ff fd3b 	bl	8000b64 <LCD_IO_WriteData16>
 80010ee:	1e68      	subs	r0, r5, #1
 80010f0:	4420      	add	r0, r4
 80010f2:	b280      	uxth	r0, r0
 80010f4:	f7ff fd36 	bl	8000b64 <LCD_IO_WriteData16>
  LCD_IO_WriteCmd8(ST7735_PASET), LCD_IO_WriteData16(Ypos); LCD_IO_WriteData16(Ypos);
 80010f8:	202b      	movs	r0, #43	; 0x2b
 80010fa:	f7ff fcfd 	bl	8000af8 <LCD_IO_WriteCmd8>
 80010fe:	4630      	mov	r0, r6
 8001100:	f7ff fd30 	bl	8000b64 <LCD_IO_WriteData16>
 8001104:	4630      	mov	r0, r6
 8001106:	f7ff fd2d 	bl	8000b64 <LCD_IO_WriteData16>
  LCD_IO_WriteDataFill16(ST7735_RAMWR, RGBCode, Length);
 800110a:	462a      	mov	r2, r5
 800110c:	4639      	mov	r1, r7
}
 800110e:	e8bd 40f8 	ldmia.w	sp!, {r3, r4, r5, r6, r7, lr}
  LCD_IO_WriteDataFill16(ST7735_RAMWR, RGBCode, Length);
 8001112:	202c      	movs	r0, #44	; 0x2c
 8001114:	f7ff bd4a 	b.w	8000bac <LCD_IO_WriteDataFill16>

08001118 <st7735_DrawVLine>:
  * @param  Ypos:     specifies the Y position.
  * @param  Length:   specifies the Line length.
  * @retval None
  */
void st7735_DrawVLine(uint16_t RGBCode, uint16_t Xpos, uint16_t Ypos, uint16_t Length)
{
 8001118:	b5f8      	push	{r3, r4, r5, r6, r7, lr}
 800111a:	460e      	mov	r6, r1
 800111c:	4614      	mov	r4, r2
 800111e:	461d      	mov	r5, r3
 8001120:	4607      	mov	r7, r0
  LCD_IO_WriteCmd8(ST7735_CASET); LCD_IO_WriteData16(Xpos); LCD_IO_WriteData16(Xpos);
 8001122:	202a      	movs	r0, #42	; 0x2a
 8001124:	f7ff fce8 	bl	8000af8 <LCD_IO_WriteCmd8>
 8001128:	4630      	mov	r0, r6
 800112a:	f7ff fd1b 	bl	8000b64 <LCD_IO_WriteData16>
 800112e:	4630      	mov	r0, r6
 8001130:	f7ff fd18 	bl	8000b64 <LCD_IO_WriteData16>
  LCD_IO_WriteCmd8(ST7735_PASET); LCD_IO_WriteData16(Ypos); LCD_IO_WriteData16(Ypos + Length - 1);
 8001134:	202b      	movs	r0, #43	; 0x2b
 8001136:	f7ff fcdf 	bl	8000af8 <LCD_IO_WriteCmd8>
 800113a:	4620      	mov	r0, r4
 800113c:	f7ff fd12 	bl	8000b64 <LCD_IO_WriteData16>
 8001140:	1e68      	subs	r0, r5, #1
 8001142:	4420      	add	r0, r4
 8001144:	b280      	uxth	r0, r0
 8001146:	f7ff fd0d 	bl	8000b64 <LCD_IO_WriteData16>
  LCD_IO_WriteDataFill16(ST7735_RAMWR, RGBCode, Length);
 800114a:	462a      	mov	r2, r5
 800114c:	4639      	mov	r1, r7
}
 800114e:	e8bd 40f8 	ldmia.w	sp!, {r3, r4, r5, r6, r7, lr}
  LCD_IO_WriteDataFill16(ST7735_RAMWR, RGBCode, Length);
 8001152:	202c      	movs	r0, #44	; 0x2c
 8001154:	f7ff bd2a 	b.w	8000bac <LCD_IO_WriteDataFill16>

08001158 <st7735_ReadPixel>:
{
 8001158:	b513      	push	{r0, r1, r4, lr}
 800115a:	460c      	mov	r4, r1
  ST7735_SETCURSOR(Xpos, Ypos);
 800115c:	2202      	movs	r2, #2
 800115e:	4601      	mov	r1, r0
 8001160:	202a      	movs	r0, #42	; 0x2a
 8001162:	f7ff fd23 	bl	8000bac <LCD_IO_WriteDataFill16>
 8001166:	4621      	mov	r1, r4
 8001168:	2202      	movs	r2, #2
 800116a:	202b      	movs	r0, #43	; 0x2b
 800116c:	f7ff fd1e 	bl	8000bac <LCD_IO_WriteDataFill16>
  LCD_IO_ReadMultipleData24to16(ST7735_RAMRD, &ret, 1);
 8001170:	2201      	movs	r2, #1
 8001172:	f10d 0106 	add.w	r1, sp, #6
 8001176:	202e      	movs	r0, #46	; 0x2e
 8001178:	f7ff fe3a 	bl	8000df0 <LCD_IO_ReadMultipleData24to16>
}
 800117c:	f8bd 0006 	ldrh.w	r0, [sp, #6]
 8001180:	b002      	add	sp, #8
 8001182:	bd10      	pop	{r4, pc}

08001184 <st7735_ReadRGBImage>:
  * @retval None
  * @brief  Draw direction: right then down
  */
#ifdef   LCD_DRVTYPE_V1_1
void st7735_ReadRGBImage(uint16_t Xpos, uint16_t Ypos, uint16_t Xsize, uint16_t Ysize, uint8_t *pData)
{
 8001184:	b570      	push	{r4, r5, r6, lr}
 8001186:	4615      	mov	r5, r2
 8001188:	461e      	mov	r6, r3
 800118a:	9c04      	ldr	r4, [sp, #16]
  uint32_t size;

  size = (Xsize * Ysize);
  st7735_SetDisplayWindow(Xpos, Ypos, Xsize, Ysize);
 800118c:	f7ff ff7e 	bl	800108c <st7735_SetDisplayWindow>
  LCD_IO_ReadMultipleData24to16(ST7735_RAMRD, (uint16_t *)pData, size);
 8001190:	fb06 f205 	mul.w	r2, r6, r5
 8001194:	4621      	mov	r1, r4
}
 8001196:	e8bd 4070 	ldmia.w	sp!, {r4, r5, r6, lr}
  LCD_IO_ReadMultipleData24to16(ST7735_RAMRD, (uint16_t *)pData, size);
 800119a:	202e      	movs	r0, #46	; 0x2e
 800119c:	f7ff be28 	b.w	8000df0 <LCD_IO_ReadMultipleData24to16>

080011a0 <st7735_DrawBitmap>:
{
 80011a0:	b538      	push	{r3, r4, r5, lr}
  size = *(volatile uint16_t *) (pbmp + 2);
 80011a2:	8855      	ldrh	r5, [r2, #2]
  size |= (*(volatile uint16_t *) (pbmp + 4)) << 16;
 80011a4:	8893      	ldrh	r3, [r2, #4]
  index = *(volatile uint16_t *) (pbmp + 10);
 80011a6:	8954      	ldrh	r4, [r2, #10]
  index |= (*(volatile uint16_t *) (pbmp + 12)) << 16;
 80011a8:	8991      	ldrh	r1, [r2, #12]
  size = *(volatile uint16_t *) (pbmp + 2);
 80011aa:	b2ad      	uxth	r5, r5
  index = *(volatile uint16_t *) (pbmp + 10);
 80011ac:	b2a4      	uxth	r4, r4
  index |= (*(volatile uint16_t *) (pbmp + 12)) << 16;
 80011ae:	ea44 4401 	orr.w	r4, r4, r1, lsl #16
  size |= (*(volatile uint16_t *) (pbmp + 4)) << 16;
 80011b2:	ea45 4503 	orr.w	r5, r5, r3, lsl #16
  LCD_IO_WriteCmd8(ST7735_MADCTL); LCD_IO_WriteData8(ST7735_MAD_DATA_RIGHT_THEN_UP);
 80011b6:	2036      	movs	r0, #54	; 0x36
  size = (size - index)/2;
 80011b8:	1b2d      	subs	r5, r5, r4
  pbmp += index;
 80011ba:	4414      	add	r4, r2
  LCD_IO_WriteCmd8(ST7735_MADCTL); LCD_IO_WriteData8(ST7735_MAD_DATA_RIGHT_THEN_UP);
 80011bc:	f7ff fc9c 	bl	8000af8 <LCD_IO_WriteCmd8>
 80011c0:	20e0      	movs	r0, #224	; 0xe0
 80011c2:	f7ff fcb3 	bl	8000b2c <LCD_IO_WriteData8>
  LCD_IO_WriteCmd8(ST7735_PASET); LCD_IO_WriteData16(ST7735_MAX_Y - yEnd); LCD_IO_WriteData16(ST7735_MAX_Y - yStart);
 80011c6:	202b      	movs	r0, #43	; 0x2b
 80011c8:	f7ff fc96 	bl	8000af8 <LCD_IO_WriteCmd8>
 80011cc:	4b0d      	ldr	r3, [pc, #52]	; (8001204 <st7735_DrawBitmap+0x64>)
 80011ce:	8818      	ldrh	r0, [r3, #0]
 80011d0:	f1c0 007f 	rsb	r0, r0, #127	; 0x7f
 80011d4:	b280      	uxth	r0, r0
 80011d6:	f7ff fcc5 	bl	8000b64 <LCD_IO_WriteData16>
 80011da:	4b0b      	ldr	r3, [pc, #44]	; (8001208 <st7735_DrawBitmap+0x68>)
 80011dc:	8818      	ldrh	r0, [r3, #0]
 80011de:	f1c0 007f 	rsb	r0, r0, #127	; 0x7f
 80011e2:	b280      	uxth	r0, r0
 80011e4:	f7ff fcbe 	bl	8000b64 <LCD_IO_WriteData16>
  LCD_IO_WriteMultipleData16(ST7735_RAMWR, (uint16_t *)pbmp, size);
 80011e8:	086a      	lsrs	r2, r5, #1
 80011ea:	4621      	mov	r1, r4
 80011ec:	202c      	movs	r0, #44	; 0x2c
 80011ee:	f7ff fd4d 	bl	8000c8c <LCD_IO_WriteMultipleData16>
  LCD_IO_WriteCmd8(ST7735_MADCTL); LCD_IO_WriteData8(ST7735_MAD_DATA_RIGHT_THEN_DOWN);
 80011f2:	2036      	movs	r0, #54	; 0x36
 80011f4:	f7ff fc80 	bl	8000af8 <LCD_IO_WriteCmd8>
}
 80011f8:	e8bd 4038 	ldmia.w	sp!, {r3, r4, r5, lr}
  LCD_IO_WriteCmd8(ST7735_MADCTL); LCD_IO_WriteData8(ST7735_MAD_DATA_RIGHT_THEN_DOWN);
 80011fc:	20a0      	movs	r0, #160	; 0xa0
 80011fe:	f7ff bc95 	b.w	8000b2c <LCD_IO_WriteData8>
 8001202:	bf00      	nop
 8001204:	200000f2 	.word	0x200000f2
 8001208:	200000f4 	.word	0x200000f4

0800120c <st7735_DrawRGBImage>:
{
 800120c:	b570      	push	{r4, r5, r6, lr}
 800120e:	4615      	mov	r5, r2
 8001210:	461e      	mov	r6, r3
 8001212:	9c04      	ldr	r4, [sp, #16]
  st7735_SetDisplayWindow(Xpos, Ypos, Xsize, Ysize);
 8001214:	f7ff ff3a 	bl	800108c <st7735_SetDisplayWindow>
  LCD_IO_WriteMultipleData16(ST7735_RAMWR, (uint16_t *)pData, size);
 8001218:	fb06 f205 	mul.w	r2, r6, r5
 800121c:	4621      	mov	r1, r4
}
 800121e:	e8bd 4070 	ldmia.w	sp!, {r4, r5, r6, lr}
  LCD_IO_WriteMultipleData16(ST7735_RAMWR, (uint16_t *)pData, size);
 8001222:	202c      	movs	r0, #44	; 0x2c
 8001224:	f7ff bd32 	b.w	8000c8c <LCD_IO_WriteMultipleData16>

08001228 <BSP_LCD_GetXSize>:
  * @param  None    
  * @retval Used LCD X size
  */
uint16_t BSP_LCD_GetXSize(void)
{
  return(lcd_drv->GetLcdPixelWidth());
 8001228:	4b01      	ldr	r3, [pc, #4]	; (8001230 <BSP_LCD_GetXSize+0x8>)
 800122a:	681b      	ldr	r3, [r3, #0]
 800122c:	6a9b      	ldr	r3, [r3, #40]	; 0x28
 800122e:	4718      	bx	r3
 8001230:	2000002c 	.word	0x2000002c

08001234 <BSP_LCD_GetYSize>:
  * @param  None   
  * @retval Used LCD Y size
  */
uint16_t BSP_LCD_GetYSize(void)
{
  return(lcd_drv->GetLcdPixelHeight());
 8001234:	4b01      	ldr	r3, [pc, #4]	; (800123c <BSP_LCD_GetYSize+0x8>)
 8001236:	681b      	ldr	r3, [r3, #0]
 8001238:	6adb      	ldr	r3, [r3, #44]	; 0x2c
 800123a:	4718      	bx	r3
 800123c:	2000002c 	.word	0x2000002c

08001240 <BSP_LCD_SetTextColor>:
  * @param  Color: Text color code RGB(5-6-5)
  * @retval None
  */
void BSP_LCD_SetTextColor(uint16_t Color)
{
  DrawProp.TextColor = Color;
 8001240:	4b01      	ldr	r3, [pc, #4]	; (8001248 <BSP_LCD_SetTextColor+0x8>)
 8001242:	6018      	str	r0, [r3, #0]
 8001244:	4770      	bx	lr
 8001246:	bf00      	nop
 8001248:	2000046c 	.word	0x2000046c

0800124c <BSP_LCD_SetBackColor>:
  * @param  Color: Background color code RGB(5-6-5)
  * @retval None
  */
void BSP_LCD_SetBackColor(uint16_t Color)
{
  DrawProp.BackColor = Color;
 800124c:	4b01      	ldr	r3, [pc, #4]	; (8001254 <BSP_LCD_SetBackColor+0x8>)
 800124e:	6058      	str	r0, [r3, #4]
 8001250:	4770      	bx	lr
 8001252:	bf00      	nop
 8001254:	2000046c 	.word	0x2000046c

08001258 <BSP_LCD_SetFont>:
  * @param  fonts: Font to be used
  * @retval None
  */
void BSP_LCD_SetFont(sFONT *pFonts)
{
  DrawProp.pFont = pFonts;
 8001258:	4b01      	ldr	r3, [pc, #4]	; (8001260 <BSP_LCD_SetFont+0x8>)
 800125a:	6098      	str	r0, [r3, #8]
 800125c:	4770      	bx	lr
 800125e:	bf00      	nop
 8001260:	2000046c 	.word	0x2000046c

08001264 <BSP_LCD_GetFont>:
  * @retval Used font
  */
sFONT *BSP_LCD_GetFont(void)
{
  return DrawProp.pFont;
}
 8001264:	4b01      	ldr	r3, [pc, #4]	; (800126c <BSP_LCD_GetFont+0x8>)
 8001266:	6898      	ldr	r0, [r3, #8]
 8001268:	4770      	bx	lr
 800126a:	bf00      	nop
 800126c:	2000046c 	.word	0x2000046c

08001270 <BSP_LCD_DrawPixel>:
  * @param  RGB_Code: Pixel color in RGB mode (5-6-5)  
  * @retval None
  */
void BSP_LCD_DrawPixel(uint16_t Xpos, uint16_t Ypos, uint16_t RGB_Code)
{
  if(lcd_drv->WritePixel != NULL)
 8001270:	4b02      	ldr	r3, [pc, #8]	; (800127c <BSP_LCD_DrawPixel+0xc>)
 8001272:	681b      	ldr	r3, [r3, #0]
 8001274:	695b      	ldr	r3, [r3, #20]
 8001276:	b103      	cbz	r3, 800127a <BSP_LCD_DrawPixel+0xa>
  {
    lcd_drv->WritePixel(Xpos, Ypos, RGB_Code);
 8001278:	4718      	bx	r3
 800127a:	4770      	bx	lr
 800127c:	2000002c 	.word	0x2000002c

08001280 <BSP_LCD_DrawHLine>:
  */
void BSP_LCD_DrawHLine(uint16_t Xpos, uint16_t Ypos, uint16_t Length)
{
  uint32_t index = 0;
  
  if(lcd_drv->DrawHLine != NULL)
 8001280:	4b10      	ldr	r3, [pc, #64]	; (80012c4 <BSP_LCD_DrawHLine+0x44>)
{
 8001282:	e92d 41f0 	stmdb	sp!, {r4, r5, r6, r7, r8, lr}
  if(lcd_drv->DrawHLine != NULL)
 8001286:	681b      	ldr	r3, [r3, #0]
{
 8001288:	4605      	mov	r5, r0
  if(lcd_drv->DrawHLine != NULL)
 800128a:	6a1c      	ldr	r4, [r3, #32]
{
 800128c:	460e      	mov	r6, r1
 800128e:	4617      	mov	r7, r2
  if(lcd_drv->DrawHLine != NULL)
 8001290:	b974      	cbnz	r4, 80012b0 <BSP_LCD_DrawHLine+0x30>
  }
  else
  {
    for(index = 0; index < Length; index++)
    {
      BSP_LCD_DrawPixel((Xpos + index), Ypos, DrawProp.TextColor);
 8001292:	f8df 8034 	ldr.w	r8, [pc, #52]	; 80012c8 <BSP_LCD_DrawHLine+0x48>
    for(index = 0; index < Length; index++)
 8001296:	42bc      	cmp	r4, r7
 8001298:	d301      	bcc.n	800129e <BSP_LCD_DrawHLine+0x1e>
 800129a:	e8bd 81f0 	ldmia.w	sp!, {r4, r5, r6, r7, r8, pc}
      BSP_LCD_DrawPixel((Xpos + index), Ypos, DrawProp.TextColor);
 800129e:	1928      	adds	r0, r5, r4
 80012a0:	f8b8 2000 	ldrh.w	r2, [r8]
 80012a4:	4631      	mov	r1, r6
 80012a6:	b280      	uxth	r0, r0
 80012a8:	f7ff ffe2 	bl	8001270 <BSP_LCD_DrawPixel>
    for(index = 0; index < Length; index++)
 80012ac:	3401      	adds	r4, #1
 80012ae:	e7f2      	b.n	8001296 <BSP_LCD_DrawHLine+0x16>
    lcd_drv->DrawHLine(DrawProp.TextColor, Xpos, Ypos, Length);
 80012b0:	4613      	mov	r3, r2
 80012b2:	460a      	mov	r2, r1
 80012b4:	4601      	mov	r1, r0
 80012b6:	4804      	ldr	r0, [pc, #16]	; (80012c8 <BSP_LCD_DrawHLine+0x48>)
 80012b8:	46a4      	mov	ip, r4
    }
  }
}
 80012ba:	e8bd 41f0 	ldmia.w	sp!, {r4, r5, r6, r7, r8, lr}
    lcd_drv->DrawHLine(DrawProp.TextColor, Xpos, Ypos, Length);
 80012be:	8800      	ldrh	r0, [r0, #0]
 80012c0:	4760      	bx	ip
 80012c2:	bf00      	nop
 80012c4:	2000002c 	.word	0x2000002c
 80012c8:	2000046c 	.word	0x2000046c

080012cc <BSP_LCD_Clear>:
{ 
 80012cc:	b570      	push	{r4, r5, r6, lr}
  for(counter = 0; counter < BSP_LCD_GetYSize(); counter++)
 80012ce:	2500      	movs	r5, #0
  uint32_t color_backup = DrawProp.TextColor; 
 80012d0:	4c09      	ldr	r4, [pc, #36]	; (80012f8 <BSP_LCD_Clear+0x2c>)
 80012d2:	6826      	ldr	r6, [r4, #0]
  DrawProp.TextColor = Color;
 80012d4:	6020      	str	r0, [r4, #0]
  for(counter = 0; counter < BSP_LCD_GetYSize(); counter++)
 80012d6:	f7ff ffad 	bl	8001234 <BSP_LCD_GetYSize>
 80012da:	4285      	cmp	r5, r0
 80012dc:	d302      	bcc.n	80012e4 <BSP_LCD_Clear+0x18>
  DrawProp.TextColor = Color;
 80012de:	b2b6      	uxth	r6, r6
 80012e0:	6026      	str	r6, [r4, #0]
 80012e2:	bd70      	pop	{r4, r5, r6, pc}
    BSP_LCD_DrawHLine(0, counter, BSP_LCD_GetXSize());
 80012e4:	f7ff ffa0 	bl	8001228 <BSP_LCD_GetXSize>
 80012e8:	b2a9      	uxth	r1, r5
 80012ea:	4602      	mov	r2, r0
 80012ec:	2000      	movs	r0, #0
 80012ee:	f7ff ffc7 	bl	8001280 <BSP_LCD_DrawHLine>
  for(counter = 0; counter < BSP_LCD_GetYSize(); counter++)
 80012f2:	3501      	adds	r5, #1
 80012f4:	e7ef      	b.n	80012d6 <BSP_LCD_Clear+0xa>
 80012f6:	bf00      	nop
 80012f8:	2000046c 	.word	0x2000046c

080012fc <BSP_LCD_Init>:
{ 
 80012fc:	b570      	push	{r4, r5, r6, lr}
  DrawProp.BackColor = 0xFFFF;
 80012fe:	f64f 76ff 	movw	r6, #65535	; 0xffff
  DrawProp.TextColor = 0x0000;
 8001302:	2500      	movs	r5, #0
  DrawProp.BackColor = 0xFFFF;
 8001304:	4c07      	ldr	r4, [pc, #28]	; (8001324 <BSP_LCD_Init+0x28>)
  DrawProp.pFont     = &Font24;
 8001306:	4b08      	ldr	r3, [pc, #32]	; (8001328 <BSP_LCD_Init+0x2c>)
  DrawProp.BackColor = 0xFFFF;
 8001308:	6066      	str	r6, [r4, #4]
  DrawProp.pFont     = &Font24;
 800130a:	60a3      	str	r3, [r4, #8]
  lcd_drv->Init();
 800130c:	4b07      	ldr	r3, [pc, #28]	; (800132c <BSP_LCD_Init+0x30>)
  DrawProp.TextColor = 0x0000;
 800130e:	6025      	str	r5, [r4, #0]
  lcd_drv->Init();
 8001310:	681b      	ldr	r3, [r3, #0]
 8001312:	681b      	ldr	r3, [r3, #0]
 8001314:	4798      	blx	r3
  BSP_LCD_Clear(LCD_COLOR_WHITE);
 8001316:	4630      	mov	r0, r6
 8001318:	f7ff ffd8 	bl	80012cc <BSP_LCD_Clear>
  DrawProp.pFont = pFonts;
 800131c:	4b04      	ldr	r3, [pc, #16]	; (8001330 <BSP_LCD_Init+0x34>)
}
 800131e:	4628      	mov	r0, r5
  DrawProp.pFont = pFonts;
 8001320:	60a3      	str	r3, [r4, #8]
}
 8001322:	bd70      	pop	{r4, r5, r6, pc}
 8001324:	2000046c 	.word	0x2000046c
 8001328:	2000001c 	.word	0x2000001c
 800132c:	2000002c 	.word	0x2000002c
 8001330:	20000024 	.word	0x20000024

08001334 <BSP_LCD_DrawVLine>:
  */
void BSP_LCD_DrawVLine(uint16_t Xpos, uint16_t Ypos, uint16_t Length)
{
  uint32_t index = 0;
  
  if(lcd_drv->DrawVLine != NULL)
 8001334:	4b10      	ldr	r3, [pc, #64]	; (8001378 <BSP_LCD_DrawVLine+0x44>)
{
 8001336:	e92d 41f0 	stmdb	sp!, {r4, r5, r6, r7, r8, lr}
  if(lcd_drv->DrawVLine != NULL)
 800133a:	681b      	ldr	r3, [r3, #0]
{
 800133c:	4605      	mov	r5, r0
  if(lcd_drv->DrawVLine != NULL)
 800133e:	6a5c      	ldr	r4, [r3, #36]	; 0x24
{
 8001340:	460e      	mov	r6, r1
 8001342:	4617      	mov	r7, r2
  if(lcd_drv->DrawVLine != NULL)
 8001344:	b974      	cbnz	r4, 8001364 <BSP_LCD_DrawVLine+0x30>
  }
  else
  {
    for(index = 0; index < Length; index++)
    {
      BSP_LCD_DrawPixel(Xpos, Ypos + index, DrawProp.TextColor);
 8001346:	f8df 8034 	ldr.w	r8, [pc, #52]	; 800137c <BSP_LCD_DrawVLine+0x48>
    for(index = 0; index < Length; index++)
 800134a:	42bc      	cmp	r4, r7
 800134c:	d301      	bcc.n	8001352 <BSP_LCD_DrawVLine+0x1e>
 800134e:	e8bd 81f0 	ldmia.w	sp!, {r4, r5, r6, r7, r8, pc}
      BSP_LCD_DrawPixel(Xpos, Ypos + index, DrawProp.TextColor);
 8001352:	1931      	adds	r1, r6, r4
 8001354:	f8b8 2000 	ldrh.w	r2, [r8]
 8001358:	b289      	uxth	r1, r1
 800135a:	4628      	mov	r0, r5
 800135c:	f7ff ff88 	bl	8001270 <BSP_LCD_DrawPixel>
    for(index = 0; index < Length; index++)
 8001360:	3401      	adds	r4, #1
 8001362:	e7f2      	b.n	800134a <BSP_LCD_DrawVLine+0x16>
    lcd_drv->DrawVLine(DrawProp.TextColor, Xpos, Ypos, Length);
 8001364:	4613      	mov	r3, r2
 8001366:	460a      	mov	r2, r1
 8001368:	4601      	mov	r1, r0
 800136a:	4804      	ldr	r0, [pc, #16]	; (800137c <BSP_LCD_DrawVLine+0x48>)
 800136c:	46a4      	mov	ip, r4
    }
  }
}
 800136e:	e8bd 41f0 	ldmia.w	sp!, {r4, r5, r6, r7, r8, lr}
    lcd_drv->DrawVLine(DrawProp.TextColor, Xpos, Ypos, Length);
 8001372:	8800      	ldrh	r0, [r0, #0]
 8001374:	4760      	bx	ip
 8001376:	bf00      	nop
 8001378:	2000002c 	.word	0x2000002c
 800137c:	2000046c 	.word	0x2000046c

08001380 <BSP_LCD_DrawLine>:
  * @param  x2: Point 2 X position
  * @param  y2: Point 2 Y position
  * @retval None
  */
void BSP_LCD_DrawLine(uint16_t x1, uint16_t y1, uint16_t x2, uint16_t y2)
{
 8001380:	e92d 4ff0 	stmdb	sp!, {r4, r5, r6, r7, r8, r9, sl, fp, lr}
  int16_t deltax = 0, deltay = 0, x = 0, y = 0, xinc1 = 0, xinc2 = 0, 
  yinc1 = 0, yinc2 = 0, den = 0, num = 0, numadd = 0, numpixels = 0, 
  curpixel = 0;
  
  deltax = ABS(x2 - x1);        /* The difference between the x's */
 8001384:	1a14      	subs	r4, r2, r0
 8001386:	2c00      	cmp	r4, #0
  deltay = ABS(y2 - y1);        /* The difference between the y's */
 8001388:	eba3 0601 	sub.w	r6, r3, r1
  deltax = ABS(x2 - x1);        /* The difference between the x's */
 800138c:	bfb8      	it	lt
 800138e:	4264      	neglt	r4, r4
  deltay = ABS(y2 - y1);        /* The difference between the y's */
 8001390:	2e00      	cmp	r6, #0
 8001392:	bfb8      	it	lt
 8001394:	4276      	neglt	r6, r6
  deltax = ABS(x2 - x1);        /* The difference between the x's */
 8001396:	b224      	sxth	r4, r4
  deltay = ABS(y2 - y1);        /* The difference between the y's */
 8001398:	b236      	sxth	r6, r6
    xinc1 = 1;
    xinc2 = 1;
  }
  else                          /* The x-values are decreasing */
  {
    xinc1 = -1;
 800139a:	4282      	cmp	r2, r0
 800139c:	bf2c      	ite	cs
 800139e:	2701      	movcs	r7, #1
 80013a0:	f04f 37ff 	movcc.w	r7, #4294967295
    yinc1 = 1;
    yinc2 = 1;
  }
  else                          /* The y-values are decreasing */
  {
    yinc1 = -1;
 80013a4:	428b      	cmp	r3, r1
 80013a6:	bf2c      	ite	cs
 80013a8:	f04f 0801 	movcs.w	r8, #1
 80013ac:	f04f 38ff 	movcc.w	r8, #4294967295
    yinc2 = -1;
  }
  
  if (deltax >= deltay)         /* There is at least one x-value for every y-value */
 80013b0:	42b4      	cmp	r4, r6
{
 80013b2:	b085      	sub	sp, #20
  x = x1;                       /* Start x off at the first pixel */
 80013b4:	fa0f f980 	sxth.w	r9, r0
  y = y1;                       /* Start y off at the first pixel */
 80013b8:	fa0f fa81 	sxth.w	sl, r1
 80013bc:	f04f 0502 	mov.w	r5, #2
  if (deltax >= deltay)         /* There is at least one x-value for every y-value */
 80013c0:	db0b      	blt.n	80013da <BSP_LCD_DrawLine+0x5a>
 80013c2:	9700      	str	r7, [sp, #0]
  {
    xinc1 = 0;                  /* Don't change the x when numerator >= denominator */
    yinc2 = 0;                  /* Don't change the y for every iteration */
 80013c4:	2700      	movs	r7, #0
    den = deltax;
    num = deltax / 2;
 80013c6:	fb94 f5f5 	sdiv	r5, r4, r5
    xinc1 = 0;                  /* Don't change the x when numerator >= denominator */
 80013ca:	9701      	str	r7, [sp, #4]
    num = deltay / 2;
    numadd = deltax;
    numpixels = deltay;         /* There are more y-values than x-values */
  }
  
  for (curpixel = 0; curpixel <= numpixels; curpixel++)
 80013cc:	2300      	movs	r3, #0
 80013ce:	b21a      	sxth	r2, r3
 80013d0:	4294      	cmp	r4, r2
 80013d2:	da0f      	bge.n	80013f4 <BSP_LCD_DrawLine+0x74>
      y += yinc1;                             /* Change the y as appropriate */
    }
    x += xinc2;                               /* Change the x as appropriate */
    y += yinc2;                               /* Change the y as appropriate */
  }
}
 80013d4:	b005      	add	sp, #20
 80013d6:	e8bd 8ff0 	ldmia.w	sp!, {r4, r5, r6, r7, r8, r9, sl, fp, pc}
    num = deltay / 2;
 80013da:	fb96 f5f5 	sdiv	r5, r6, r5
 80013de:	4623      	mov	r3, r4
 80013e0:	f8cd 8004 	str.w	r8, [sp, #4]
    yinc1 = 0;                  /* Don't change the y when numerator >= denominator */
 80013e4:	f04f 0800 	mov.w	r8, #0
    num = deltay / 2;
 80013e8:	4634      	mov	r4, r6
 80013ea:	b22d      	sxth	r5, r5
 80013ec:	461e      	mov	r6, r3
    xinc2 = 0;                  /* Don't change the x for every iteration */
 80013ee:	f8cd 8000 	str.w	r8, [sp]
 80013f2:	e7eb      	b.n	80013cc <BSP_LCD_DrawLine+0x4c>
 80013f4:	9303      	str	r3, [sp, #12]
    BSP_LCD_DrawPixel(x, y, DrawProp.TextColor);  /* Draw the current pixel */
 80013f6:	fa1f f38a 	uxth.w	r3, sl
 80013fa:	9302      	str	r3, [sp, #8]
 80013fc:	4b10      	ldr	r3, [pc, #64]	; (8001440 <BSP_LCD_DrawLine+0xc0>)
 80013fe:	fa1f fb89 	uxth.w	fp, r9
 8001402:	881a      	ldrh	r2, [r3, #0]
    num += numadd;                            /* Increase the numerator by the top of the fraction */
 8001404:	4435      	add	r5, r6
    BSP_LCD_DrawPixel(x, y, DrawProp.TextColor);  /* Draw the current pixel */
 8001406:	9902      	ldr	r1, [sp, #8]
 8001408:	4658      	mov	r0, fp
 800140a:	f7ff ff31 	bl	8001270 <BSP_LCD_DrawPixel>
    num += numadd;                            /* Increase the numerator by the top of the fraction */
 800140e:	b2aa      	uxth	r2, r5
 8001410:	b215      	sxth	r5, r2
    if (num >= den)                           /* Check if numerator >= denominator */
 8001412:	42ac      	cmp	r4, r5
 8001414:	9b03      	ldr	r3, [sp, #12]
 8001416:	dc09      	bgt.n	800142c <BSP_LCD_DrawLine+0xac>
      num -= den;                             /* Calculate the new numerator value */
 8001418:	1b15      	subs	r5, r2, r4
      y += yinc1;                             /* Change the y as appropriate */
 800141a:	9a02      	ldr	r2, [sp, #8]
      x += xinc1;                             /* Change the x as appropriate */
 800141c:	eb0b 0907 	add.w	r9, fp, r7
      y += yinc1;                             /* Change the y as appropriate */
 8001420:	4442      	add	r2, r8
      num -= den;                             /* Calculate the new numerator value */
 8001422:	b22d      	sxth	r5, r5
      x += xinc1;                             /* Change the x as appropriate */
 8001424:	fa0f f989 	sxth.w	r9, r9
      y += yinc1;                             /* Change the y as appropriate */
 8001428:	fa0f fa82 	sxth.w	sl, r2
    x += xinc2;                               /* Change the x as appropriate */
 800142c:	9a00      	ldr	r2, [sp, #0]
 800142e:	3301      	adds	r3, #1
 8001430:	4491      	add	r9, r2
    y += yinc2;                               /* Change the y as appropriate */
 8001432:	9a01      	ldr	r2, [sp, #4]
    x += xinc2;                               /* Change the x as appropriate */
 8001434:	fa0f f989 	sxth.w	r9, r9
    y += yinc2;                               /* Change the y as appropriate */
 8001438:	4492      	add	sl, r2
 800143a:	fa0f fa8a 	sxth.w	sl, sl
 800143e:	e7c6      	b.n	80013ce <BSP_LCD_DrawLine+0x4e>
 8001440:	2000046c 	.word	0x2000046c

08001444 <BSP_LCD_DrawCircle>:
  * @param  Ypos: Y position
  * @param  Radius: Circle radius
  * @retval None
  */
void BSP_LCD_DrawCircle(uint16_t Xpos, uint16_t Ypos, uint16_t Radius)
{
 8001444:	e92d 4ff0 	stmdb	sp!, {r4, r5, r6, r7, r8, r9, sl, fp, lr}
 8001448:	4681      	mov	r9, r0
 800144a:	468a      	mov	sl, r1
  uint32_t  CurX;   /* Current X Value */
  uint32_t  CurY;   /* Current Y Value */ 
  
  D = 3 - (Radius << 1);
  CurX = 0;
  CurY = Radius;
 800144c:	4616      	mov	r6, r2
  CurX = 0;
 800144e:	f04f 0800 	mov.w	r8, #0
  D = 3 - (Radius << 1);
 8001452:	0054      	lsls	r4, r2, #1
  
  while (CurX <= CurY)
  {
    BSP_LCD_DrawPixel((Xpos + CurX), (Ypos - CurY), DrawProp.TextColor);
 8001454:	4f32      	ldr	r7, [pc, #200]	; (8001520 <BSP_LCD_DrawCircle+0xdc>)
{
 8001456:	b087      	sub	sp, #28
  D = 3 - (Radius << 1);
 8001458:	f1c4 0403 	rsb	r4, r4, #3
    BSP_LCD_DrawPixel((Xpos + CurX), (Ypos - CurY), DrawProp.TextColor);
 800145c:	b2b5      	uxth	r5, r6
 800145e:	fa1f f388 	uxth.w	r3, r8
 8001462:	9301      	str	r3, [sp, #4]
 8001464:	ebaa 0b05 	sub.w	fp, sl, r5
 8001468:	444b      	add	r3, r9
 800146a:	b29b      	uxth	r3, r3
 800146c:	fa1f fb8b 	uxth.w	fp, fp
 8001470:	4659      	mov	r1, fp
 8001472:	4618      	mov	r0, r3
 8001474:	883a      	ldrh	r2, [r7, #0]
 8001476:	9304      	str	r3, [sp, #16]
 8001478:	f7ff fefa 	bl	8001270 <BSP_LCD_DrawPixel>
 800147c:	9b01      	ldr	r3, [sp, #4]

    BSP_LCD_DrawPixel((Xpos - CurX), (Ypos - CurY), DrawProp.TextColor);
 800147e:	4659      	mov	r1, fp
 8001480:	eba9 0303 	sub.w	r3, r9, r3
 8001484:	b29b      	uxth	r3, r3
 8001486:	4618      	mov	r0, r3
 8001488:	883a      	ldrh	r2, [r7, #0]
 800148a:	9302      	str	r3, [sp, #8]
 800148c:	f7ff fef0 	bl	8001270 <BSP_LCD_DrawPixel>

    BSP_LCD_DrawPixel((Xpos + CurY), (Ypos - CurX), DrawProp.TextColor);
 8001490:	eb09 0305 	add.w	r3, r9, r5
 8001494:	b29b      	uxth	r3, r3
 8001496:	9303      	str	r3, [sp, #12]
 8001498:	9b01      	ldr	r3, [sp, #4]
 800149a:	883a      	ldrh	r2, [r7, #0]
 800149c:	ebaa 0303 	sub.w	r3, sl, r3
 80014a0:	b29b      	uxth	r3, r3
 80014a2:	4619      	mov	r1, r3
 80014a4:	9803      	ldr	r0, [sp, #12]
 80014a6:	9305      	str	r3, [sp, #20]

    BSP_LCD_DrawPixel((Xpos - CurY), (Ypos - CurX), DrawProp.TextColor);
 80014a8:	eba9 0b05 	sub.w	fp, r9, r5
    BSP_LCD_DrawPixel((Xpos + CurY), (Ypos - CurX), DrawProp.TextColor);
 80014ac:	f7ff fee0 	bl	8001270 <BSP_LCD_DrawPixel>
    BSP_LCD_DrawPixel((Xpos - CurY), (Ypos - CurX), DrawProp.TextColor);
 80014b0:	9b05      	ldr	r3, [sp, #20]
 80014b2:	fa1f fb8b 	uxth.w	fp, fp

    BSP_LCD_DrawPixel((Xpos + CurX), (Ypos + CurY), DrawProp.TextColor);
 80014b6:	4455      	add	r5, sl
    BSP_LCD_DrawPixel((Xpos - CurY), (Ypos - CurX), DrawProp.TextColor);
 80014b8:	4619      	mov	r1, r3
    BSP_LCD_DrawPixel((Xpos + CurX), (Ypos + CurY), DrawProp.TextColor);
 80014ba:	b2ad      	uxth	r5, r5
    BSP_LCD_DrawPixel((Xpos - CurY), (Ypos - CurX), DrawProp.TextColor);
 80014bc:	883a      	ldrh	r2, [r7, #0]
 80014be:	4658      	mov	r0, fp
 80014c0:	f7ff fed6 	bl	8001270 <BSP_LCD_DrawPixel>
    BSP_LCD_DrawPixel((Xpos + CurX), (Ypos + CurY), DrawProp.TextColor);
 80014c4:	4629      	mov	r1, r5
 80014c6:	883a      	ldrh	r2, [r7, #0]
 80014c8:	9804      	ldr	r0, [sp, #16]
 80014ca:	f7ff fed1 	bl	8001270 <BSP_LCD_DrawPixel>

    BSP_LCD_DrawPixel((Xpos - CurX), (Ypos + CurY), DrawProp.TextColor);
 80014ce:	4629      	mov	r1, r5
 80014d0:	883a      	ldrh	r2, [r7, #0]
 80014d2:	9802      	ldr	r0, [sp, #8]
 80014d4:	f7ff fecc 	bl	8001270 <BSP_LCD_DrawPixel>
 80014d8:	9b01      	ldr	r3, [sp, #4]

    BSP_LCD_DrawPixel((Xpos + CurY), (Ypos + CurX), DrawProp.TextColor);
 80014da:	883a      	ldrh	r2, [r7, #0]
 80014dc:	eb0a 0503 	add.w	r5, sl, r3
 80014e0:	b2ad      	uxth	r5, r5
 80014e2:	4629      	mov	r1, r5
 80014e4:	9803      	ldr	r0, [sp, #12]
 80014e6:	f7ff fec3 	bl	8001270 <BSP_LCD_DrawPixel>

    BSP_LCD_DrawPixel((Xpos - CurY), (Ypos + CurX), DrawProp.TextColor);   
 80014ea:	883a      	ldrh	r2, [r7, #0]
 80014ec:	4629      	mov	r1, r5
 80014ee:	4658      	mov	r0, fp
 80014f0:	f7ff febe 	bl	8001270 <BSP_LCD_DrawPixel>

    if (D < 0)
 80014f4:	2c00      	cmp	r4, #0
    { 
      D += (CurX << 2) + 6;
 80014f6:	bfb5      	itete	lt
 80014f8:	3406      	addlt	r4, #6
    }
    else
    {
      D += ((CurX - CurY) << 2) + 10;
 80014fa:	eba8 0306 	subge.w	r3, r8, r6
      D += (CurX << 2) + 6;
 80014fe:	eb04 0488 	addlt.w	r4, r4, r8, lsl #2
      D += ((CurX - CurY) << 2) + 10;
 8001502:	340a      	addge	r4, #10
      CurY--;
 8001504:	bfa8      	it	ge
 8001506:	f106 36ff 	addge.w	r6, r6, #4294967295
    }
    CurX++;
 800150a:	f108 0801 	add.w	r8, r8, #1
      D += ((CurX - CurY) << 2) + 10;
 800150e:	bfa8      	it	ge
 8001510:	eb04 0483 	addge.w	r4, r4, r3, lsl #2
  while (CurX <= CurY)
 8001514:	4546      	cmp	r6, r8
 8001516:	d2a1      	bcs.n	800145c <BSP_LCD_DrawCircle+0x18>
  } 
}
 8001518:	b007      	add	sp, #28
 800151a:	e8bd 8ff0 	ldmia.w	sp!, {r4, r5, r6, r7, r8, r9, sl, fp, pc}
 800151e:	bf00      	nop
 8001520:	2000046c 	.word	0x2000046c

08001524 <BSP_LCD_DrawBitmap>:
  * @param  Ypos: Bmp Y position in the LCD
  * @param  pBmp: Pointer to Bmp picture address
  * @retval None
  */
void BSP_LCD_DrawBitmap(uint16_t Xpos, uint16_t Ypos, uint8_t *pBmp)
{
 8001524:	e92d 41f0 	stmdb	sp!, {r4, r5, r6, r7, r8, lr}
 8001528:	4615      	mov	r5, r2
  uint32_t height = 0;
  uint32_t width  = 0;
  
  /* Read bitmap width */
  width = pBmp[18] + (pBmp[19] << 8) + (pBmp[20] << 16)  + (pBmp[21] << 24);
 800152a:	7cd3      	ldrb	r3, [r2, #19]
 800152c:	7c92      	ldrb	r2, [r2, #18]

  /* Read bitmap height */
  height = pBmp[22] + (pBmp[23] << 8) + (pBmp[24] << 16)  + (pBmp[25] << 24);
 800152e:	7dec      	ldrb	r4, [r5, #23]
  width = pBmp[18] + (pBmp[19] << 8) + (pBmp[20] << 16)  + (pBmp[21] << 24);
 8001530:	eb02 2203 	add.w	r2, r2, r3, lsl #8
  height = pBmp[22] + (pBmp[23] << 8) + (pBmp[24] << 16)  + (pBmp[25] << 24);
 8001534:	7dab      	ldrb	r3, [r5, #22]
{
 8001536:	4606      	mov	r6, r0
  height = pBmp[22] + (pBmp[23] << 8) + (pBmp[24] << 16)  + (pBmp[25] << 24);
 8001538:	eb03 2304 	add.w	r3, r3, r4, lsl #8
  * @param  Height: LCD window height  
  * @retval None
  */
static void SetDisplayWindow(uint16_t Xpos, uint16_t Ypos, uint16_t Width, uint16_t Height)
{
  if(lcd_drv->SetDisplayWindow != NULL)
 800153c:	4c12      	ldr	r4, [pc, #72]	; (8001588 <BSP_LCD_DrawBitmap+0x64>)
  SetDisplayWindow(Xpos, Ypos, width, height);
 800153e:	fa1f fe83 	uxth.w	lr, r3
  if(lcd_drv->SetDisplayWindow != NULL)
 8001542:	6823      	ldr	r3, [r4, #0]
{
 8001544:	460f      	mov	r7, r1
  if(lcd_drv->SetDisplayWindow != NULL)
 8001546:	f8d3 801c 	ldr.w	r8, [r3, #28]
  SetDisplayWindow(Xpos, Ypos, width, height);
 800154a:	b292      	uxth	r2, r2
  if(lcd_drv->SetDisplayWindow != NULL)
 800154c:	f1b8 0f00 	cmp.w	r8, #0
 8001550:	d001      	beq.n	8001556 <BSP_LCD_DrawBitmap+0x32>
  {
    lcd_drv->SetDisplayWindow(Xpos, Ypos, Width, Height);
 8001552:	4673      	mov	r3, lr
 8001554:	47c0      	blx	r8
  if(lcd_drv->DrawBitmap != NULL)
 8001556:	6823      	ldr	r3, [r4, #0]
 8001558:	6b1b      	ldr	r3, [r3, #48]	; 0x30
 800155a:	b11b      	cbz	r3, 8001564 <BSP_LCD_DrawBitmap+0x40>
    lcd_drv->DrawBitmap(Xpos, Ypos, pBmp);
 800155c:	462a      	mov	r2, r5
 800155e:	4639      	mov	r1, r7
 8001560:	4630      	mov	r0, r6
 8001562:	4798      	blx	r3
  SetDisplayWindow(0, 0, BSP_LCD_GetXSize(), BSP_LCD_GetYSize());
 8001564:	f7ff fe60 	bl	8001228 <BSP_LCD_GetXSize>
 8001568:	4605      	mov	r5, r0
 800156a:	f7ff fe63 	bl	8001234 <BSP_LCD_GetYSize>
  if(lcd_drv->SetDisplayWindow != NULL)
 800156e:	6822      	ldr	r2, [r4, #0]
  SetDisplayWindow(0, 0, BSP_LCD_GetXSize(), BSP_LCD_GetYSize());
 8001570:	4603      	mov	r3, r0
  if(lcd_drv->SetDisplayWindow != NULL)
 8001572:	69d4      	ldr	r4, [r2, #28]
 8001574:	b134      	cbz	r4, 8001584 <BSP_LCD_DrawBitmap+0x60>
    lcd_drv->SetDisplayWindow(Xpos, Ypos, Width, Height);
 8001576:	2100      	movs	r1, #0
 8001578:	462a      	mov	r2, r5
 800157a:	46a4      	mov	ip, r4
}
 800157c:	e8bd 41f0 	ldmia.w	sp!, {r4, r5, r6, r7, r8, lr}
    lcd_drv->SetDisplayWindow(Xpos, Ypos, Width, Height);
 8001580:	4608      	mov	r0, r1
 8001582:	4760      	bx	ip
 8001584:	e8bd 81f0 	ldmia.w	sp!, {r4, r5, r6, r7, r8, pc}
 8001588:	2000002c 	.word	0x2000002c

0800158c <BSP_LCD_DisplayChar>:
{
 800158c:	e92d 4ff0 	stmdb	sp!, {r4, r5, r6, r7, r8, r9, sl, fp, lr}
  DrawChar(Xpos, Ypos, &DrawProp.pFont->table[(Ascii-' ') *\
 8001590:	f8df e128 	ldr.w	lr, [pc, #296]	; 80016bc <BSP_LCD_DisplayChar+0x130>
{
 8001594:	b08b      	sub	sp, #44	; 0x2c
  DrawChar(Xpos, Ypos, &DrawProp.pFont->table[(Ascii-' ') *\
 8001596:	f8de 3008 	ldr.w	r3, [lr, #8]
        bitmap[index] = (uint8_t)DrawProp.BackColor;
 800159a:	f8de 8004 	ldr.w	r8, [lr, #4]
    DrawProp.pFont->Height * ((DrawProp.pFont->Width + 7) / 8)]);
 800159e:	889c      	ldrh	r4, [r3, #4]
 80015a0:	88de      	ldrh	r6, [r3, #6]
  DrawChar(Xpos, Ypos, &DrawProp.pFont->table[(Ascii-' ') *\
 80015a2:	f8d3 c000 	ldr.w	ip, [r3]
  *(uint16_t *) (bitmap + 2) = (uint16_t)(height*width*2+OFFSET_BITMAP);
 80015a6:	fb04 f506 	mul.w	r5, r4, r6
 80015aa:	4b43      	ldr	r3, [pc, #268]	; (80016b8 <BSP_LCD_DisplayChar+0x12c>)
 80015ac:	351b      	adds	r5, #27
 80015ae:	006d      	lsls	r5, r5, #1
 80015b0:	805d      	strh	r5, [r3, #2]
  *(uint16_t *) (bitmap + 4) = (uint16_t)((height*width*2+OFFSET_BITMAP)>>16);
 80015b2:	142d      	asrs	r5, r5, #16
 80015b4:	809d      	strh	r5, [r3, #4]
  *(uint16_t *) (bitmap + 10) = OFFSET_BITMAP;
 80015b6:	f04f 0536 	mov.w	r5, #54	; 0x36
        bitmap[index] = (uint8_t)DrawProp.TextColor;
 80015ba:	f8de e000 	ldr.w	lr, [lr]
{
 80015be:	9106      	str	r1, [sp, #24]
        bitmap[index] = (uint8_t)DrawProp.BackColor;
 80015c0:	fa5f f188 	uxtb.w	r1, r8
 80015c4:	9103      	str	r1, [sp, #12]
        bitmap[index+1] = (uint8_t)(DrawProp.BackColor >> 8);
 80015c6:	f3c8 2107 	ubfx	r1, r8, #8, #8
 80015ca:	9104      	str	r1, [sp, #16]
        bitmap[index] = (uint8_t)DrawProp.TextColor;
 80015cc:	fa5f f18e 	uxtb.w	r1, lr
 80015d0:	9101      	str	r1, [sp, #4]
        bitmap[index+1] = (uint8_t)(DrawProp.TextColor >> 8);
 80015d2:	f3ce 2107 	ubfx	r1, lr, #8, #8
 80015d6:	f06f 0e01 	mvn.w	lr, #1
  *(uint16_t *) (bitmap + 10) = OFFSET_BITMAP;
 80015da:	815d      	strh	r5, [r3, #10]
  *(uint16_t *) (bitmap + 20) = (uint16_t)((width)>>16);
 80015dc:	f04f 0500 	mov.w	r5, #0
        bitmap[index+1] = (uint8_t)(DrawProp.TextColor >> 8);
 80015e0:	9102      	str	r1, [sp, #8]
 80015e2:	fb0e f104 	mul.w	r1, lr, r4
 80015e6:	f106 4e00 	add.w	lr, r6, #2147483648	; 0x80000000
 80015ea:	ea4f 0844 	mov.w	r8, r4, lsl #1
 80015ee:	f10e 3eff 	add.w	lr, lr, #4294967295
  *(uint16_t *) (bitmap + 20) = (uint16_t)((width)>>16);
 80015f2:	829d      	strh	r5, [r3, #20]
  *(uint16_t *) (bitmap + 24) = (uint16_t)((height)>>16);
 80015f4:	831d      	strh	r5, [r3, #24]
 80015f6:	fb0e 3e08 	mla	lr, lr, r8, r3
  *(uint16_t *) (bitmap + 18) = (uint16_t)(width);
 80015fa:	825c      	strh	r4, [r3, #18]
  *(uint16_t *) (bitmap + 22) = (uint16_t)(height);
 80015fc:	82de      	strh	r6, [r3, #22]
  uint32_t line = 0;
 80015fe:	2300      	movs	r3, #0
      if(line & (1 << (width- counterw + offset- 1))) 
 8001600:	f04f 0b01 	mov.w	fp, #1
  for(counterh = 0; counterh < height; counterh++)
 8001604:	4698      	mov	r8, r3
  DrawChar(Xpos, Ypos, &DrawProp.pFont->table[(Ascii-' ') *\
 8001606:	3a20      	subs	r2, #32
 8001608:	4372      	muls	r2, r6
    DrawProp.pFont->Height * ((DrawProp.pFont->Width + 7) / 8)]);
 800160a:	1de7      	adds	r7, r4, #7
 800160c:	10ff      	asrs	r7, r7, #3
  offset =  8 *((width + 7)/8) - width ;
 800160e:	ebc4 05c7 	rsb	r5, r4, r7, lsl #3
 8001612:	9105      	str	r1, [sp, #20]
 8001614:	fb07 c202 	mla	r2, r7, r2, ip
    if(((width + 7)/8) == 3)
 8001618:	f1a4 0111 	sub.w	r1, r4, #17
  offset =  8 *((width + 7)/8) - width ;
 800161c:	b2ed      	uxtb	r5, r5
    if(((width + 7)/8) == 3)
 800161e:	9107      	str	r1, [sp, #28]
    if(((width + 7)/8) == 1)
 8001620:	f104 3aff 	add.w	sl, r4, #4294967295
    if(((width + 7)/8) == 2)
 8001624:	f1a4 0109 	sub.w	r1, r4, #9
 8001628:	9108      	str	r1, [sp, #32]
      if(line & (1 << (width- counterw + offset- 1))) 
 800162a:	eb05 010a 	add.w	r1, r5, sl
 800162e:	9109      	str	r1, [sp, #36]	; 0x24
  for(counterh = 0; counterh < height; counterh++)
 8001630:	45b0      	cmp	r8, r6
 8001632:	d306      	bcc.n	8001642 <BSP_LCD_DisplayChar+0xb6>
  BSP_LCD_DrawBitmap(Xpos, Ypos, bitmap);
 8001634:	4a20      	ldr	r2, [pc, #128]	; (80016b8 <BSP_LCD_DisplayChar+0x12c>)
 8001636:	9906      	ldr	r1, [sp, #24]
}
 8001638:	b00b      	add	sp, #44	; 0x2c
 800163a:	e8bd 4ff0 	ldmia.w	sp!, {r4, r5, r6, r7, r8, r9, sl, fp, lr}
  BSP_LCD_DrawBitmap(Xpos, Ypos, bitmap);
 800163e:	f7ff bf71 	b.w	8001524 <BSP_LCD_DrawBitmap>
    if(((width + 7)/8) == 3)
 8001642:	9907      	ldr	r1, [sp, #28]
 8001644:	2907      	cmp	r1, #7
 8001646:	d806      	bhi.n	8001656 <BSP_LCD_DisplayChar+0xca>
      line =  (pchar[0]<< 16) | (pchar[1]<< 8) | pchar[2];
 8001648:	7853      	ldrb	r3, [r2, #1]
 800164a:	7815      	ldrb	r5, [r2, #0]
 800164c:	021b      	lsls	r3, r3, #8
 800164e:	ea43 4305 	orr.w	r3, r3, r5, lsl #16
 8001652:	7895      	ldrb	r5, [r2, #2]
 8001654:	432b      	orrs	r3, r5
    if(((width + 7)/8) == 2)
 8001656:	9908      	ldr	r1, [sp, #32]
    for (counterw = 0; counterw < width; counterw++)
 8001658:	f04f 0c00 	mov.w	ip, #0
    if(((width + 7)/8) == 2)
 800165c:	2907      	cmp	r1, #7
      line =  (pchar[0]<< 8) | pchar[1];
 800165e:	bf9e      	ittt	ls
 8001660:	7815      	ldrbls	r5, [r2, #0]
 8001662:	7853      	ldrbls	r3, [r2, #1]
 8001664:	ea43 2305 	orrls.w	r3, r3, r5, lsl #8
{
 8001668:	4675      	mov	r5, lr
    if(((width + 7)/8) == 1)
 800166a:	f1ba 0f07 	cmp.w	sl, #7
      line =  pchar[0];
 800166e:	bf98      	it	ls
 8001670:	7813      	ldrbls	r3, [r2, #0]
    for (counterw = 0; counterw < width; counterw++)
 8001672:	45a4      	cmp	ip, r4
 8001674:	d305      	bcc.n	8001682 <BSP_LCD_DisplayChar+0xf6>
 8001676:	9905      	ldr	r1, [sp, #20]
  for(counterh = 0; counterh < height; counterh++)
 8001678:	f108 0801 	add.w	r8, r8, #1
 800167c:	448e      	add	lr, r1
 800167e:	443a      	add	r2, r7
 8001680:	e7d6      	b.n	8001630 <BSP_LCD_DisplayChar+0xa4>
      if(line & (1 << (width- counterw + offset- 1))) 
 8001682:	9909      	ldr	r1, [sp, #36]	; 0x24
 8001684:	3502      	adds	r5, #2
 8001686:	eba1 090c 	sub.w	r9, r1, ip
 800168a:	fa0b f909 	lsl.w	r9, fp, r9
 800168e:	ea19 0f03 	tst.w	r9, r3
        bitmap[index] = (uint8_t)DrawProp.TextColor;
 8001692:	bf15      	itete	ne
 8001694:	f89d 1004 	ldrbne.w	r1, [sp, #4]
        bitmap[index] = (uint8_t)DrawProp.BackColor;
 8001698:	f89d 100c 	ldrbeq.w	r1, [sp, #12]
        bitmap[index] = (uint8_t)DrawProp.TextColor;
 800169c:	f885 1034 	strbne.w	r1, [r5, #52]	; 0x34
        bitmap[index] = (uint8_t)DrawProp.BackColor;
 80016a0:	f885 1034 	strbeq.w	r1, [r5, #52]	; 0x34
        bitmap[index+1] = (uint8_t)(DrawProp.TextColor >> 8);
 80016a4:	bf14      	ite	ne
 80016a6:	f89d 1008 	ldrbne.w	r1, [sp, #8]
        bitmap[index+1] = (uint8_t)(DrawProp.BackColor >> 8);
 80016aa:	f89d 1010 	ldrbeq.w	r1, [sp, #16]
    for (counterw = 0; counterw < width; counterw++)
 80016ae:	f10c 0c01 	add.w	ip, ip, #1
        bitmap[index+1] = (uint8_t)(DrawProp.BackColor >> 8);
 80016b2:	f885 1035 	strb.w	r1, [r5, #53]	; 0x35
 80016b6:	e7dc      	b.n	8001672 <BSP_LCD_DisplayChar+0xe6>
 80016b8:	200000f6 	.word	0x200000f6
 80016bc:	2000046c 	.word	0x2000046c

080016c0 <BSP_LCD_FillRect>:
{
 80016c0:	e92d 41f0 	stmdb	sp!, {r4, r5, r6, r7, r8, lr}
 80016c4:	4606      	mov	r6, r0
  DrawProp.TextColor = Color;
 80016c6:	2400      	movs	r4, #0
{
 80016c8:	4617      	mov	r7, r2
  DrawProp.TextColor = Color;
 80016ca:	4a08      	ldr	r2, [pc, #32]	; (80016ec <BSP_LCD_FillRect+0x2c>)
{
 80016cc:	4688      	mov	r8, r1
  DrawProp.TextColor = Color;
 80016ce:	8811      	ldrh	r1, [r2, #0]
 80016d0:	1c5d      	adds	r5, r3, #1
 80016d2:	6011      	str	r1, [r2, #0]
    BSP_LCD_DrawHLine(Xpos, Ypos++, Width);    
 80016d4:	eb08 0104 	add.w	r1, r8, r4
 80016d8:	463a      	mov	r2, r7
 80016da:	b289      	uxth	r1, r1
 80016dc:	4630      	mov	r0, r6
 80016de:	3401      	adds	r4, #1
 80016e0:	f7ff fdce 	bl	8001280 <BSP_LCD_DrawHLine>
  while(Height--);
 80016e4:	42ac      	cmp	r4, r5
 80016e6:	d1f5      	bne.n	80016d4 <BSP_LCD_FillRect+0x14>
}
 80016e8:	e8bd 81f0 	ldmia.w	sp!, {r4, r5, r6, r7, r8, pc}
 80016ec:	2000046c 	.word	0x2000046c

080016f0 <BSP_LCD_FillCircle>:
{
 80016f0:	e92d 4ff7 	stmdb	sp!, {r0, r1, r2, r4, r5, r6, r7, r8, r9, sl, fp, lr}
 80016f4:	4682      	mov	sl, r0
 80016f6:	4689      	mov	r9, r1
  CurX = 0;
 80016f8:	2500      	movs	r5, #0
  DrawProp.TextColor = Color;
 80016fa:	4b29      	ldr	r3, [pc, #164]	; (80017a0 <BSP_LCD_FillCircle+0xb0>)
  D = 3 - (Radius << 1);
 80016fc:	0054      	lsls	r4, r2, #1
{
 80016fe:	4693      	mov	fp, r2
  CurY = Radius;
 8001700:	4616      	mov	r6, r2
  DrawProp.TextColor = Color;
 8001702:	881a      	ldrh	r2, [r3, #0]
  D = 3 - (Radius << 1);
 8001704:	f1c4 0403 	rsb	r4, r4, #3
  DrawProp.TextColor = Color;
 8001708:	601a      	str	r2, [r3, #0]
    if(CurY > 0) 
 800170a:	b1be      	cbz	r6, 800173c <BSP_LCD_FillCircle+0x4c>
      BSP_LCD_DrawHLine(Xpos - CurY, Ypos + CurX, 2*CurY);
 800170c:	b2b7      	uxth	r7, r6
 800170e:	ebaa 0307 	sub.w	r3, sl, r7
 8001712:	fa1f f885 	uxth.w	r8, r5
 8001716:	007f      	lsls	r7, r7, #1
 8001718:	b29b      	uxth	r3, r3
 800171a:	b2bf      	uxth	r7, r7
 800171c:	eb09 0108 	add.w	r1, r9, r8
 8001720:	4618      	mov	r0, r3
 8001722:	463a      	mov	r2, r7
 8001724:	b289      	uxth	r1, r1
 8001726:	9301      	str	r3, [sp, #4]
 8001728:	f7ff fdaa 	bl	8001280 <BSP_LCD_DrawHLine>
      BSP_LCD_DrawHLine(Xpos - CurY, Ypos - CurX, 2*CurY);
 800172c:	9b01      	ldr	r3, [sp, #4]
 800172e:	eba9 0108 	sub.w	r1, r9, r8
 8001732:	463a      	mov	r2, r7
 8001734:	b289      	uxth	r1, r1
 8001736:	4618      	mov	r0, r3
 8001738:	f7ff fda2 	bl	8001280 <BSP_LCD_DrawHLine>
    if(CurX > 0) 
 800173c:	b1bd      	cbz	r5, 800176e <BSP_LCD_FillCircle+0x7e>
 800173e:	b2af      	uxth	r7, r5
 8001740:	ebaa 0307 	sub.w	r3, sl, r7
      BSP_LCD_DrawHLine(Xpos - CurX, Ypos - CurY, 2*CurX);
 8001744:	fa1f f886 	uxth.w	r8, r6
 8001748:	007f      	lsls	r7, r7, #1
 800174a:	b29b      	uxth	r3, r3
 800174c:	b2bf      	uxth	r7, r7
 800174e:	eba9 0108 	sub.w	r1, r9, r8
 8001752:	4618      	mov	r0, r3
 8001754:	463a      	mov	r2, r7
 8001756:	b289      	uxth	r1, r1
 8001758:	9301      	str	r3, [sp, #4]
 800175a:	f7ff fd91 	bl	8001280 <BSP_LCD_DrawHLine>
      BSP_LCD_DrawHLine(Xpos - CurX, Ypos + CurY, 2*CurX);
 800175e:	9b01      	ldr	r3, [sp, #4]
 8001760:	eb09 0108 	add.w	r1, r9, r8
 8001764:	463a      	mov	r2, r7
 8001766:	b289      	uxth	r1, r1
 8001768:	4618      	mov	r0, r3
 800176a:	f7ff fd89 	bl	8001280 <BSP_LCD_DrawHLine>
    if (D < 0)
 800176e:	2c00      	cmp	r4, #0
      D += (CurX << 2) + 6;
 8001770:	bfb5      	itete	lt
 8001772:	3406      	addlt	r4, #6
      D += ((CurX - CurY) << 2) + 10;
 8001774:	1bab      	subge	r3, r5, r6
      D += (CurX << 2) + 6;
 8001776:	eb04 0485 	addlt.w	r4, r4, r5, lsl #2
      D += ((CurX - CurY) << 2) + 10;
 800177a:	340a      	addge	r4, #10
      CurY--;
 800177c:	bfa8      	it	ge
 800177e:	f106 36ff 	addge.w	r6, r6, #4294967295
    CurX++;
 8001782:	f105 0501 	add.w	r5, r5, #1
      D += ((CurX - CurY) << 2) + 10;
 8001786:	bfa8      	it	ge
 8001788:	eb04 0483 	addge.w	r4, r4, r3, lsl #2
  while (CurX <= CurY)
 800178c:	42ae      	cmp	r6, r5
 800178e:	d2bc      	bcs.n	800170a <BSP_LCD_FillCircle+0x1a>
  BSP_LCD_DrawCircle(Xpos, Ypos, Radius);
 8001790:	465a      	mov	r2, fp
 8001792:	4649      	mov	r1, r9
 8001794:	4650      	mov	r0, sl
}
 8001796:	b003      	add	sp, #12
 8001798:	e8bd 4ff0 	ldmia.w	sp!, {r4, r5, r6, r7, r8, r9, sl, fp, lr}
  BSP_LCD_DrawCircle(Xpos, Ypos, Radius);
 800179c:	f7ff be52 	b.w	8001444 <BSP_LCD_DrawCircle>
 80017a0:	2000046c 	.word	0x2000046c

080017a4 <BSP_LCD_DisplayOn>:
  lcd_drv->DisplayOn();
 80017a4:	4b01      	ldr	r3, [pc, #4]	; (80017ac <BSP_LCD_DisplayOn+0x8>)
 80017a6:	681b      	ldr	r3, [r3, #0]
 80017a8:	689b      	ldr	r3, [r3, #8]
 80017aa:	4718      	bx	r3
 80017ac:	2000002c 	.word	0x2000002c

080017b0 <BSP_LCD_DisplayOff>:
  lcd_drv->DisplayOff();
 80017b0:	4b01      	ldr	r3, [pc, #4]	; (80017b8 <BSP_LCD_DisplayOff+0x8>)
 80017b2:	681b      	ldr	r3, [r3, #0]
 80017b4:	68db      	ldr	r3, [r3, #12]
 80017b6:	4718      	bx	r3
 80017b8:	2000002c 	.word	0x2000002c

080017bc <BSP_LCD_ReadID>:
}

#ifdef   LCD_DRVTYPE_V1_1
uint16_t BSP_LCD_ReadID(void)
{
  if(lcd_drv->ReadID)
 80017bc:	4b02      	ldr	r3, [pc, #8]	; (80017c8 <BSP_LCD_ReadID+0xc>)
 80017be:	681b      	ldr	r3, [r3, #0]
 80017c0:	6858      	ldr	r0, [r3, #4]
 80017c2:	b100      	cbz	r0, 80017c6 <BSP_LCD_ReadID+0xa>
    return lcd_drv->ReadID();
 80017c4:	4700      	bx	r0
  else
    return 0;
}
 80017c6:	4770      	bx	lr
 80017c8:	2000002c 	.word	0x2000002c

080017cc <BSP_LCD_ReadPixel>:

uint16_t BSP_LCD_ReadPixel(uint16_t Xpos, uint16_t Ypos)
{
  if(lcd_drv->ReadPixel != NULL)
 80017cc:	4b03      	ldr	r3, [pc, #12]	; (80017dc <BSP_LCD_ReadPixel+0x10>)
 80017ce:	681b      	ldr	r3, [r3, #0]
 80017d0:	699b      	ldr	r3, [r3, #24]
 80017d2:	b103      	cbz	r3, 80017d6 <BSP_LCD_ReadPixel+0xa>
    return lcd_drv->ReadPixel(Xpos, Ypos);
 80017d4:	4718      	bx	r3
  else
    return 0;
}
 80017d6:	4618      	mov	r0, r3
 80017d8:	4770      	bx	lr
 80017da:	bf00      	nop
 80017dc:	2000002c 	.word	0x2000002c

080017e0 <BSP_LCD_DrawRGB16Image>:

void BSP_LCD_DrawRGB16Image(uint16_t Xpos, uint16_t Ypos, uint16_t Xsize, uint16_t Ysize, uint16_t *pData)
{
 80017e0:	b410      	push	{r4}
  lcd_drv->DrawRGBImage(Xpos, Ypos, Xsize, Ysize, (uint8_t *)pData);
 80017e2:	4c03      	ldr	r4, [pc, #12]	; (80017f0 <BSP_LCD_DrawRGB16Image+0x10>)
 80017e4:	6824      	ldr	r4, [r4, #0]
 80017e6:	6b64      	ldr	r4, [r4, #52]	; 0x34
 80017e8:	46a4      	mov	ip, r4
}
 80017ea:	bc10      	pop	{r4}
  lcd_drv->DrawRGBImage(Xpos, Ypos, Xsize, Ysize, (uint8_t *)pData);
 80017ec:	4760      	bx	ip
 80017ee:	bf00      	nop
 80017f0:	2000002c 	.word	0x2000002c

080017f4 <BSP_LCD_ReadRGB16Image>:

void BSP_LCD_ReadRGB16Image(uint16_t Xpos, uint16_t Ypos, uint16_t Xsize, uint16_t Ysize, uint16_t *pData)
{
 80017f4:	b410      	push	{r4}
  lcd_drv->ReadRGBImage(Xpos, Ypos, Xsize, Ysize, (uint8_t *)pData);
 80017f6:	4c03      	ldr	r4, [pc, #12]	; (8001804 <BSP_LCD_ReadRGB16Image+0x10>)
 80017f8:	6824      	ldr	r4, [r4, #0]
 80017fa:	6ba4      	ldr	r4, [r4, #56]	; 0x38
 80017fc:	46a4      	mov	ip, r4
}
 80017fe:	bc10      	pop	{r4}
  lcd_drv->ReadRGBImage(Xpos, Ypos, Xsize, Ysize, (uint8_t *)pData);
 8001800:	4760      	bx	ip
 8001802:	bf00      	nop
 8001804:	2000002c 	.word	0x2000002c

08001808 <ClearTest>:
// 16bites szin elllitsa RGB (ill. BGR) sszetevkbl
#define RGB888TORGB565(r, g, b)  ((r & 0b11111000) << 8 | (g & 0b11111100) << 3 | b >> 3)
#define RGB888TOBGR565(r, g, b)  (r >> 3 | (g & 0b11111100) << 3 | (b & 0b11111000) << 8)

uint32_t ClearTest(void)
{
 8001808:	b510      	push	{r4, lr}
  uint32_t ctStartT = GetTime();
 800180a:	f7fe fcbd 	bl	8000188 <HAL_GetTick>
 800180e:	4604      	mov	r4, r0
  BSP_LCD_Clear(LCD_COLOR_BLACK);
 8001810:	2000      	movs	r0, #0
 8001812:	f7ff fd5b 	bl	80012cc <BSP_LCD_Clear>
  return(GetTime() - ctStartT);
 8001816:	f7fe fcb7 	bl	8000188 <HAL_GetTick>
}
 800181a:	1b00      	subs	r0, r0, r4
 800181c:	bd10      	pop	{r4, pc}

0800181e <PixelTest>:

uint32_t PixelTest(uint32_t n)
{
 800181e:	e92d 4ff8 	stmdb	sp!, {r3, r4, r5, r6, r7, r8, r9, sl, fp, lr}
 8001822:	4606      	mov	r6, r0
  uint16_t c, x, y;

  uint32_t ctStartT = GetTime();
 8001824:	f7fe fcb0 	bl	8000188 <HAL_GetTick>
  for(uint32_t i = 0; i < n; i++)
 8001828:	2400      	movs	r4, #0
  uint32_t ctStartT = GetTime();
 800182a:	4605      	mov	r5, r0
  {
    x = random() % BSP_LCD_GetXSize();
    y = random() % BSP_LCD_GetYSize();
    c = random() % 0xFFFF;
 800182c:	f64f 77ff 	movw	r7, #65535	; 0xffff
  for(uint32_t i = 0; i < n; i++)
 8001830:	42b4      	cmp	r4, r6
 8001832:	d104      	bne.n	800183e <PixelTest+0x20>
    BSP_LCD_DrawPixel(x, y, c);
  }
  return(GetTime() - ctStartT);
 8001834:	f7fe fca8 	bl	8000188 <HAL_GetTick>
}
 8001838:	1b40      	subs	r0, r0, r5
 800183a:	e8bd 8ff8 	ldmia.w	sp!, {r3, r4, r5, r6, r7, r8, r9, sl, fp, pc}
    x = random() % BSP_LCD_GetXSize();
 800183e:	f000 fdfd 	bl	800243c <random>
 8001842:	4681      	mov	r9, r0
 8001844:	f7ff fcf0 	bl	8001228 <BSP_LCD_GetXSize>
 8001848:	4680      	mov	r8, r0
    y = random() % BSP_LCD_GetYSize();
 800184a:	f000 fdf7 	bl	800243c <random>
 800184e:	4683      	mov	fp, r0
 8001850:	f7ff fcf0 	bl	8001234 <BSP_LCD_GetYSize>
 8001854:	4682      	mov	sl, r0
    c = random() % 0xFFFF;
 8001856:	f000 fdf1 	bl	800243c <random>
    y = random() % BSP_LCD_GetYSize();
 800185a:	fb9b f1fa 	sdiv	r1, fp, sl
    x = random() % BSP_LCD_GetXSize();
 800185e:	fb99 f3f8 	sdiv	r3, r9, r8
    c = random() % 0xFFFF;
 8001862:	fb90 f2f7 	sdiv	r2, r0, r7
    x = random() % BSP_LCD_GetXSize();
 8001866:	fb08 9313 	mls	r3, r8, r3, r9
    y = random() % BSP_LCD_GetYSize();
 800186a:	fb0a b111 	mls	r1, sl, r1, fp
    c = random() % 0xFFFF;
 800186e:	4402      	add	r2, r0
    BSP_LCD_DrawPixel(x, y, c);
 8001870:	b292      	uxth	r2, r2
 8001872:	b289      	uxth	r1, r1
 8001874:	b298      	uxth	r0, r3
 8001876:	f7ff fcfb 	bl	8001270 <BSP_LCD_DrawPixel>
  for(uint32_t i = 0; i < n; i++)
 800187a:	3401      	adds	r4, #1
 800187c:	e7d8      	b.n	8001830 <PixelTest+0x12>

0800187e <LineTest>:

uint32_t LineTest(uint32_t n)
{
 800187e:	e92d 4ff0 	stmdb	sp!, {r4, r5, r6, r7, r8, r9, sl, fp, lr}
 8001882:	b085      	sub	sp, #20
 8001884:	4683      	mov	fp, r0
  uint16_t x1, y1, x2, y2;

  uint32_t ctStartT = GetTime();
 8001886:	f7fe fc7f 	bl	8000188 <HAL_GetTick>
  for(uint32_t i = 0; i < n; i++)
 800188a:	2400      	movs	r4, #0
  uint32_t ctStartT = GetTime();
 800188c:	4682      	mov	sl, r0
  for(uint32_t i = 0; i < n; i++)
 800188e:	455c      	cmp	r4, fp
 8001890:	d106      	bne.n	80018a0 <LineTest+0x22>
    BSP_LCD_SetTextColor(random() % 0xFFFF);
    //printf("%d, %d, %d\r\n", x, y, r);
    //Delay(20);
    BSP_LCD_DrawLine(x1, y1, x2, y2);
  }
  return(GetTime() - ctStartT);
 8001892:	f7fe fc79 	bl	8000188 <HAL_GetTick>
}
 8001896:	eba0 000a 	sub.w	r0, r0, sl
 800189a:	b005      	add	sp, #20
 800189c:	e8bd 8ff0 	ldmia.w	sp!, {r4, r5, r6, r7, r8, r9, sl, fp, pc}
    x1 = random() % BSP_LCD_GetXSize();
 80018a0:	f000 fdcc 	bl	800243c <random>
 80018a4:	4606      	mov	r6, r0
 80018a6:	f7ff fcbf 	bl	8001228 <BSP_LCD_GetXSize>
 80018aa:	4605      	mov	r5, r0
    y1 = random() % BSP_LCD_GetYSize();
 80018ac:	f000 fdc6 	bl	800243c <random>
 80018b0:	4680      	mov	r8, r0
 80018b2:	f7ff fcbf 	bl	8001234 <BSP_LCD_GetYSize>
 80018b6:	4607      	mov	r7, r0
    x2 = random() % BSP_LCD_GetXSize();
 80018b8:	f000 fdc0 	bl	800243c <random>
 80018bc:	9003      	str	r0, [sp, #12]
 80018be:	f7ff fcb3 	bl	8001228 <BSP_LCD_GetXSize>
 80018c2:	4681      	mov	r9, r0
    y2 = random() % BSP_LCD_GetYSize();
 80018c4:	f000 fdba 	bl	800243c <random>
 80018c8:	9002      	str	r0, [sp, #8]
 80018ca:	f7ff fcb3 	bl	8001234 <BSP_LCD_GetYSize>
 80018ce:	9001      	str	r0, [sp, #4]
    BSP_LCD_SetTextColor(random() % 0xFFFF);
 80018d0:	f000 fdb4 	bl	800243c <random>
 80018d4:	f64f 73ff 	movw	r3, #65535	; 0xffff
 80018d8:	fb90 fef3 	sdiv	lr, r0, r3
 80018dc:	4470      	add	r0, lr
 80018de:	b280      	uxth	r0, r0
 80018e0:	f7ff fcae 	bl	8001240 <BSP_LCD_SetTextColor>
    y2 = random() % BSP_LCD_GetYSize();
 80018e4:	9902      	ldr	r1, [sp, #8]
 80018e6:	9b01      	ldr	r3, [sp, #4]
    x2 = random() % BSP_LCD_GetXSize();
 80018e8:	9a03      	ldr	r2, [sp, #12]
    y2 = random() % BSP_LCD_GetYSize();
 80018ea:	fb91 f0f3 	sdiv	r0, r1, r3
 80018ee:	fb03 1310 	mls	r3, r3, r0, r1
    x2 = random() % BSP_LCD_GetXSize();
 80018f2:	fb92 f1f9 	sdiv	r1, r2, r9
    x1 = random() % BSP_LCD_GetXSize();
 80018f6:	fb96 f0f5 	sdiv	r0, r6, r5
    x2 = random() % BSP_LCD_GetXSize();
 80018fa:	fb09 2211 	mls	r2, r9, r1, r2
    y1 = random() % BSP_LCD_GetYSize();
 80018fe:	fb98 f1f7 	sdiv	r1, r8, r7
    x1 = random() % BSP_LCD_GetXSize();
 8001902:	fb05 6010 	mls	r0, r5, r0, r6
    y1 = random() % BSP_LCD_GetYSize();
 8001906:	fb07 8111 	mls	r1, r7, r1, r8
    BSP_LCD_DrawLine(x1, y1, x2, y2);
 800190a:	b29b      	uxth	r3, r3
 800190c:	b292      	uxth	r2, r2
 800190e:	b289      	uxth	r1, r1
 8001910:	b280      	uxth	r0, r0
 8001912:	f7ff fd35 	bl	8001380 <BSP_LCD_DrawLine>
  for(uint32_t i = 0; i < n; i++)
 8001916:	3401      	adds	r4, #1
 8001918:	e7b9      	b.n	800188e <LineTest+0x10>

0800191a <FillRectTest>:

uint32_t FillRectTest(uint32_t n)
{
 800191a:	e92d 4ff7 	stmdb	sp!, {r0, r1, r2, r4, r5, r6, r7, r8, r9, sl, fp, lr}
 800191e:	4681      	mov	r9, r0
  uint16_t x, y, w, h;

  uint32_t ctStartT = GetTime();
 8001920:	f7fe fc32 	bl	8000188 <HAL_GetTick>
  for(uint32_t i = 0; i < n; i++)
 8001924:	2700      	movs	r7, #0
  uint32_t ctStartT = GetTime();
 8001926:	4680      	mov	r8, r0
  {
    w = random() % (BSP_LCD_GetXSize() >> 1);
    h = random() % (BSP_LCD_GetYSize() >> 1);
    x = random() % (BSP_LCD_GetXSize() - w);
    y = random() % (BSP_LCD_GetYSize() - h);
    BSP_LCD_SetTextColor(random() % 0xFFFF);
 8001928:	f64f 7aff 	movw	sl, #65535	; 0xffff
  for(uint32_t i = 0; i < n; i++)
 800192c:	454f      	cmp	r7, r9
 800192e:	d106      	bne.n	800193e <FillRectTest+0x24>
    BSP_LCD_FillRect(x, y, w, h);
  }
  return(GetTime() - ctStartT);
 8001930:	f7fe fc2a 	bl	8000188 <HAL_GetTick>
}
 8001934:	eba0 0008 	sub.w	r0, r0, r8
 8001938:	b003      	add	sp, #12
 800193a:	e8bd 8ff0 	ldmia.w	sp!, {r4, r5, r6, r7, r8, r9, sl, fp, pc}
    w = random() % (BSP_LCD_GetXSize() >> 1);
 800193e:	f000 fd7d 	bl	800243c <random>
 8001942:	4604      	mov	r4, r0
 8001944:	f7ff fc70 	bl	8001228 <BSP_LCD_GetXSize>
 8001948:	f3c0 004f 	ubfx	r0, r0, #1, #16
 800194c:	fb94 f2f0 	sdiv	r2, r4, r0
 8001950:	fb00 4412 	mls	r4, r0, r2, r4
    h = random() % (BSP_LCD_GetYSize() >> 1);
 8001954:	f000 fd72 	bl	800243c <random>
 8001958:	4605      	mov	r5, r0
 800195a:	f7ff fc6b 	bl	8001234 <BSP_LCD_GetYSize>
 800195e:	f3c0 004f 	ubfx	r0, r0, #1, #16
 8001962:	fb95 f3f0 	sdiv	r3, r5, r0
 8001966:	fb00 5513 	mls	r5, r0, r3, r5
    x = random() % (BSP_LCD_GetXSize() - w);
 800196a:	f000 fd67 	bl	800243c <random>
 800196e:	9001      	str	r0, [sp, #4]
 8001970:	f7ff fc5a 	bl	8001228 <BSP_LCD_GetXSize>
 8001974:	4606      	mov	r6, r0
    y = random() % (BSP_LCD_GetYSize() - h);
 8001976:	f000 fd61 	bl	800243c <random>
 800197a:	9000      	str	r0, [sp, #0]
 800197c:	f7ff fc5a 	bl	8001234 <BSP_LCD_GetYSize>
 8001980:	4683      	mov	fp, r0
    BSP_LCD_SetTextColor(random() % 0xFFFF);
 8001982:	f000 fd5b 	bl	800243c <random>
 8001986:	fb90 f2fa 	sdiv	r2, r0, sl
 800198a:	4410      	add	r0, r2
 800198c:	b280      	uxth	r0, r0
 800198e:	f7ff fc57 	bl	8001240 <BSP_LCD_SetTextColor>
    y = random() % (BSP_LCD_GetYSize() - h);
 8001992:	9900      	ldr	r1, [sp, #0]
 8001994:	b2a8      	uxth	r0, r5
 8001996:	ebab 0000 	sub.w	r0, fp, r0
 800199a:	fb91 f2f0 	sdiv	r2, r1, r0
    x = random() % (BSP_LCD_GetXSize() - w);
 800199e:	9b01      	ldr	r3, [sp, #4]
    y = random() % (BSP_LCD_GetYSize() - h);
 80019a0:	fb00 1112 	mls	r1, r0, r2, r1
    x = random() % (BSP_LCD_GetXSize() - w);
 80019a4:	b2a0      	uxth	r0, r4
 80019a6:	1a30      	subs	r0, r6, r0
 80019a8:	fb93 f2f0 	sdiv	r2, r3, r0
 80019ac:	fb00 3012 	mls	r0, r0, r2, r3
    BSP_LCD_FillRect(x, y, w, h);
 80019b0:	b289      	uxth	r1, r1
 80019b2:	b2ab      	uxth	r3, r5
 80019b4:	b2a2      	uxth	r2, r4
 80019b6:	b280      	uxth	r0, r0
 80019b8:	f7ff fe82 	bl	80016c0 <BSP_LCD_FillRect>
  for(uint32_t i = 0; i < n; i++)
 80019bc:	3701      	adds	r7, #1
 80019be:	e7b5      	b.n	800192c <FillRectTest+0x12>

080019c0 <CharTest>:

uint32_t CharTest(uint32_t n)
{
 80019c0:	e92d 4ff8 	stmdb	sp!, {r3, r4, r5, r6, r7, r8, r9, sl, fp, lr}
 80019c4:	4606      	mov	r6, r0
  uint16_t x, y;
  uint8_t  c;
  sFONT * fp;

  uint32_t ctStartT = GetTime();
 80019c6:	f7fe fbdf 	bl	8000188 <HAL_GetTick>
  for(uint32_t i = 0; i < n; i++)
 80019ca:	2400      	movs	r4, #0
  uint32_t ctStartT = GetTime();
 80019cc:	4605      	mov	r5, r0
    else if(c == 2)
      BSP_LCD_SetFont(&Font16);
    else if(c == 3)
      BSP_LCD_SetFont(&Font20);
    else if(c == 4)
      BSP_LCD_SetFont(&Font24);
 80019ce:	4f35      	ldr	r7, [pc, #212]	; (8001aa4 <CharTest+0xe4>)
      BSP_LCD_SetFont(&Font16);
 80019d0:	f8df 90e0 	ldr.w	r9, [pc, #224]	; 8001ab4 <CharTest+0xf4>
  for(uint32_t i = 0; i < n; i++)
 80019d4:	42b4      	cmp	r4, r6
 80019d6:	d104      	bne.n	80019e2 <CharTest+0x22>
    BSP_LCD_DisplayChar(x, y, c);

    //printf("%d, %d, %d, %d\r\n", x1, y1, x2, y2);
    //Delay(20);
  }
  return(GetTime() - ctStartT);
 80019d8:	f7fe fbd6 	bl	8000188 <HAL_GetTick>
}
 80019dc:	1b40      	subs	r0, r0, r5
 80019de:	e8bd 8ff8 	ldmia.w	sp!, {r3, r4, r5, r6, r7, r8, r9, sl, fp, pc}
    c = random() % 5;
 80019e2:	f000 fd2b 	bl	800243c <random>
 80019e6:	2305      	movs	r3, #5
 80019e8:	fb90 f3f3 	sdiv	r3, r0, r3
 80019ec:	eb03 0383 	add.w	r3, r3, r3, lsl #2
 80019f0:	1ac0      	subs	r0, r0, r3
    if(c == 0)
 80019f2:	f010 00ff 	ands.w	r0, r0, #255	; 0xff
 80019f6:	d144      	bne.n	8001a82 <CharTest+0xc2>
      BSP_LCD_SetFont(&Font8);
 80019f8:	482b      	ldr	r0, [pc, #172]	; (8001aa8 <CharTest+0xe8>)
      BSP_LCD_SetFont(&Font24);
 80019fa:	f7ff fc2d 	bl	8001258 <BSP_LCD_SetFont>
    fp = BSP_LCD_GetFont();
 80019fe:	f7ff fc31 	bl	8001264 <BSP_LCD_GetFont>
 8001a02:	4683      	mov	fp, r0
    x = random() % (BSP_LCD_GetXSize() - fp->Width);
 8001a04:	f000 fd1a 	bl	800243c <random>
 8001a08:	4680      	mov	r8, r0
 8001a0a:	f7ff fc0d 	bl	8001228 <BSP_LCD_GetXSize>
 8001a0e:	f8bb a004 	ldrh.w	sl, [fp, #4]
  for(uint32_t i = 0; i < n; i++)
 8001a12:	3401      	adds	r4, #1
    x = random() % (BSP_LCD_GetXSize() - fp->Width);
 8001a14:	eba0 000a 	sub.w	r0, r0, sl
 8001a18:	fb98 faf0 	sdiv	sl, r8, r0
 8001a1c:	fb00 801a 	mls	r0, r0, sl, r8
 8001a20:	fa1f fa80 	uxth.w	sl, r0
    y = random() % (BSP_LCD_GetYSize() - fp->Height);
 8001a24:	f000 fd0a 	bl	800243c <random>
 8001a28:	4680      	mov	r8, r0
 8001a2a:	f7ff fc03 	bl	8001234 <BSP_LCD_GetYSize>
 8001a2e:	f8bb b006 	ldrh.w	fp, [fp, #6]
 8001a32:	eba0 000b 	sub.w	r0, r0, fp
 8001a36:	fb98 fbf0 	sdiv	fp, r8, r0
 8001a3a:	fb00 801b 	mls	r0, r0, fp, r8
    BSP_LCD_SetTextColor(random() % 0xFFFF);
 8001a3e:	f64f 78ff 	movw	r8, #65535	; 0xffff
    y = random() % (BSP_LCD_GetYSize() - fp->Height);
 8001a42:	fa1f fb80 	uxth.w	fp, r0
    BSP_LCD_SetTextColor(random() % 0xFFFF);
 8001a46:	f000 fcf9 	bl	800243c <random>
 8001a4a:	fb90 f2f8 	sdiv	r2, r0, r8
 8001a4e:	4410      	add	r0, r2
 8001a50:	b280      	uxth	r0, r0
 8001a52:	f7ff fbf5 	bl	8001240 <BSP_LCD_SetTextColor>
    BSP_LCD_SetBackColor(random() % 0xFFFF);
 8001a56:	f000 fcf1 	bl	800243c <random>
 8001a5a:	fb90 f3f8 	sdiv	r3, r0, r8
 8001a5e:	4418      	add	r0, r3
 8001a60:	b280      	uxth	r0, r0
 8001a62:	f7ff fbf3 	bl	800124c <BSP_LCD_SetBackColor>
    c = random() % 96 + ' ';
 8001a66:	f000 fce9 	bl	800243c <random>
 8001a6a:	2260      	movs	r2, #96	; 0x60
 8001a6c:	fb90 f3f2 	sdiv	r3, r0, r2
 8001a70:	fb03 0212 	mls	r2, r3, r2, r0
 8001a74:	3220      	adds	r2, #32
    BSP_LCD_DisplayChar(x, y, c);
 8001a76:	b2d2      	uxtb	r2, r2
 8001a78:	4659      	mov	r1, fp
 8001a7a:	4650      	mov	r0, sl
 8001a7c:	f7ff fd86 	bl	800158c <BSP_LCD_DisplayChar>
 8001a80:	e7a8      	b.n	80019d4 <CharTest+0x14>
    else if(c == 1)
 8001a82:	2801      	cmp	r0, #1
 8001a84:	d101      	bne.n	8001a8a <CharTest+0xca>
      BSP_LCD_SetFont(&Font12);
 8001a86:	4809      	ldr	r0, [pc, #36]	; (8001aac <CharTest+0xec>)
 8001a88:	e7b7      	b.n	80019fa <CharTest+0x3a>
    else if(c == 2)
 8001a8a:	2802      	cmp	r0, #2
 8001a8c:	d101      	bne.n	8001a92 <CharTest+0xd2>
      BSP_LCD_SetFont(&Font16);
 8001a8e:	4648      	mov	r0, r9
 8001a90:	e7b3      	b.n	80019fa <CharTest+0x3a>
    else if(c == 3)
 8001a92:	2803      	cmp	r0, #3
 8001a94:	d101      	bne.n	8001a9a <CharTest+0xda>
      BSP_LCD_SetFont(&Font20);
 8001a96:	4806      	ldr	r0, [pc, #24]	; (8001ab0 <CharTest+0xf0>)
 8001a98:	e7af      	b.n	80019fa <CharTest+0x3a>
    else if(c == 4)
 8001a9a:	2804      	cmp	r0, #4
 8001a9c:	d1af      	bne.n	80019fe <CharTest+0x3e>
      BSP_LCD_SetFont(&Font24);
 8001a9e:	4638      	mov	r0, r7
 8001aa0:	e7ab      	b.n	80019fa <CharTest+0x3a>
 8001aa2:	bf00      	nop
 8001aa4:	2000001c 	.word	0x2000001c
 8001aa8:	20000024 	.word	0x20000024
 8001aac:	20000004 	.word	0x20000004
 8001ab0:	20000014 	.word	0x20000014
 8001ab4:	2000000c 	.word	0x2000000c

08001ab8 <CircleTest>:

uint32_t CircleTest(uint32_t n)
{
 8001ab8:	e92d 4ff7 	stmdb	sp!, {r0, r1, r2, r4, r5, r6, r7, r8, r9, sl, fp, lr}
 8001abc:	4681      	mov	r9, r0
  uint16_t c, x, y, r, rmax;

  rmax = BSP_LCD_GetXSize();
 8001abe:	f7ff fbb3 	bl	8001228 <BSP_LCD_GetXSize>
 8001ac2:	4606      	mov	r6, r0
  if(rmax > BSP_LCD_GetYSize())
 8001ac4:	f7ff fbb6 	bl	8001234 <BSP_LCD_GetYSize>
 8001ac8:	4286      	cmp	r6, r0
 8001aca:	d902      	bls.n	8001ad2 <CircleTest+0x1a>
    rmax = BSP_LCD_GetYSize();
 8001acc:	f7ff fbb2 	bl	8001234 <BSP_LCD_GetYSize>
 8001ad0:	4606      	mov	r6, r0
  rmax >>= 2;

  uint32_t ctStartT = GetTime();
 8001ad2:	f7fe fb59 	bl	8000188 <HAL_GetTick>
  for(uint32_t i = 0; i < n; i++)
 8001ad6:	f04f 0a00 	mov.w	sl, #0
  uint32_t ctStartT = GetTime();
 8001ada:	4680      	mov	r8, r0
      r = random() % rmax;
    while(r == 0);

    x = random() % (BSP_LCD_GetXSize() - (r << 1)) + r;
    y = random() % (BSP_LCD_GetYSize() - (r << 1)) + r;
    c = random() % 0xFFFF;
 8001adc:	f64f 7bff 	movw	fp, #65535	; 0xffff
  rmax >>= 2;
 8001ae0:	f3c6 068f 	ubfx	r6, r6, #2, #16
  for(uint32_t i = 0; i < n; i++)
 8001ae4:	45ca      	cmp	sl, r9
 8001ae6:	d106      	bne.n	8001af6 <CircleTest+0x3e>
    BSP_LCD_SetTextColor(c);
    //printf("%d, %d, %d\r\n", x, y, r);
    //Delay(20);
    BSP_LCD_DrawCircle(x, y, r);
  }
  return(GetTime() - ctStartT);
 8001ae8:	f7fe fb4e 	bl	8000188 <HAL_GetTick>
}
 8001aec:	eba0 0008 	sub.w	r0, r0, r8
 8001af0:	b003      	add	sp, #12
 8001af2:	e8bd 8ff0 	ldmia.w	sp!, {r4, r5, r6, r7, r8, r9, sl, fp, pc}
      r = random() % rmax;
 8001af6:	f000 fca1 	bl	800243c <random>
 8001afa:	fb90 f4f6 	sdiv	r4, r0, r6
 8001afe:	fb04 0416 	mls	r4, r4, r6, r0
 8001b02:	b2a7      	uxth	r7, r4
    while(r == 0);
 8001b04:	2f00      	cmp	r7, #0
 8001b06:	d0f6      	beq.n	8001af6 <CircleTest+0x3e>
    x = random() % (BSP_LCD_GetXSize() - (r << 1)) + r;
 8001b08:	f000 fc98 	bl	800243c <random>
 8001b0c:	9001      	str	r0, [sp, #4]
 8001b0e:	f7ff fb8b 	bl	8001228 <BSP_LCD_GetXSize>
 8001b12:	4b14      	ldr	r3, [pc, #80]	; (8001b64 <CircleTest+0xac>)
 8001b14:	9a01      	ldr	r2, [sp, #4]
 8001b16:	ea03 0444 	and.w	r4, r3, r4, lsl #1
 8001b1a:	1b00      	subs	r0, r0, r4
 8001b1c:	fb92 f5f0 	sdiv	r5, r2, r0
 8001b20:	fb00 2515 	mls	r5, r0, r5, r2
    y = random() % (BSP_LCD_GetYSize() - (r << 1)) + r;
 8001b24:	f000 fc8a 	bl	800243c <random>
 8001b28:	9001      	str	r0, [sp, #4]
 8001b2a:	f7ff fb83 	bl	8001234 <BSP_LCD_GetYSize>
 8001b2e:	9901      	ldr	r1, [sp, #4]
 8001b30:	1b00      	subs	r0, r0, r4
 8001b32:	fb91 f4f0 	sdiv	r4, r1, r0
 8001b36:	fb00 1414 	mls	r4, r0, r4, r1
    c = random() % 0xFFFF;
 8001b3a:	f000 fc7f 	bl	800243c <random>
 8001b3e:	fb90 f2fb 	sdiv	r2, r0, fp
    x = random() % (BSP_LCD_GetXSize() - (r << 1)) + r;
 8001b42:	443d      	add	r5, r7
    c = random() % 0xFFFF;
 8001b44:	4410      	add	r0, r2
    y = random() % (BSP_LCD_GetYSize() - (r << 1)) + r;
 8001b46:	443c      	add	r4, r7
    BSP_LCD_SetTextColor(c);
 8001b48:	b280      	uxth	r0, r0
    x = random() % (BSP_LCD_GetXSize() - (r << 1)) + r;
 8001b4a:	b2ad      	uxth	r5, r5
    y = random() % (BSP_LCD_GetYSize() - (r << 1)) + r;
 8001b4c:	b2a4      	uxth	r4, r4
    BSP_LCD_SetTextColor(c);
 8001b4e:	f7ff fb77 	bl	8001240 <BSP_LCD_SetTextColor>
    BSP_LCD_DrawCircle(x, y, r);
 8001b52:	463a      	mov	r2, r7
 8001b54:	4621      	mov	r1, r4
 8001b56:	4628      	mov	r0, r5
 8001b58:	f7ff fc74 	bl	8001444 <BSP_LCD_DrawCircle>
  for(uint32_t i = 0; i < n; i++)
 8001b5c:	f10a 0a01 	add.w	sl, sl, #1
 8001b60:	e7c0      	b.n	8001ae4 <CircleTest+0x2c>
 8001b62:	bf00      	nop
 8001b64:	0001fffe 	.word	0x0001fffe

08001b68 <FillCircleTest>:

uint32_t FillCircleTest(uint32_t n)
{
 8001b68:	e92d 4ff7 	stmdb	sp!, {r0, r1, r2, r4, r5, r6, r7, r8, r9, sl, fp, lr}
 8001b6c:	4681      	mov	r9, r0
  uint16_t c, x, y, r, rmax;

  rmax = BSP_LCD_GetXSize();
 8001b6e:	f7ff fb5b 	bl	8001228 <BSP_LCD_GetXSize>
 8001b72:	4606      	mov	r6, r0
  if(rmax > BSP_LCD_GetYSize())
 8001b74:	f7ff fb5e 	bl	8001234 <BSP_LCD_GetYSize>
 8001b78:	4286      	cmp	r6, r0
 8001b7a:	d902      	bls.n	8001b82 <FillCircleTest+0x1a>
    rmax = BSP_LCD_GetYSize();
 8001b7c:	f7ff fb5a 	bl	8001234 <BSP_LCD_GetYSize>
 8001b80:	4606      	mov	r6, r0
  rmax >>= 2;

  uint32_t ctStartT = GetTime();
 8001b82:	f7fe fb01 	bl	8000188 <HAL_GetTick>
  for(uint32_t i = 0; i < n; i++)
 8001b86:	f04f 0a00 	mov.w	sl, #0
  uint32_t ctStartT = GetTime();
 8001b8a:	4680      	mov	r8, r0
      r = random() % rmax;
    while(r == 0);

    x = random() % (BSP_LCD_GetXSize() - (r << 1)) + r;
    y = random() % (BSP_LCD_GetYSize() - (r << 1)) + r;
    c = random() % 0xFFFF;
 8001b8c:	f64f 7bff 	movw	fp, #65535	; 0xffff
  rmax >>= 2;
 8001b90:	f3c6 068f 	ubfx	r6, r6, #2, #16
  for(uint32_t i = 0; i < n; i++)
 8001b94:	45ca      	cmp	sl, r9
 8001b96:	d106      	bne.n	8001ba6 <FillCircleTest+0x3e>
    BSP_LCD_SetTextColor(c);
    //printf("%d, %d, %d\r\n", x, y, r);
    //Delay(20);
    BSP_LCD_FillCircle(x, y, r);
  }
  return(GetTime() - ctStartT);
 8001b98:	f7fe faf6 	bl	8000188 <HAL_GetTick>
}
 8001b9c:	eba0 0008 	sub.w	r0, r0, r8
 8001ba0:	b003      	add	sp, #12
 8001ba2:	e8bd 8ff0 	ldmia.w	sp!, {r4, r5, r6, r7, r8, r9, sl, fp, pc}
      r = random() % rmax;
 8001ba6:	f000 fc49 	bl	800243c <random>
 8001baa:	fb90 f4f6 	sdiv	r4, r0, r6
 8001bae:	fb04 0416 	mls	r4, r4, r6, r0
 8001bb2:	b2a7      	uxth	r7, r4
    while(r == 0);
 8001bb4:	2f00      	cmp	r7, #0
 8001bb6:	d0f6      	beq.n	8001ba6 <FillCircleTest+0x3e>
    x = random() % (BSP_LCD_GetXSize() - (r << 1)) + r;
 8001bb8:	f000 fc40 	bl	800243c <random>
 8001bbc:	9001      	str	r0, [sp, #4]
 8001bbe:	f7ff fb33 	bl	8001228 <BSP_LCD_GetXSize>
 8001bc2:	4b14      	ldr	r3, [pc, #80]	; (8001c14 <FillCircleTest+0xac>)
 8001bc4:	9a01      	ldr	r2, [sp, #4]
 8001bc6:	ea03 0444 	and.w	r4, r3, r4, lsl #1
 8001bca:	1b00      	subs	r0, r0, r4
 8001bcc:	fb92 f5f0 	sdiv	r5, r2, r0
 8001bd0:	fb00 2515 	mls	r5, r0, r5, r2
    y = random() % (BSP_LCD_GetYSize() - (r << 1)) + r;
 8001bd4:	f000 fc32 	bl	800243c <random>
 8001bd8:	9001      	str	r0, [sp, #4]
 8001bda:	f7ff fb2b 	bl	8001234 <BSP_LCD_GetYSize>
 8001bde:	9901      	ldr	r1, [sp, #4]
 8001be0:	1b00      	subs	r0, r0, r4
 8001be2:	fb91 f4f0 	sdiv	r4, r1, r0
 8001be6:	fb00 1414 	mls	r4, r0, r4, r1
    c = random() % 0xFFFF;
 8001bea:	f000 fc27 	bl	800243c <random>
 8001bee:	fb90 f2fb 	sdiv	r2, r0, fp
    x = random() % (BSP_LCD_GetXSize() - (r << 1)) + r;
 8001bf2:	443d      	add	r5, r7
    c = random() % 0xFFFF;
 8001bf4:	4410      	add	r0, r2
    y = random() % (BSP_LCD_GetYSize() - (r << 1)) + r;
 8001bf6:	443c      	add	r4, r7
    BSP_LCD_SetTextColor(c);
 8001bf8:	b280      	uxth	r0, r0
    x = random() % (BSP_LCD_GetXSize() - (r << 1)) + r;
 8001bfa:	b2ad      	uxth	r5, r5
    y = random() % (BSP_LCD_GetYSize() - (r << 1)) + r;
 8001bfc:	b2a4      	uxth	r4, r4
    BSP_LCD_SetTextColor(c);
 8001bfe:	f7ff fb1f 	bl	8001240 <BSP_LCD_SetTextColor>
    BSP_LCD_FillCircle(x, y, r);
 8001c02:	463a      	mov	r2, r7
 8001c04:	4621      	mov	r1, r4
 8001c06:	4628      	mov	r0, r5
 8001c08:	f7ff fd72 	bl	80016f0 <BSP_LCD_FillCircle>
  for(uint32_t i = 0; i < n; i++)
 8001c0c:	f10a 0a01 	add.w	sl, sl, #1
 8001c10:	e7c0      	b.n	8001b94 <FillCircleTest+0x2c>
 8001c12:	bf00      	nop
 8001c14:	0001fffe 	.word	0x0001fffe

08001c18 <ColorTest>:

uint32_t ColorTest(void)
{
 8001c18:	e92d 4ff7 	stmdb	sp!, {r0, r1, r2, r4, r5, r6, r7, r8, r9, sl, fp, lr}
  uint16_t c_rgb565, xs, ys;
  uint8_t  cy;

  uint32_t ctStartT = GetTime();
 8001c1c:	f7fe fab4 	bl	8000188 <HAL_GetTick>
 8001c20:	4683      	mov	fp, r0
  xs = BSP_LCD_GetXSize();
 8001c22:	f7ff fb01 	bl	8001228 <BSP_LCD_GetXSize>
 8001c26:	4682      	mov	sl, r0
  ys = BSP_LCD_GetYSize();
 8001c28:	f7ff fb04 	bl	8001234 <BSP_LCD_GetYSize>
  for(uint16_t x = 0; x < xs; x++)
 8001c2c:	f04f 0800 	mov.w	r8, #0
  {
    cy = (uint32_t)(x << 8) / xs;
    c_rgb565 = RGB888TORGB565(cy, cy, cy);
    BSP_LCD_SetTextColor(c_rgb565);
    BSP_LCD_DrawVLine(x, 0, ys >> 2);
 8001c30:	f3c0 058f 	ubfx	r5, r0, #2, #16
    BSP_LCD_SetTextColor(c_rgb565);
    BSP_LCD_DrawVLine(x, ys >> 2, ys >> 2);

    c_rgb565 = RGB888TORGB565(0, cy, 0);
    BSP_LCD_SetTextColor(c_rgb565);
    BSP_LCD_DrawVLine(x, ys >> 1, ys >> 2);
 8001c34:	f3c0 074f 	ubfx	r7, r0, #1, #16

    c_rgb565 = RGB888TORGB565(0, 0, cy);
    BSP_LCD_SetTextColor(c_rgb565);
    BSP_LCD_DrawVLine(x, (ys >> 1) + (ys >> 2), ys >> 2);
 8001c38:	19eb      	adds	r3, r5, r7
 8001c3a:	b29b      	uxth	r3, r3
 8001c3c:	9300      	str	r3, [sp, #0]
 8001c3e:	fa1f f688 	uxth.w	r6, r8
  for(uint16_t x = 0; x < xs; x++)
 8001c42:	4556      	cmp	r6, sl
 8001c44:	d306      	bcc.n	8001c54 <ColorTest+0x3c>
  }
  return(GetTime() - ctStartT);
 8001c46:	f7fe fa9f 	bl	8000188 <HAL_GetTick>
}
 8001c4a:	eba0 000b 	sub.w	r0, r0, fp
 8001c4e:	b003      	add	sp, #12
 8001c50:	e8bd 8ff0 	ldmia.w	sp!, {r4, r5, r6, r7, r8, r9, sl, fp, pc}
    cy = (uint32_t)(x << 8) / xs;
 8001c54:	ea4f 2408 	mov.w	r4, r8, lsl #8
 8001c58:	fbb4 f4fa 	udiv	r4, r4, sl
    c_rgb565 = RGB888TORGB565(cy, cy, cy);
 8001c5c:	4a19      	ldr	r2, [pc, #100]	; (8001cc4 <ColorTest+0xac>)
 8001c5e:	f3c4 03c4 	ubfx	r3, r4, #3, #5
 8001c62:	ea4f 09c4 	mov.w	r9, r4, lsl #3
 8001c66:	ea02 2404 	and.w	r4, r2, r4, lsl #8
 8001c6a:	ea44 0003 	orr.w	r0, r4, r3
 8001c6e:	f409 69fc 	and.w	r9, r9, #2016	; 0x7e0
 8001c72:	ea40 0009 	orr.w	r0, r0, r9
    BSP_LCD_SetTextColor(c_rgb565);
 8001c76:	b280      	uxth	r0, r0
    c_rgb565 = RGB888TORGB565(cy, cy, cy);
 8001c78:	9301      	str	r3, [sp, #4]
    BSP_LCD_SetTextColor(c_rgb565);
 8001c7a:	f7ff fae1 	bl	8001240 <BSP_LCD_SetTextColor>
    BSP_LCD_DrawVLine(x, 0, ys >> 2);
 8001c7e:	462a      	mov	r2, r5
 8001c80:	2100      	movs	r1, #0
 8001c82:	4630      	mov	r0, r6
 8001c84:	f7ff fb56 	bl	8001334 <BSP_LCD_DrawVLine>
    BSP_LCD_SetTextColor(c_rgb565);
 8001c88:	f404 4078 	and.w	r0, r4, #63488	; 0xf800
 8001c8c:	f7ff fad8 	bl	8001240 <BSP_LCD_SetTextColor>
    BSP_LCD_DrawVLine(x, ys >> 2, ys >> 2);
 8001c90:	462a      	mov	r2, r5
 8001c92:	4629      	mov	r1, r5
 8001c94:	4630      	mov	r0, r6
 8001c96:	f7ff fb4d 	bl	8001334 <BSP_LCD_DrawVLine>
    BSP_LCD_SetTextColor(c_rgb565);
 8001c9a:	4648      	mov	r0, r9
 8001c9c:	f7ff fad0 	bl	8001240 <BSP_LCD_SetTextColor>
    BSP_LCD_DrawVLine(x, ys >> 1, ys >> 2);
 8001ca0:	462a      	mov	r2, r5
 8001ca2:	4639      	mov	r1, r7
 8001ca4:	4630      	mov	r0, r6
 8001ca6:	f7ff fb45 	bl	8001334 <BSP_LCD_DrawVLine>
    BSP_LCD_SetTextColor(c_rgb565);
 8001caa:	9b01      	ldr	r3, [sp, #4]
 8001cac:	f108 0801 	add.w	r8, r8, #1
 8001cb0:	4618      	mov	r0, r3
 8001cb2:	f7ff fac5 	bl	8001240 <BSP_LCD_SetTextColor>
    BSP_LCD_DrawVLine(x, (ys >> 1) + (ys >> 2), ys >> 2);
 8001cb6:	462a      	mov	r2, r5
 8001cb8:	9900      	ldr	r1, [sp, #0]
 8001cba:	4630      	mov	r0, r6
 8001cbc:	f7ff fb3a 	bl	8001334 <BSP_LCD_DrawVLine>
 8001cc0:	e7bd      	b.n	8001c3e <ColorTest+0x26>
 8001cc2:	bf00      	nop
 8001cc4:	fffff800 	.word	0xfffff800

08001cc8 <BitmapTest>:

uint32_t BitmapTest(uint32_t n)
{
 8001cc8:	e92d 43f8 	stmdb	sp!, {r3, r4, r5, r6, r7, r8, r9, lr}
 8001ccc:	4607      	mov	r7, r0
  extern const BITMAPSTRUCT beer_60x100_16;
  uint16_t x, y;

  uint32_t ctStartT = GetTime();
 8001cce:	f7fe fa5b 	bl	8000188 <HAL_GetTick>
  for(uint32_t i = 0; i < n; i++)
 8001cd2:	f04f 0800 	mov.w	r8, #0
  uint32_t ctStartT = GetTime();
 8001cd6:	4606      	mov	r6, r0
  {
    x = random() % (BSP_LCD_GetXSize() - beer_60x100_16.infoHeader.biWidth);
 8001cd8:	4d14      	ldr	r5, [pc, #80]	; (8001d2c <BitmapTest+0x64>)
  for(uint32_t i = 0; i < n; i++)
 8001cda:	45b8      	cmp	r8, r7
 8001cdc:	d104      	bne.n	8001ce8 <BitmapTest+0x20>
    y = random() % (BSP_LCD_GetYSize() - beer_60x100_16.infoHeader.biHeight);
    BSP_LCD_DrawBitmap(x, y, (uint8_t *)&beer_60x100_16);
  }
  return(GetTime() - ctStartT);
 8001cde:	f7fe fa53 	bl	8000188 <HAL_GetTick>
}
 8001ce2:	1b80      	subs	r0, r0, r6
 8001ce4:	e8bd 83f8 	ldmia.w	sp!, {r3, r4, r5, r6, r7, r8, r9, pc}
    x = random() % (BSP_LCD_GetXSize() - beer_60x100_16.infoHeader.biWidth);
 8001ce8:	f000 fba8 	bl	800243c <random>
 8001cec:	4681      	mov	r9, r0
 8001cee:	f7ff fa9b 	bl	8001228 <BSP_LCD_GetXSize>
 8001cf2:	f8d5 4012 	ldr.w	r4, [r5, #18]
  for(uint32_t i = 0; i < n; i++)
 8001cf6:	f108 0801 	add.w	r8, r8, #1
    x = random() % (BSP_LCD_GetXSize() - beer_60x100_16.infoHeader.biWidth);
 8001cfa:	1b00      	subs	r0, r0, r4
 8001cfc:	fbb9 f4f0 	udiv	r4, r9, r0
 8001d00:	fb00 9014 	mls	r0, r0, r4, r9
 8001d04:	b284      	uxth	r4, r0
    y = random() % (BSP_LCD_GetYSize() - beer_60x100_16.infoHeader.biHeight);
 8001d06:	f000 fb99 	bl	800243c <random>
 8001d0a:	4681      	mov	r9, r0
 8001d0c:	f7ff fa92 	bl	8001234 <BSP_LCD_GetYSize>
 8001d10:	f8d5 1016 	ldr.w	r1, [r5, #22]
    BSP_LCD_DrawBitmap(x, y, (uint8_t *)&beer_60x100_16);
 8001d14:	4a05      	ldr	r2, [pc, #20]	; (8001d2c <BitmapTest+0x64>)
    y = random() % (BSP_LCD_GetYSize() - beer_60x100_16.infoHeader.biHeight);
 8001d16:	1a40      	subs	r0, r0, r1
 8001d18:	fbb9 f1f0 	udiv	r1, r9, r0
 8001d1c:	fb00 9111 	mls	r1, r0, r1, r9
    BSP_LCD_DrawBitmap(x, y, (uint8_t *)&beer_60x100_16);
 8001d20:	4620      	mov	r0, r4
 8001d22:	b289      	uxth	r1, r1
 8001d24:	f7ff fbfe 	bl	8001524 <BSP_LCD_DrawBitmap>
 8001d28:	e7d7      	b.n	8001cda <BitmapTest+0x12>
 8001d2a:	bf00      	nop
 8001d2c:	08007094 	.word	0x08007094

08001d30 <LcdReadPixelTest>:

uint16_t bitmap[256];
void LcdReadPixelTest(void)
{
 8001d30:	e92d 43f7 	stmdb	sp!, {r0, r1, r2, r4, r5, r6, r7, r8, r9, lr}
  uint16_t x, y;

  for(y = 0; y < 16; y++)
    for(x = 0; x < 16; x++)
      bitmap[y * 16 + x] = BSP_LCD_ReadPixel(x, y);
 8001d34:	4e17      	ldr	r6, [pc, #92]	; (8001d94 <LcdReadPixelTest+0x64>)
 8001d36:	2400      	movs	r4, #0
 8001d38:	4637      	mov	r7, r6
{
 8001d3a:	2500      	movs	r5, #0
 8001d3c:	fa1f f984 	uxth.w	r9, r4
 8001d40:	ea4f 1804 	mov.w	r8, r4, lsl #4
      bitmap[y * 16 + x] = BSP_LCD_ReadPixel(x, y);
 8001d44:	b2a8      	uxth	r0, r5
 8001d46:	4649      	mov	r1, r9
 8001d48:	f7ff fd40 	bl	80017cc <BSP_LCD_ReadPixel>
 8001d4c:	eb08 0305 	add.w	r3, r8, r5
 8001d50:	3501      	adds	r5, #1
    for(x = 0; x < 16; x++)
 8001d52:	2d10      	cmp	r5, #16
      bitmap[y * 16 + x] = BSP_LCD_ReadPixel(x, y);
 8001d54:	f826 0013 	strh.w	r0, [r6, r3, lsl #1]
    for(x = 0; x < 16; x++)
 8001d58:	d1f4      	bne.n	8001d44 <LcdReadPixelTest+0x14>
 8001d5a:	3401      	adds	r4, #1
  for(y = 0; y < 16; y++)
 8001d5c:	2c10      	cmp	r4, #16
 8001d5e:	d1ec      	bne.n	8001d3a <LcdReadPixelTest+0xa>

  for(y = 16; y < BSP_LCD_GetYSize(); y+=16)
 8001d60:	f7ff fa68 	bl	8001234 <BSP_LCD_GetYSize>
 8001d64:	4284      	cmp	r4, r0
 8001d66:	d211      	bcs.n	8001d8c <LcdReadPixelTest+0x5c>
 8001d68:	2510      	movs	r5, #16
 8001d6a:	e008      	b.n	8001d7e <LcdReadPixelTest+0x4e>
    for(x = 16; x < BSP_LCD_GetXSize(); x+=16)
      BSP_LCD_DrawRGB16Image(x, y, 16, 16, &bitmap[0]);
 8001d6c:	2310      	movs	r3, #16
 8001d6e:	4628      	mov	r0, r5
 8001d70:	9700      	str	r7, [sp, #0]
 8001d72:	461a      	mov	r2, r3
 8001d74:	4621      	mov	r1, r4
 8001d76:	f7ff fd33 	bl	80017e0 <BSP_LCD_DrawRGB16Image>
    for(x = 16; x < BSP_LCD_GetXSize(); x+=16)
 8001d7a:	3510      	adds	r5, #16
 8001d7c:	b2ad      	uxth	r5, r5
 8001d7e:	f7ff fa53 	bl	8001228 <BSP_LCD_GetXSize>
 8001d82:	4285      	cmp	r5, r0
 8001d84:	d3f2      	bcc.n	8001d6c <LcdReadPixelTest+0x3c>
  for(y = 16; y < BSP_LCD_GetYSize(); y+=16)
 8001d86:	3410      	adds	r4, #16
 8001d88:	b2a4      	uxth	r4, r4
 8001d8a:	e7e9      	b.n	8001d60 <LcdReadPixelTest+0x30>
}
 8001d8c:	b003      	add	sp, #12
 8001d8e:	e8bd 83f0 	ldmia.w	sp!, {r4, r5, r6, r7, r8, r9, pc}
 8001d92:	bf00      	nop
 8001d94:	20000478 	.word	0x20000478

08001d98 <LcdReadImageTest>:

void LcdReadImageTest(void)
{
 8001d98:	b573      	push	{r0, r1, r4, r5, r6, lr}
  uint16_t x, y;

  BSP_LCD_ReadRGB16Image(0, 0, 16, 16, &bitmap[0]);
 8001d9a:	2310      	movs	r3, #16
 8001d9c:	2100      	movs	r1, #0
 8001d9e:	4e0f      	ldr	r6, [pc, #60]	; (8001ddc <LcdReadImageTest+0x44>)
 8001da0:	461a      	mov	r2, r3
 8001da2:	9600      	str	r6, [sp, #0]
 8001da4:	4608      	mov	r0, r1
 8001da6:	f7ff fd25 	bl	80017f4 <BSP_LCD_ReadRGB16Image>

  for(y = 16; y < BSP_LCD_GetYSize(); y+=16)
 8001daa:	2510      	movs	r5, #16
 8001dac:	f7ff fa42 	bl	8001234 <BSP_LCD_GetYSize>
 8001db0:	4285      	cmp	r5, r0
 8001db2:	d211      	bcs.n	8001dd8 <LcdReadImageTest+0x40>
 8001db4:	2410      	movs	r4, #16
 8001db6:	e008      	b.n	8001dca <LcdReadImageTest+0x32>
    for(x = 16; x < BSP_LCD_GetXSize(); x+=16)
      BSP_LCD_DrawRGB16Image(x, y, 16, 16, &bitmap[0]);
 8001db8:	2310      	movs	r3, #16
 8001dba:	4620      	mov	r0, r4
 8001dbc:	9600      	str	r6, [sp, #0]
 8001dbe:	461a      	mov	r2, r3
 8001dc0:	4629      	mov	r1, r5
 8001dc2:	f7ff fd0d 	bl	80017e0 <BSP_LCD_DrawRGB16Image>
    for(x = 16; x < BSP_LCD_GetXSize(); x+=16)
 8001dc6:	3410      	adds	r4, #16
 8001dc8:	b2a4      	uxth	r4, r4
 8001dca:	f7ff fa2d 	bl	8001228 <BSP_LCD_GetXSize>
 8001dce:	4284      	cmp	r4, r0
 8001dd0:	d3f2      	bcc.n	8001db8 <LcdReadImageTest+0x20>
  for(y = 16; y < BSP_LCD_GetYSize(); y+=16)
 8001dd2:	3510      	adds	r5, #16
 8001dd4:	b2ad      	uxth	r5, r5
 8001dd6:	e7e9      	b.n	8001dac <LcdReadImageTest+0x14>
}
 8001dd8:	b002      	add	sp, #8
 8001dda:	bd70      	pop	{r4, r5, r6, pc}
 8001ddc:	20000478 	.word	0x20000478

08001de0 <mainApp>:

void mainApp(void)
{
 8001de0:	b510      	push	{r4, lr}
  uint32_t t;

  HAL_Delay(300);
 8001de2:	f44f 7096 	mov.w	r0, #300	; 0x12c
 8001de6:	f7fe f9d5 	bl	8000194 <HAL_Delay>

  BSP_LCD_Init();
 8001dea:	f7ff fa87 	bl	80012fc <BSP_LCD_Init>

  t = random();
 8001dee:	f000 fb25 	bl	800243c <random>

  HAL_Delay(1000);
 8001df2:	f44f 707a 	mov.w	r0, #1000	; 0x3e8
 8001df6:	f7fe f9cd 	bl	8000194 <HAL_Delay>
  printf("Display ID = %X\r\n", (unsigned int)BSP_LCD_ReadID());
 8001dfa:	f7ff fcdf 	bl	80017bc <BSP_LCD_ReadID>
 8001dfe:	4601      	mov	r1, r0
 8001e00:	485b      	ldr	r0, [pc, #364]	; (8001f70 <mainApp+0x190>)
 8001e02:	f000 fa9f 	bl	8002344 <iprintf>
  HAL_Delay(1000);
 8001e06:	f44f 707a 	mov.w	r0, #1000	; 0x3e8
 8001e0a:	f7fe f9c3 	bl	8000194 <HAL_Delay>

  while(1)
  {
    _impure_ptr->_r48->_rand_next = 0;
 8001e0e:	4c59      	ldr	r4, [pc, #356]	; (8001f74 <mainApp+0x194>)
 8001e10:	2100      	movs	r1, #0
 8001e12:	2000      	movs	r0, #0
 8001e14:	6823      	ldr	r3, [r4, #0]
 8001e16:	6b9b      	ldr	r3, [r3, #56]	; 0x38
 8001e18:	e9c3 0104 	strd	r0, r1, [r3, #16]

    t = ClearTest();
 8001e1c:	f7ff fcf4 	bl	8001808 <ClearTest>
    printf("Clear Test: %d ms\r\n", (int)t);
 8001e20:	4601      	mov	r1, r0
 8001e22:	4855      	ldr	r0, [pc, #340]	; (8001f78 <mainApp+0x198>)
 8001e24:	f000 fa8e 	bl	8002344 <iprintf>
    t = PixelTest(100000);
 8001e28:	4854      	ldr	r0, [pc, #336]	; (8001f7c <mainApp+0x19c>)
 8001e2a:	f7ff fcf8 	bl	800181e <PixelTest>
    printf("Pixel Test: %d ms\r\n", (int)t);
 8001e2e:	4601      	mov	r1, r0
 8001e30:	4853      	ldr	r0, [pc, #332]	; (8001f80 <mainApp+0x1a0>)
 8001e32:	f000 fa87 	bl	8002344 <iprintf>
    Delay(1000);
 8001e36:	f44f 707a 	mov.w	r0, #1000	; 0x3e8
 8001e3a:	f7fe f9ab 	bl	8000194 <HAL_Delay>

    BSP_LCD_Clear(LCD_COLOR_BLACK);
 8001e3e:	2000      	movs	r0, #0
 8001e40:	f7ff fa44 	bl	80012cc <BSP_LCD_Clear>
    t = LineTest(1000);
 8001e44:	f44f 707a 	mov.w	r0, #1000	; 0x3e8
 8001e48:	f7ff fd19 	bl	800187e <LineTest>
    printf("Line Test: %d ms\r\n", (int)t);
 8001e4c:	4601      	mov	r1, r0
 8001e4e:	484d      	ldr	r0, [pc, #308]	; (8001f84 <mainApp+0x1a4>)
 8001e50:	f000 fa78 	bl	8002344 <iprintf>
    Delay(1000);
 8001e54:	f44f 707a 	mov.w	r0, #1000	; 0x3e8
 8001e58:	f7fe f99c 	bl	8000194 <HAL_Delay>
    LcdReadPixelTest();
 8001e5c:	f7ff ff68 	bl	8001d30 <LcdReadPixelTest>
    Delay(1000);
 8001e60:	f44f 707a 	mov.w	r0, #1000	; 0x3e8
 8001e64:	f7fe f996 	bl	8000194 <HAL_Delay>
    LcdReadImageTest();
 8001e68:	f7ff ff96 	bl	8001d98 <LcdReadImageTest>
    Delay(1000);
 8001e6c:	f44f 707a 	mov.w	r0, #1000	; 0x3e8
 8001e70:	f7fe f990 	bl	8000194 <HAL_Delay>

    BSP_LCD_Clear(LCD_COLOR_BLACK);
 8001e74:	2000      	movs	r0, #0
 8001e76:	f7ff fa29 	bl	80012cc <BSP_LCD_Clear>
    t = FillRectTest(250);
 8001e7a:	20fa      	movs	r0, #250	; 0xfa
 8001e7c:	f7ff fd4d 	bl	800191a <FillRectTest>
    printf("Fill Rect Test: %d ms\r\n", (int)t);
 8001e80:	4601      	mov	r1, r0
 8001e82:	4841      	ldr	r0, [pc, #260]	; (8001f88 <mainApp+0x1a8>)
 8001e84:	f000 fa5e 	bl	8002344 <iprintf>
    Delay(1000);
 8001e88:	f44f 707a 	mov.w	r0, #1000	; 0x3e8
 8001e8c:	f7fe f982 	bl	8000194 <HAL_Delay>

    BSP_LCD_Clear(LCD_COLOR_BLACK);
 8001e90:	2000      	movs	r0, #0
 8001e92:	f7ff fa1b 	bl	80012cc <BSP_LCD_Clear>
    t = CircleTest(1000);
 8001e96:	f44f 707a 	mov.w	r0, #1000	; 0x3e8
 8001e9a:	f7ff fe0d 	bl	8001ab8 <CircleTest>
    printf("Circle Test: %d ms\r\n", (int)t);
 8001e9e:	4601      	mov	r1, r0
 8001ea0:	483a      	ldr	r0, [pc, #232]	; (8001f8c <mainApp+0x1ac>)
 8001ea2:	f000 fa4f 	bl	8002344 <iprintf>
    Delay(1000);
 8001ea6:	f44f 707a 	mov.w	r0, #1000	; 0x3e8
 8001eaa:	f7fe f973 	bl	8000194 <HAL_Delay>

    BSP_LCD_Clear(LCD_COLOR_BLACK);
 8001eae:	2000      	movs	r0, #0
 8001eb0:	f7ff fa0c 	bl	80012cc <BSP_LCD_Clear>
    t = FillCircleTest(250);
 8001eb4:	20fa      	movs	r0, #250	; 0xfa
 8001eb6:	f7ff fe57 	bl	8001b68 <FillCircleTest>
    printf("Fill Circle Test: %d ms\r\n", (int)t);
 8001eba:	4601      	mov	r1, r0
 8001ebc:	4834      	ldr	r0, [pc, #208]	; (8001f90 <mainApp+0x1b0>)
 8001ebe:	f000 fa41 	bl	8002344 <iprintf>
    Delay(1000);
 8001ec2:	f44f 707a 	mov.w	r0, #1000	; 0x3e8
 8001ec6:	f7fe f965 	bl	8000194 <HAL_Delay>
    LcdReadPixelTest();
 8001eca:	f7ff ff31 	bl	8001d30 <LcdReadPixelTest>
    Delay(1000);
 8001ece:	f44f 707a 	mov.w	r0, #1000	; 0x3e8
 8001ed2:	f7fe f95f 	bl	8000194 <HAL_Delay>
    LcdReadImageTest();
 8001ed6:	f7ff ff5f 	bl	8001d98 <LcdReadImageTest>
    Delay(1000);
 8001eda:	f44f 707a 	mov.w	r0, #1000	; 0x3e8
 8001ede:	f7fe f959 	bl	8000194 <HAL_Delay>

    BSP_LCD_Clear(LCD_COLOR_BLACK);
 8001ee2:	2000      	movs	r0, #0
 8001ee4:	f7ff f9f2 	bl	80012cc <BSP_LCD_Clear>
    t = CharTest(5000);
 8001ee8:	f241 3088 	movw	r0, #5000	; 0x1388
 8001eec:	f7ff fd68 	bl	80019c0 <CharTest>
    printf("Char Test: %d ms\r\n", (int)t);
 8001ef0:	4601      	mov	r1, r0
 8001ef2:	4828      	ldr	r0, [pc, #160]	; (8001f94 <mainApp+0x1b4>)
 8001ef4:	f000 fa26 	bl	8002344 <iprintf>
    Delay(1000);
 8001ef8:	f44f 707a 	mov.w	r0, #1000	; 0x3e8
 8001efc:	f7fe f94a 	bl	8000194 <HAL_Delay>

    BSP_LCD_Clear(LCD_COLOR_BLACK);
 8001f00:	2000      	movs	r0, #0
 8001f02:	f7ff f9e3 	bl	80012cc <BSP_LCD_Clear>
    t = BitmapTest(100);
 8001f06:	2064      	movs	r0, #100	; 0x64
 8001f08:	f7ff fede 	bl	8001cc8 <BitmapTest>
    printf("Bitmap Test: %d ms\r\n", (int)t);
 8001f0c:	4601      	mov	r1, r0
 8001f0e:	4822      	ldr	r0, [pc, #136]	; (8001f98 <mainApp+0x1b8>)
 8001f10:	f000 fa18 	bl	8002344 <iprintf>
    Delay(1000);
 8001f14:	f44f 707a 	mov.w	r0, #1000	; 0x3e8
 8001f18:	f7fe f93c 	bl	8000194 <HAL_Delay>
    LcdReadPixelTest();
 8001f1c:	f7ff ff08 	bl	8001d30 <LcdReadPixelTest>
    Delay(1000);
 8001f20:	f44f 707a 	mov.w	r0, #1000	; 0x3e8
 8001f24:	f7fe f936 	bl	8000194 <HAL_Delay>
    LcdReadImageTest();
 8001f28:	f7ff ff36 	bl	8001d98 <LcdReadImageTest>
    Delay(1000);
 8001f2c:	f44f 707a 	mov.w	r0, #1000	; 0x3e8
 8001f30:	f7fe f930 	bl	8000194 <HAL_Delay>

    BSP_LCD_Clear(LCD_COLOR_BLACK);
 8001f34:	2000      	movs	r0, #0
 8001f36:	f7ff f9c9 	bl	80012cc <BSP_LCD_Clear>
    t = ColorTest();
 8001f3a:	f7ff fe6d 	bl	8001c18 <ColorTest>
    printf("Color Test: %d ms\r\n", (int)t);
 8001f3e:	4601      	mov	r1, r0
 8001f40:	4816      	ldr	r0, [pc, #88]	; (8001f9c <mainApp+0x1bc>)
 8001f42:	f000 f9ff 	bl	8002344 <iprintf>
    Delay(3000);
 8001f46:	f640 30b8 	movw	r0, #3000	; 0xbb8
 8001f4a:	f7fe f923 	bl	8000194 <HAL_Delay>

    BSP_LCD_DisplayOff();
 8001f4e:	f7ff fc2f 	bl	80017b0 <BSP_LCD_DisplayOff>
    Delay(1000);
 8001f52:	f44f 707a 	mov.w	r0, #1000	; 0x3e8
 8001f56:	f7fe f91d 	bl	8000194 <HAL_Delay>
    BSP_LCD_DisplayOn();
 8001f5a:	f7ff fc23 	bl	80017a4 <BSP_LCD_DisplayOn>
    Delay(1000);
 8001f5e:	f44f 707a 	mov.w	r0, #1000	; 0x3e8
 8001f62:	f7fe f917 	bl	8000194 <HAL_Delay>

    printf("\r\n");
 8001f66:	480e      	ldr	r0, [pc, #56]	; (8001fa0 <mainApp+0x1c0>)
 8001f68:	f000 fa60 	bl	800242c <puts>
 8001f6c:	e750      	b.n	8001e10 <mainApp+0x30>
 8001f6e:	bf00      	nop
 8001f70:	08006fd7 	.word	0x08006fd7
 8001f74:	20000070 	.word	0x20000070
 8001f78:	08006fe9 	.word	0x08006fe9
 8001f7c:	000186a0 	.word	0x000186a0
 8001f80:	08006ffd 	.word	0x08006ffd
 8001f84:	08007011 	.word	0x08007011
 8001f88:	08007024 	.word	0x08007024
 8001f8c:	08007041 	.word	0x08007041
 8001f90:	0800703c 	.word	0x0800703c
 8001f94:	08007056 	.word	0x08007056
 8001f98:	08007069 	.word	0x08007069
 8001f9c:	0800707e 	.word	0x0800707e
 8001fa0:	08007092 	.word	0x08007092

08001fa4 <SystemClock_Config>:
  RCC_ClkInitTypeDef RCC_ClkInitStruct;

    /**Initializes the CPU, AHB and APB busses clocks 
    */
  RCC_OscInitStruct.OscillatorType = RCC_OSCILLATORTYPE_HSE;
  RCC_OscInitStruct.HSEState = RCC_HSE_ON;
 8001fa4:	f44f 3380 	mov.w	r3, #65536	; 0x10000
{
 8001fa8:	b530      	push	{r4, r5, lr}
 8001faa:	b091      	sub	sp, #68	; 0x44
  RCC_OscInitStruct.OscillatorType = RCC_OSCILLATORTYPE_HSE;
 8001fac:	2201      	movs	r2, #1
  RCC_OscInitStruct.HSEPredivValue = RCC_HSE_PREDIV_DIV1;
 8001fae:	2400      	movs	r4, #0
  RCC_OscInitStruct.HSIState = RCC_HSI_ON;
  RCC_OscInitStruct.PLL.PLLState = RCC_PLL_ON;
 8001fb0:	2502      	movs	r5, #2
  RCC_OscInitStruct.HSEState = RCC_HSE_ON;
 8001fb2:	9307      	str	r3, [sp, #28]
  RCC_OscInitStruct.PLL.PLLSource = RCC_PLLSOURCE_HSE;
 8001fb4:	930e      	str	r3, [sp, #56]	; 0x38
  RCC_OscInitStruct.PLL.PLLMUL = RCC_PLL_MUL9;
 8001fb6:	f44f 13e0 	mov.w	r3, #1835008	; 0x1c0000
  if (HAL_RCC_OscConfig(&RCC_OscInitStruct) != HAL_OK)
 8001fba:	a806      	add	r0, sp, #24
  RCC_OscInitStruct.OscillatorType = RCC_OSCILLATORTYPE_HSE;
 8001fbc:	9206      	str	r2, [sp, #24]
  RCC_OscInitStruct.HSIState = RCC_HSI_ON;
 8001fbe:	920a      	str	r2, [sp, #40]	; 0x28
  RCC_OscInitStruct.PLL.PLLMUL = RCC_PLL_MUL9;
 8001fc0:	930f      	str	r3, [sp, #60]	; 0x3c
  RCC_OscInitStruct.HSEPredivValue = RCC_HSE_PREDIV_DIV1;
 8001fc2:	9408      	str	r4, [sp, #32]
  RCC_OscInitStruct.PLL.PLLState = RCC_PLL_ON;
 8001fc4:	950d      	str	r5, [sp, #52]	; 0x34
  if (HAL_RCC_OscConfig(&RCC_OscInitStruct) != HAL_OK)
 8001fc6:	f7fe f971 	bl	80002ac <HAL_RCC_OscConfig>
    _Error_Handler(__FILE__, __LINE__);
  }

    /**Initializes the CPU, AHB and APB busses clocks 
    */
  RCC_ClkInitStruct.ClockType = RCC_CLOCKTYPE_HCLK|RCC_CLOCKTYPE_SYSCLK
 8001fca:	230f      	movs	r3, #15
 8001fcc:	9301      	str	r3, [sp, #4]
                              |RCC_CLOCKTYPE_PCLK1|RCC_CLOCKTYPE_PCLK2;
  RCC_ClkInitStruct.SYSCLKSource = RCC_SYSCLKSOURCE_PLLCLK;
  RCC_ClkInitStruct.AHBCLKDivider = RCC_SYSCLK_DIV1;
  RCC_ClkInitStruct.APB1CLKDivider = RCC_HCLK_DIV2;
 8001fce:	f44f 6380 	mov.w	r3, #1024	; 0x400
  RCC_ClkInitStruct.APB2CLKDivider = RCC_HCLK_DIV1;

  if (HAL_RCC_ClockConfig(&RCC_ClkInitStruct, FLASH_LATENCY_2) != HAL_OK)
 8001fd2:	4629      	mov	r1, r5
 8001fd4:	a801      	add	r0, sp, #4
  RCC_ClkInitStruct.APB1CLKDivider = RCC_HCLK_DIV2;
 8001fd6:	9304      	str	r3, [sp, #16]
  RCC_ClkInitStruct.SYSCLKSource = RCC_SYSCLKSOURCE_PLLCLK;
 8001fd8:	9502      	str	r5, [sp, #8]
  RCC_ClkInitStruct.AHBCLKDivider = RCC_SYSCLK_DIV1;
 8001fda:	9403      	str	r4, [sp, #12]
  RCC_ClkInitStruct.APB2CLKDivider = RCC_HCLK_DIV1;
 8001fdc:	9405      	str	r4, [sp, #20]
  if (HAL_RCC_ClockConfig(&RCC_ClkInitStruct, FLASH_LATENCY_2) != HAL_OK)
 8001fde:	f7fe fb2d 	bl	800063c <HAL_RCC_ClockConfig>
    _Error_Handler(__FILE__, __LINE__);
  }

    /**Configure the Systick interrupt time 
    */
  HAL_SYSTICK_Config(HAL_RCC_GetHCLKFreq()/1000);
 8001fe2:	f7fe fbcf 	bl	8000784 <HAL_RCC_GetHCLKFreq>
 8001fe6:	f44f 737a 	mov.w	r3, #1000	; 0x3e8
 8001fea:	fbb0 f0f3 	udiv	r0, r0, r3
 8001fee:	f7fe f935 	bl	800025c <HAL_SYSTICK_Config>

    /**Configure the Systick 
    */
  HAL_SYSTICK_CLKSourceConfig(SYSTICK_CLKSOURCE_HCLK);
 8001ff2:	2004      	movs	r0, #4
 8001ff4:	f7fe f948 	bl	8000288 <HAL_SYSTICK_CLKSourceConfig>

  /* SysTick_IRQn interrupt configuration */
  HAL_NVIC_SetPriority(SysTick_IRQn, 0, 0);
 8001ff8:	4622      	mov	r2, r4
 8001ffa:	4621      	mov	r1, r4
 8001ffc:	f04f 30ff 	mov.w	r0, #4294967295
 8002000:	f7fe f8ec 	bl	80001dc <HAL_NVIC_SetPriority>
}
 8002004:	b011      	add	sp, #68	; 0x44
 8002006:	bd30      	pop	{r4, r5, pc}

08002008 <main>:
{
 8002008:	b51f      	push	{r0, r1, r2, r3, r4, lr}
  HAL_Init();
 800200a:	f7fe f89f 	bl	800014c <HAL_Init>
  SystemClock_Config();
 800200e:	f7ff ffc9 	bl	8001fa4 <SystemClock_Config>
*/
static void MX_GPIO_Init(void)
{

  /* GPIO Ports Clock Enable */
  __HAL_RCC_GPIOC_CLK_ENABLE();
 8002012:	4b14      	ldr	r3, [pc, #80]	; (8002064 <main+0x5c>)
 8002014:	699a      	ldr	r2, [r3, #24]
 8002016:	f042 0210 	orr.w	r2, r2, #16
 800201a:	619a      	str	r2, [r3, #24]
 800201c:	699a      	ldr	r2, [r3, #24]
 800201e:	f002 0210 	and.w	r2, r2, #16
 8002022:	9200      	str	r2, [sp, #0]
 8002024:	9a00      	ldr	r2, [sp, #0]
  __HAL_RCC_GPIOD_CLK_ENABLE();
 8002026:	699a      	ldr	r2, [r3, #24]
 8002028:	f042 0220 	orr.w	r2, r2, #32
 800202c:	619a      	str	r2, [r3, #24]
 800202e:	699a      	ldr	r2, [r3, #24]
 8002030:	f002 0220 	and.w	r2, r2, #32
 8002034:	9201      	str	r2, [sp, #4]
 8002036:	9a01      	ldr	r2, [sp, #4]
  __HAL_RCC_GPIOA_CLK_ENABLE();
 8002038:	699a      	ldr	r2, [r3, #24]
 800203a:	f042 0204 	orr.w	r2, r2, #4
 800203e:	619a      	str	r2, [r3, #24]
 8002040:	699a      	ldr	r2, [r3, #24]
 8002042:	f002 0204 	and.w	r2, r2, #4
 8002046:	9202      	str	r2, [sp, #8]
 8002048:	9a02      	ldr	r2, [sp, #8]
  __HAL_RCC_GPIOB_CLK_ENABLE();
 800204a:	699a      	ldr	r2, [r3, #24]
 800204c:	f042 0208 	orr.w	r2, r2, #8
 8002050:	619a      	str	r2, [r3, #24]
 8002052:	699b      	ldr	r3, [r3, #24]
 8002054:	f003 0308 	and.w	r3, r3, #8
 8002058:	9303      	str	r3, [sp, #12]
 800205a:	9b03      	ldr	r3, [sp, #12]
  mainApp();
 800205c:	f7ff fec0 	bl	8001de0 <mainApp>
 8002060:	e7fe      	b.n	8002060 <main+0x58>
 8002062:	bf00      	nop
 8002064:	40021000 	.word	0x40021000

08002068 <HAL_TIM_PeriodElapsedCallback>:
void HAL_TIM_PeriodElapsedCallback(TIM_HandleTypeDef *htim)
{
  /* USER CODE BEGIN Callback 0 */

  /* USER CODE END Callback 0 */
  if (htim->Instance == TIM4) {
 8002068:	6802      	ldr	r2, [r0, #0]
 800206a:	4b03      	ldr	r3, [pc, #12]	; (8002078 <HAL_TIM_PeriodElapsedCallback+0x10>)
 800206c:	429a      	cmp	r2, r3
 800206e:	d101      	bne.n	8002074 <HAL_TIM_PeriodElapsedCallback+0xc>
    HAL_IncTick();
 8002070:	f7fe b87e 	b.w	8000170 <HAL_IncTick>
 8002074:	4770      	bx	lr
 8002076:	bf00      	nop
 8002078:	40000800 	.word	0x40000800

0800207c <HAL_MspInit>:
{
  /* USER CODE BEGIN MspInit 0 */

  /* USER CODE END MspInit 0 */

  __HAL_RCC_AFIO_CLK_ENABLE();
 800207c:	4b25      	ldr	r3, [pc, #148]	; (8002114 <HAL_MspInit+0x98>)
{
 800207e:	b507      	push	{r0, r1, r2, lr}
  __HAL_RCC_AFIO_CLK_ENABLE();
 8002080:	699a      	ldr	r2, [r3, #24]
  __HAL_RCC_PWR_CLK_ENABLE();

  HAL_NVIC_SetPriorityGrouping(NVIC_PRIORITYGROUP_4);
 8002082:	2003      	movs	r0, #3
  __HAL_RCC_AFIO_CLK_ENABLE();
 8002084:	f042 0201 	orr.w	r2, r2, #1
 8002088:	619a      	str	r2, [r3, #24]
 800208a:	699a      	ldr	r2, [r3, #24]
 800208c:	f002 0201 	and.w	r2, r2, #1
 8002090:	9200      	str	r2, [sp, #0]
 8002092:	9a00      	ldr	r2, [sp, #0]
  __HAL_RCC_PWR_CLK_ENABLE();
 8002094:	69da      	ldr	r2, [r3, #28]
 8002096:	f042 5280 	orr.w	r2, r2, #268435456	; 0x10000000
 800209a:	61da      	str	r2, [r3, #28]
 800209c:	69db      	ldr	r3, [r3, #28]
 800209e:	f003 5380 	and.w	r3, r3, #268435456	; 0x10000000
 80020a2:	9301      	str	r3, [sp, #4]
 80020a4:	9b01      	ldr	r3, [sp, #4]
  HAL_NVIC_SetPriorityGrouping(NVIC_PRIORITYGROUP_4);
 80020a6:	f7fe f887 	bl	80001b8 <HAL_NVIC_SetPriorityGrouping>

  /* System interrupt init*/
  /* MemoryManagement_IRQn interrupt configuration */
  HAL_NVIC_SetPriority(MemoryManagement_IRQn, 0, 0);
 80020aa:	2200      	movs	r2, #0
 80020ac:	f06f 000b 	mvn.w	r0, #11
 80020b0:	4611      	mov	r1, r2
 80020b2:	f7fe f893 	bl	80001dc <HAL_NVIC_SetPriority>
  /* BusFault_IRQn interrupt configuration */
  HAL_NVIC_SetPriority(BusFault_IRQn, 0, 0);
 80020b6:	2200      	movs	r2, #0
 80020b8:	f06f 000a 	mvn.w	r0, #10
 80020bc:	4611      	mov	r1, r2
 80020be:	f7fe f88d 	bl	80001dc <HAL_NVIC_SetPriority>
  /* UsageFault_IRQn interrupt configuration */
  HAL_NVIC_SetPriority(UsageFault_IRQn, 0, 0);
 80020c2:	2200      	movs	r2, #0
 80020c4:	f06f 0009 	mvn.w	r0, #9
 80020c8:	4611      	mov	r1, r2
 80020ca:	f7fe f887 	bl	80001dc <HAL_NVIC_SetPriority>
  /* SVCall_IRQn interrupt configuration */
  HAL_NVIC_SetPriority(SVCall_IRQn, 0, 0);
 80020ce:	2200      	movs	r2, #0
 80020d0:	f06f 0004 	mvn.w	r0, #4
 80020d4:	4611      	mov	r1, r2
 80020d6:	f7fe f881 	bl	80001dc <HAL_NVIC_SetPriority>
  /* DebugMonitor_IRQn interrupt configuration */
  HAL_NVIC_SetPriority(DebugMonitor_IRQn, 0, 0);
 80020da:	2200      	movs	r2, #0
 80020dc:	f06f 0003 	mvn.w	r0, #3
 80020e0:	4611      	mov	r1, r2
 80020e2:	f7fe f87b 	bl	80001dc <HAL_NVIC_SetPriority>
  /* PendSV_IRQn interrupt configuration */
  HAL_NVIC_SetPriority(PendSV_IRQn, 0, 0);
 80020e6:	2200      	movs	r2, #0
 80020e8:	f06f 0001 	mvn.w	r0, #1
 80020ec:	4611      	mov	r1, r2
 80020ee:	f7fe f875 	bl	80001dc <HAL_NVIC_SetPriority>
  /* SysTick_IRQn interrupt configuration */
  HAL_NVIC_SetPriority(SysTick_IRQn, 0, 0);
 80020f2:	2200      	movs	r2, #0
 80020f4:	f04f 30ff 	mov.w	r0, #4294967295
 80020f8:	4611      	mov	r1, r2
 80020fa:	f7fe f86f 	bl	80001dc <HAL_NVIC_SetPriority>

    /**NOJTAG: JTAG-DP Disabled and SW-DP Enabled 
    */
  __HAL_AFIO_REMAP_SWJ_NOJTAG();
 80020fe:	4a06      	ldr	r2, [pc, #24]	; (8002118 <HAL_MspInit+0x9c>)
 8002100:	6853      	ldr	r3, [r2, #4]
 8002102:	f023 63e0 	bic.w	r3, r3, #117440512	; 0x7000000
 8002106:	f043 7300 	orr.w	r3, r3, #33554432	; 0x2000000
 800210a:	6053      	str	r3, [r2, #4]

  /* USER CODE BEGIN MspInit 1 */

  /* USER CODE END MspInit 1 */
}
 800210c:	b003      	add	sp, #12
 800210e:	f85d fb04 	ldr.w	pc, [sp], #4
 8002112:	bf00      	nop
 8002114:	40021000 	.word	0x40021000
 8002118:	40010000 	.word	0x40010000

0800211c <HAL_InitTick>:
  *         reset by HAL_Init() or at any time when clock is configured, by HAL_RCC_ClockConfig(). 
  * @param  TickPriority: Tick interrupt priorty.
  * @retval HAL status
  */
HAL_StatusTypeDef HAL_InitTick(uint32_t TickPriority)
{
 800211c:	b510      	push	{r4, lr}
  uint32_t              uwTimclock = 0;
  uint32_t              uwPrescalerValue = 0;
  uint32_t              pFLatency;
  
  /*Configure the TIM4 IRQ priority */
  HAL_NVIC_SetPriority(TIM4_IRQn, TickPriority ,0); 
 800211e:	4601      	mov	r1, r0
{
 8002120:	b088      	sub	sp, #32
  HAL_NVIC_SetPriority(TIM4_IRQn, TickPriority ,0); 
 8002122:	2200      	movs	r2, #0
 8002124:	201e      	movs	r0, #30
 8002126:	f7fe f859 	bl	80001dc <HAL_NVIC_SetPriority>
  
  /* Enable the TIM4 global Interrupt */
  HAL_NVIC_EnableIRQ(TIM4_IRQn); 
 800212a:	201e      	movs	r0, #30
 800212c:	f7fe f88a 	bl	8000244 <HAL_NVIC_EnableIRQ>
  
  /* Enable TIM4 clock */
  __HAL_RCC_TIM4_CLK_ENABLE();
 8002130:	4b14      	ldr	r3, [pc, #80]	; (8002184 <HAL_InitTick+0x68>)
  
  /* Get clock configuration */
  HAL_RCC_GetClockConfig(&clkconfig, &pFLatency);
 8002132:	a901      	add	r1, sp, #4
  __HAL_RCC_TIM4_CLK_ENABLE();
 8002134:	69da      	ldr	r2, [r3, #28]
  HAL_RCC_GetClockConfig(&clkconfig, &pFLatency);
 8002136:	a803      	add	r0, sp, #12
  __HAL_RCC_TIM4_CLK_ENABLE();
 8002138:	f042 0204 	orr.w	r2, r2, #4
 800213c:	61da      	str	r2, [r3, #28]
 800213e:	69db      	ldr	r3, [r3, #28]
   
  /* Compute the prescaler value to have TIM4 counter clock equal to 1MHz */
  uwPrescalerValue = (uint32_t) ((uwTimclock / 1000000) - 1);
  
  /* Initialize TIM4 */
  htim4.Instance = TIM4;
 8002140:	4c11      	ldr	r4, [pc, #68]	; (8002188 <HAL_InitTick+0x6c>)
  __HAL_RCC_TIM4_CLK_ENABLE();
 8002142:	f003 0304 	and.w	r3, r3, #4
 8002146:	9302      	str	r3, [sp, #8]
 8002148:	9b02      	ldr	r3, [sp, #8]
  HAL_RCC_GetClockConfig(&clkconfig, &pFLatency);
 800214a:	f7fe fb31 	bl	80007b0 <HAL_RCC_GetClockConfig>
  uwTimclock = 2*HAL_RCC_GetPCLK1Freq();
 800214e:	f7fe fb1f 	bl	8000790 <HAL_RCC_GetPCLK1Freq>
  htim4.Instance = TIM4;
 8002152:	4b0e      	ldr	r3, [pc, #56]	; (800218c <HAL_InitTick+0x70>)
  uwTimclock = 2*HAL_RCC_GetPCLK1Freq();
 8002154:	0040      	lsls	r0, r0, #1
  htim4.Instance = TIM4;
 8002156:	6023      	str	r3, [r4, #0]
  + Period = [(TIM4CLK/1000) - 1]. to have a (1/1000) s time base.
  + Prescaler = (uwTimclock/1000000 - 1) to have a 1MHz counter clock.
  + ClockDivision = 0
  + Counter direction = Up
  */
  htim4.Init.Period = (1000000 / 1000) - 1;
 8002158:	f240 33e7 	movw	r3, #999	; 0x3e7
 800215c:	60e3      	str	r3, [r4, #12]
  uwPrescalerValue = (uint32_t) ((uwTimclock / 1000000) - 1);
 800215e:	4b0c      	ldr	r3, [pc, #48]	; (8002190 <HAL_InitTick+0x74>)
 8002160:	fbb0 f0f3 	udiv	r0, r0, r3
  htim4.Init.Prescaler = uwPrescalerValue;
  htim4.Init.ClockDivision = 0;
 8002164:	2300      	movs	r3, #0
  uwPrescalerValue = (uint32_t) ((uwTimclock / 1000000) - 1);
 8002166:	3801      	subs	r0, #1
  htim4.Init.Prescaler = uwPrescalerValue;
 8002168:	6060      	str	r0, [r4, #4]
  htim4.Init.CounterMode = TIM_COUNTERMODE_UP;
  if(HAL_TIM_Base_Init(&htim4) == HAL_OK)
 800216a:	4620      	mov	r0, r4
  htim4.Init.ClockDivision = 0;
 800216c:	6123      	str	r3, [r4, #16]
  htim4.Init.CounterMode = TIM_COUNTERMODE_UP;
 800216e:	60a3      	str	r3, [r4, #8]
  if(HAL_TIM_Base_Init(&htim4) == HAL_OK)
 8002170:	f7fe fc26 	bl	80009c0 <HAL_TIM_Base_Init>
 8002174:	b920      	cbnz	r0, 8002180 <HAL_InitTick+0x64>
  {
    /* Start the TIM time Base generation in interrupt mode */
    return HAL_TIM_Base_Start_IT(&htim4);
 8002176:	4620      	mov	r0, r4
 8002178:	f7fe fb39 	bl	80007ee <HAL_TIM_Base_Start_IT>
  }
  
  /* Return function status */
  return HAL_ERROR;
}
 800217c:	b008      	add	sp, #32
 800217e:	bd10      	pop	{r4, pc}
  return HAL_ERROR;
 8002180:	2001      	movs	r0, #1
 8002182:	e7fb      	b.n	800217c <HAL_InitTick+0x60>
 8002184:	40021000 	.word	0x40021000
 8002188:	20000678 	.word	0x20000678
 800218c:	40000800 	.word	0x40000800
 8002190:	000f4240 	.word	0x000f4240

08002194 <NMI_Handler>:
 8002194:	4770      	bx	lr

08002196 <HardFault_Handler>:

/**
* @brief This function handles Hard fault interrupt.
*/
void HardFault_Handler(void)
{
 8002196:	e7fe      	b.n	8002196 <HardFault_Handler>

08002198 <MemManage_Handler>:

/**
* @brief This function handles Memory management fault.
*/
void MemManage_Handler(void)
{
 8002198:	e7fe      	b.n	8002198 <MemManage_Handler>

0800219a <BusFault_Handler>:

/**
* @brief This function handles Prefetch fault, memory access fault.
*/
void BusFault_Handler(void)
{
 800219a:	e7fe      	b.n	800219a <BusFault_Handler>

0800219c <UsageFault_Handler>:

/**
* @brief This function handles Undefined instruction or illegal state.
*/
void UsageFault_Handler(void)
{
 800219c:	e7fe      	b.n	800219c <UsageFault_Handler>

0800219e <SVC_Handler>:
 800219e:	4770      	bx	lr

080021a0 <DebugMon_Handler>:
 80021a0:	4770      	bx	lr

080021a2 <PendSV_Handler>:

/**
* @brief This function handles Pendable request for system service.
*/
void PendSV_Handler(void)
{
 80021a2:	4770      	bx	lr

080021a4 <SysTick_Handler>:
void SysTick_Handler(void)
{
  /* USER CODE BEGIN SysTick_IRQn 0 */

  /* USER CODE END SysTick_IRQn 0 */
  HAL_SYSTICK_IRQHandler();
 80021a4:	f7fe b87d 	b.w	80002a2 <HAL_SYSTICK_IRQHandler>

080021a8 <TIM4_IRQHandler>:
void TIM4_IRQHandler(void)
{
  /* USER CODE BEGIN TIM4_IRQn 0 */

  /* USER CODE END TIM4_IRQn 0 */
  HAL_TIM_IRQHandler(&htim4);
 80021a8:	4801      	ldr	r0, [pc, #4]	; (80021b0 <TIM4_IRQHandler+0x8>)
 80021aa:	f7fe bb2f 	b.w	800080c <HAL_TIM_IRQHandler>
 80021ae:	bf00      	nop
 80021b0:	20000678 	.word	0x20000678

080021b4 <_write>:
{
	while (1) {}		/* Make sure we hang here */
}

int _write(int32_t file, uint8_t *ptr, int32_t len)
{
 80021b4:	b510      	push	{r4, lr}
	/* Implement your write code here, this is used by puts and printf for example */
	/* return len; */
	int i;
	for(i = 0; i < len; i++)
 80021b6:	2300      	movs	r3, #0
  \param [in]     ch  Character to transmit.
  \returns            Character to transmit.
 */
__STATIC_INLINE uint32_t ITM_SendChar (uint32_t ch)
{
  if (((ITM->TCR & ITM_TCR_ITMENA_Msk) != 0UL) &&      /* ITM enabled */
 80021b8:	f04f 4460 	mov.w	r4, #3758096384	; 0xe0000000
 80021bc:	4293      	cmp	r3, r2
 80021be:	db01      	blt.n	80021c4 <_write+0x10>
		ITM_SendChar(*ptr++);
	return len;
}
 80021c0:	4610      	mov	r0, r2
 80021c2:	bd10      	pop	{r4, pc}
 80021c4:	f8d4 0e80 	ldr.w	r0, [r4, #3712]	; 0xe80
 80021c8:	07c0      	lsls	r0, r0, #31
 80021ca:	d503      	bpl.n	80021d4 <_write+0x20>
      ((ITM->TER & 1UL               ) != 0UL)   )     /* ITM Port #0 enabled */
 80021cc:	f8d4 0e00 	ldr.w	r0, [r4, #3584]	; 0xe00
  if (((ITM->TCR & ITM_TCR_ITMENA_Msk) != 0UL) &&      /* ITM enabled */
 80021d0:	07c0      	lsls	r0, r0, #31
 80021d2:	d402      	bmi.n	80021da <_write+0x26>
	for(i = 0; i < len; i++)
 80021d4:	3301      	adds	r3, #1
 80021d6:	e7f1      	b.n	80021bc <_write+0x8>
 80021d8:	bf00      	nop
  {
    while (ITM->PORT[0U].u32 == 0UL)
 80021da:	6820      	ldr	r0, [r4, #0]
 80021dc:	2800      	cmp	r0, #0
 80021de:	d0fb      	beq.n	80021d8 <_write+0x24>
		ITM_SendChar(*ptr++);
 80021e0:	5cc8      	ldrb	r0, [r1, r3]
    {
      __NOP();
    }
    ITM->PORT[0U].u8 = (uint8_t)ch;
 80021e2:	7020      	strb	r0, [r4, #0]
 80021e4:	e7f6      	b.n	80021d4 <_write+0x20>
	...

080021e8 <_sbrk>:
{
	extern char   end; /* Set by linker.  */
	static char * heap_end;
	char *        prev_heap_end;

	if (heap_end == 0) {
 80021e8:	4b04      	ldr	r3, [pc, #16]	; (80021fc <_sbrk+0x14>)
{
 80021ea:	4602      	mov	r2, r0
	if (heap_end == 0) {
 80021ec:	6819      	ldr	r1, [r3, #0]
 80021ee:	b909      	cbnz	r1, 80021f4 <_sbrk+0xc>
		heap_end = & end;
 80021f0:	4903      	ldr	r1, [pc, #12]	; (8002200 <_sbrk+0x18>)
 80021f2:	6019      	str	r1, [r3, #0]
	}

	prev_heap_end = heap_end;
 80021f4:	6818      	ldr	r0, [r3, #0]
	heap_end += incr;
 80021f6:	4402      	add	r2, r0
 80021f8:	601a      	str	r2, [r3, #0]

	return (void *) prev_heap_end;
}
 80021fa:	4770      	bx	lr
 80021fc:	2000045c 	.word	0x2000045c
 8002200:	200006bc 	.word	0x200006bc

08002204 <_close>:

int _close(int32_t file)
{
	errno = ENOSYS;
 8002204:	2258      	movs	r2, #88	; 0x58
 8002206:	4b02      	ldr	r3, [pc, #8]	; (8002210 <_close+0xc>)
	return -1;
}
 8002208:	f04f 30ff 	mov.w	r0, #4294967295
	errno = ENOSYS;
 800220c:	601a      	str	r2, [r3, #0]
}
 800220e:	4770      	bx	lr
 8002210:	200006b8 	.word	0x200006b8

08002214 <_fstat>:


int _fstat(int32_t file, struct stat *st)
{
	errno = ENOSYS;
 8002214:	2258      	movs	r2, #88	; 0x58
 8002216:	4b02      	ldr	r3, [pc, #8]	; (8002220 <_fstat+0xc>)
	return -1;
}
 8002218:	f04f 30ff 	mov.w	r0, #4294967295
	errno = ENOSYS;
 800221c:	601a      	str	r2, [r3, #0]
}
 800221e:	4770      	bx	lr
 8002220:	200006b8 	.word	0x200006b8

08002224 <_isatty>:

int _isatty(int32_t file)
{
	errno = ENOSYS;
 8002224:	2258      	movs	r2, #88	; 0x58
 8002226:	4b02      	ldr	r3, [pc, #8]	; (8002230 <_isatty+0xc>)
	return 0;
}
 8002228:	2000      	movs	r0, #0
	errno = ENOSYS;
 800222a:	601a      	str	r2, [r3, #0]
}
 800222c:	4770      	bx	lr
 800222e:	bf00      	nop
 8002230:	200006b8 	.word	0x200006b8

08002234 <_lseek>:

int _lseek(int32_t file, int32_t ptr, int32_t dir)
{
	errno = ENOSYS;
 8002234:	2258      	movs	r2, #88	; 0x58
 8002236:	4b02      	ldr	r3, [pc, #8]	; (8002240 <_lseek+0xc>)
	return -1;
}
 8002238:	f04f 30ff 	mov.w	r0, #4294967295
	errno = ENOSYS;
 800223c:	601a      	str	r2, [r3, #0]
}
 800223e:	4770      	bx	lr
 8002240:	200006b8 	.word	0x200006b8

08002244 <_read>:

int _read(int32_t file, uint8_t *ptr, int32_t len)
{
	errno = ENOSYS;
 8002244:	2258      	movs	r2, #88	; 0x58
 8002246:	4b02      	ldr	r3, [pc, #8]	; (8002250 <_read+0xc>)
	return -1;
}
 8002248:	f04f 30ff 	mov.w	r0, #4294967295
	errno = ENOSYS;
 800224c:	601a      	str	r2, [r3, #0]
}
 800224e:	4770      	bx	lr
 8002250:	200006b8 	.word	0x200006b8

08002254 <SystemInit>:
  */
void SystemInit (void)
{
  /* Reset the RCC clock configuration to the default reset state(for debug purpose) */
  /* Set HSION bit */
  RCC->CR |= 0x00000001U;
 8002254:	4b0f      	ldr	r3, [pc, #60]	; (8002294 <SystemInit+0x40>)
 8002256:	681a      	ldr	r2, [r3, #0]
 8002258:	f042 0201 	orr.w	r2, r2, #1
 800225c:	601a      	str	r2, [r3, #0]

  /* Reset SW, HPRE, PPRE1, PPRE2, ADCPRE and MCO bits */
#if !defined(STM32F105xC) && !defined(STM32F107xC)
  RCC->CFGR &= 0xF8FF0000U;
 800225e:	6859      	ldr	r1, [r3, #4]
 8002260:	4a0d      	ldr	r2, [pc, #52]	; (8002298 <SystemInit+0x44>)
 8002262:	400a      	ands	r2, r1
 8002264:	605a      	str	r2, [r3, #4]
#else
  RCC->CFGR &= 0xF0FF0000U;
#endif /* STM32F105xC */   
  
  /* Reset HSEON, CSSON and PLLON bits */
  RCC->CR &= 0xFEF6FFFFU;
 8002266:	681a      	ldr	r2, [r3, #0]
 8002268:	f022 7284 	bic.w	r2, r2, #17301504	; 0x1080000
 800226c:	f422 3280 	bic.w	r2, r2, #65536	; 0x10000
 8002270:	601a      	str	r2, [r3, #0]

  /* Reset HSEBYP bit */
  RCC->CR &= 0xFFFBFFFFU;
 8002272:	681a      	ldr	r2, [r3, #0]
 8002274:	f422 2280 	bic.w	r2, r2, #262144	; 0x40000
 8002278:	601a      	str	r2, [r3, #0]

  /* Reset PLLSRC, PLLXTPRE, PLLMUL and USBPRE/OTGFSPRE bits */
  RCC->CFGR &= 0xFF80FFFFU;
 800227a:	685a      	ldr	r2, [r3, #4]
 800227c:	f422 02fe 	bic.w	r2, r2, #8323072	; 0x7f0000
 8002280:	605a      	str	r2, [r3, #4]

  /* Reset CFGR2 register */
  RCC->CFGR2 = 0x00000000U;      
#else
  /* Disable all interrupts and clear pending bits  */
  RCC->CIR = 0x009F0000U;
 8002282:	f44f 021f 	mov.w	r2, #10420224	; 0x9f0000
 8002286:	609a      	str	r2, [r3, #8]
#endif 

#ifdef VECT_TAB_SRAM
  SCB->VTOR = SRAM_BASE | VECT_TAB_OFFSET; /* Vector Table Relocation in Internal SRAM. */
#else
  SCB->VTOR = FLASH_BASE | VECT_TAB_OFFSET; /* Vector Table Relocation in Internal FLASH. */
 8002288:	f04f 6200 	mov.w	r2, #134217728	; 0x8000000
 800228c:	4b03      	ldr	r3, [pc, #12]	; (800229c <SystemInit+0x48>)
 800228e:	609a      	str	r2, [r3, #8]
 8002290:	4770      	bx	lr
 8002292:	bf00      	nop
 8002294:	40021000 	.word	0x40021000
 8002298:	f8ff0000 	.word	0xf8ff0000
 800229c:	e000ed00 	.word	0xe000ed00

080022a0 <Reset_Handler>:
  .weak Reset_Handler
  .type Reset_Handler, %function
Reset_Handler:

/* Copy the data segment initializers from flash to SRAM */
  movs r1, #0
 80022a0:	2100      	movs	r1, #0
  b LoopCopyDataInit
 80022a2:	e003      	b.n	80022ac <LoopCopyDataInit>

080022a4 <CopyDataInit>:

CopyDataInit:
  ldr r3, =_sidata
 80022a4:	4b0b      	ldr	r3, [pc, #44]	; (80022d4 <LoopFillZerobss+0x14>)
  ldr r3, [r3, r1]
 80022a6:	585b      	ldr	r3, [r3, r1]
  str r3, [r0, r1]
 80022a8:	5043      	str	r3, [r0, r1]
  adds r1, r1, #4
 80022aa:	3104      	adds	r1, #4

080022ac <LoopCopyDataInit>:

LoopCopyDataInit:
  ldr r0, =_sdata
 80022ac:	480a      	ldr	r0, [pc, #40]	; (80022d8 <LoopFillZerobss+0x18>)
  ldr r3, =_edata
 80022ae:	4b0b      	ldr	r3, [pc, #44]	; (80022dc <LoopFillZerobss+0x1c>)
  adds r2, r0, r1
 80022b0:	1842      	adds	r2, r0, r1
  cmp r2, r3
 80022b2:	429a      	cmp	r2, r3
  bcc CopyDataInit
 80022b4:	d3f6      	bcc.n	80022a4 <CopyDataInit>
  ldr r2, =_sbss
 80022b6:	4a0a      	ldr	r2, [pc, #40]	; (80022e0 <LoopFillZerobss+0x20>)
  b LoopFillZerobss
 80022b8:	e002      	b.n	80022c0 <LoopFillZerobss>

080022ba <FillZerobss>:
/* Zero fill the bss segment. */
FillZerobss:
  movs r3, #0
 80022ba:	2300      	movs	r3, #0
  str r3, [r2], #4
 80022bc:	f842 3b04 	str.w	r3, [r2], #4

080022c0 <LoopFillZerobss>:

LoopFillZerobss:
  ldr r3, = _ebss
 80022c0:	4b08      	ldr	r3, [pc, #32]	; (80022e4 <LoopFillZerobss+0x24>)
  cmp r2, r3
 80022c2:	429a      	cmp	r2, r3
  bcc FillZerobss
 80022c4:	d3f9      	bcc.n	80022ba <FillZerobss>

/* Call the clock system intitialization function.*/
    bl  SystemInit
 80022c6:	f7ff ffc5 	bl	8002254 <SystemInit>
/* Call static constructors */
    bl __libc_init_array
 80022ca:	f000 f80f 	bl	80022ec <__libc_init_array>
/* Call the application's entry point.*/
  bl main
 80022ce:	f7ff fe9b 	bl	8002008 <main>
  bx lr
 80022d2:	4770      	bx	lr
  ldr r3, =_sidata
 80022d4:	0800a064 	.word	0x0800a064
  ldr r0, =_sdata
 80022d8:	20000000 	.word	0x20000000
  ldr r3, =_edata
 80022dc:	200000d4 	.word	0x200000d4
  ldr r2, =_sbss
 80022e0:	200000d4 	.word	0x200000d4
  ldr r3, = _ebss
 80022e4:	200006bc 	.word	0x200006bc

080022e8 <ADC1_2_IRQHandler>:
 * @retval : None
*/
    .section .text.Default_Handler,"ax",%progbits
Default_Handler:
Infinite_Loop:
  b Infinite_Loop
 80022e8:	e7fe      	b.n	80022e8 <ADC1_2_IRQHandler>
	...

080022ec <__libc_init_array>:
 80022ec:	b570      	push	{r4, r5, r6, lr}
 80022ee:	2500      	movs	r5, #0
 80022f0:	4e0c      	ldr	r6, [pc, #48]	; (8002324 <__libc_init_array+0x38>)
 80022f2:	4c0d      	ldr	r4, [pc, #52]	; (8002328 <__libc_init_array+0x3c>)
 80022f4:	1ba4      	subs	r4, r4, r6
 80022f6:	10a4      	asrs	r4, r4, #2
 80022f8:	42a5      	cmp	r5, r4
 80022fa:	d109      	bne.n	8002310 <__libc_init_array+0x24>
 80022fc:	f000 ffcc 	bl	8003298 <_init>
 8002300:	2500      	movs	r5, #0
 8002302:	4e0a      	ldr	r6, [pc, #40]	; (800232c <__libc_init_array+0x40>)
 8002304:	4c0a      	ldr	r4, [pc, #40]	; (8002330 <__libc_init_array+0x44>)
 8002306:	1ba4      	subs	r4, r4, r6
 8002308:	10a4      	asrs	r4, r4, #2
 800230a:	42a5      	cmp	r5, r4
 800230c:	d105      	bne.n	800231a <__libc_init_array+0x2e>
 800230e:	bd70      	pop	{r4, r5, r6, pc}
 8002310:	f856 3025 	ldr.w	r3, [r6, r5, lsl #2]
 8002314:	4798      	blx	r3
 8002316:	3501      	adds	r5, #1
 8002318:	e7ee      	b.n	80022f8 <__libc_init_array+0xc>
 800231a:	f856 3025 	ldr.w	r3, [r6, r5, lsl #2]
 800231e:	4798      	blx	r3
 8002320:	3501      	adds	r5, #1
 8002322:	e7f2      	b.n	800230a <__libc_init_array+0x1e>
 8002324:	0800a05c 	.word	0x0800a05c
 8002328:	0800a05c 	.word	0x0800a05c
 800232c:	0800a05c 	.word	0x0800a05c
 8002330:	0800a060 	.word	0x0800a060

08002334 <memset>:
 8002334:	4603      	mov	r3, r0
 8002336:	4402      	add	r2, r0
 8002338:	4293      	cmp	r3, r2
 800233a:	d100      	bne.n	800233e <memset+0xa>
 800233c:	4770      	bx	lr
 800233e:	f803 1b01 	strb.w	r1, [r3], #1
 8002342:	e7f9      	b.n	8002338 <memset+0x4>

08002344 <iprintf>:
 8002344:	b40f      	push	{r0, r1, r2, r3}
 8002346:	4b0a      	ldr	r3, [pc, #40]	; (8002370 <iprintf+0x2c>)
 8002348:	b513      	push	{r0, r1, r4, lr}
 800234a:	681c      	ldr	r4, [r3, #0]
 800234c:	b124      	cbz	r4, 8002358 <iprintf+0x14>
 800234e:	69a3      	ldr	r3, [r4, #24]
 8002350:	b913      	cbnz	r3, 8002358 <iprintf+0x14>
 8002352:	4620      	mov	r0, r4
 8002354:	f000 fa5e 	bl	8002814 <__sinit>
 8002358:	ab05      	add	r3, sp, #20
 800235a:	9a04      	ldr	r2, [sp, #16]
 800235c:	68a1      	ldr	r1, [r4, #8]
 800235e:	4620      	mov	r0, r4
 8002360:	9301      	str	r3, [sp, #4]
 8002362:	f000 fc1f 	bl	8002ba4 <_vfiprintf_r>
 8002366:	b002      	add	sp, #8
 8002368:	e8bd 4010 	ldmia.w	sp!, {r4, lr}
 800236c:	b004      	add	sp, #16
 800236e:	4770      	bx	lr
 8002370:	20000070 	.word	0x20000070

08002374 <_puts_r>:
 8002374:	b570      	push	{r4, r5, r6, lr}
 8002376:	460e      	mov	r6, r1
 8002378:	4605      	mov	r5, r0
 800237a:	b118      	cbz	r0, 8002384 <_puts_r+0x10>
 800237c:	6983      	ldr	r3, [r0, #24]
 800237e:	b90b      	cbnz	r3, 8002384 <_puts_r+0x10>
 8002380:	f000 fa48 	bl	8002814 <__sinit>
 8002384:	69ab      	ldr	r3, [r5, #24]
 8002386:	68ac      	ldr	r4, [r5, #8]
 8002388:	b913      	cbnz	r3, 8002390 <_puts_r+0x1c>
 800238a:	4628      	mov	r0, r5
 800238c:	f000 fa42 	bl	8002814 <__sinit>
 8002390:	4b23      	ldr	r3, [pc, #140]	; (8002420 <_puts_r+0xac>)
 8002392:	429c      	cmp	r4, r3
 8002394:	d117      	bne.n	80023c6 <_puts_r+0x52>
 8002396:	686c      	ldr	r4, [r5, #4]
 8002398:	89a3      	ldrh	r3, [r4, #12]
 800239a:	071b      	lsls	r3, r3, #28
 800239c:	d51d      	bpl.n	80023da <_puts_r+0x66>
 800239e:	6923      	ldr	r3, [r4, #16]
 80023a0:	b1db      	cbz	r3, 80023da <_puts_r+0x66>
 80023a2:	3e01      	subs	r6, #1
 80023a4:	68a3      	ldr	r3, [r4, #8]
 80023a6:	f816 1f01 	ldrb.w	r1, [r6, #1]!
 80023aa:	3b01      	subs	r3, #1
 80023ac:	60a3      	str	r3, [r4, #8]
 80023ae:	b9e9      	cbnz	r1, 80023ec <_puts_r+0x78>
 80023b0:	2b00      	cmp	r3, #0
 80023b2:	da2e      	bge.n	8002412 <_puts_r+0x9e>
 80023b4:	4622      	mov	r2, r4
 80023b6:	210a      	movs	r1, #10
 80023b8:	4628      	mov	r0, r5
 80023ba:	f000 f879 	bl	80024b0 <__swbuf_r>
 80023be:	3001      	adds	r0, #1
 80023c0:	d011      	beq.n	80023e6 <_puts_r+0x72>
 80023c2:	200a      	movs	r0, #10
 80023c4:	bd70      	pop	{r4, r5, r6, pc}
 80023c6:	4b17      	ldr	r3, [pc, #92]	; (8002424 <_puts_r+0xb0>)
 80023c8:	429c      	cmp	r4, r3
 80023ca:	d101      	bne.n	80023d0 <_puts_r+0x5c>
 80023cc:	68ac      	ldr	r4, [r5, #8]
 80023ce:	e7e3      	b.n	8002398 <_puts_r+0x24>
 80023d0:	4b15      	ldr	r3, [pc, #84]	; (8002428 <_puts_r+0xb4>)
 80023d2:	429c      	cmp	r4, r3
 80023d4:	bf08      	it	eq
 80023d6:	68ec      	ldreq	r4, [r5, #12]
 80023d8:	e7de      	b.n	8002398 <_puts_r+0x24>
 80023da:	4621      	mov	r1, r4
 80023dc:	4628      	mov	r0, r5
 80023de:	f000 f8b9 	bl	8002554 <__swsetup_r>
 80023e2:	2800      	cmp	r0, #0
 80023e4:	d0dd      	beq.n	80023a2 <_puts_r+0x2e>
 80023e6:	f04f 30ff 	mov.w	r0, #4294967295
 80023ea:	bd70      	pop	{r4, r5, r6, pc}
 80023ec:	2b00      	cmp	r3, #0
 80023ee:	da04      	bge.n	80023fa <_puts_r+0x86>
 80023f0:	69a2      	ldr	r2, [r4, #24]
 80023f2:	4293      	cmp	r3, r2
 80023f4:	db06      	blt.n	8002404 <_puts_r+0x90>
 80023f6:	290a      	cmp	r1, #10
 80023f8:	d004      	beq.n	8002404 <_puts_r+0x90>
 80023fa:	6823      	ldr	r3, [r4, #0]
 80023fc:	1c5a      	adds	r2, r3, #1
 80023fe:	6022      	str	r2, [r4, #0]
 8002400:	7019      	strb	r1, [r3, #0]
 8002402:	e7cf      	b.n	80023a4 <_puts_r+0x30>
 8002404:	4622      	mov	r2, r4
 8002406:	4628      	mov	r0, r5
 8002408:	f000 f852 	bl	80024b0 <__swbuf_r>
 800240c:	3001      	adds	r0, #1
 800240e:	d1c9      	bne.n	80023a4 <_puts_r+0x30>
 8002410:	e7e9      	b.n	80023e6 <_puts_r+0x72>
 8002412:	200a      	movs	r0, #10
 8002414:	6823      	ldr	r3, [r4, #0]
 8002416:	1c5a      	adds	r2, r3, #1
 8002418:	6022      	str	r2, [r4, #0]
 800241a:	7018      	strb	r0, [r3, #0]
 800241c:	bd70      	pop	{r4, r5, r6, pc}
 800241e:	bf00      	nop
 8002420:	08009fe8 	.word	0x08009fe8
 8002424:	0800a008 	.word	0x0800a008
 8002428:	08009fc8 	.word	0x08009fc8

0800242c <puts>:
 800242c:	4b02      	ldr	r3, [pc, #8]	; (8002438 <puts+0xc>)
 800242e:	4601      	mov	r1, r0
 8002430:	6818      	ldr	r0, [r3, #0]
 8002432:	f7ff bf9f 	b.w	8002374 <_puts_r>
 8002436:	bf00      	nop
 8002438:	20000070 	.word	0x20000070

0800243c <random>:
 800243c:	4b19      	ldr	r3, [pc, #100]	; (80024a4 <random+0x68>)
 800243e:	b510      	push	{r4, lr}
 8002440:	681c      	ldr	r4, [r3, #0]
 8002442:	6ba3      	ldr	r3, [r4, #56]	; 0x38
 8002444:	b9d3      	cbnz	r3, 800247c <random+0x40>
 8002446:	2018      	movs	r0, #24
 8002448:	f000 fad2 	bl	80029f0 <malloc>
 800244c:	f243 330e 	movw	r3, #13070	; 0x330e
 8002450:	63a0      	str	r0, [r4, #56]	; 0x38
 8002452:	8003      	strh	r3, [r0, #0]
 8002454:	f64a 33cd 	movw	r3, #43981	; 0xabcd
 8002458:	8043      	strh	r3, [r0, #2]
 800245a:	f241 2334 	movw	r3, #4660	; 0x1234
 800245e:	8083      	strh	r3, [r0, #4]
 8002460:	f24e 636d 	movw	r3, #58989	; 0xe66d
 8002464:	80c3      	strh	r3, [r0, #6]
 8002466:	f64d 63ec 	movw	r3, #57068	; 0xdeec
 800246a:	8103      	strh	r3, [r0, #8]
 800246c:	2305      	movs	r3, #5
 800246e:	8143      	strh	r3, [r0, #10]
 8002470:	230b      	movs	r3, #11
 8002472:	2201      	movs	r2, #1
 8002474:	8183      	strh	r3, [r0, #12]
 8002476:	2300      	movs	r3, #0
 8002478:	e9c0 2304 	strd	r2, r3, [r0, #16]
 800247c:	6ba1      	ldr	r1, [r4, #56]	; 0x38
 800247e:	480a      	ldr	r0, [pc, #40]	; (80024a8 <random+0x6c>)
 8002480:	690a      	ldr	r2, [r1, #16]
 8002482:	694b      	ldr	r3, [r1, #20]
 8002484:	4350      	muls	r0, r2
 8002486:	4c09      	ldr	r4, [pc, #36]	; (80024ac <random+0x70>)
 8002488:	fb04 0003 	mla	r0, r4, r3, r0
 800248c:	fba2 2304 	umull	r2, r3, r2, r4
 8002490:	3201      	adds	r2, #1
 8002492:	4403      	add	r3, r0
 8002494:	f143 0300 	adc.w	r3, r3, #0
 8002498:	e9c1 2304 	strd	r2, r3, [r1, #16]
 800249c:	f023 4000 	bic.w	r0, r3, #2147483648	; 0x80000000
 80024a0:	bd10      	pop	{r4, pc}
 80024a2:	bf00      	nop
 80024a4:	20000070 	.word	0x20000070
 80024a8:	5851f42d 	.word	0x5851f42d
 80024ac:	4c957f2d 	.word	0x4c957f2d

080024b0 <__swbuf_r>:
 80024b0:	b5f8      	push	{r3, r4, r5, r6, r7, lr}
 80024b2:	460e      	mov	r6, r1
 80024b4:	4614      	mov	r4, r2
 80024b6:	4605      	mov	r5, r0
 80024b8:	b118      	cbz	r0, 80024c2 <__swbuf_r+0x12>
 80024ba:	6983      	ldr	r3, [r0, #24]
 80024bc:	b90b      	cbnz	r3, 80024c2 <__swbuf_r+0x12>
 80024be:	f000 f9a9 	bl	8002814 <__sinit>
 80024c2:	4b21      	ldr	r3, [pc, #132]	; (8002548 <__swbuf_r+0x98>)
 80024c4:	429c      	cmp	r4, r3
 80024c6:	d12a      	bne.n	800251e <__swbuf_r+0x6e>
 80024c8:	686c      	ldr	r4, [r5, #4]
 80024ca:	69a3      	ldr	r3, [r4, #24]
 80024cc:	60a3      	str	r3, [r4, #8]
 80024ce:	89a3      	ldrh	r3, [r4, #12]
 80024d0:	071a      	lsls	r2, r3, #28
 80024d2:	d52e      	bpl.n	8002532 <__swbuf_r+0x82>
 80024d4:	6923      	ldr	r3, [r4, #16]
 80024d6:	b363      	cbz	r3, 8002532 <__swbuf_r+0x82>
 80024d8:	6923      	ldr	r3, [r4, #16]
 80024da:	6820      	ldr	r0, [r4, #0]
 80024dc:	b2f6      	uxtb	r6, r6
 80024de:	1ac0      	subs	r0, r0, r3
 80024e0:	6963      	ldr	r3, [r4, #20]
 80024e2:	4637      	mov	r7, r6
 80024e4:	4298      	cmp	r0, r3
 80024e6:	db04      	blt.n	80024f2 <__swbuf_r+0x42>
 80024e8:	4621      	mov	r1, r4
 80024ea:	4628      	mov	r0, r5
 80024ec:	f000 f928 	bl	8002740 <_fflush_r>
 80024f0:	bb28      	cbnz	r0, 800253e <__swbuf_r+0x8e>
 80024f2:	68a3      	ldr	r3, [r4, #8]
 80024f4:	3001      	adds	r0, #1
 80024f6:	3b01      	subs	r3, #1
 80024f8:	60a3      	str	r3, [r4, #8]
 80024fa:	6823      	ldr	r3, [r4, #0]
 80024fc:	1c5a      	adds	r2, r3, #1
 80024fe:	6022      	str	r2, [r4, #0]
 8002500:	701e      	strb	r6, [r3, #0]
 8002502:	6963      	ldr	r3, [r4, #20]
 8002504:	4298      	cmp	r0, r3
 8002506:	d004      	beq.n	8002512 <__swbuf_r+0x62>
 8002508:	89a3      	ldrh	r3, [r4, #12]
 800250a:	07db      	lsls	r3, r3, #31
 800250c:	d519      	bpl.n	8002542 <__swbuf_r+0x92>
 800250e:	2e0a      	cmp	r6, #10
 8002510:	d117      	bne.n	8002542 <__swbuf_r+0x92>
 8002512:	4621      	mov	r1, r4
 8002514:	4628      	mov	r0, r5
 8002516:	f000 f913 	bl	8002740 <_fflush_r>
 800251a:	b190      	cbz	r0, 8002542 <__swbuf_r+0x92>
 800251c:	e00f      	b.n	800253e <__swbuf_r+0x8e>
 800251e:	4b0b      	ldr	r3, [pc, #44]	; (800254c <__swbuf_r+0x9c>)
 8002520:	429c      	cmp	r4, r3
 8002522:	d101      	bne.n	8002528 <__swbuf_r+0x78>
 8002524:	68ac      	ldr	r4, [r5, #8]
 8002526:	e7d0      	b.n	80024ca <__swbuf_r+0x1a>
 8002528:	4b09      	ldr	r3, [pc, #36]	; (8002550 <__swbuf_r+0xa0>)
 800252a:	429c      	cmp	r4, r3
 800252c:	bf08      	it	eq
 800252e:	68ec      	ldreq	r4, [r5, #12]
 8002530:	e7cb      	b.n	80024ca <__swbuf_r+0x1a>
 8002532:	4621      	mov	r1, r4
 8002534:	4628      	mov	r0, r5
 8002536:	f000 f80d 	bl	8002554 <__swsetup_r>
 800253a:	2800      	cmp	r0, #0
 800253c:	d0cc      	beq.n	80024d8 <__swbuf_r+0x28>
 800253e:	f04f 37ff 	mov.w	r7, #4294967295
 8002542:	4638      	mov	r0, r7
 8002544:	bdf8      	pop	{r3, r4, r5, r6, r7, pc}
 8002546:	bf00      	nop
 8002548:	08009fe8 	.word	0x08009fe8
 800254c:	0800a008 	.word	0x0800a008
 8002550:	08009fc8 	.word	0x08009fc8

08002554 <__swsetup_r>:
 8002554:	4b32      	ldr	r3, [pc, #200]	; (8002620 <__swsetup_r+0xcc>)
 8002556:	b570      	push	{r4, r5, r6, lr}
 8002558:	681d      	ldr	r5, [r3, #0]
 800255a:	4606      	mov	r6, r0
 800255c:	460c      	mov	r4, r1
 800255e:	b125      	cbz	r5, 800256a <__swsetup_r+0x16>
 8002560:	69ab      	ldr	r3, [r5, #24]
 8002562:	b913      	cbnz	r3, 800256a <__swsetup_r+0x16>
 8002564:	4628      	mov	r0, r5
 8002566:	f000 f955 	bl	8002814 <__sinit>
 800256a:	4b2e      	ldr	r3, [pc, #184]	; (8002624 <__swsetup_r+0xd0>)
 800256c:	429c      	cmp	r4, r3
 800256e:	d10f      	bne.n	8002590 <__swsetup_r+0x3c>
 8002570:	686c      	ldr	r4, [r5, #4]
 8002572:	f9b4 300c 	ldrsh.w	r3, [r4, #12]
 8002576:	b29a      	uxth	r2, r3
 8002578:	0715      	lsls	r5, r2, #28
 800257a:	d42c      	bmi.n	80025d6 <__swsetup_r+0x82>
 800257c:	06d0      	lsls	r0, r2, #27
 800257e:	d411      	bmi.n	80025a4 <__swsetup_r+0x50>
 8002580:	2209      	movs	r2, #9
 8002582:	6032      	str	r2, [r6, #0]
 8002584:	f043 0340 	orr.w	r3, r3, #64	; 0x40
 8002588:	81a3      	strh	r3, [r4, #12]
 800258a:	f04f 30ff 	mov.w	r0, #4294967295
 800258e:	bd70      	pop	{r4, r5, r6, pc}
 8002590:	4b25      	ldr	r3, [pc, #148]	; (8002628 <__swsetup_r+0xd4>)
 8002592:	429c      	cmp	r4, r3
 8002594:	d101      	bne.n	800259a <__swsetup_r+0x46>
 8002596:	68ac      	ldr	r4, [r5, #8]
 8002598:	e7eb      	b.n	8002572 <__swsetup_r+0x1e>
 800259a:	4b24      	ldr	r3, [pc, #144]	; (800262c <__swsetup_r+0xd8>)
 800259c:	429c      	cmp	r4, r3
 800259e:	bf08      	it	eq
 80025a0:	68ec      	ldreq	r4, [r5, #12]
 80025a2:	e7e6      	b.n	8002572 <__swsetup_r+0x1e>
 80025a4:	0751      	lsls	r1, r2, #29
 80025a6:	d512      	bpl.n	80025ce <__swsetup_r+0x7a>
 80025a8:	6b61      	ldr	r1, [r4, #52]	; 0x34
 80025aa:	b141      	cbz	r1, 80025be <__swsetup_r+0x6a>
 80025ac:	f104 0344 	add.w	r3, r4, #68	; 0x44
 80025b0:	4299      	cmp	r1, r3
 80025b2:	d002      	beq.n	80025ba <__swsetup_r+0x66>
 80025b4:	4630      	mov	r0, r6
 80025b6:	f000 fa23 	bl	8002a00 <_free_r>
 80025ba:	2300      	movs	r3, #0
 80025bc:	6363      	str	r3, [r4, #52]	; 0x34
 80025be:	89a3      	ldrh	r3, [r4, #12]
 80025c0:	f023 0324 	bic.w	r3, r3, #36	; 0x24
 80025c4:	81a3      	strh	r3, [r4, #12]
 80025c6:	2300      	movs	r3, #0
 80025c8:	6063      	str	r3, [r4, #4]
 80025ca:	6923      	ldr	r3, [r4, #16]
 80025cc:	6023      	str	r3, [r4, #0]
 80025ce:	89a3      	ldrh	r3, [r4, #12]
 80025d0:	f043 0308 	orr.w	r3, r3, #8
 80025d4:	81a3      	strh	r3, [r4, #12]
 80025d6:	6923      	ldr	r3, [r4, #16]
 80025d8:	b94b      	cbnz	r3, 80025ee <__swsetup_r+0x9a>
 80025da:	89a3      	ldrh	r3, [r4, #12]
 80025dc:	f403 7320 	and.w	r3, r3, #640	; 0x280
 80025e0:	f5b3 7f00 	cmp.w	r3, #512	; 0x200
 80025e4:	d003      	beq.n	80025ee <__swsetup_r+0x9a>
 80025e6:	4621      	mov	r1, r4
 80025e8:	4630      	mov	r0, r6
 80025ea:	f000 f9c1 	bl	8002970 <__smakebuf_r>
 80025ee:	89a2      	ldrh	r2, [r4, #12]
 80025f0:	f012 0301 	ands.w	r3, r2, #1
 80025f4:	d00c      	beq.n	8002610 <__swsetup_r+0xbc>
 80025f6:	2300      	movs	r3, #0
 80025f8:	60a3      	str	r3, [r4, #8]
 80025fa:	6963      	ldr	r3, [r4, #20]
 80025fc:	425b      	negs	r3, r3
 80025fe:	61a3      	str	r3, [r4, #24]
 8002600:	6923      	ldr	r3, [r4, #16]
 8002602:	b953      	cbnz	r3, 800261a <__swsetup_r+0xc6>
 8002604:	f9b4 300c 	ldrsh.w	r3, [r4, #12]
 8002608:	f013 0080 	ands.w	r0, r3, #128	; 0x80
 800260c:	d1ba      	bne.n	8002584 <__swsetup_r+0x30>
 800260e:	bd70      	pop	{r4, r5, r6, pc}
 8002610:	0792      	lsls	r2, r2, #30
 8002612:	bf58      	it	pl
 8002614:	6963      	ldrpl	r3, [r4, #20]
 8002616:	60a3      	str	r3, [r4, #8]
 8002618:	e7f2      	b.n	8002600 <__swsetup_r+0xac>
 800261a:	2000      	movs	r0, #0
 800261c:	e7f7      	b.n	800260e <__swsetup_r+0xba>
 800261e:	bf00      	nop
 8002620:	20000070 	.word	0x20000070
 8002624:	08009fe8 	.word	0x08009fe8
 8002628:	0800a008 	.word	0x0800a008
 800262c:	08009fc8 	.word	0x08009fc8

08002630 <__sflush_r>:
 8002630:	898a      	ldrh	r2, [r1, #12]
 8002632:	e92d 41f0 	stmdb	sp!, {r4, r5, r6, r7, r8, lr}
 8002636:	4605      	mov	r5, r0
 8002638:	0710      	lsls	r0, r2, #28
 800263a:	460c      	mov	r4, r1
 800263c:	d45a      	bmi.n	80026f4 <__sflush_r+0xc4>
 800263e:	684b      	ldr	r3, [r1, #4]
 8002640:	2b00      	cmp	r3, #0
 8002642:	dc05      	bgt.n	8002650 <__sflush_r+0x20>
 8002644:	6c0b      	ldr	r3, [r1, #64]	; 0x40
 8002646:	2b00      	cmp	r3, #0
 8002648:	dc02      	bgt.n	8002650 <__sflush_r+0x20>
 800264a:	2000      	movs	r0, #0
 800264c:	e8bd 81f0 	ldmia.w	sp!, {r4, r5, r6, r7, r8, pc}
 8002650:	6ae6      	ldr	r6, [r4, #44]	; 0x2c
 8002652:	2e00      	cmp	r6, #0
 8002654:	d0f9      	beq.n	800264a <__sflush_r+0x1a>
 8002656:	2300      	movs	r3, #0
 8002658:	f412 5280 	ands.w	r2, r2, #4096	; 0x1000
 800265c:	682f      	ldr	r7, [r5, #0]
 800265e:	602b      	str	r3, [r5, #0]
 8002660:	d033      	beq.n	80026ca <__sflush_r+0x9a>
 8002662:	6d60      	ldr	r0, [r4, #84]	; 0x54
 8002664:	89a3      	ldrh	r3, [r4, #12]
 8002666:	075a      	lsls	r2, r3, #29
 8002668:	d505      	bpl.n	8002676 <__sflush_r+0x46>
 800266a:	6863      	ldr	r3, [r4, #4]
 800266c:	1ac0      	subs	r0, r0, r3
 800266e:	6b63      	ldr	r3, [r4, #52]	; 0x34
 8002670:	b10b      	cbz	r3, 8002676 <__sflush_r+0x46>
 8002672:	6c23      	ldr	r3, [r4, #64]	; 0x40
 8002674:	1ac0      	subs	r0, r0, r3
 8002676:	2300      	movs	r3, #0
 8002678:	4602      	mov	r2, r0
 800267a:	6ae6      	ldr	r6, [r4, #44]	; 0x2c
 800267c:	6a21      	ldr	r1, [r4, #32]
 800267e:	4628      	mov	r0, r5
 8002680:	47b0      	blx	r6
 8002682:	1c43      	adds	r3, r0, #1
 8002684:	89a3      	ldrh	r3, [r4, #12]
 8002686:	d106      	bne.n	8002696 <__sflush_r+0x66>
 8002688:	6829      	ldr	r1, [r5, #0]
 800268a:	291d      	cmp	r1, #29
 800268c:	d84b      	bhi.n	8002726 <__sflush_r+0xf6>
 800268e:	4a2b      	ldr	r2, [pc, #172]	; (800273c <__sflush_r+0x10c>)
 8002690:	40ca      	lsrs	r2, r1
 8002692:	07d6      	lsls	r6, r2, #31
 8002694:	d547      	bpl.n	8002726 <__sflush_r+0xf6>
 8002696:	2200      	movs	r2, #0
 8002698:	6062      	str	r2, [r4, #4]
 800269a:	6922      	ldr	r2, [r4, #16]
 800269c:	04d9      	lsls	r1, r3, #19
 800269e:	6022      	str	r2, [r4, #0]
 80026a0:	d504      	bpl.n	80026ac <__sflush_r+0x7c>
 80026a2:	1c42      	adds	r2, r0, #1
 80026a4:	d101      	bne.n	80026aa <__sflush_r+0x7a>
 80026a6:	682b      	ldr	r3, [r5, #0]
 80026a8:	b903      	cbnz	r3, 80026ac <__sflush_r+0x7c>
 80026aa:	6560      	str	r0, [r4, #84]	; 0x54
 80026ac:	6b61      	ldr	r1, [r4, #52]	; 0x34
 80026ae:	602f      	str	r7, [r5, #0]
 80026b0:	2900      	cmp	r1, #0
 80026b2:	d0ca      	beq.n	800264a <__sflush_r+0x1a>
 80026b4:	f104 0344 	add.w	r3, r4, #68	; 0x44
 80026b8:	4299      	cmp	r1, r3
 80026ba:	d002      	beq.n	80026c2 <__sflush_r+0x92>
 80026bc:	4628      	mov	r0, r5
 80026be:	f000 f99f 	bl	8002a00 <_free_r>
 80026c2:	2000      	movs	r0, #0
 80026c4:	6360      	str	r0, [r4, #52]	; 0x34
 80026c6:	e8bd 81f0 	ldmia.w	sp!, {r4, r5, r6, r7, r8, pc}
 80026ca:	6a21      	ldr	r1, [r4, #32]
 80026cc:	2301      	movs	r3, #1
 80026ce:	4628      	mov	r0, r5
 80026d0:	47b0      	blx	r6
 80026d2:	1c41      	adds	r1, r0, #1
 80026d4:	d1c6      	bne.n	8002664 <__sflush_r+0x34>
 80026d6:	682b      	ldr	r3, [r5, #0]
 80026d8:	2b00      	cmp	r3, #0
 80026da:	d0c3      	beq.n	8002664 <__sflush_r+0x34>
 80026dc:	2b1d      	cmp	r3, #29
 80026de:	d001      	beq.n	80026e4 <__sflush_r+0xb4>
 80026e0:	2b16      	cmp	r3, #22
 80026e2:	d101      	bne.n	80026e8 <__sflush_r+0xb8>
 80026e4:	602f      	str	r7, [r5, #0]
 80026e6:	e7b0      	b.n	800264a <__sflush_r+0x1a>
 80026e8:	89a3      	ldrh	r3, [r4, #12]
 80026ea:	f043 0340 	orr.w	r3, r3, #64	; 0x40
 80026ee:	81a3      	strh	r3, [r4, #12]
 80026f0:	e8bd 81f0 	ldmia.w	sp!, {r4, r5, r6, r7, r8, pc}
 80026f4:	690f      	ldr	r7, [r1, #16]
 80026f6:	2f00      	cmp	r7, #0
 80026f8:	d0a7      	beq.n	800264a <__sflush_r+0x1a>
 80026fa:	0793      	lsls	r3, r2, #30
 80026fc:	bf18      	it	ne
 80026fe:	2300      	movne	r3, #0
 8002700:	680e      	ldr	r6, [r1, #0]
 8002702:	bf08      	it	eq
 8002704:	694b      	ldreq	r3, [r1, #20]
 8002706:	eba6 0807 	sub.w	r8, r6, r7
 800270a:	600f      	str	r7, [r1, #0]
 800270c:	608b      	str	r3, [r1, #8]
 800270e:	f1b8 0f00 	cmp.w	r8, #0
 8002712:	dd9a      	ble.n	800264a <__sflush_r+0x1a>
 8002714:	4643      	mov	r3, r8
 8002716:	463a      	mov	r2, r7
 8002718:	6a21      	ldr	r1, [r4, #32]
 800271a:	4628      	mov	r0, r5
 800271c:	6aa6      	ldr	r6, [r4, #40]	; 0x28
 800271e:	47b0      	blx	r6
 8002720:	2800      	cmp	r0, #0
 8002722:	dc07      	bgt.n	8002734 <__sflush_r+0x104>
 8002724:	89a3      	ldrh	r3, [r4, #12]
 8002726:	f043 0340 	orr.w	r3, r3, #64	; 0x40
 800272a:	81a3      	strh	r3, [r4, #12]
 800272c:	f04f 30ff 	mov.w	r0, #4294967295
 8002730:	e8bd 81f0 	ldmia.w	sp!, {r4, r5, r6, r7, r8, pc}
 8002734:	4407      	add	r7, r0
 8002736:	eba8 0800 	sub.w	r8, r8, r0
 800273a:	e7e8      	b.n	800270e <__sflush_r+0xde>
 800273c:	20400001 	.word	0x20400001

08002740 <_fflush_r>:
 8002740:	b538      	push	{r3, r4, r5, lr}
 8002742:	690b      	ldr	r3, [r1, #16]
 8002744:	4605      	mov	r5, r0
 8002746:	460c      	mov	r4, r1
 8002748:	b1db      	cbz	r3, 8002782 <_fflush_r+0x42>
 800274a:	b118      	cbz	r0, 8002754 <_fflush_r+0x14>
 800274c:	6983      	ldr	r3, [r0, #24]
 800274e:	b90b      	cbnz	r3, 8002754 <_fflush_r+0x14>
 8002750:	f000 f860 	bl	8002814 <__sinit>
 8002754:	4b0c      	ldr	r3, [pc, #48]	; (8002788 <_fflush_r+0x48>)
 8002756:	429c      	cmp	r4, r3
 8002758:	d109      	bne.n	800276e <_fflush_r+0x2e>
 800275a:	686c      	ldr	r4, [r5, #4]
 800275c:	f9b4 300c 	ldrsh.w	r3, [r4, #12]
 8002760:	b17b      	cbz	r3, 8002782 <_fflush_r+0x42>
 8002762:	4621      	mov	r1, r4
 8002764:	4628      	mov	r0, r5
 8002766:	e8bd 4038 	ldmia.w	sp!, {r3, r4, r5, lr}
 800276a:	f7ff bf61 	b.w	8002630 <__sflush_r>
 800276e:	4b07      	ldr	r3, [pc, #28]	; (800278c <_fflush_r+0x4c>)
 8002770:	429c      	cmp	r4, r3
 8002772:	d101      	bne.n	8002778 <_fflush_r+0x38>
 8002774:	68ac      	ldr	r4, [r5, #8]
 8002776:	e7f1      	b.n	800275c <_fflush_r+0x1c>
 8002778:	4b05      	ldr	r3, [pc, #20]	; (8002790 <_fflush_r+0x50>)
 800277a:	429c      	cmp	r4, r3
 800277c:	bf08      	it	eq
 800277e:	68ec      	ldreq	r4, [r5, #12]
 8002780:	e7ec      	b.n	800275c <_fflush_r+0x1c>
 8002782:	2000      	movs	r0, #0
 8002784:	bd38      	pop	{r3, r4, r5, pc}
 8002786:	bf00      	nop
 8002788:	08009fe8 	.word	0x08009fe8
 800278c:	0800a008 	.word	0x0800a008
 8002790:	08009fc8 	.word	0x08009fc8

08002794 <_cleanup_r>:
 8002794:	4901      	ldr	r1, [pc, #4]	; (800279c <_cleanup_r+0x8>)
 8002796:	f000 b8a9 	b.w	80028ec <_fwalk_reent>
 800279a:	bf00      	nop
 800279c:	08002741 	.word	0x08002741

080027a0 <std.isra.0>:
 80027a0:	2300      	movs	r3, #0
 80027a2:	b510      	push	{r4, lr}
 80027a4:	4604      	mov	r4, r0
 80027a6:	6003      	str	r3, [r0, #0]
 80027a8:	6043      	str	r3, [r0, #4]
 80027aa:	6083      	str	r3, [r0, #8]
 80027ac:	8181      	strh	r1, [r0, #12]
 80027ae:	6643      	str	r3, [r0, #100]	; 0x64
 80027b0:	81c2      	strh	r2, [r0, #14]
 80027b2:	6103      	str	r3, [r0, #16]
 80027b4:	6143      	str	r3, [r0, #20]
 80027b6:	6183      	str	r3, [r0, #24]
 80027b8:	4619      	mov	r1, r3
 80027ba:	2208      	movs	r2, #8
 80027bc:	305c      	adds	r0, #92	; 0x5c
 80027be:	f7ff fdb9 	bl	8002334 <memset>
 80027c2:	4b05      	ldr	r3, [pc, #20]	; (80027d8 <std.isra.0+0x38>)
 80027c4:	6224      	str	r4, [r4, #32]
 80027c6:	6263      	str	r3, [r4, #36]	; 0x24
 80027c8:	4b04      	ldr	r3, [pc, #16]	; (80027dc <std.isra.0+0x3c>)
 80027ca:	62a3      	str	r3, [r4, #40]	; 0x28
 80027cc:	4b04      	ldr	r3, [pc, #16]	; (80027e0 <std.isra.0+0x40>)
 80027ce:	62e3      	str	r3, [r4, #44]	; 0x2c
 80027d0:	4b04      	ldr	r3, [pc, #16]	; (80027e4 <std.isra.0+0x44>)
 80027d2:	6323      	str	r3, [r4, #48]	; 0x30
 80027d4:	bd10      	pop	{r4, pc}
 80027d6:	bf00      	nop
 80027d8:	08003121 	.word	0x08003121
 80027dc:	08003143 	.word	0x08003143
 80027e0:	0800317b 	.word	0x0800317b
 80027e4:	0800319f 	.word	0x0800319f

080027e8 <__sfmoreglue>:
 80027e8:	b570      	push	{r4, r5, r6, lr}
 80027ea:	2568      	movs	r5, #104	; 0x68
 80027ec:	1e4a      	subs	r2, r1, #1
 80027ee:	4355      	muls	r5, r2
 80027f0:	460e      	mov	r6, r1
 80027f2:	f105 0174 	add.w	r1, r5, #116	; 0x74
 80027f6:	f000 f94f 	bl	8002a98 <_malloc_r>
 80027fa:	4604      	mov	r4, r0
 80027fc:	b140      	cbz	r0, 8002810 <__sfmoreglue+0x28>
 80027fe:	2100      	movs	r1, #0
 8002800:	e880 0042 	stmia.w	r0, {r1, r6}
 8002804:	300c      	adds	r0, #12
 8002806:	60a0      	str	r0, [r4, #8]
 8002808:	f105 0268 	add.w	r2, r5, #104	; 0x68
 800280c:	f7ff fd92 	bl	8002334 <memset>
 8002810:	4620      	mov	r0, r4
 8002812:	bd70      	pop	{r4, r5, r6, pc}

08002814 <__sinit>:
 8002814:	6983      	ldr	r3, [r0, #24]
 8002816:	b510      	push	{r4, lr}
 8002818:	4604      	mov	r4, r0
 800281a:	bb33      	cbnz	r3, 800286a <__sinit+0x56>
 800281c:	6483      	str	r3, [r0, #72]	; 0x48
 800281e:	64c3      	str	r3, [r0, #76]	; 0x4c
 8002820:	6503      	str	r3, [r0, #80]	; 0x50
 8002822:	4b12      	ldr	r3, [pc, #72]	; (800286c <__sinit+0x58>)
 8002824:	4a12      	ldr	r2, [pc, #72]	; (8002870 <__sinit+0x5c>)
 8002826:	681b      	ldr	r3, [r3, #0]
 8002828:	6282      	str	r2, [r0, #40]	; 0x28
 800282a:	4298      	cmp	r0, r3
 800282c:	bf04      	itt	eq
 800282e:	2301      	moveq	r3, #1
 8002830:	6183      	streq	r3, [r0, #24]
 8002832:	f000 f81f 	bl	8002874 <__sfp>
 8002836:	6060      	str	r0, [r4, #4]
 8002838:	4620      	mov	r0, r4
 800283a:	f000 f81b 	bl	8002874 <__sfp>
 800283e:	60a0      	str	r0, [r4, #8]
 8002840:	4620      	mov	r0, r4
 8002842:	f000 f817 	bl	8002874 <__sfp>
 8002846:	2200      	movs	r2, #0
 8002848:	60e0      	str	r0, [r4, #12]
 800284a:	2104      	movs	r1, #4
 800284c:	6860      	ldr	r0, [r4, #4]
 800284e:	f7ff ffa7 	bl	80027a0 <std.isra.0>
 8002852:	2201      	movs	r2, #1
 8002854:	2109      	movs	r1, #9
 8002856:	68a0      	ldr	r0, [r4, #8]
 8002858:	f7ff ffa2 	bl	80027a0 <std.isra.0>
 800285c:	2202      	movs	r2, #2
 800285e:	2112      	movs	r1, #18
 8002860:	68e0      	ldr	r0, [r4, #12]
 8002862:	f7ff ff9d 	bl	80027a0 <std.isra.0>
 8002866:	2301      	movs	r3, #1
 8002868:	61a3      	str	r3, [r4, #24]
 800286a:	bd10      	pop	{r4, pc}
 800286c:	08009fc4 	.word	0x08009fc4
 8002870:	08002795 	.word	0x08002795

08002874 <__sfp>:
 8002874:	b5f8      	push	{r3, r4, r5, r6, r7, lr}
 8002876:	4b1c      	ldr	r3, [pc, #112]	; (80028e8 <__sfp+0x74>)
 8002878:	4607      	mov	r7, r0
 800287a:	681e      	ldr	r6, [r3, #0]
 800287c:	69b3      	ldr	r3, [r6, #24]
 800287e:	b913      	cbnz	r3, 8002886 <__sfp+0x12>
 8002880:	4630      	mov	r0, r6
 8002882:	f7ff ffc7 	bl	8002814 <__sinit>
 8002886:	3648      	adds	r6, #72	; 0x48
 8002888:	68b4      	ldr	r4, [r6, #8]
 800288a:	6873      	ldr	r3, [r6, #4]
 800288c:	3b01      	subs	r3, #1
 800288e:	d503      	bpl.n	8002898 <__sfp+0x24>
 8002890:	6833      	ldr	r3, [r6, #0]
 8002892:	b133      	cbz	r3, 80028a2 <__sfp+0x2e>
 8002894:	6836      	ldr	r6, [r6, #0]
 8002896:	e7f7      	b.n	8002888 <__sfp+0x14>
 8002898:	f9b4 500c 	ldrsh.w	r5, [r4, #12]
 800289c:	b16d      	cbz	r5, 80028ba <__sfp+0x46>
 800289e:	3468      	adds	r4, #104	; 0x68
 80028a0:	e7f4      	b.n	800288c <__sfp+0x18>
 80028a2:	2104      	movs	r1, #4
 80028a4:	4638      	mov	r0, r7
 80028a6:	f7ff ff9f 	bl	80027e8 <__sfmoreglue>
 80028aa:	6030      	str	r0, [r6, #0]
 80028ac:	2800      	cmp	r0, #0
 80028ae:	d1f1      	bne.n	8002894 <__sfp+0x20>
 80028b0:	230c      	movs	r3, #12
 80028b2:	4604      	mov	r4, r0
 80028b4:	603b      	str	r3, [r7, #0]
 80028b6:	4620      	mov	r0, r4
 80028b8:	bdf8      	pop	{r3, r4, r5, r6, r7, pc}
 80028ba:	f64f 73ff 	movw	r3, #65535	; 0xffff
 80028be:	81e3      	strh	r3, [r4, #14]
 80028c0:	2301      	movs	r3, #1
 80028c2:	6665      	str	r5, [r4, #100]	; 0x64
 80028c4:	81a3      	strh	r3, [r4, #12]
 80028c6:	6025      	str	r5, [r4, #0]
 80028c8:	60a5      	str	r5, [r4, #8]
 80028ca:	6065      	str	r5, [r4, #4]
 80028cc:	6125      	str	r5, [r4, #16]
 80028ce:	6165      	str	r5, [r4, #20]
 80028d0:	61a5      	str	r5, [r4, #24]
 80028d2:	2208      	movs	r2, #8
 80028d4:	4629      	mov	r1, r5
 80028d6:	f104 005c 	add.w	r0, r4, #92	; 0x5c
 80028da:	f7ff fd2b 	bl	8002334 <memset>
 80028de:	6365      	str	r5, [r4, #52]	; 0x34
 80028e0:	63a5      	str	r5, [r4, #56]	; 0x38
 80028e2:	64a5      	str	r5, [r4, #72]	; 0x48
 80028e4:	64e5      	str	r5, [r4, #76]	; 0x4c
 80028e6:	e7e6      	b.n	80028b6 <__sfp+0x42>
 80028e8:	08009fc4 	.word	0x08009fc4

080028ec <_fwalk_reent>:
 80028ec:	e92d 43f8 	stmdb	sp!, {r3, r4, r5, r6, r7, r8, r9, lr}
 80028f0:	4680      	mov	r8, r0
 80028f2:	4689      	mov	r9, r1
 80028f4:	2600      	movs	r6, #0
 80028f6:	f100 0448 	add.w	r4, r0, #72	; 0x48
 80028fa:	b914      	cbnz	r4, 8002902 <_fwalk_reent+0x16>
 80028fc:	4630      	mov	r0, r6
 80028fe:	e8bd 83f8 	ldmia.w	sp!, {r3, r4, r5, r6, r7, r8, r9, pc}
 8002902:	68a5      	ldr	r5, [r4, #8]
 8002904:	6867      	ldr	r7, [r4, #4]
 8002906:	3f01      	subs	r7, #1
 8002908:	d501      	bpl.n	800290e <_fwalk_reent+0x22>
 800290a:	6824      	ldr	r4, [r4, #0]
 800290c:	e7f5      	b.n	80028fa <_fwalk_reent+0xe>
 800290e:	89ab      	ldrh	r3, [r5, #12]
 8002910:	2b01      	cmp	r3, #1
 8002912:	d907      	bls.n	8002924 <_fwalk_reent+0x38>
 8002914:	f9b5 300e 	ldrsh.w	r3, [r5, #14]
 8002918:	3301      	adds	r3, #1
 800291a:	d003      	beq.n	8002924 <_fwalk_reent+0x38>
 800291c:	4629      	mov	r1, r5
 800291e:	4640      	mov	r0, r8
 8002920:	47c8      	blx	r9
 8002922:	4306      	orrs	r6, r0
 8002924:	3568      	adds	r5, #104	; 0x68
 8002926:	e7ee      	b.n	8002906 <_fwalk_reent+0x1a>

08002928 <__swhatbuf_r>:
 8002928:	b570      	push	{r4, r5, r6, lr}
 800292a:	460e      	mov	r6, r1
 800292c:	f9b1 100e 	ldrsh.w	r1, [r1, #14]
 8002930:	b090      	sub	sp, #64	; 0x40
 8002932:	2900      	cmp	r1, #0
 8002934:	4614      	mov	r4, r2
 8002936:	461d      	mov	r5, r3
 8002938:	da07      	bge.n	800294a <__swhatbuf_r+0x22>
 800293a:	2300      	movs	r3, #0
 800293c:	602b      	str	r3, [r5, #0]
 800293e:	89b3      	ldrh	r3, [r6, #12]
 8002940:	061a      	lsls	r2, r3, #24
 8002942:	d410      	bmi.n	8002966 <__swhatbuf_r+0x3e>
 8002944:	f44f 6380 	mov.w	r3, #1024	; 0x400
 8002948:	e00e      	b.n	8002968 <__swhatbuf_r+0x40>
 800294a:	aa01      	add	r2, sp, #4
 800294c:	f000 fc4e 	bl	80031ec <_fstat_r>
 8002950:	2800      	cmp	r0, #0
 8002952:	dbf2      	blt.n	800293a <__swhatbuf_r+0x12>
 8002954:	9a02      	ldr	r2, [sp, #8]
 8002956:	f402 4270 	and.w	r2, r2, #61440	; 0xf000
 800295a:	f5a2 5300 	sub.w	r3, r2, #8192	; 0x2000
 800295e:	425a      	negs	r2, r3
 8002960:	415a      	adcs	r2, r3
 8002962:	602a      	str	r2, [r5, #0]
 8002964:	e7ee      	b.n	8002944 <__swhatbuf_r+0x1c>
 8002966:	2340      	movs	r3, #64	; 0x40
 8002968:	2000      	movs	r0, #0
 800296a:	6023      	str	r3, [r4, #0]
 800296c:	b010      	add	sp, #64	; 0x40
 800296e:	bd70      	pop	{r4, r5, r6, pc}

08002970 <__smakebuf_r>:
 8002970:	898b      	ldrh	r3, [r1, #12]
 8002972:	b573      	push	{r0, r1, r4, r5, r6, lr}
 8002974:	079d      	lsls	r5, r3, #30
 8002976:	4606      	mov	r6, r0
 8002978:	460c      	mov	r4, r1
 800297a:	d507      	bpl.n	800298c <__smakebuf_r+0x1c>
 800297c:	f104 0347 	add.w	r3, r4, #71	; 0x47
 8002980:	6023      	str	r3, [r4, #0]
 8002982:	6123      	str	r3, [r4, #16]
 8002984:	2301      	movs	r3, #1
 8002986:	6163      	str	r3, [r4, #20]
 8002988:	b002      	add	sp, #8
 800298a:	bd70      	pop	{r4, r5, r6, pc}
 800298c:	ab01      	add	r3, sp, #4
 800298e:	466a      	mov	r2, sp
 8002990:	f7ff ffca 	bl	8002928 <__swhatbuf_r>
 8002994:	9900      	ldr	r1, [sp, #0]
 8002996:	4605      	mov	r5, r0
 8002998:	4630      	mov	r0, r6
 800299a:	f000 f87d 	bl	8002a98 <_malloc_r>
 800299e:	b948      	cbnz	r0, 80029b4 <__smakebuf_r+0x44>
 80029a0:	f9b4 300c 	ldrsh.w	r3, [r4, #12]
 80029a4:	059a      	lsls	r2, r3, #22
 80029a6:	d4ef      	bmi.n	8002988 <__smakebuf_r+0x18>
 80029a8:	f023 0303 	bic.w	r3, r3, #3
 80029ac:	f043 0302 	orr.w	r3, r3, #2
 80029b0:	81a3      	strh	r3, [r4, #12]
 80029b2:	e7e3      	b.n	800297c <__smakebuf_r+0xc>
 80029b4:	4b0d      	ldr	r3, [pc, #52]	; (80029ec <__smakebuf_r+0x7c>)
 80029b6:	62b3      	str	r3, [r6, #40]	; 0x28
 80029b8:	89a3      	ldrh	r3, [r4, #12]
 80029ba:	6020      	str	r0, [r4, #0]
 80029bc:	f043 0380 	orr.w	r3, r3, #128	; 0x80
 80029c0:	81a3      	strh	r3, [r4, #12]
 80029c2:	9b00      	ldr	r3, [sp, #0]
 80029c4:	6120      	str	r0, [r4, #16]
 80029c6:	6163      	str	r3, [r4, #20]
 80029c8:	9b01      	ldr	r3, [sp, #4]
 80029ca:	b15b      	cbz	r3, 80029e4 <__smakebuf_r+0x74>
 80029cc:	f9b4 100e 	ldrsh.w	r1, [r4, #14]
 80029d0:	4630      	mov	r0, r6
 80029d2:	f000 fc1d 	bl	8003210 <_isatty_r>
 80029d6:	b128      	cbz	r0, 80029e4 <__smakebuf_r+0x74>
 80029d8:	89a3      	ldrh	r3, [r4, #12]
 80029da:	f023 0303 	bic.w	r3, r3, #3
 80029de:	f043 0301 	orr.w	r3, r3, #1
 80029e2:	81a3      	strh	r3, [r4, #12]
 80029e4:	89a3      	ldrh	r3, [r4, #12]
 80029e6:	431d      	orrs	r5, r3
 80029e8:	81a5      	strh	r5, [r4, #12]
 80029ea:	e7cd      	b.n	8002988 <__smakebuf_r+0x18>
 80029ec:	08002795 	.word	0x08002795

080029f0 <malloc>:
 80029f0:	4b02      	ldr	r3, [pc, #8]	; (80029fc <malloc+0xc>)
 80029f2:	4601      	mov	r1, r0
 80029f4:	6818      	ldr	r0, [r3, #0]
 80029f6:	f000 b84f 	b.w	8002a98 <_malloc_r>
 80029fa:	bf00      	nop
 80029fc:	20000070 	.word	0x20000070

08002a00 <_free_r>:
 8002a00:	b538      	push	{r3, r4, r5, lr}
 8002a02:	4605      	mov	r5, r0
 8002a04:	2900      	cmp	r1, #0
 8002a06:	d043      	beq.n	8002a90 <_free_r+0x90>
 8002a08:	f851 3c04 	ldr.w	r3, [r1, #-4]
 8002a0c:	1f0c      	subs	r4, r1, #4
 8002a0e:	2b00      	cmp	r3, #0
 8002a10:	bfb8      	it	lt
 8002a12:	18e4      	addlt	r4, r4, r3
 8002a14:	f000 fc2c 	bl	8003270 <__malloc_lock>
 8002a18:	4a1e      	ldr	r2, [pc, #120]	; (8002a94 <_free_r+0x94>)
 8002a1a:	6813      	ldr	r3, [r2, #0]
 8002a1c:	4610      	mov	r0, r2
 8002a1e:	b933      	cbnz	r3, 8002a2e <_free_r+0x2e>
 8002a20:	6063      	str	r3, [r4, #4]
 8002a22:	6014      	str	r4, [r2, #0]
 8002a24:	4628      	mov	r0, r5
 8002a26:	e8bd 4038 	ldmia.w	sp!, {r3, r4, r5, lr}
 8002a2a:	f000 bc22 	b.w	8003272 <__malloc_unlock>
 8002a2e:	42a3      	cmp	r3, r4
 8002a30:	d90b      	bls.n	8002a4a <_free_r+0x4a>
 8002a32:	6821      	ldr	r1, [r4, #0]
 8002a34:	1862      	adds	r2, r4, r1
 8002a36:	4293      	cmp	r3, r2
 8002a38:	bf01      	itttt	eq
 8002a3a:	681a      	ldreq	r2, [r3, #0]
 8002a3c:	685b      	ldreq	r3, [r3, #4]
 8002a3e:	1852      	addeq	r2, r2, r1
 8002a40:	6022      	streq	r2, [r4, #0]
 8002a42:	6063      	str	r3, [r4, #4]
 8002a44:	6004      	str	r4, [r0, #0]
 8002a46:	e7ed      	b.n	8002a24 <_free_r+0x24>
 8002a48:	4613      	mov	r3, r2
 8002a4a:	685a      	ldr	r2, [r3, #4]
 8002a4c:	b10a      	cbz	r2, 8002a52 <_free_r+0x52>
 8002a4e:	42a2      	cmp	r2, r4
 8002a50:	d9fa      	bls.n	8002a48 <_free_r+0x48>
 8002a52:	6819      	ldr	r1, [r3, #0]
 8002a54:	1858      	adds	r0, r3, r1
 8002a56:	42a0      	cmp	r0, r4
 8002a58:	d10b      	bne.n	8002a72 <_free_r+0x72>
 8002a5a:	6820      	ldr	r0, [r4, #0]
 8002a5c:	4401      	add	r1, r0
 8002a5e:	1858      	adds	r0, r3, r1
 8002a60:	4282      	cmp	r2, r0
 8002a62:	6019      	str	r1, [r3, #0]
 8002a64:	d1de      	bne.n	8002a24 <_free_r+0x24>
 8002a66:	6810      	ldr	r0, [r2, #0]
 8002a68:	6852      	ldr	r2, [r2, #4]
 8002a6a:	4401      	add	r1, r0
 8002a6c:	6019      	str	r1, [r3, #0]
 8002a6e:	605a      	str	r2, [r3, #4]
 8002a70:	e7d8      	b.n	8002a24 <_free_r+0x24>
 8002a72:	d902      	bls.n	8002a7a <_free_r+0x7a>
 8002a74:	230c      	movs	r3, #12
 8002a76:	602b      	str	r3, [r5, #0]
 8002a78:	e7d4      	b.n	8002a24 <_free_r+0x24>
 8002a7a:	6820      	ldr	r0, [r4, #0]
 8002a7c:	1821      	adds	r1, r4, r0
 8002a7e:	428a      	cmp	r2, r1
 8002a80:	bf01      	itttt	eq
 8002a82:	6811      	ldreq	r1, [r2, #0]
 8002a84:	6852      	ldreq	r2, [r2, #4]
 8002a86:	1809      	addeq	r1, r1, r0
 8002a88:	6021      	streq	r1, [r4, #0]
 8002a8a:	6062      	str	r2, [r4, #4]
 8002a8c:	605c      	str	r4, [r3, #4]
 8002a8e:	e7c9      	b.n	8002a24 <_free_r+0x24>
 8002a90:	bd38      	pop	{r3, r4, r5, pc}
 8002a92:	bf00      	nop
 8002a94:	20000460 	.word	0x20000460

08002a98 <_malloc_r>:
 8002a98:	b570      	push	{r4, r5, r6, lr}
 8002a9a:	1ccd      	adds	r5, r1, #3
 8002a9c:	f025 0503 	bic.w	r5, r5, #3
 8002aa0:	3508      	adds	r5, #8
 8002aa2:	2d0c      	cmp	r5, #12
 8002aa4:	bf38      	it	cc
 8002aa6:	250c      	movcc	r5, #12
 8002aa8:	2d00      	cmp	r5, #0
 8002aaa:	4606      	mov	r6, r0
 8002aac:	db01      	blt.n	8002ab2 <_malloc_r+0x1a>
 8002aae:	42a9      	cmp	r1, r5
 8002ab0:	d903      	bls.n	8002aba <_malloc_r+0x22>
 8002ab2:	230c      	movs	r3, #12
 8002ab4:	6033      	str	r3, [r6, #0]
 8002ab6:	2000      	movs	r0, #0
 8002ab8:	bd70      	pop	{r4, r5, r6, pc}
 8002aba:	f000 fbd9 	bl	8003270 <__malloc_lock>
 8002abe:	4a23      	ldr	r2, [pc, #140]	; (8002b4c <_malloc_r+0xb4>)
 8002ac0:	6814      	ldr	r4, [r2, #0]
 8002ac2:	4621      	mov	r1, r4
 8002ac4:	b991      	cbnz	r1, 8002aec <_malloc_r+0x54>
 8002ac6:	4c22      	ldr	r4, [pc, #136]	; (8002b50 <_malloc_r+0xb8>)
 8002ac8:	6823      	ldr	r3, [r4, #0]
 8002aca:	b91b      	cbnz	r3, 8002ad4 <_malloc_r+0x3c>
 8002acc:	4630      	mov	r0, r6
 8002ace:	f000 fb17 	bl	8003100 <_sbrk_r>
 8002ad2:	6020      	str	r0, [r4, #0]
 8002ad4:	4629      	mov	r1, r5
 8002ad6:	4630      	mov	r0, r6
 8002ad8:	f000 fb12 	bl	8003100 <_sbrk_r>
 8002adc:	1c43      	adds	r3, r0, #1
 8002ade:	d126      	bne.n	8002b2e <_malloc_r+0x96>
 8002ae0:	230c      	movs	r3, #12
 8002ae2:	4630      	mov	r0, r6
 8002ae4:	6033      	str	r3, [r6, #0]
 8002ae6:	f000 fbc4 	bl	8003272 <__malloc_unlock>
 8002aea:	e7e4      	b.n	8002ab6 <_malloc_r+0x1e>
 8002aec:	680b      	ldr	r3, [r1, #0]
 8002aee:	1b5b      	subs	r3, r3, r5
 8002af0:	d41a      	bmi.n	8002b28 <_malloc_r+0x90>
 8002af2:	2b0b      	cmp	r3, #11
 8002af4:	d90f      	bls.n	8002b16 <_malloc_r+0x7e>
 8002af6:	600b      	str	r3, [r1, #0]
 8002af8:	18cc      	adds	r4, r1, r3
 8002afa:	50cd      	str	r5, [r1, r3]
 8002afc:	4630      	mov	r0, r6
 8002afe:	f000 fbb8 	bl	8003272 <__malloc_unlock>
 8002b02:	f104 000b 	add.w	r0, r4, #11
 8002b06:	1d23      	adds	r3, r4, #4
 8002b08:	f020 0007 	bic.w	r0, r0, #7
 8002b0c:	1ac3      	subs	r3, r0, r3
 8002b0e:	d01b      	beq.n	8002b48 <_malloc_r+0xb0>
 8002b10:	425a      	negs	r2, r3
 8002b12:	50e2      	str	r2, [r4, r3]
 8002b14:	bd70      	pop	{r4, r5, r6, pc}
 8002b16:	428c      	cmp	r4, r1
 8002b18:	bf0b      	itete	eq
 8002b1a:	6863      	ldreq	r3, [r4, #4]
 8002b1c:	684b      	ldrne	r3, [r1, #4]
 8002b1e:	6013      	streq	r3, [r2, #0]
 8002b20:	6063      	strne	r3, [r4, #4]
 8002b22:	bf18      	it	ne
 8002b24:	460c      	movne	r4, r1
 8002b26:	e7e9      	b.n	8002afc <_malloc_r+0x64>
 8002b28:	460c      	mov	r4, r1
 8002b2a:	6849      	ldr	r1, [r1, #4]
 8002b2c:	e7ca      	b.n	8002ac4 <_malloc_r+0x2c>
 8002b2e:	1cc4      	adds	r4, r0, #3
 8002b30:	f024 0403 	bic.w	r4, r4, #3
 8002b34:	42a0      	cmp	r0, r4
 8002b36:	d005      	beq.n	8002b44 <_malloc_r+0xac>
 8002b38:	1a21      	subs	r1, r4, r0
 8002b3a:	4630      	mov	r0, r6
 8002b3c:	f000 fae0 	bl	8003100 <_sbrk_r>
 8002b40:	3001      	adds	r0, #1
 8002b42:	d0cd      	beq.n	8002ae0 <_malloc_r+0x48>
 8002b44:	6025      	str	r5, [r4, #0]
 8002b46:	e7d9      	b.n	8002afc <_malloc_r+0x64>
 8002b48:	bd70      	pop	{r4, r5, r6, pc}
 8002b4a:	bf00      	nop
 8002b4c:	20000460 	.word	0x20000460
 8002b50:	20000464 	.word	0x20000464

08002b54 <__sfputc_r>:
 8002b54:	6893      	ldr	r3, [r2, #8]
 8002b56:	b410      	push	{r4}
 8002b58:	3b01      	subs	r3, #1
 8002b5a:	2b00      	cmp	r3, #0
 8002b5c:	6093      	str	r3, [r2, #8]
 8002b5e:	da08      	bge.n	8002b72 <__sfputc_r+0x1e>
 8002b60:	6994      	ldr	r4, [r2, #24]
 8002b62:	42a3      	cmp	r3, r4
 8002b64:	db02      	blt.n	8002b6c <__sfputc_r+0x18>
 8002b66:	b2cb      	uxtb	r3, r1
 8002b68:	2b0a      	cmp	r3, #10
 8002b6a:	d102      	bne.n	8002b72 <__sfputc_r+0x1e>
 8002b6c:	bc10      	pop	{r4}
 8002b6e:	f7ff bc9f 	b.w	80024b0 <__swbuf_r>
 8002b72:	6813      	ldr	r3, [r2, #0]
 8002b74:	1c58      	adds	r0, r3, #1
 8002b76:	6010      	str	r0, [r2, #0]
 8002b78:	7019      	strb	r1, [r3, #0]
 8002b7a:	b2c8      	uxtb	r0, r1
 8002b7c:	bc10      	pop	{r4}
 8002b7e:	4770      	bx	lr

08002b80 <__sfputs_r>:
 8002b80:	b5f8      	push	{r3, r4, r5, r6, r7, lr}
 8002b82:	4606      	mov	r6, r0
 8002b84:	460f      	mov	r7, r1
 8002b86:	4614      	mov	r4, r2
 8002b88:	18d5      	adds	r5, r2, r3
 8002b8a:	42ac      	cmp	r4, r5
 8002b8c:	d101      	bne.n	8002b92 <__sfputs_r+0x12>
 8002b8e:	2000      	movs	r0, #0
 8002b90:	e007      	b.n	8002ba2 <__sfputs_r+0x22>
 8002b92:	463a      	mov	r2, r7
 8002b94:	f814 1b01 	ldrb.w	r1, [r4], #1
 8002b98:	4630      	mov	r0, r6
 8002b9a:	f7ff ffdb 	bl	8002b54 <__sfputc_r>
 8002b9e:	1c43      	adds	r3, r0, #1
 8002ba0:	d1f3      	bne.n	8002b8a <__sfputs_r+0xa>
 8002ba2:	bdf8      	pop	{r3, r4, r5, r6, r7, pc}

08002ba4 <_vfiprintf_r>:
 8002ba4:	e92d 4ff0 	stmdb	sp!, {r4, r5, r6, r7, r8, r9, sl, fp, lr}
 8002ba8:	b09d      	sub	sp, #116	; 0x74
 8002baa:	460c      	mov	r4, r1
 8002bac:	4617      	mov	r7, r2
 8002bae:	9303      	str	r3, [sp, #12]
 8002bb0:	4606      	mov	r6, r0
 8002bb2:	b118      	cbz	r0, 8002bbc <_vfiprintf_r+0x18>
 8002bb4:	6983      	ldr	r3, [r0, #24]
 8002bb6:	b90b      	cbnz	r3, 8002bbc <_vfiprintf_r+0x18>
 8002bb8:	f7ff fe2c 	bl	8002814 <__sinit>
 8002bbc:	4b7c      	ldr	r3, [pc, #496]	; (8002db0 <_vfiprintf_r+0x20c>)
 8002bbe:	429c      	cmp	r4, r3
 8002bc0:	d157      	bne.n	8002c72 <_vfiprintf_r+0xce>
 8002bc2:	6874      	ldr	r4, [r6, #4]
 8002bc4:	89a3      	ldrh	r3, [r4, #12]
 8002bc6:	0718      	lsls	r0, r3, #28
 8002bc8:	d55d      	bpl.n	8002c86 <_vfiprintf_r+0xe2>
 8002bca:	6923      	ldr	r3, [r4, #16]
 8002bcc:	2b00      	cmp	r3, #0
 8002bce:	d05a      	beq.n	8002c86 <_vfiprintf_r+0xe2>
 8002bd0:	2300      	movs	r3, #0
 8002bd2:	9309      	str	r3, [sp, #36]	; 0x24
 8002bd4:	2320      	movs	r3, #32
 8002bd6:	f88d 3029 	strb.w	r3, [sp, #41]	; 0x29
 8002bda:	2330      	movs	r3, #48	; 0x30
 8002bdc:	f04f 0b01 	mov.w	fp, #1
 8002be0:	f88d 302a 	strb.w	r3, [sp, #42]	; 0x2a
 8002be4:	46b8      	mov	r8, r7
 8002be6:	4645      	mov	r5, r8
 8002be8:	f815 3b01 	ldrb.w	r3, [r5], #1
 8002bec:	2b00      	cmp	r3, #0
 8002bee:	d155      	bne.n	8002c9c <_vfiprintf_r+0xf8>
 8002bf0:	ebb8 0a07 	subs.w	sl, r8, r7
 8002bf4:	d00b      	beq.n	8002c0e <_vfiprintf_r+0x6a>
 8002bf6:	4653      	mov	r3, sl
 8002bf8:	463a      	mov	r2, r7
 8002bfa:	4621      	mov	r1, r4
 8002bfc:	4630      	mov	r0, r6
 8002bfe:	f7ff ffbf 	bl	8002b80 <__sfputs_r>
 8002c02:	3001      	adds	r0, #1
 8002c04:	f000 80c4 	beq.w	8002d90 <_vfiprintf_r+0x1ec>
 8002c08:	9b09      	ldr	r3, [sp, #36]	; 0x24
 8002c0a:	4453      	add	r3, sl
 8002c0c:	9309      	str	r3, [sp, #36]	; 0x24
 8002c0e:	f898 3000 	ldrb.w	r3, [r8]
 8002c12:	2b00      	cmp	r3, #0
 8002c14:	f000 80bc 	beq.w	8002d90 <_vfiprintf_r+0x1ec>
 8002c18:	2300      	movs	r3, #0
 8002c1a:	f04f 32ff 	mov.w	r2, #4294967295
 8002c1e:	9304      	str	r3, [sp, #16]
 8002c20:	9307      	str	r3, [sp, #28]
 8002c22:	9205      	str	r2, [sp, #20]
 8002c24:	9306      	str	r3, [sp, #24]
 8002c26:	f88d 3053 	strb.w	r3, [sp, #83]	; 0x53
 8002c2a:	931a      	str	r3, [sp, #104]	; 0x68
 8002c2c:	2205      	movs	r2, #5
 8002c2e:	7829      	ldrb	r1, [r5, #0]
 8002c30:	4860      	ldr	r0, [pc, #384]	; (8002db4 <_vfiprintf_r+0x210>)
 8002c32:	f000 fb0f 	bl	8003254 <memchr>
 8002c36:	f105 0801 	add.w	r8, r5, #1
 8002c3a:	9b04      	ldr	r3, [sp, #16]
 8002c3c:	2800      	cmp	r0, #0
 8002c3e:	d131      	bne.n	8002ca4 <_vfiprintf_r+0x100>
 8002c40:	06d9      	lsls	r1, r3, #27
 8002c42:	bf44      	itt	mi
 8002c44:	2220      	movmi	r2, #32
 8002c46:	f88d 2053 	strbmi.w	r2, [sp, #83]	; 0x53
 8002c4a:	071a      	lsls	r2, r3, #28
 8002c4c:	bf44      	itt	mi
 8002c4e:	222b      	movmi	r2, #43	; 0x2b
 8002c50:	f88d 2053 	strbmi.w	r2, [sp, #83]	; 0x53
 8002c54:	782a      	ldrb	r2, [r5, #0]
 8002c56:	2a2a      	cmp	r2, #42	; 0x2a
 8002c58:	d02c      	beq.n	8002cb4 <_vfiprintf_r+0x110>
 8002c5a:	2100      	movs	r1, #0
 8002c5c:	200a      	movs	r0, #10
 8002c5e:	9a07      	ldr	r2, [sp, #28]
 8002c60:	46a8      	mov	r8, r5
 8002c62:	f898 3000 	ldrb.w	r3, [r8]
 8002c66:	3501      	adds	r5, #1
 8002c68:	3b30      	subs	r3, #48	; 0x30
 8002c6a:	2b09      	cmp	r3, #9
 8002c6c:	d96d      	bls.n	8002d4a <_vfiprintf_r+0x1a6>
 8002c6e:	b371      	cbz	r1, 8002cce <_vfiprintf_r+0x12a>
 8002c70:	e026      	b.n	8002cc0 <_vfiprintf_r+0x11c>
 8002c72:	4b51      	ldr	r3, [pc, #324]	; (8002db8 <_vfiprintf_r+0x214>)
 8002c74:	429c      	cmp	r4, r3
 8002c76:	d101      	bne.n	8002c7c <_vfiprintf_r+0xd8>
 8002c78:	68b4      	ldr	r4, [r6, #8]
 8002c7a:	e7a3      	b.n	8002bc4 <_vfiprintf_r+0x20>
 8002c7c:	4b4f      	ldr	r3, [pc, #316]	; (8002dbc <_vfiprintf_r+0x218>)
 8002c7e:	429c      	cmp	r4, r3
 8002c80:	bf08      	it	eq
 8002c82:	68f4      	ldreq	r4, [r6, #12]
 8002c84:	e79e      	b.n	8002bc4 <_vfiprintf_r+0x20>
 8002c86:	4621      	mov	r1, r4
 8002c88:	4630      	mov	r0, r6
 8002c8a:	f7ff fc63 	bl	8002554 <__swsetup_r>
 8002c8e:	2800      	cmp	r0, #0
 8002c90:	d09e      	beq.n	8002bd0 <_vfiprintf_r+0x2c>
 8002c92:	f04f 30ff 	mov.w	r0, #4294967295
 8002c96:	b01d      	add	sp, #116	; 0x74
 8002c98:	e8bd 8ff0 	ldmia.w	sp!, {r4, r5, r6, r7, r8, r9, sl, fp, pc}
 8002c9c:	2b25      	cmp	r3, #37	; 0x25
 8002c9e:	d0a7      	beq.n	8002bf0 <_vfiprintf_r+0x4c>
 8002ca0:	46a8      	mov	r8, r5
 8002ca2:	e7a0      	b.n	8002be6 <_vfiprintf_r+0x42>
 8002ca4:	4a43      	ldr	r2, [pc, #268]	; (8002db4 <_vfiprintf_r+0x210>)
 8002ca6:	4645      	mov	r5, r8
 8002ca8:	1a80      	subs	r0, r0, r2
 8002caa:	fa0b f000 	lsl.w	r0, fp, r0
 8002cae:	4318      	orrs	r0, r3
 8002cb0:	9004      	str	r0, [sp, #16]
 8002cb2:	e7bb      	b.n	8002c2c <_vfiprintf_r+0x88>
 8002cb4:	9a03      	ldr	r2, [sp, #12]
 8002cb6:	1d11      	adds	r1, r2, #4
 8002cb8:	6812      	ldr	r2, [r2, #0]
 8002cba:	9103      	str	r1, [sp, #12]
 8002cbc:	2a00      	cmp	r2, #0
 8002cbe:	db01      	blt.n	8002cc4 <_vfiprintf_r+0x120>
 8002cc0:	9207      	str	r2, [sp, #28]
 8002cc2:	e004      	b.n	8002cce <_vfiprintf_r+0x12a>
 8002cc4:	4252      	negs	r2, r2
 8002cc6:	f043 0302 	orr.w	r3, r3, #2
 8002cca:	9207      	str	r2, [sp, #28]
 8002ccc:	9304      	str	r3, [sp, #16]
 8002cce:	f898 3000 	ldrb.w	r3, [r8]
 8002cd2:	2b2e      	cmp	r3, #46	; 0x2e
 8002cd4:	d110      	bne.n	8002cf8 <_vfiprintf_r+0x154>
 8002cd6:	f898 3001 	ldrb.w	r3, [r8, #1]
 8002cda:	f108 0101 	add.w	r1, r8, #1
 8002cde:	2b2a      	cmp	r3, #42	; 0x2a
 8002ce0:	d137      	bne.n	8002d52 <_vfiprintf_r+0x1ae>
 8002ce2:	9b03      	ldr	r3, [sp, #12]
 8002ce4:	f108 0802 	add.w	r8, r8, #2
 8002ce8:	1d1a      	adds	r2, r3, #4
 8002cea:	681b      	ldr	r3, [r3, #0]
 8002cec:	9203      	str	r2, [sp, #12]
 8002cee:	2b00      	cmp	r3, #0
 8002cf0:	bfb8      	it	lt
 8002cf2:	f04f 33ff 	movlt.w	r3, #4294967295
 8002cf6:	9305      	str	r3, [sp, #20]
 8002cf8:	4d31      	ldr	r5, [pc, #196]	; (8002dc0 <_vfiprintf_r+0x21c>)
 8002cfa:	2203      	movs	r2, #3
 8002cfc:	f898 1000 	ldrb.w	r1, [r8]
 8002d00:	4628      	mov	r0, r5
 8002d02:	f000 faa7 	bl	8003254 <memchr>
 8002d06:	b140      	cbz	r0, 8002d1a <_vfiprintf_r+0x176>
 8002d08:	2340      	movs	r3, #64	; 0x40
 8002d0a:	1b40      	subs	r0, r0, r5
 8002d0c:	fa03 f000 	lsl.w	r0, r3, r0
 8002d10:	9b04      	ldr	r3, [sp, #16]
 8002d12:	f108 0801 	add.w	r8, r8, #1
 8002d16:	4303      	orrs	r3, r0
 8002d18:	9304      	str	r3, [sp, #16]
 8002d1a:	f898 1000 	ldrb.w	r1, [r8]
 8002d1e:	2206      	movs	r2, #6
 8002d20:	4828      	ldr	r0, [pc, #160]	; (8002dc4 <_vfiprintf_r+0x220>)
 8002d22:	f108 0701 	add.w	r7, r8, #1
 8002d26:	f88d 1028 	strb.w	r1, [sp, #40]	; 0x28
 8002d2a:	f000 fa93 	bl	8003254 <memchr>
 8002d2e:	2800      	cmp	r0, #0
 8002d30:	d034      	beq.n	8002d9c <_vfiprintf_r+0x1f8>
 8002d32:	4b25      	ldr	r3, [pc, #148]	; (8002dc8 <_vfiprintf_r+0x224>)
 8002d34:	bb03      	cbnz	r3, 8002d78 <_vfiprintf_r+0x1d4>
 8002d36:	9b03      	ldr	r3, [sp, #12]
 8002d38:	3307      	adds	r3, #7
 8002d3a:	f023 0307 	bic.w	r3, r3, #7
 8002d3e:	3308      	adds	r3, #8
 8002d40:	9303      	str	r3, [sp, #12]
 8002d42:	9b09      	ldr	r3, [sp, #36]	; 0x24
 8002d44:	444b      	add	r3, r9
 8002d46:	9309      	str	r3, [sp, #36]	; 0x24
 8002d48:	e74c      	b.n	8002be4 <_vfiprintf_r+0x40>
 8002d4a:	fb00 3202 	mla	r2, r0, r2, r3
 8002d4e:	2101      	movs	r1, #1
 8002d50:	e786      	b.n	8002c60 <_vfiprintf_r+0xbc>
 8002d52:	2300      	movs	r3, #0
 8002d54:	250a      	movs	r5, #10
 8002d56:	4618      	mov	r0, r3
 8002d58:	9305      	str	r3, [sp, #20]
 8002d5a:	4688      	mov	r8, r1
 8002d5c:	f898 2000 	ldrb.w	r2, [r8]
 8002d60:	3101      	adds	r1, #1
 8002d62:	3a30      	subs	r2, #48	; 0x30
 8002d64:	2a09      	cmp	r2, #9
 8002d66:	d903      	bls.n	8002d70 <_vfiprintf_r+0x1cc>
 8002d68:	2b00      	cmp	r3, #0
 8002d6a:	d0c5      	beq.n	8002cf8 <_vfiprintf_r+0x154>
 8002d6c:	9005      	str	r0, [sp, #20]
 8002d6e:	e7c3      	b.n	8002cf8 <_vfiprintf_r+0x154>
 8002d70:	fb05 2000 	mla	r0, r5, r0, r2
 8002d74:	2301      	movs	r3, #1
 8002d76:	e7f0      	b.n	8002d5a <_vfiprintf_r+0x1b6>
 8002d78:	ab03      	add	r3, sp, #12
 8002d7a:	9300      	str	r3, [sp, #0]
 8002d7c:	4622      	mov	r2, r4
 8002d7e:	4b13      	ldr	r3, [pc, #76]	; (8002dcc <_vfiprintf_r+0x228>)
 8002d80:	a904      	add	r1, sp, #16
 8002d82:	4630      	mov	r0, r6
 8002d84:	f3af 8000 	nop.w
 8002d88:	f1b0 3fff 	cmp.w	r0, #4294967295
 8002d8c:	4681      	mov	r9, r0
 8002d8e:	d1d8      	bne.n	8002d42 <_vfiprintf_r+0x19e>
 8002d90:	89a3      	ldrh	r3, [r4, #12]
 8002d92:	065b      	lsls	r3, r3, #25
 8002d94:	f53f af7d 	bmi.w	8002c92 <_vfiprintf_r+0xee>
 8002d98:	9809      	ldr	r0, [sp, #36]	; 0x24
 8002d9a:	e77c      	b.n	8002c96 <_vfiprintf_r+0xf2>
 8002d9c:	ab03      	add	r3, sp, #12
 8002d9e:	9300      	str	r3, [sp, #0]
 8002da0:	4622      	mov	r2, r4
 8002da2:	4b0a      	ldr	r3, [pc, #40]	; (8002dcc <_vfiprintf_r+0x228>)
 8002da4:	a904      	add	r1, sp, #16
 8002da6:	4630      	mov	r0, r6
 8002da8:	f000 f88a 	bl	8002ec0 <_printf_i>
 8002dac:	e7ec      	b.n	8002d88 <_vfiprintf_r+0x1e4>
 8002dae:	bf00      	nop
 8002db0:	08009fe8 	.word	0x08009fe8
 8002db4:	0800a028 	.word	0x0800a028
 8002db8:	0800a008 	.word	0x0800a008
 8002dbc:	08009fc8 	.word	0x08009fc8
 8002dc0:	0800a02e 	.word	0x0800a02e
 8002dc4:	0800a032 	.word	0x0800a032
 8002dc8:	00000000 	.word	0x00000000
 8002dcc:	08002b81 	.word	0x08002b81

08002dd0 <_printf_common>:
 8002dd0:	e92d 47f0 	stmdb	sp!, {r4, r5, r6, r7, r8, r9, sl, lr}
 8002dd4:	4691      	mov	r9, r2
 8002dd6:	461f      	mov	r7, r3
 8002dd8:	688a      	ldr	r2, [r1, #8]
 8002dda:	690b      	ldr	r3, [r1, #16]
 8002ddc:	4606      	mov	r6, r0
 8002dde:	4293      	cmp	r3, r2
 8002de0:	bfb8      	it	lt
 8002de2:	4613      	movlt	r3, r2
 8002de4:	f8c9 3000 	str.w	r3, [r9]
 8002de8:	f891 2043 	ldrb.w	r2, [r1, #67]	; 0x43
 8002dec:	460c      	mov	r4, r1
 8002dee:	f8dd 8020 	ldr.w	r8, [sp, #32]
 8002df2:	b112      	cbz	r2, 8002dfa <_printf_common+0x2a>
 8002df4:	3301      	adds	r3, #1
 8002df6:	f8c9 3000 	str.w	r3, [r9]
 8002dfa:	6823      	ldr	r3, [r4, #0]
 8002dfc:	0699      	lsls	r1, r3, #26
 8002dfe:	bf42      	ittt	mi
 8002e00:	f8d9 3000 	ldrmi.w	r3, [r9]
 8002e04:	3302      	addmi	r3, #2
 8002e06:	f8c9 3000 	strmi.w	r3, [r9]
 8002e0a:	6825      	ldr	r5, [r4, #0]
 8002e0c:	f015 0506 	ands.w	r5, r5, #6
 8002e10:	d107      	bne.n	8002e22 <_printf_common+0x52>
 8002e12:	f104 0a19 	add.w	sl, r4, #25
 8002e16:	68e3      	ldr	r3, [r4, #12]
 8002e18:	f8d9 2000 	ldr.w	r2, [r9]
 8002e1c:	1a9b      	subs	r3, r3, r2
 8002e1e:	429d      	cmp	r5, r3
 8002e20:	db2a      	blt.n	8002e78 <_printf_common+0xa8>
 8002e22:	f894 3043 	ldrb.w	r3, [r4, #67]	; 0x43
 8002e26:	6822      	ldr	r2, [r4, #0]
 8002e28:	3300      	adds	r3, #0
 8002e2a:	bf18      	it	ne
 8002e2c:	2301      	movne	r3, #1
 8002e2e:	0692      	lsls	r2, r2, #26
 8002e30:	d42f      	bmi.n	8002e92 <_printf_common+0xc2>
 8002e32:	f104 0243 	add.w	r2, r4, #67	; 0x43
 8002e36:	4639      	mov	r1, r7
 8002e38:	4630      	mov	r0, r6
 8002e3a:	47c0      	blx	r8
 8002e3c:	3001      	adds	r0, #1
 8002e3e:	d022      	beq.n	8002e86 <_printf_common+0xb6>
 8002e40:	6823      	ldr	r3, [r4, #0]
 8002e42:	68e5      	ldr	r5, [r4, #12]
 8002e44:	f003 0306 	and.w	r3, r3, #6
 8002e48:	2b04      	cmp	r3, #4
 8002e4a:	bf18      	it	ne
 8002e4c:	2500      	movne	r5, #0
 8002e4e:	f8d9 2000 	ldr.w	r2, [r9]
 8002e52:	f04f 0900 	mov.w	r9, #0
 8002e56:	bf08      	it	eq
 8002e58:	1aad      	subeq	r5, r5, r2
 8002e5a:	68a3      	ldr	r3, [r4, #8]
 8002e5c:	6922      	ldr	r2, [r4, #16]
 8002e5e:	bf08      	it	eq
 8002e60:	ea25 75e5 	biceq.w	r5, r5, r5, asr #31
 8002e64:	4293      	cmp	r3, r2
 8002e66:	bfc4      	itt	gt
 8002e68:	1a9b      	subgt	r3, r3, r2
 8002e6a:	18ed      	addgt	r5, r5, r3
 8002e6c:	341a      	adds	r4, #26
 8002e6e:	454d      	cmp	r5, r9
 8002e70:	d11b      	bne.n	8002eaa <_printf_common+0xda>
 8002e72:	2000      	movs	r0, #0
 8002e74:	e8bd 87f0 	ldmia.w	sp!, {r4, r5, r6, r7, r8, r9, sl, pc}
 8002e78:	2301      	movs	r3, #1
 8002e7a:	4652      	mov	r2, sl
 8002e7c:	4639      	mov	r1, r7
 8002e7e:	4630      	mov	r0, r6
 8002e80:	47c0      	blx	r8
 8002e82:	3001      	adds	r0, #1
 8002e84:	d103      	bne.n	8002e8e <_printf_common+0xbe>
 8002e86:	f04f 30ff 	mov.w	r0, #4294967295
 8002e8a:	e8bd 87f0 	ldmia.w	sp!, {r4, r5, r6, r7, r8, r9, sl, pc}
 8002e8e:	3501      	adds	r5, #1
 8002e90:	e7c1      	b.n	8002e16 <_printf_common+0x46>
 8002e92:	2030      	movs	r0, #48	; 0x30
 8002e94:	18e1      	adds	r1, r4, r3
 8002e96:	f881 0043 	strb.w	r0, [r1, #67]	; 0x43
 8002e9a:	1c5a      	adds	r2, r3, #1
 8002e9c:	f894 1045 	ldrb.w	r1, [r4, #69]	; 0x45
 8002ea0:	4422      	add	r2, r4
 8002ea2:	3302      	adds	r3, #2
 8002ea4:	f882 1043 	strb.w	r1, [r2, #67]	; 0x43
 8002ea8:	e7c3      	b.n	8002e32 <_printf_common+0x62>
 8002eaa:	2301      	movs	r3, #1
 8002eac:	4622      	mov	r2, r4
 8002eae:	4639      	mov	r1, r7
 8002eb0:	4630      	mov	r0, r6
 8002eb2:	47c0      	blx	r8
 8002eb4:	3001      	adds	r0, #1
 8002eb6:	d0e6      	beq.n	8002e86 <_printf_common+0xb6>
 8002eb8:	f109 0901 	add.w	r9, r9, #1
 8002ebc:	e7d7      	b.n	8002e6e <_printf_common+0x9e>
	...

08002ec0 <_printf_i>:
 8002ec0:	e92d 43f0 	stmdb	sp!, {r4, r5, r6, r7, r8, r9, lr}
 8002ec4:	4617      	mov	r7, r2
 8002ec6:	7e0a      	ldrb	r2, [r1, #24]
 8002ec8:	b085      	sub	sp, #20
 8002eca:	2a6e      	cmp	r2, #110	; 0x6e
 8002ecc:	4698      	mov	r8, r3
 8002ece:	4606      	mov	r6, r0
 8002ed0:	460c      	mov	r4, r1
 8002ed2:	9b0c      	ldr	r3, [sp, #48]	; 0x30
 8002ed4:	f101 0e43 	add.w	lr, r1, #67	; 0x43
 8002ed8:	f000 80bc 	beq.w	8003054 <_printf_i+0x194>
 8002edc:	d81a      	bhi.n	8002f14 <_printf_i+0x54>
 8002ede:	2a63      	cmp	r2, #99	; 0x63
 8002ee0:	d02e      	beq.n	8002f40 <_printf_i+0x80>
 8002ee2:	d80a      	bhi.n	8002efa <_printf_i+0x3a>
 8002ee4:	2a00      	cmp	r2, #0
 8002ee6:	f000 80c8 	beq.w	800307a <_printf_i+0x1ba>
 8002eea:	2a58      	cmp	r2, #88	; 0x58
 8002eec:	f000 808a 	beq.w	8003004 <_printf_i+0x144>
 8002ef0:	f104 0542 	add.w	r5, r4, #66	; 0x42
 8002ef4:	f884 2042 	strb.w	r2, [r4, #66]	; 0x42
 8002ef8:	e02a      	b.n	8002f50 <_printf_i+0x90>
 8002efa:	2a64      	cmp	r2, #100	; 0x64
 8002efc:	d001      	beq.n	8002f02 <_printf_i+0x42>
 8002efe:	2a69      	cmp	r2, #105	; 0x69
 8002f00:	d1f6      	bne.n	8002ef0 <_printf_i+0x30>
 8002f02:	6821      	ldr	r1, [r4, #0]
 8002f04:	681a      	ldr	r2, [r3, #0]
 8002f06:	f011 0f80 	tst.w	r1, #128	; 0x80
 8002f0a:	d023      	beq.n	8002f54 <_printf_i+0x94>
 8002f0c:	1d11      	adds	r1, r2, #4
 8002f0e:	6019      	str	r1, [r3, #0]
 8002f10:	6813      	ldr	r3, [r2, #0]
 8002f12:	e027      	b.n	8002f64 <_printf_i+0xa4>
 8002f14:	2a73      	cmp	r2, #115	; 0x73
 8002f16:	f000 80b4 	beq.w	8003082 <_printf_i+0x1c2>
 8002f1a:	d808      	bhi.n	8002f2e <_printf_i+0x6e>
 8002f1c:	2a6f      	cmp	r2, #111	; 0x6f
 8002f1e:	d02a      	beq.n	8002f76 <_printf_i+0xb6>
 8002f20:	2a70      	cmp	r2, #112	; 0x70
 8002f22:	d1e5      	bne.n	8002ef0 <_printf_i+0x30>
 8002f24:	680a      	ldr	r2, [r1, #0]
 8002f26:	f042 0220 	orr.w	r2, r2, #32
 8002f2a:	600a      	str	r2, [r1, #0]
 8002f2c:	e003      	b.n	8002f36 <_printf_i+0x76>
 8002f2e:	2a75      	cmp	r2, #117	; 0x75
 8002f30:	d021      	beq.n	8002f76 <_printf_i+0xb6>
 8002f32:	2a78      	cmp	r2, #120	; 0x78
 8002f34:	d1dc      	bne.n	8002ef0 <_printf_i+0x30>
 8002f36:	2278      	movs	r2, #120	; 0x78
 8002f38:	496f      	ldr	r1, [pc, #444]	; (80030f8 <_printf_i+0x238>)
 8002f3a:	f884 2045 	strb.w	r2, [r4, #69]	; 0x45
 8002f3e:	e064      	b.n	800300a <_printf_i+0x14a>
 8002f40:	681a      	ldr	r2, [r3, #0]
 8002f42:	f101 0542 	add.w	r5, r1, #66	; 0x42
 8002f46:	1d11      	adds	r1, r2, #4
 8002f48:	6019      	str	r1, [r3, #0]
 8002f4a:	6813      	ldr	r3, [r2, #0]
 8002f4c:	f884 3042 	strb.w	r3, [r4, #66]	; 0x42
 8002f50:	2301      	movs	r3, #1
 8002f52:	e0a3      	b.n	800309c <_printf_i+0x1dc>
 8002f54:	f011 0f40 	tst.w	r1, #64	; 0x40
 8002f58:	f102 0104 	add.w	r1, r2, #4
 8002f5c:	6019      	str	r1, [r3, #0]
 8002f5e:	d0d7      	beq.n	8002f10 <_printf_i+0x50>
 8002f60:	f9b2 3000 	ldrsh.w	r3, [r2]
 8002f64:	2b00      	cmp	r3, #0
 8002f66:	da03      	bge.n	8002f70 <_printf_i+0xb0>
 8002f68:	222d      	movs	r2, #45	; 0x2d
 8002f6a:	425b      	negs	r3, r3
 8002f6c:	f884 2043 	strb.w	r2, [r4, #67]	; 0x43
 8002f70:	4962      	ldr	r1, [pc, #392]	; (80030fc <_printf_i+0x23c>)
 8002f72:	220a      	movs	r2, #10
 8002f74:	e017      	b.n	8002fa6 <_printf_i+0xe6>
 8002f76:	6820      	ldr	r0, [r4, #0]
 8002f78:	6819      	ldr	r1, [r3, #0]
 8002f7a:	f010 0f80 	tst.w	r0, #128	; 0x80
 8002f7e:	d003      	beq.n	8002f88 <_printf_i+0xc8>
 8002f80:	1d08      	adds	r0, r1, #4
 8002f82:	6018      	str	r0, [r3, #0]
 8002f84:	680b      	ldr	r3, [r1, #0]
 8002f86:	e006      	b.n	8002f96 <_printf_i+0xd6>
 8002f88:	f010 0f40 	tst.w	r0, #64	; 0x40
 8002f8c:	f101 0004 	add.w	r0, r1, #4
 8002f90:	6018      	str	r0, [r3, #0]
 8002f92:	d0f7      	beq.n	8002f84 <_printf_i+0xc4>
 8002f94:	880b      	ldrh	r3, [r1, #0]
 8002f96:	2a6f      	cmp	r2, #111	; 0x6f
 8002f98:	bf14      	ite	ne
 8002f9a:	220a      	movne	r2, #10
 8002f9c:	2208      	moveq	r2, #8
 8002f9e:	4957      	ldr	r1, [pc, #348]	; (80030fc <_printf_i+0x23c>)
 8002fa0:	2000      	movs	r0, #0
 8002fa2:	f884 0043 	strb.w	r0, [r4, #67]	; 0x43
 8002fa6:	6865      	ldr	r5, [r4, #4]
 8002fa8:	2d00      	cmp	r5, #0
 8002faa:	60a5      	str	r5, [r4, #8]
 8002fac:	f2c0 809c 	blt.w	80030e8 <_printf_i+0x228>
 8002fb0:	6820      	ldr	r0, [r4, #0]
 8002fb2:	f020 0004 	bic.w	r0, r0, #4
 8002fb6:	6020      	str	r0, [r4, #0]
 8002fb8:	2b00      	cmp	r3, #0
 8002fba:	d13f      	bne.n	800303c <_printf_i+0x17c>
 8002fbc:	2d00      	cmp	r5, #0
 8002fbe:	f040 8095 	bne.w	80030ec <_printf_i+0x22c>
 8002fc2:	4675      	mov	r5, lr
 8002fc4:	2a08      	cmp	r2, #8
 8002fc6:	d10b      	bne.n	8002fe0 <_printf_i+0x120>
 8002fc8:	6823      	ldr	r3, [r4, #0]
 8002fca:	07da      	lsls	r2, r3, #31
 8002fcc:	d508      	bpl.n	8002fe0 <_printf_i+0x120>
 8002fce:	6923      	ldr	r3, [r4, #16]
 8002fd0:	6862      	ldr	r2, [r4, #4]
 8002fd2:	429a      	cmp	r2, r3
 8002fd4:	bfde      	ittt	le
 8002fd6:	2330      	movle	r3, #48	; 0x30
 8002fd8:	f805 3c01 	strble.w	r3, [r5, #-1]
 8002fdc:	f105 35ff 	addle.w	r5, r5, #4294967295
 8002fe0:	ebae 0305 	sub.w	r3, lr, r5
 8002fe4:	6123      	str	r3, [r4, #16]
 8002fe6:	f8cd 8000 	str.w	r8, [sp]
 8002fea:	463b      	mov	r3, r7
 8002fec:	aa03      	add	r2, sp, #12
 8002fee:	4621      	mov	r1, r4
 8002ff0:	4630      	mov	r0, r6
 8002ff2:	f7ff feed 	bl	8002dd0 <_printf_common>
 8002ff6:	3001      	adds	r0, #1
 8002ff8:	d155      	bne.n	80030a6 <_printf_i+0x1e6>
 8002ffa:	f04f 30ff 	mov.w	r0, #4294967295
 8002ffe:	b005      	add	sp, #20
 8003000:	e8bd 83f0 	ldmia.w	sp!, {r4, r5, r6, r7, r8, r9, pc}
 8003004:	f881 2045 	strb.w	r2, [r1, #69]	; 0x45
 8003008:	493c      	ldr	r1, [pc, #240]	; (80030fc <_printf_i+0x23c>)
 800300a:	6822      	ldr	r2, [r4, #0]
 800300c:	6818      	ldr	r0, [r3, #0]
 800300e:	f012 0f80 	tst.w	r2, #128	; 0x80
 8003012:	f100 0504 	add.w	r5, r0, #4
 8003016:	601d      	str	r5, [r3, #0]
 8003018:	d001      	beq.n	800301e <_printf_i+0x15e>
 800301a:	6803      	ldr	r3, [r0, #0]
 800301c:	e002      	b.n	8003024 <_printf_i+0x164>
 800301e:	0655      	lsls	r5, r2, #25
 8003020:	d5fb      	bpl.n	800301a <_printf_i+0x15a>
 8003022:	8803      	ldrh	r3, [r0, #0]
 8003024:	07d0      	lsls	r0, r2, #31
 8003026:	bf44      	itt	mi
 8003028:	f042 0220 	orrmi.w	r2, r2, #32
 800302c:	6022      	strmi	r2, [r4, #0]
 800302e:	b91b      	cbnz	r3, 8003038 <_printf_i+0x178>
 8003030:	6822      	ldr	r2, [r4, #0]
 8003032:	f022 0220 	bic.w	r2, r2, #32
 8003036:	6022      	str	r2, [r4, #0]
 8003038:	2210      	movs	r2, #16
 800303a:	e7b1      	b.n	8002fa0 <_printf_i+0xe0>
 800303c:	4675      	mov	r5, lr
 800303e:	fbb3 f0f2 	udiv	r0, r3, r2
 8003042:	fb02 3310 	mls	r3, r2, r0, r3
 8003046:	5ccb      	ldrb	r3, [r1, r3]
 8003048:	f805 3d01 	strb.w	r3, [r5, #-1]!
 800304c:	4603      	mov	r3, r0
 800304e:	2800      	cmp	r0, #0
 8003050:	d1f5      	bne.n	800303e <_printf_i+0x17e>
 8003052:	e7b7      	b.n	8002fc4 <_printf_i+0x104>
 8003054:	6808      	ldr	r0, [r1, #0]
 8003056:	681a      	ldr	r2, [r3, #0]
 8003058:	f010 0f80 	tst.w	r0, #128	; 0x80
 800305c:	6949      	ldr	r1, [r1, #20]
 800305e:	d004      	beq.n	800306a <_printf_i+0x1aa>
 8003060:	1d10      	adds	r0, r2, #4
 8003062:	6018      	str	r0, [r3, #0]
 8003064:	6813      	ldr	r3, [r2, #0]
 8003066:	6019      	str	r1, [r3, #0]
 8003068:	e007      	b.n	800307a <_printf_i+0x1ba>
 800306a:	f010 0f40 	tst.w	r0, #64	; 0x40
 800306e:	f102 0004 	add.w	r0, r2, #4
 8003072:	6018      	str	r0, [r3, #0]
 8003074:	6813      	ldr	r3, [r2, #0]
 8003076:	d0f6      	beq.n	8003066 <_printf_i+0x1a6>
 8003078:	8019      	strh	r1, [r3, #0]
 800307a:	2300      	movs	r3, #0
 800307c:	4675      	mov	r5, lr
 800307e:	6123      	str	r3, [r4, #16]
 8003080:	e7b1      	b.n	8002fe6 <_printf_i+0x126>
 8003082:	681a      	ldr	r2, [r3, #0]
 8003084:	1d11      	adds	r1, r2, #4
 8003086:	6019      	str	r1, [r3, #0]
 8003088:	6815      	ldr	r5, [r2, #0]
 800308a:	2100      	movs	r1, #0
 800308c:	6862      	ldr	r2, [r4, #4]
 800308e:	4628      	mov	r0, r5
 8003090:	f000 f8e0 	bl	8003254 <memchr>
 8003094:	b108      	cbz	r0, 800309a <_printf_i+0x1da>
 8003096:	1b40      	subs	r0, r0, r5
 8003098:	6060      	str	r0, [r4, #4]
 800309a:	6863      	ldr	r3, [r4, #4]
 800309c:	6123      	str	r3, [r4, #16]
 800309e:	2300      	movs	r3, #0
 80030a0:	f884 3043 	strb.w	r3, [r4, #67]	; 0x43
 80030a4:	e79f      	b.n	8002fe6 <_printf_i+0x126>
 80030a6:	6923      	ldr	r3, [r4, #16]
 80030a8:	462a      	mov	r2, r5
 80030aa:	4639      	mov	r1, r7
 80030ac:	4630      	mov	r0, r6
 80030ae:	47c0      	blx	r8
 80030b0:	3001      	adds	r0, #1
 80030b2:	d0a2      	beq.n	8002ffa <_printf_i+0x13a>
 80030b4:	6823      	ldr	r3, [r4, #0]
 80030b6:	079b      	lsls	r3, r3, #30
 80030b8:	d507      	bpl.n	80030ca <_printf_i+0x20a>
 80030ba:	2500      	movs	r5, #0
 80030bc:	f104 0919 	add.w	r9, r4, #25
 80030c0:	68e3      	ldr	r3, [r4, #12]
 80030c2:	9a03      	ldr	r2, [sp, #12]
 80030c4:	1a9b      	subs	r3, r3, r2
 80030c6:	429d      	cmp	r5, r3
 80030c8:	db05      	blt.n	80030d6 <_printf_i+0x216>
 80030ca:	68e0      	ldr	r0, [r4, #12]
 80030cc:	9b03      	ldr	r3, [sp, #12]
 80030ce:	4298      	cmp	r0, r3
 80030d0:	bfb8      	it	lt
 80030d2:	4618      	movlt	r0, r3
 80030d4:	e793      	b.n	8002ffe <_printf_i+0x13e>
 80030d6:	2301      	movs	r3, #1
 80030d8:	464a      	mov	r2, r9
 80030da:	4639      	mov	r1, r7
 80030dc:	4630      	mov	r0, r6
 80030de:	47c0      	blx	r8
 80030e0:	3001      	adds	r0, #1
 80030e2:	d08a      	beq.n	8002ffa <_printf_i+0x13a>
 80030e4:	3501      	adds	r5, #1
 80030e6:	e7eb      	b.n	80030c0 <_printf_i+0x200>
 80030e8:	2b00      	cmp	r3, #0
 80030ea:	d1a7      	bne.n	800303c <_printf_i+0x17c>
 80030ec:	780b      	ldrb	r3, [r1, #0]
 80030ee:	f104 0542 	add.w	r5, r4, #66	; 0x42
 80030f2:	f884 3042 	strb.w	r3, [r4, #66]	; 0x42
 80030f6:	e765      	b.n	8002fc4 <_printf_i+0x104>
 80030f8:	0800a04a 	.word	0x0800a04a
 80030fc:	0800a039 	.word	0x0800a039

08003100 <_sbrk_r>:
 8003100:	b538      	push	{r3, r4, r5, lr}
 8003102:	2300      	movs	r3, #0
 8003104:	4c05      	ldr	r4, [pc, #20]	; (800311c <_sbrk_r+0x1c>)
 8003106:	4605      	mov	r5, r0
 8003108:	4608      	mov	r0, r1
 800310a:	6023      	str	r3, [r4, #0]
 800310c:	f7ff f86c 	bl	80021e8 <_sbrk>
 8003110:	1c43      	adds	r3, r0, #1
 8003112:	d102      	bne.n	800311a <_sbrk_r+0x1a>
 8003114:	6823      	ldr	r3, [r4, #0]
 8003116:	b103      	cbz	r3, 800311a <_sbrk_r+0x1a>
 8003118:	602b      	str	r3, [r5, #0]
 800311a:	bd38      	pop	{r3, r4, r5, pc}
 800311c:	200006b8 	.word	0x200006b8

08003120 <__sread>:
 8003120:	b510      	push	{r4, lr}
 8003122:	460c      	mov	r4, r1
 8003124:	f9b1 100e 	ldrsh.w	r1, [r1, #14]
 8003128:	f000 f8a4 	bl	8003274 <_read_r>
 800312c:	2800      	cmp	r0, #0
 800312e:	bfab      	itete	ge
 8003130:	6d63      	ldrge	r3, [r4, #84]	; 0x54
 8003132:	89a3      	ldrhlt	r3, [r4, #12]
 8003134:	181b      	addge	r3, r3, r0
 8003136:	f423 5380 	biclt.w	r3, r3, #4096	; 0x1000
 800313a:	bfac      	ite	ge
 800313c:	6563      	strge	r3, [r4, #84]	; 0x54
 800313e:	81a3      	strhlt	r3, [r4, #12]
 8003140:	bd10      	pop	{r4, pc}

08003142 <__swrite>:
 8003142:	e92d 41f0 	stmdb	sp!, {r4, r5, r6, r7, r8, lr}
 8003146:	461f      	mov	r7, r3
 8003148:	898b      	ldrh	r3, [r1, #12]
 800314a:	4605      	mov	r5, r0
 800314c:	05db      	lsls	r3, r3, #23
 800314e:	460c      	mov	r4, r1
 8003150:	4616      	mov	r6, r2
 8003152:	d505      	bpl.n	8003160 <__swrite+0x1e>
 8003154:	2302      	movs	r3, #2
 8003156:	2200      	movs	r2, #0
 8003158:	f9b1 100e 	ldrsh.w	r1, [r1, #14]
 800315c:	f000 f868 	bl	8003230 <_lseek_r>
 8003160:	89a3      	ldrh	r3, [r4, #12]
 8003162:	4632      	mov	r2, r6
 8003164:	f423 5380 	bic.w	r3, r3, #4096	; 0x1000
 8003168:	81a3      	strh	r3, [r4, #12]
 800316a:	f9b4 100e 	ldrsh.w	r1, [r4, #14]
 800316e:	463b      	mov	r3, r7
 8003170:	4628      	mov	r0, r5
 8003172:	e8bd 41f0 	ldmia.w	sp!, {r4, r5, r6, r7, r8, lr}
 8003176:	f000 b817 	b.w	80031a8 <_write_r>

0800317a <__sseek>:
 800317a:	b510      	push	{r4, lr}
 800317c:	460c      	mov	r4, r1
 800317e:	f9b1 100e 	ldrsh.w	r1, [r1, #14]
 8003182:	f000 f855 	bl	8003230 <_lseek_r>
 8003186:	1c43      	adds	r3, r0, #1
 8003188:	89a3      	ldrh	r3, [r4, #12]
 800318a:	bf15      	itete	ne
 800318c:	6560      	strne	r0, [r4, #84]	; 0x54
 800318e:	f423 5380 	biceq.w	r3, r3, #4096	; 0x1000
 8003192:	f443 5380 	orrne.w	r3, r3, #4096	; 0x1000
 8003196:	81a3      	strheq	r3, [r4, #12]
 8003198:	bf18      	it	ne
 800319a:	81a3      	strhne	r3, [r4, #12]
 800319c:	bd10      	pop	{r4, pc}

0800319e <__sclose>:
 800319e:	f9b1 100e 	ldrsh.w	r1, [r1, #14]
 80031a2:	f000 b813 	b.w	80031cc <_close_r>
	...

080031a8 <_write_r>:
 80031a8:	b538      	push	{r3, r4, r5, lr}
 80031aa:	4605      	mov	r5, r0
 80031ac:	4608      	mov	r0, r1
 80031ae:	4611      	mov	r1, r2
 80031b0:	2200      	movs	r2, #0
 80031b2:	4c05      	ldr	r4, [pc, #20]	; (80031c8 <_write_r+0x20>)
 80031b4:	6022      	str	r2, [r4, #0]
 80031b6:	461a      	mov	r2, r3
 80031b8:	f7fe fffc 	bl	80021b4 <_write>
 80031bc:	1c43      	adds	r3, r0, #1
 80031be:	d102      	bne.n	80031c6 <_write_r+0x1e>
 80031c0:	6823      	ldr	r3, [r4, #0]
 80031c2:	b103      	cbz	r3, 80031c6 <_write_r+0x1e>
 80031c4:	602b      	str	r3, [r5, #0]
 80031c6:	bd38      	pop	{r3, r4, r5, pc}
 80031c8:	200006b8 	.word	0x200006b8

080031cc <_close_r>:
 80031cc:	b538      	push	{r3, r4, r5, lr}
 80031ce:	2300      	movs	r3, #0
 80031d0:	4c05      	ldr	r4, [pc, #20]	; (80031e8 <_close_r+0x1c>)
 80031d2:	4605      	mov	r5, r0
 80031d4:	4608      	mov	r0, r1
 80031d6:	6023      	str	r3, [r4, #0]
 80031d8:	f7ff f814 	bl	8002204 <_close>
 80031dc:	1c43      	adds	r3, r0, #1
 80031de:	d102      	bne.n	80031e6 <_close_r+0x1a>
 80031e0:	6823      	ldr	r3, [r4, #0]
 80031e2:	b103      	cbz	r3, 80031e6 <_close_r+0x1a>
 80031e4:	602b      	str	r3, [r5, #0]
 80031e6:	bd38      	pop	{r3, r4, r5, pc}
 80031e8:	200006b8 	.word	0x200006b8

080031ec <_fstat_r>:
 80031ec:	b538      	push	{r3, r4, r5, lr}
 80031ee:	2300      	movs	r3, #0
 80031f0:	4c06      	ldr	r4, [pc, #24]	; (800320c <_fstat_r+0x20>)
 80031f2:	4605      	mov	r5, r0
 80031f4:	4608      	mov	r0, r1
 80031f6:	4611      	mov	r1, r2
 80031f8:	6023      	str	r3, [r4, #0]
 80031fa:	f7ff f80b 	bl	8002214 <_fstat>
 80031fe:	1c43      	adds	r3, r0, #1
 8003200:	d102      	bne.n	8003208 <_fstat_r+0x1c>
 8003202:	6823      	ldr	r3, [r4, #0]
 8003204:	b103      	cbz	r3, 8003208 <_fstat_r+0x1c>
 8003206:	602b      	str	r3, [r5, #0]
 8003208:	bd38      	pop	{r3, r4, r5, pc}
 800320a:	bf00      	nop
 800320c:	200006b8 	.word	0x200006b8

08003210 <_isatty_r>:
 8003210:	b538      	push	{r3, r4, r5, lr}
 8003212:	2300      	movs	r3, #0
 8003214:	4c05      	ldr	r4, [pc, #20]	; (800322c <_isatty_r+0x1c>)
 8003216:	4605      	mov	r5, r0
 8003218:	4608      	mov	r0, r1
 800321a:	6023      	str	r3, [r4, #0]
 800321c:	f7ff f802 	bl	8002224 <_isatty>
 8003220:	1c43      	adds	r3, r0, #1
 8003222:	d102      	bne.n	800322a <_isatty_r+0x1a>
 8003224:	6823      	ldr	r3, [r4, #0]
 8003226:	b103      	cbz	r3, 800322a <_isatty_r+0x1a>
 8003228:	602b      	str	r3, [r5, #0]
 800322a:	bd38      	pop	{r3, r4, r5, pc}
 800322c:	200006b8 	.word	0x200006b8

08003230 <_lseek_r>:
 8003230:	b538      	push	{r3, r4, r5, lr}
 8003232:	4605      	mov	r5, r0
 8003234:	4608      	mov	r0, r1
 8003236:	4611      	mov	r1, r2
 8003238:	2200      	movs	r2, #0
 800323a:	4c05      	ldr	r4, [pc, #20]	; (8003250 <_lseek_r+0x20>)
 800323c:	6022      	str	r2, [r4, #0]
 800323e:	461a      	mov	r2, r3
 8003240:	f7fe fff8 	bl	8002234 <_lseek>
 8003244:	1c43      	adds	r3, r0, #1
 8003246:	d102      	bne.n	800324e <_lseek_r+0x1e>
 8003248:	6823      	ldr	r3, [r4, #0]
 800324a:	b103      	cbz	r3, 800324e <_lseek_r+0x1e>
 800324c:	602b      	str	r3, [r5, #0]
 800324e:	bd38      	pop	{r3, r4, r5, pc}
 8003250:	200006b8 	.word	0x200006b8

08003254 <memchr>:
 8003254:	b510      	push	{r4, lr}
 8003256:	b2c9      	uxtb	r1, r1
 8003258:	4402      	add	r2, r0
 800325a:	4290      	cmp	r0, r2
 800325c:	4603      	mov	r3, r0
 800325e:	d101      	bne.n	8003264 <memchr+0x10>
 8003260:	2000      	movs	r0, #0
 8003262:	bd10      	pop	{r4, pc}
 8003264:	781c      	ldrb	r4, [r3, #0]
 8003266:	3001      	adds	r0, #1
 8003268:	428c      	cmp	r4, r1
 800326a:	d1f6      	bne.n	800325a <memchr+0x6>
 800326c:	4618      	mov	r0, r3
 800326e:	bd10      	pop	{r4, pc}

08003270 <__malloc_lock>:
 8003270:	4770      	bx	lr

08003272 <__malloc_unlock>:
 8003272:	4770      	bx	lr

08003274 <_read_r>:
 8003274:	b538      	push	{r3, r4, r5, lr}
 8003276:	4605      	mov	r5, r0
 8003278:	4608      	mov	r0, r1
 800327a:	4611      	mov	r1, r2
 800327c:	2200      	movs	r2, #0
 800327e:	4c05      	ldr	r4, [pc, #20]	; (8003294 <_read_r+0x20>)
 8003280:	6022      	str	r2, [r4, #0]
 8003282:	461a      	mov	r2, r3
 8003284:	f7fe ffde 	bl	8002244 <_read>
 8003288:	1c43      	adds	r3, r0, #1
 800328a:	d102      	bne.n	8003292 <_read_r+0x1e>
 800328c:	6823      	ldr	r3, [r4, #0]
 800328e:	b103      	cbz	r3, 8003292 <_read_r+0x1e>
 8003290:	602b      	str	r3, [r5, #0]
 8003292:	bd38      	pop	{r3, r4, r5, pc}
 8003294:	200006b8 	.word	0x200006b8

08003298 <_init>:
 8003298:	b5f8      	push	{r3, r4, r5, r6, r7, lr}
 800329a:	bf00      	nop
 800329c:	bcf8      	pop	{r3, r4, r5, r6, r7}
 800329e:	bc08      	pop	{r3}
 80032a0:	469e      	mov	lr, r3
 80032a2:	4770      	bx	lr

080032a4 <_fini>:
 80032a4:	b5f8      	push	{r3, r4, r5, r6, r7, lr}
 80032a6:	bf00      	nop
 80032a8:	bcf8      	pop	{r3, r4, r5, r6, r7}
 80032aa:	bc08      	pop	{r3}
 80032ac:	469e      	mov	lr, r3
 80032ae:	4770      	bx	lr
