
f407vet_app_fsmc.elf:     file format elf32-littlearm

Sections:
Idx Name          Size      VMA       LMA       File off  Algn
  0 .isr_vector   00000188  20000000  20000000  00010000  2**0
                  CONTENTS, ALLOC, LOAD, READONLY, DATA
  1 .text         00004160  20000190  20000190  00010190  2**4
                  CONTENTS, ALLOC, LOAD, READONLY, CODE
  2 .rodata       00006dec  200042f0  200042f0  000142f0  2**3
                  CONTENTS, ALLOC, LOAD, READONLY, DATA
  3 .ARM          00000008  2000b0dc  2000b0dc  0001b0dc  2**2
                  CONTENTS, ALLOC, LOAD, READONLY, DATA
  4 .init_array   00000004  2000b0e4  2000b0e4  0001b0e4  2**2
                  CONTENTS, ALLOC, LOAD, DATA
  5 .fini_array   00000004  2000b0e8  2000b0e8  0001b0e8  2**2
                  CONTENTS, ALLOC, LOAD, DATA
  6 .data         000000d8  20018000  2000b0ec  00028000  2**2
                  CONTENTS, ALLOC, LOAD, DATA
  7 .ccmram       00000000  10000000  10000000  000280d8  2**0
                  CONTENTS
  8 .bss          00003338  200180d8  200180d8  000280d8  2**2
                  ALLOC
  9 ._user_heap_stack 00000a00  2001b410  2001b410  000280d8  2**0
                  ALLOC
 10 .ARM.attributes 00000030  00000000  00000000  000280d8  2**0
                  CONTENTS, READONLY
 11 .debug_info   0001d6b2  00000000  00000000  00028108  2**0
                  CONTENTS, READONLY, DEBUGGING
 12 .debug_abbrev 00003730  00000000  00000000  000457ba  2**0
                  CONTENTS, READONLY, DEBUGGING
 13 .debug_loc    0000ac01  00000000  00000000  00048eea  2**0
                  CONTENTS, READONLY, DEBUGGING
 14 .debug_aranges 00000f78  00000000  00000000  00053af0  2**3
                  CONTENTS, READONLY, DEBUGGING
 15 .debug_ranges 00000e60  00000000  00000000  00054a68  2**3
                  CONTENTS, READONLY, DEBUGGING
 16 .debug_line   00007654  00000000  00000000  000558c8  2**0
                  CONTENTS, READONLY, DEBUGGING
 17 .debug_str    00004c52  00000000  00000000  0005cf1c  2**0
                  CONTENTS, READONLY, DEBUGGING
 18 .comment      0000007c  00000000  00000000  00061b6e  2**0
                  CONTENTS, READONLY
 19 .debug_frame  00002ff0  00000000  00000000  00061bec  2**2
                  CONTENTS, READONLY, DEBUGGING

Disassembly of section .text:

20000190 <__do_global_dtors_aux>:
20000190:	b510      	push	{r4, lr}
20000192:	4c05      	ldr	r4, [pc, #20]	; (200001a8 <__do_global_dtors_aux+0x18>)
20000194:	7823      	ldrb	r3, [r4, #0]
20000196:	b933      	cbnz	r3, 200001a6 <__do_global_dtors_aux+0x16>
20000198:	4b04      	ldr	r3, [pc, #16]	; (200001ac <__do_global_dtors_aux+0x1c>)
2000019a:	b113      	cbz	r3, 200001a2 <__do_global_dtors_aux+0x12>
2000019c:	4804      	ldr	r0, [pc, #16]	; (200001b0 <__do_global_dtors_aux+0x20>)
2000019e:	f3af 8000 	nop.w
200001a2:	2301      	movs	r3, #1
200001a4:	7023      	strb	r3, [r4, #0]
200001a6:	bd10      	pop	{r4, pc}
200001a8:	200180d8 	.word	0x200180d8
200001ac:	00000000 	.word	0x00000000
200001b0:	200042d8 	.word	0x200042d8

200001b4 <frame_dummy>:
200001b4:	b508      	push	{r3, lr}
200001b6:	4b03      	ldr	r3, [pc, #12]	; (200001c4 <frame_dummy+0x10>)
200001b8:	b11b      	cbz	r3, 200001c2 <frame_dummy+0xe>
200001ba:	4903      	ldr	r1, [pc, #12]	; (200001c8 <frame_dummy+0x14>)
200001bc:	4803      	ldr	r0, [pc, #12]	; (200001cc <frame_dummy+0x18>)
200001be:	f3af 8000 	nop.w
200001c2:	bd08      	pop	{r3, pc}
200001c4:	00000000 	.word	0x00000000
200001c8:	200180dc 	.word	0x200180dc
200001cc:	200042d8 	.word	0x200042d8

200001d0 <memchr>:
200001d0:	f001 01ff 	and.w	r1, r1, #255	; 0xff
200001d4:	2a10      	cmp	r2, #16
200001d6:	db2b      	blt.n	20000230 <memchr+0x60>
200001d8:	f010 0f07 	tst.w	r0, #7
200001dc:	d008      	beq.n	200001f0 <memchr+0x20>
200001de:	f810 3b01 	ldrb.w	r3, [r0], #1
200001e2:	3a01      	subs	r2, #1
200001e4:	428b      	cmp	r3, r1
200001e6:	d02d      	beq.n	20000244 <memchr+0x74>
200001e8:	f010 0f07 	tst.w	r0, #7
200001ec:	b342      	cbz	r2, 20000240 <memchr+0x70>
200001ee:	d1f6      	bne.n	200001de <memchr+0xe>
200001f0:	b4f0      	push	{r4, r5, r6, r7}
200001f2:	ea41 2101 	orr.w	r1, r1, r1, lsl #8
200001f6:	ea41 4101 	orr.w	r1, r1, r1, lsl #16
200001fa:	f022 0407 	bic.w	r4, r2, #7
200001fe:	f07f 0700 	mvns.w	r7, #0
20000202:	2300      	movs	r3, #0
20000204:	e8f0 5602 	ldrd	r5, r6, [r0], #8
20000208:	3c08      	subs	r4, #8
2000020a:	ea85 0501 	eor.w	r5, r5, r1
2000020e:	ea86 0601 	eor.w	r6, r6, r1
20000212:	fa85 f547 	uadd8	r5, r5, r7
20000216:	faa3 f587 	sel	r5, r3, r7
2000021a:	fa86 f647 	uadd8	r6, r6, r7
2000021e:	faa5 f687 	sel	r6, r5, r7
20000222:	b98e      	cbnz	r6, 20000248 <memchr+0x78>
20000224:	d1ee      	bne.n	20000204 <memchr+0x34>
20000226:	bcf0      	pop	{r4, r5, r6, r7}
20000228:	f001 01ff 	and.w	r1, r1, #255	; 0xff
2000022c:	f002 0207 	and.w	r2, r2, #7
20000230:	b132      	cbz	r2, 20000240 <memchr+0x70>
20000232:	f810 3b01 	ldrb.w	r3, [r0], #1
20000236:	3a01      	subs	r2, #1
20000238:	ea83 0301 	eor.w	r3, r3, r1
2000023c:	b113      	cbz	r3, 20000244 <memchr+0x74>
2000023e:	d1f8      	bne.n	20000232 <memchr+0x62>
20000240:	2000      	movs	r0, #0
20000242:	4770      	bx	lr
20000244:	3801      	subs	r0, #1
20000246:	4770      	bx	lr
20000248:	2d00      	cmp	r5, #0
2000024a:	bf06      	itte	eq
2000024c:	4635      	moveq	r5, r6
2000024e:	3803      	subeq	r0, #3
20000250:	3807      	subne	r0, #7
20000252:	f015 0f01 	tst.w	r5, #1
20000256:	d107      	bne.n	20000268 <memchr+0x98>
20000258:	3001      	adds	r0, #1
2000025a:	f415 7f80 	tst.w	r5, #256	; 0x100
2000025e:	bf02      	ittt	eq
20000260:	3001      	addeq	r0, #1
20000262:	f415 3fc0 	tsteq.w	r5, #98304	; 0x18000
20000266:	3001      	addeq	r0, #1
20000268:	bcf0      	pop	{r4, r5, r6, r7}
2000026a:	3801      	subs	r0, #1
2000026c:	4770      	bx	lr
2000026e:	bf00      	nop

20000270 <__aeabi_uldivmod>:
20000270:	b953      	cbnz	r3, 20000288 <__aeabi_uldivmod+0x18>
20000272:	b94a      	cbnz	r2, 20000288 <__aeabi_uldivmod+0x18>
20000274:	2900      	cmp	r1, #0
20000276:	bf08      	it	eq
20000278:	2800      	cmpeq	r0, #0
2000027a:	bf1c      	itt	ne
2000027c:	f04f 31ff 	movne.w	r1, #4294967295
20000280:	f04f 30ff 	movne.w	r0, #4294967295
20000284:	f000 b97a 	b.w	2000057c <__aeabi_idiv0>
20000288:	f1ad 0c08 	sub.w	ip, sp, #8
2000028c:	e96d ce04 	strd	ip, lr, [sp, #-16]!
20000290:	f000 f806 	bl	200002a0 <__udivmoddi4>
20000294:	f8dd e004 	ldr.w	lr, [sp, #4]
20000298:	e9dd 2302 	ldrd	r2, r3, [sp, #8]
2000029c:	b004      	add	sp, #16
2000029e:	4770      	bx	lr

200002a0 <__udivmoddi4>:
200002a0:	e92d 47f0 	stmdb	sp!, {r4, r5, r6, r7, r8, r9, sl, lr}
200002a4:	468c      	mov	ip, r1
200002a6:	460d      	mov	r5, r1
200002a8:	4604      	mov	r4, r0
200002aa:	9e08      	ldr	r6, [sp, #32]
200002ac:	2b00      	cmp	r3, #0
200002ae:	d151      	bne.n	20000354 <__udivmoddi4+0xb4>
200002b0:	428a      	cmp	r2, r1
200002b2:	4617      	mov	r7, r2
200002b4:	d96d      	bls.n	20000392 <__udivmoddi4+0xf2>
200002b6:	fab2 fe82 	clz	lr, r2
200002ba:	f1be 0f00 	cmp.w	lr, #0
200002be:	d00b      	beq.n	200002d8 <__udivmoddi4+0x38>
200002c0:	f1ce 0c20 	rsb	ip, lr, #32
200002c4:	fa01 f50e 	lsl.w	r5, r1, lr
200002c8:	fa20 fc0c 	lsr.w	ip, r0, ip
200002cc:	fa02 f70e 	lsl.w	r7, r2, lr
200002d0:	ea4c 0c05 	orr.w	ip, ip, r5
200002d4:	fa00 f40e 	lsl.w	r4, r0, lr
200002d8:	ea4f 4a17 	mov.w	sl, r7, lsr #16
200002dc:	0c25      	lsrs	r5, r4, #16
200002de:	fbbc f8fa 	udiv	r8, ip, sl
200002e2:	fa1f f987 	uxth.w	r9, r7
200002e6:	fb0a cc18 	mls	ip, sl, r8, ip
200002ea:	ea45 450c 	orr.w	r5, r5, ip, lsl #16
200002ee:	fb08 f309 	mul.w	r3, r8, r9
200002f2:	42ab      	cmp	r3, r5
200002f4:	d90a      	bls.n	2000030c <__udivmoddi4+0x6c>
200002f6:	19ed      	adds	r5, r5, r7
200002f8:	f108 32ff 	add.w	r2, r8, #4294967295
200002fc:	f080 8123 	bcs.w	20000546 <__udivmoddi4+0x2a6>
20000300:	42ab      	cmp	r3, r5
20000302:	f240 8120 	bls.w	20000546 <__udivmoddi4+0x2a6>
20000306:	f1a8 0802 	sub.w	r8, r8, #2
2000030a:	443d      	add	r5, r7
2000030c:	1aed      	subs	r5, r5, r3
2000030e:	b2a4      	uxth	r4, r4
20000310:	fbb5 f0fa 	udiv	r0, r5, sl
20000314:	fb0a 5510 	mls	r5, sl, r0, r5
20000318:	ea44 4405 	orr.w	r4, r4, r5, lsl #16
2000031c:	fb00 f909 	mul.w	r9, r0, r9
20000320:	45a1      	cmp	r9, r4
20000322:	d909      	bls.n	20000338 <__udivmoddi4+0x98>
20000324:	19e4      	adds	r4, r4, r7
20000326:	f100 33ff 	add.w	r3, r0, #4294967295
2000032a:	f080 810a 	bcs.w	20000542 <__udivmoddi4+0x2a2>
2000032e:	45a1      	cmp	r9, r4
20000330:	f240 8107 	bls.w	20000542 <__udivmoddi4+0x2a2>
20000334:	3802      	subs	r0, #2
20000336:	443c      	add	r4, r7
20000338:	eba4 0409 	sub.w	r4, r4, r9
2000033c:	ea40 4008 	orr.w	r0, r0, r8, lsl #16
20000340:	2100      	movs	r1, #0
20000342:	2e00      	cmp	r6, #0
20000344:	d061      	beq.n	2000040a <__udivmoddi4+0x16a>
20000346:	fa24 f40e 	lsr.w	r4, r4, lr
2000034a:	2300      	movs	r3, #0
2000034c:	6034      	str	r4, [r6, #0]
2000034e:	6073      	str	r3, [r6, #4]
20000350:	e8bd 87f0 	ldmia.w	sp!, {r4, r5, r6, r7, r8, r9, sl, pc}
20000354:	428b      	cmp	r3, r1
20000356:	d907      	bls.n	20000368 <__udivmoddi4+0xc8>
20000358:	2e00      	cmp	r6, #0
2000035a:	d054      	beq.n	20000406 <__udivmoddi4+0x166>
2000035c:	2100      	movs	r1, #0
2000035e:	e886 0021 	stmia.w	r6, {r0, r5}
20000362:	4608      	mov	r0, r1
20000364:	e8bd 87f0 	ldmia.w	sp!, {r4, r5, r6, r7, r8, r9, sl, pc}
20000368:	fab3 f183 	clz	r1, r3
2000036c:	2900      	cmp	r1, #0
2000036e:	f040 808e 	bne.w	2000048e <__udivmoddi4+0x1ee>
20000372:	42ab      	cmp	r3, r5
20000374:	d302      	bcc.n	2000037c <__udivmoddi4+0xdc>
20000376:	4282      	cmp	r2, r0
20000378:	f200 80fa 	bhi.w	20000570 <__udivmoddi4+0x2d0>
2000037c:	1a84      	subs	r4, r0, r2
2000037e:	eb65 0503 	sbc.w	r5, r5, r3
20000382:	2001      	movs	r0, #1
20000384:	46ac      	mov	ip, r5
20000386:	2e00      	cmp	r6, #0
20000388:	d03f      	beq.n	2000040a <__udivmoddi4+0x16a>
2000038a:	e886 1010 	stmia.w	r6, {r4, ip}
2000038e:	e8bd 87f0 	ldmia.w	sp!, {r4, r5, r6, r7, r8, r9, sl, pc}
20000392:	b912      	cbnz	r2, 2000039a <__udivmoddi4+0xfa>
20000394:	2701      	movs	r7, #1
20000396:	fbb7 f7f2 	udiv	r7, r7, r2
2000039a:	fab7 fe87 	clz	lr, r7
2000039e:	f1be 0f00 	cmp.w	lr, #0
200003a2:	d134      	bne.n	2000040e <__udivmoddi4+0x16e>
200003a4:	1beb      	subs	r3, r5, r7
200003a6:	0c3a      	lsrs	r2, r7, #16
200003a8:	fa1f fc87 	uxth.w	ip, r7
200003ac:	2101      	movs	r1, #1
200003ae:	fbb3 f8f2 	udiv	r8, r3, r2
200003b2:	0c25      	lsrs	r5, r4, #16
200003b4:	fb02 3318 	mls	r3, r2, r8, r3
200003b8:	ea45 4503 	orr.w	r5, r5, r3, lsl #16
200003bc:	fb0c f308 	mul.w	r3, ip, r8
200003c0:	42ab      	cmp	r3, r5
200003c2:	d907      	bls.n	200003d4 <__udivmoddi4+0x134>
200003c4:	19ed      	adds	r5, r5, r7
200003c6:	f108 30ff 	add.w	r0, r8, #4294967295
200003ca:	d202      	bcs.n	200003d2 <__udivmoddi4+0x132>
200003cc:	42ab      	cmp	r3, r5
200003ce:	f200 80d1 	bhi.w	20000574 <__udivmoddi4+0x2d4>
200003d2:	4680      	mov	r8, r0
200003d4:	1aed      	subs	r5, r5, r3
200003d6:	b2a3      	uxth	r3, r4
200003d8:	fbb5 f0f2 	udiv	r0, r5, r2
200003dc:	fb02 5510 	mls	r5, r2, r0, r5
200003e0:	ea43 4405 	orr.w	r4, r3, r5, lsl #16
200003e4:	fb0c fc00 	mul.w	ip, ip, r0
200003e8:	45a4      	cmp	ip, r4
200003ea:	d907      	bls.n	200003fc <__udivmoddi4+0x15c>
200003ec:	19e4      	adds	r4, r4, r7
200003ee:	f100 33ff 	add.w	r3, r0, #4294967295
200003f2:	d202      	bcs.n	200003fa <__udivmoddi4+0x15a>
200003f4:	45a4      	cmp	ip, r4
200003f6:	f200 80b8 	bhi.w	2000056a <__udivmoddi4+0x2ca>
200003fa:	4618      	mov	r0, r3
200003fc:	eba4 040c 	sub.w	r4, r4, ip
20000400:	ea40 4008 	orr.w	r0, r0, r8, lsl #16
20000404:	e79d      	b.n	20000342 <__udivmoddi4+0xa2>
20000406:	4631      	mov	r1, r6
20000408:	4630      	mov	r0, r6
2000040a:	e8bd 87f0 	ldmia.w	sp!, {r4, r5, r6, r7, r8, r9, sl, pc}
2000040e:	f1ce 0420 	rsb	r4, lr, #32
20000412:	fa05 f30e 	lsl.w	r3, r5, lr
20000416:	fa07 f70e 	lsl.w	r7, r7, lr
2000041a:	fa20 f804 	lsr.w	r8, r0, r4
2000041e:	0c3a      	lsrs	r2, r7, #16
20000420:	fa25 f404 	lsr.w	r4, r5, r4
20000424:	ea48 0803 	orr.w	r8, r8, r3
20000428:	fbb4 f1f2 	udiv	r1, r4, r2
2000042c:	ea4f 4518 	mov.w	r5, r8, lsr #16
20000430:	fb02 4411 	mls	r4, r2, r1, r4
20000434:	fa1f fc87 	uxth.w	ip, r7
20000438:	ea45 4504 	orr.w	r5, r5, r4, lsl #16
2000043c:	fb01 f30c 	mul.w	r3, r1, ip
20000440:	42ab      	cmp	r3, r5
20000442:	fa00 f40e 	lsl.w	r4, r0, lr
20000446:	d909      	bls.n	2000045c <__udivmoddi4+0x1bc>
20000448:	19ed      	adds	r5, r5, r7
2000044a:	f101 30ff 	add.w	r0, r1, #4294967295
2000044e:	f080 808a 	bcs.w	20000566 <__udivmoddi4+0x2c6>
20000452:	42ab      	cmp	r3, r5
20000454:	f240 8087 	bls.w	20000566 <__udivmoddi4+0x2c6>
20000458:	3902      	subs	r1, #2
2000045a:	443d      	add	r5, r7
2000045c:	1aeb      	subs	r3, r5, r3
2000045e:	fa1f f588 	uxth.w	r5, r8
20000462:	fbb3 f0f2 	udiv	r0, r3, r2
20000466:	fb02 3310 	mls	r3, r2, r0, r3
2000046a:	ea45 4503 	orr.w	r5, r5, r3, lsl #16
2000046e:	fb00 f30c 	mul.w	r3, r0, ip
20000472:	42ab      	cmp	r3, r5
20000474:	d907      	bls.n	20000486 <__udivmoddi4+0x1e6>
20000476:	19ed      	adds	r5, r5, r7
20000478:	f100 38ff 	add.w	r8, r0, #4294967295
2000047c:	d26f      	bcs.n	2000055e <__udivmoddi4+0x2be>
2000047e:	42ab      	cmp	r3, r5
20000480:	d96d      	bls.n	2000055e <__udivmoddi4+0x2be>
20000482:	3802      	subs	r0, #2
20000484:	443d      	add	r5, r7
20000486:	1aeb      	subs	r3, r5, r3
20000488:	ea40 4101 	orr.w	r1, r0, r1, lsl #16
2000048c:	e78f      	b.n	200003ae <__udivmoddi4+0x10e>
2000048e:	f1c1 0720 	rsb	r7, r1, #32
20000492:	fa22 f807 	lsr.w	r8, r2, r7
20000496:	408b      	lsls	r3, r1
20000498:	fa05 f401 	lsl.w	r4, r5, r1
2000049c:	ea48 0303 	orr.w	r3, r8, r3
200004a0:	fa20 fe07 	lsr.w	lr, r0, r7
200004a4:	ea4f 4c13 	mov.w	ip, r3, lsr #16
200004a8:	40fd      	lsrs	r5, r7
200004aa:	ea4e 0e04 	orr.w	lr, lr, r4
200004ae:	fbb5 f9fc 	udiv	r9, r5, ip
200004b2:	ea4f 441e 	mov.w	r4, lr, lsr #16
200004b6:	fb0c 5519 	mls	r5, ip, r9, r5
200004ba:	fa1f f883 	uxth.w	r8, r3
200004be:	ea44 4505 	orr.w	r5, r4, r5, lsl #16
200004c2:	fb09 f408 	mul.w	r4, r9, r8
200004c6:	42ac      	cmp	r4, r5
200004c8:	fa02 f201 	lsl.w	r2, r2, r1
200004cc:	fa00 fa01 	lsl.w	sl, r0, r1
200004d0:	d908      	bls.n	200004e4 <__udivmoddi4+0x244>
200004d2:	18ed      	adds	r5, r5, r3
200004d4:	f109 30ff 	add.w	r0, r9, #4294967295
200004d8:	d243      	bcs.n	20000562 <__udivmoddi4+0x2c2>
200004da:	42ac      	cmp	r4, r5
200004dc:	d941      	bls.n	20000562 <__udivmoddi4+0x2c2>
200004de:	f1a9 0902 	sub.w	r9, r9, #2
200004e2:	441d      	add	r5, r3
200004e4:	1b2d      	subs	r5, r5, r4
200004e6:	fa1f fe8e 	uxth.w	lr, lr
200004ea:	fbb5 f0fc 	udiv	r0, r5, ip
200004ee:	fb0c 5510 	mls	r5, ip, r0, r5
200004f2:	ea4e 4405 	orr.w	r4, lr, r5, lsl #16
200004f6:	fb00 f808 	mul.w	r8, r0, r8
200004fa:	45a0      	cmp	r8, r4
200004fc:	d907      	bls.n	2000050e <__udivmoddi4+0x26e>
200004fe:	18e4      	adds	r4, r4, r3
20000500:	f100 35ff 	add.w	r5, r0, #4294967295
20000504:	d229      	bcs.n	2000055a <__udivmoddi4+0x2ba>
20000506:	45a0      	cmp	r8, r4
20000508:	d927      	bls.n	2000055a <__udivmoddi4+0x2ba>
2000050a:	3802      	subs	r0, #2
2000050c:	441c      	add	r4, r3
2000050e:	ea40 4009 	orr.w	r0, r0, r9, lsl #16
20000512:	eba4 0408 	sub.w	r4, r4, r8
20000516:	fba0 8902 	umull	r8, r9, r0, r2
2000051a:	454c      	cmp	r4, r9
2000051c:	46c6      	mov	lr, r8
2000051e:	464d      	mov	r5, r9
20000520:	d315      	bcc.n	2000054e <__udivmoddi4+0x2ae>
20000522:	d012      	beq.n	2000054a <__udivmoddi4+0x2aa>
20000524:	b156      	cbz	r6, 2000053c <__udivmoddi4+0x29c>
20000526:	ebba 030e 	subs.w	r3, sl, lr
2000052a:	eb64 0405 	sbc.w	r4, r4, r5
2000052e:	fa04 f707 	lsl.w	r7, r4, r7
20000532:	40cb      	lsrs	r3, r1
20000534:	431f      	orrs	r7, r3
20000536:	40cc      	lsrs	r4, r1
20000538:	6037      	str	r7, [r6, #0]
2000053a:	6074      	str	r4, [r6, #4]
2000053c:	2100      	movs	r1, #0
2000053e:	e8bd 87f0 	ldmia.w	sp!, {r4, r5, r6, r7, r8, r9, sl, pc}
20000542:	4618      	mov	r0, r3
20000544:	e6f8      	b.n	20000338 <__udivmoddi4+0x98>
20000546:	4690      	mov	r8, r2
20000548:	e6e0      	b.n	2000030c <__udivmoddi4+0x6c>
2000054a:	45c2      	cmp	sl, r8
2000054c:	d2ea      	bcs.n	20000524 <__udivmoddi4+0x284>
2000054e:	ebb8 0e02 	subs.w	lr, r8, r2
20000552:	eb69 0503 	sbc.w	r5, r9, r3
20000556:	3801      	subs	r0, #1
20000558:	e7e4      	b.n	20000524 <__udivmoddi4+0x284>
2000055a:	4628      	mov	r0, r5
2000055c:	e7d7      	b.n	2000050e <__udivmoddi4+0x26e>
2000055e:	4640      	mov	r0, r8
20000560:	e791      	b.n	20000486 <__udivmoddi4+0x1e6>
20000562:	4681      	mov	r9, r0
20000564:	e7be      	b.n	200004e4 <__udivmoddi4+0x244>
20000566:	4601      	mov	r1, r0
20000568:	e778      	b.n	2000045c <__udivmoddi4+0x1bc>
2000056a:	3802      	subs	r0, #2
2000056c:	443c      	add	r4, r7
2000056e:	e745      	b.n	200003fc <__udivmoddi4+0x15c>
20000570:	4608      	mov	r0, r1
20000572:	e708      	b.n	20000386 <__udivmoddi4+0xe6>
20000574:	f1a8 0802 	sub.w	r8, r8, #2
20000578:	443d      	add	r5, r7
2000057a:	e72b      	b.n	200003d4 <__udivmoddi4+0x134>

2000057c <__aeabi_idiv0>:
2000057c:	4770      	bx	lr
2000057e:	bf00      	nop

20000580 <HAL_Init>:
  *         need to ensure that the SysTick time base is always set to 1 millisecond
  *         to have correct HAL operation.
  * @retval HAL status
  */
HAL_StatusTypeDef HAL_Init(void)
{
20000580:	b508      	push	{r3, lr}
  /* Configure Flash prefetch, Instruction cache, Data cache */ 
#if (INSTRUCTION_CACHE_ENABLE != 0U)
  __HAL_FLASH_INSTRUCTION_CACHE_ENABLE();
20000582:	4b0b      	ldr	r3, [pc, #44]	; (200005b0 <HAL_Init+0x30>)
20000584:	681a      	ldr	r2, [r3, #0]
20000586:	f442 7200 	orr.w	r2, r2, #512	; 0x200
2000058a:	601a      	str	r2, [r3, #0]
#endif /* INSTRUCTION_CACHE_ENABLE */

#if (DATA_CACHE_ENABLE != 0U)
  __HAL_FLASH_DATA_CACHE_ENABLE();
2000058c:	681a      	ldr	r2, [r3, #0]
2000058e:	f442 6280 	orr.w	r2, r2, #1024	; 0x400
20000592:	601a      	str	r2, [r3, #0]
#endif /* DATA_CACHE_ENABLE */

#if (PREFETCH_ENABLE != 0U)
  __HAL_FLASH_PREFETCH_BUFFER_ENABLE();
20000594:	681a      	ldr	r2, [r3, #0]
20000596:	f442 7280 	orr.w	r2, r2, #256	; 0x100
2000059a:	601a      	str	r2, [r3, #0]
#endif /* PREFETCH_ENABLE */

  /* Set Interrupt Group Priority */
  HAL_NVIC_SetPriorityGrouping(NVIC_PRIORITYGROUP_4);
2000059c:	2003      	movs	r0, #3
2000059e:	f000 f82f 	bl	20000600 <HAL_NVIC_SetPriorityGrouping>

  /* Use systick as time base source and configure 1ms tick (default clock after Reset is HSI) */
  HAL_InitTick(TICK_INT_PRIORITY);
200005a2:	2000      	movs	r0, #0
200005a4:	f002 fdce 	bl	20003144 <HAL_InitTick>

  /* Init the low level hardware */
  HAL_MspInit();
200005a8:	f002 fd70 	bl	2000308c <HAL_MspInit>

  /* Return function status */
  return HAL_OK;
}
200005ac:	2000      	movs	r0, #0
200005ae:	bd08      	pop	{r3, pc}
200005b0:	40023c00 	.word	0x40023c00

200005b4 <HAL_IncTick>:
  *      implementations in user file.
  * @retval None
  */
__weak void HAL_IncTick(void)
{
  uwTick += uwTickFreq;
200005b4:	4a03      	ldr	r2, [pc, #12]	; (200005c4 <HAL_IncTick+0x10>)
200005b6:	6811      	ldr	r1, [r2, #0]
200005b8:	4b03      	ldr	r3, [pc, #12]	; (200005c8 <HAL_IncTick+0x14>)
200005ba:	781b      	ldrb	r3, [r3, #0]
200005bc:	440b      	add	r3, r1
200005be:	6013      	str	r3, [r2, #0]
200005c0:	4770      	bx	lr
200005c2:	bf00      	nop
200005c4:	20018470 	.word	0x20018470
200005c8:	20018000 	.word	0x20018000

200005cc <HAL_GetTick>:
  *       implementations in user file.
  * @retval tick value
  */
__weak uint32_t HAL_GetTick(void)
{
  return uwTick;
200005cc:	4b01      	ldr	r3, [pc, #4]	; (200005d4 <HAL_GetTick+0x8>)
200005ce:	6818      	ldr	r0, [r3, #0]
}
200005d0:	4770      	bx	lr
200005d2:	bf00      	nop
200005d4:	20018470 	.word	0x20018470

200005d8 <HAL_Delay>:
  *       implementations in user file.
  * @param Delay specifies the delay time length, in milliseconds.
  * @retval None
  */
__weak void HAL_Delay(uint32_t Delay)
{
200005d8:	b538      	push	{r3, r4, r5, lr}
200005da:	4604      	mov	r4, r0
  uint32_t tickstart = HAL_GetTick();
200005dc:	f7ff fff6 	bl	200005cc <HAL_GetTick>
200005e0:	4605      	mov	r5, r0
  uint32_t wait = Delay;

  /* Add a freq to guarantee minimum wait */
  if (wait < HAL_MAX_DELAY)
200005e2:	f1b4 3fff 	cmp.w	r4, #4294967295
200005e6:	d002      	beq.n	200005ee <HAL_Delay+0x16>
  {
    wait += (uint32_t)(uwTickFreq);
200005e8:	4b04      	ldr	r3, [pc, #16]	; (200005fc <HAL_Delay+0x24>)
200005ea:	781b      	ldrb	r3, [r3, #0]
200005ec:	441c      	add	r4, r3
  }

  while((HAL_GetTick() - tickstart) < wait)
200005ee:	f7ff ffed 	bl	200005cc <HAL_GetTick>
200005f2:	1b40      	subs	r0, r0, r5
200005f4:	4284      	cmp	r4, r0
200005f6:	d8fa      	bhi.n	200005ee <HAL_Delay+0x16>
  {
  }
}
200005f8:	bd38      	pop	{r3, r4, r5, pc}
200005fa:	bf00      	nop
200005fc:	20018000 	.word	0x20018000

20000600 <HAL_NVIC_SetPriorityGrouping>:
__STATIC_INLINE void NVIC_SetPriorityGrouping(uint32_t PriorityGroup)
{
  uint32_t reg_value;
  uint32_t PriorityGroupTmp = (PriorityGroup & (uint32_t)0x07UL);             /* only values 0..7 are used          */

  reg_value  =  SCB->AIRCR;                                                   /* read old register configuration    */
20000600:	4a07      	ldr	r2, [pc, #28]	; (20000620 <HAL_NVIC_SetPriorityGrouping+0x20>)
20000602:	68d3      	ldr	r3, [r2, #12]
  reg_value &= ~((uint32_t)(SCB_AIRCR_VECTKEY_Msk | SCB_AIRCR_PRIGROUP_Msk)); /* clear bits to change               */
20000604:	f423 63e0 	bic.w	r3, r3, #1792	; 0x700
20000608:	041b      	lsls	r3, r3, #16
2000060a:	0c1b      	lsrs	r3, r3, #16
  reg_value  =  (reg_value                                   |
                ((uint32_t)0x5FAUL << SCB_AIRCR_VECTKEY_Pos) |
                (PriorityGroupTmp << 8U)                      );              /* Insert write key and priorty group */
2000060c:	0200      	lsls	r0, r0, #8
2000060e:	f400 60e0 	and.w	r0, r0, #1792	; 0x700
                ((uint32_t)0x5FAUL << SCB_AIRCR_VECTKEY_Pos) |
20000612:	4318      	orrs	r0, r3
  reg_value  =  (reg_value                                   |
20000614:	f040 60bf 	orr.w	r0, r0, #100139008	; 0x5f80000
20000618:	f440 3000 	orr.w	r0, r0, #131072	; 0x20000
  SCB->AIRCR =  reg_value;
2000061c:	60d0      	str	r0, [r2, #12]
2000061e:	4770      	bx	lr
20000620:	e000ed00 	.word	0xe000ed00

20000624 <HAL_NVIC_SetPriority>:
  *         This parameter can be a value between 0 and 15
  *         A lower priority value indicates a higher priority.          
  * @retval None
  */
void HAL_NVIC_SetPriority(IRQn_Type IRQn, uint32_t PreemptPriority, uint32_t SubPriority)
{ 
20000624:	b430      	push	{r4, r5}
  \details Reads the priority grouping field from the NVIC Interrupt Controller.
  \return                Priority grouping field (SCB->AIRCR [10:8] PRIGROUP field).
 */
__STATIC_INLINE uint32_t NVIC_GetPriorityGrouping(void)
{
  return ((uint32_t)((SCB->AIRCR & SCB_AIRCR_PRIGROUP_Msk) >> SCB_AIRCR_PRIGROUP_Pos));
20000626:	4b16      	ldr	r3, [pc, #88]	; (20000680 <HAL_NVIC_SetPriority+0x5c>)
20000628:	68db      	ldr	r3, [r3, #12]
2000062a:	f3c3 2302 	ubfx	r3, r3, #8, #3
{
  uint32_t PriorityGroupTmp = (PriorityGroup & (uint32_t)0x07UL);   /* only values 0..7 are used          */
  uint32_t PreemptPriorityBits;
  uint32_t SubPriorityBits;

  PreemptPriorityBits = ((7UL - PriorityGroupTmp) > (uint32_t)(__NVIC_PRIO_BITS)) ? (uint32_t)(__NVIC_PRIO_BITS) : (uint32_t)(7UL - PriorityGroupTmp);
2000062e:	f1c3 0407 	rsb	r4, r3, #7
20000632:	2c04      	cmp	r4, #4
20000634:	bf28      	it	cs
20000636:	2404      	movcs	r4, #4
  SubPriorityBits     = ((PriorityGroupTmp + (uint32_t)(__NVIC_PRIO_BITS)) < (uint32_t)7UL) ? (uint32_t)0UL : (uint32_t)((PriorityGroupTmp - 7UL) + (uint32_t)(__NVIC_PRIO_BITS));
20000638:	1d1d      	adds	r5, r3, #4
2000063a:	2d06      	cmp	r5, #6
2000063c:	d917      	bls.n	2000066e <HAL_NVIC_SetPriority+0x4a>
2000063e:	3b03      	subs	r3, #3

  return (
           ((PreemptPriority & (uint32_t)((1UL << (PreemptPriorityBits)) - 1UL)) << SubPriorityBits) |
20000640:	2501      	movs	r5, #1
20000642:	fa05 f404 	lsl.w	r4, r5, r4
20000646:	3c01      	subs	r4, #1
20000648:	4021      	ands	r1, r4
2000064a:	4099      	lsls	r1, r3
           ((SubPriority     & (uint32_t)((1UL << (SubPriorityBits    )) - 1UL)))
2000064c:	fa05 f303 	lsl.w	r3, r5, r3
20000650:	3b01      	subs	r3, #1
20000652:	4013      	ands	r3, r2
           ((PreemptPriority & (uint32_t)((1UL << (PreemptPriorityBits)) - 1UL)) << SubPriorityBits) |
20000654:	4319      	orrs	r1, r3
  if ((int32_t)(IRQn) < 0)
20000656:	2800      	cmp	r0, #0
20000658:	db0b      	blt.n	20000672 <HAL_NVIC_SetPriority+0x4e>
    NVIC->IP[((uint32_t)(int32_t)IRQn)]               = (uint8_t)((priority << (8U - __NVIC_PRIO_BITS)) & (uint32_t)0xFFUL);
2000065a:	0109      	lsls	r1, r1, #4
2000065c:	b2c9      	uxtb	r1, r1
2000065e:	f100 4060 	add.w	r0, r0, #3758096384	; 0xe0000000
20000662:	f500 4061 	add.w	r0, r0, #57600	; 0xe100
20000666:	f880 1300 	strb.w	r1, [r0, #768]	; 0x300
  assert_param(IS_NVIC_PREEMPTION_PRIORITY(PreemptPriority));
  
  prioritygroup = NVIC_GetPriorityGrouping();
  
  NVIC_SetPriority(IRQn, NVIC_EncodePriority(prioritygroup, PreemptPriority, SubPriority));
}
2000066a:	bc30      	pop	{r4, r5}
2000066c:	4770      	bx	lr
  SubPriorityBits     = ((PriorityGroupTmp + (uint32_t)(__NVIC_PRIO_BITS)) < (uint32_t)7UL) ? (uint32_t)0UL : (uint32_t)((PriorityGroupTmp - 7UL) + (uint32_t)(__NVIC_PRIO_BITS));
2000066e:	2300      	movs	r3, #0
20000670:	e7e6      	b.n	20000640 <HAL_NVIC_SetPriority+0x1c>
    SCB->SHP[(((uint32_t)(int32_t)IRQn) & 0xFUL)-4UL] = (uint8_t)((priority << (8U - __NVIC_PRIO_BITS)) & (uint32_t)0xFFUL);
20000672:	f000 000f 	and.w	r0, r0, #15
20000676:	0109      	lsls	r1, r1, #4
20000678:	b2c9      	uxtb	r1, r1
2000067a:	4b02      	ldr	r3, [pc, #8]	; (20000684 <HAL_NVIC_SetPriority+0x60>)
2000067c:	5419      	strb	r1, [r3, r0]
2000067e:	e7f4      	b.n	2000066a <HAL_NVIC_SetPriority+0x46>
20000680:	e000ed00 	.word	0xe000ed00
20000684:	e000ed14 	.word	0xe000ed14

20000688 <HAL_NVIC_EnableIRQ>:
  NVIC->ISER[(((uint32_t)(int32_t)IRQn) >> 5UL)] = (uint32_t)(1UL << (((uint32_t)(int32_t)IRQn) & 0x1FUL));
20000688:	0942      	lsrs	r2, r0, #5
2000068a:	f000 001f 	and.w	r0, r0, #31
2000068e:	2301      	movs	r3, #1
20000690:	fa03 f000 	lsl.w	r0, r3, r0
20000694:	4b01      	ldr	r3, [pc, #4]	; (2000069c <HAL_NVIC_EnableIRQ+0x14>)
20000696:	f843 0022 	str.w	r0, [r3, r2, lsl #2]
2000069a:	4770      	bx	lr
2000069c:	e000e100 	.word	0xe000e100

200006a0 <HAL_SYSTICK_Config>:
           function <b>SysTick_Config</b> is not included. In this case, the file <b><i>device</i>.h</b>
           must contain a vendor-specific implementation of this function.
 */
__STATIC_INLINE uint32_t SysTick_Config(uint32_t ticks)
{
  if ((ticks - 1UL) > SysTick_LOAD_RELOAD_Msk)
200006a0:	3801      	subs	r0, #1
200006a2:	f1b0 7f80 	cmp.w	r0, #16777216	; 0x1000000
200006a6:	d20a      	bcs.n	200006be <HAL_SYSTICK_Config+0x1e>
  {
    return (1UL);                                                   /* Reload value impossible */
  }

  SysTick->LOAD  = (uint32_t)(ticks - 1UL);                         /* set reload register */
200006a8:	4b06      	ldr	r3, [pc, #24]	; (200006c4 <HAL_SYSTICK_Config+0x24>)
200006aa:	6058      	str	r0, [r3, #4]
    SCB->SHP[(((uint32_t)(int32_t)IRQn) & 0xFUL)-4UL] = (uint8_t)((priority << (8U - __NVIC_PRIO_BITS)) & (uint32_t)0xFFUL);
200006ac:	21f0      	movs	r1, #240	; 0xf0
200006ae:	4a06      	ldr	r2, [pc, #24]	; (200006c8 <HAL_SYSTICK_Config+0x28>)
200006b0:	f882 1023 	strb.w	r1, [r2, #35]	; 0x23
  NVIC_SetPriority (SysTick_IRQn, (1UL << __NVIC_PRIO_BITS) - 1UL); /* set Priority for Systick Interrupt */
  SysTick->VAL   = 0UL;                                             /* Load the SysTick Counter Value */
200006b4:	2000      	movs	r0, #0
200006b6:	6098      	str	r0, [r3, #8]
  SysTick->CTRL  = SysTick_CTRL_CLKSOURCE_Msk |
200006b8:	2207      	movs	r2, #7
200006ba:	601a      	str	r2, [r3, #0]
200006bc:	4770      	bx	lr
    return (1UL);                                                   /* Reload value impossible */
200006be:	2001      	movs	r0, #1
  *                  - 1  Function failed.
  */
uint32_t HAL_SYSTICK_Config(uint32_t TicksNumb)
{
   return SysTick_Config(TicksNumb);
}
200006c0:	4770      	bx	lr
200006c2:	bf00      	nop
200006c4:	e000e010 	.word	0xe000e010
200006c8:	e000ed00 	.word	0xe000ed00

200006cc <HAL_SYSTICK_CLKSourceConfig>:
  */
void HAL_SYSTICK_CLKSourceConfig(uint32_t CLKSource)
{
  /* Check the parameters */
  assert_param(IS_SYSTICK_CLK_SOURCE(CLKSource));
  if (CLKSource == SYSTICK_CLKSOURCE_HCLK)
200006cc:	2804      	cmp	r0, #4
200006ce:	d005      	beq.n	200006dc <HAL_SYSTICK_CLKSourceConfig+0x10>
  {
    SysTick->CTRL |= SYSTICK_CLKSOURCE_HCLK;
  }
  else
  {
    SysTick->CTRL &= ~SYSTICK_CLKSOURCE_HCLK;
200006d0:	4a05      	ldr	r2, [pc, #20]	; (200006e8 <HAL_SYSTICK_CLKSourceConfig+0x1c>)
200006d2:	6813      	ldr	r3, [r2, #0]
200006d4:	f023 0304 	bic.w	r3, r3, #4
200006d8:	6013      	str	r3, [r2, #0]
200006da:	4770      	bx	lr
    SysTick->CTRL |= SYSTICK_CLKSOURCE_HCLK;
200006dc:	4a02      	ldr	r2, [pc, #8]	; (200006e8 <HAL_SYSTICK_CLKSourceConfig+0x1c>)
200006de:	6813      	ldr	r3, [r2, #0]
200006e0:	f043 0304 	orr.w	r3, r3, #4
200006e4:	6013      	str	r3, [r2, #0]
200006e6:	4770      	bx	lr
200006e8:	e000e010 	.word	0xe000e010

200006ec <HAL_SYSTICK_Callback>:
/**
  * @brief  SYSTICK callback.
  * @retval None
  */
__weak void HAL_SYSTICK_Callback(void)
{
200006ec:	4770      	bx	lr

200006ee <HAL_SYSTICK_IRQHandler>:
{
200006ee:	b508      	push	{r3, lr}
  HAL_SYSTICK_Callback();
200006f0:	f7ff fffc 	bl	200006ec <HAL_SYSTICK_Callback>
200006f4:	bd08      	pop	{r3, pc}
	...

200006f8 <HAL_GPIO_Init>:
  * @param  GPIO_Init pointer to a GPIO_InitTypeDef structure that contains
  *         the configuration information for the specified GPIO peripheral.
  * @retval None
  */
void HAL_GPIO_Init(GPIO_TypeDef  *GPIOx, GPIO_InitTypeDef *GPIO_Init)
{
200006f8:	b5f0      	push	{r4, r5, r6, r7, lr}
200006fa:	b083      	sub	sp, #12
  assert_param(IS_GPIO_PIN(GPIO_Init->Pin));
  assert_param(IS_GPIO_MODE(GPIO_Init->Mode));
  assert_param(IS_GPIO_PULL(GPIO_Init->Pull));

  /* Configure the port pins */
  for(position = 0U; position < GPIO_NUMBER; position++)
200006fc:	2400      	movs	r4, #0
200006fe:	e04b      	b.n	20000798 <HAL_GPIO_Init+0xa0>
      if((GPIO_Init->Mode == GPIO_MODE_AF_PP) || (GPIO_Init->Mode == GPIO_MODE_AF_OD))
      {
        /* Check the Alternate function parameter */
        assert_param(IS_GPIO_AF(GPIO_Init->Alternate));
        /* Configure Alternate function mapped with the current IO */
        temp = GPIOx->AFR[position >> 3U];
20000700:	ea4f 0ed4 	mov.w	lr, r4, lsr #3
20000704:	f10e 0e08 	add.w	lr, lr, #8
20000708:	f850 202e 	ldr.w	r2, [r0, lr, lsl #2]
        temp &= ~(0xFU << ((uint32_t)(position & 0x07U) * 4U)) ;
2000070c:	f004 0607 	and.w	r6, r4, #7
20000710:	00b6      	lsls	r6, r6, #2
20000712:	270f      	movs	r7, #15
20000714:	40b7      	lsls	r7, r6
20000716:	ea22 0207 	bic.w	r2, r2, r7
        temp |= ((uint32_t)(GPIO_Init->Alternate) << (((uint32_t)position & 0x07U) * 4U));
2000071a:	690f      	ldr	r7, [r1, #16]
2000071c:	fa07 f606 	lsl.w	r6, r7, r6
20000720:	4332      	orrs	r2, r6
        GPIOx->AFR[position >> 3U] = temp;
20000722:	f840 202e 	str.w	r2, [r0, lr, lsl #2]
20000726:	e046      	b.n	200007b6 <HAL_GPIO_Init+0xbe>
        /* Enable SYSCFG Clock */
        __HAL_RCC_SYSCFG_CLK_ENABLE();

        temp = SYSCFG->EXTICR[position >> 2U];
        temp &= ~(0x0FU << (4U * (position & 0x03U)));
        temp |= ((uint32_t)(GPIO_GET_INDEX(GPIOx)) << (4U * (position & 0x03U)));
20000728:	2607      	movs	r6, #7
2000072a:	e000      	b.n	2000072e <HAL_GPIO_Init+0x36>
2000072c:	2600      	movs	r6, #0
2000072e:	fa06 f60e 	lsl.w	r6, r6, lr
20000732:	4332      	orrs	r2, r6
        SYSCFG->EXTICR[position >> 2U] = temp;
20000734:	3302      	adds	r3, #2
20000736:	4e5e      	ldr	r6, [pc, #376]	; (200008b0 <HAL_GPIO_Init+0x1b8>)
20000738:	f846 2023 	str.w	r2, [r6, r3, lsl #2]

        /* Clear EXTI line configuration */
        temp = EXTI->IMR;
2000073c:	4b5d      	ldr	r3, [pc, #372]	; (200008b4 <HAL_GPIO_Init+0x1bc>)
2000073e:	681a      	ldr	r2, [r3, #0]
        temp &= ~((uint32_t)iocurrent);
20000740:	43eb      	mvns	r3, r5
20000742:	ea02 0603 	and.w	r6, r2, r3
        if((GPIO_Init->Mode & GPIO_MODE_IT) == GPIO_MODE_IT)
20000746:	684f      	ldr	r7, [r1, #4]
20000748:	f417 3f80 	tst.w	r7, #65536	; 0x10000
2000074c:	d001      	beq.n	20000752 <HAL_GPIO_Init+0x5a>
        {
          temp |= iocurrent;
2000074e:	ea45 0602 	orr.w	r6, r5, r2
        }
        EXTI->IMR = temp;
20000752:	4a58      	ldr	r2, [pc, #352]	; (200008b4 <HAL_GPIO_Init+0x1bc>)
20000754:	6016      	str	r6, [r2, #0]

        temp = EXTI->EMR;
20000756:	6852      	ldr	r2, [r2, #4]
        temp &= ~((uint32_t)iocurrent);
20000758:	ea03 0602 	and.w	r6, r3, r2
        if((GPIO_Init->Mode & GPIO_MODE_EVT) == GPIO_MODE_EVT)
2000075c:	684f      	ldr	r7, [r1, #4]
2000075e:	f417 3f00 	tst.w	r7, #131072	; 0x20000
20000762:	d001      	beq.n	20000768 <HAL_GPIO_Init+0x70>
        {
          temp |= iocurrent;
20000764:	ea45 0602 	orr.w	r6, r5, r2
        }
        EXTI->EMR = temp;
20000768:	4a52      	ldr	r2, [pc, #328]	; (200008b4 <HAL_GPIO_Init+0x1bc>)
2000076a:	6056      	str	r6, [r2, #4]

        /* Clear Rising Falling edge configuration */
        temp = EXTI->RTSR;
2000076c:	6892      	ldr	r2, [r2, #8]
        temp &= ~((uint32_t)iocurrent);
2000076e:	ea03 0602 	and.w	r6, r3, r2
        if((GPIO_Init->Mode & RISING_EDGE) == RISING_EDGE)
20000772:	684f      	ldr	r7, [r1, #4]
20000774:	f417 1f80 	tst.w	r7, #1048576	; 0x100000
20000778:	d001      	beq.n	2000077e <HAL_GPIO_Init+0x86>
        {
          temp |= iocurrent;
2000077a:	ea45 0602 	orr.w	r6, r5, r2
        }
        EXTI->RTSR = temp;
2000077e:	4a4d      	ldr	r2, [pc, #308]	; (200008b4 <HAL_GPIO_Init+0x1bc>)
20000780:	6096      	str	r6, [r2, #8]

        temp = EXTI->FTSR;
20000782:	68d2      	ldr	r2, [r2, #12]
        temp &= ~((uint32_t)iocurrent);
20000784:	4013      	ands	r3, r2
        if((GPIO_Init->Mode & FALLING_EDGE) == FALLING_EDGE)
20000786:	684e      	ldr	r6, [r1, #4]
20000788:	f416 1f00 	tst.w	r6, #2097152	; 0x200000
2000078c:	d001      	beq.n	20000792 <HAL_GPIO_Init+0x9a>
        {
          temp |= iocurrent;
2000078e:	ea45 0302 	orr.w	r3, r5, r2
        }
        EXTI->FTSR = temp;
20000792:	4a48      	ldr	r2, [pc, #288]	; (200008b4 <HAL_GPIO_Init+0x1bc>)
20000794:	60d3      	str	r3, [r2, #12]
  for(position = 0U; position < GPIO_NUMBER; position++)
20000796:	3401      	adds	r4, #1
20000798:	2c0f      	cmp	r4, #15
2000079a:	f200 8086 	bhi.w	200008aa <HAL_GPIO_Init+0x1b2>
    ioposition = 0x01U << position;
2000079e:	2301      	movs	r3, #1
200007a0:	40a3      	lsls	r3, r4
    iocurrent = (uint32_t)(GPIO_Init->Pin) & ioposition;
200007a2:	680a      	ldr	r2, [r1, #0]
200007a4:	ea03 0502 	and.w	r5, r3, r2
    if(iocurrent == ioposition)
200007a8:	42ab      	cmp	r3, r5
200007aa:	d1f4      	bne.n	20000796 <HAL_GPIO_Init+0x9e>
      if((GPIO_Init->Mode == GPIO_MODE_AF_PP) || (GPIO_Init->Mode == GPIO_MODE_AF_OD))
200007ac:	684a      	ldr	r2, [r1, #4]
200007ae:	2a02      	cmp	r2, #2
200007b0:	d0a6      	beq.n	20000700 <HAL_GPIO_Init+0x8>
200007b2:	2a12      	cmp	r2, #18
200007b4:	d0a4      	beq.n	20000700 <HAL_GPIO_Init+0x8>
      temp = GPIOx->MODER;
200007b6:	6806      	ldr	r6, [r0, #0]
      temp &= ~(GPIO_MODER_MODER0 << (position * 2U));
200007b8:	ea4f 0e44 	mov.w	lr, r4, lsl #1
200007bc:	2203      	movs	r2, #3
200007be:	fa02 f20e 	lsl.w	r2, r2, lr
200007c2:	43d2      	mvns	r2, r2
200007c4:	4016      	ands	r6, r2
      temp |= ((GPIO_Init->Mode & GPIO_MODE) << (position * 2U));
200007c6:	684f      	ldr	r7, [r1, #4]
200007c8:	f007 0703 	and.w	r7, r7, #3
200007cc:	fa07 f70e 	lsl.w	r7, r7, lr
200007d0:	433e      	orrs	r6, r7
      GPIOx->MODER = temp;
200007d2:	6006      	str	r6, [r0, #0]
      if((GPIO_Init->Mode == GPIO_MODE_OUTPUT_PP) || (GPIO_Init->Mode == GPIO_MODE_AF_PP) ||
200007d4:	684e      	ldr	r6, [r1, #4]
200007d6:	1e77      	subs	r7, r6, #1
200007d8:	2f01      	cmp	r7, #1
200007da:	d903      	bls.n	200007e4 <HAL_GPIO_Init+0xec>
200007dc:	2e11      	cmp	r6, #17
200007de:	d001      	beq.n	200007e4 <HAL_GPIO_Init+0xec>
         (GPIO_Init->Mode == GPIO_MODE_OUTPUT_OD) || (GPIO_Init->Mode == GPIO_MODE_AF_OD))
200007e0:	2e12      	cmp	r6, #18
200007e2:	d10f      	bne.n	20000804 <HAL_GPIO_Init+0x10c>
        temp = GPIOx->OSPEEDR; 
200007e4:	6886      	ldr	r6, [r0, #8]
        temp &= ~(GPIO_OSPEEDER_OSPEEDR0 << (position * 2U));
200007e6:	4016      	ands	r6, r2
        temp |= (GPIO_Init->Speed << (position * 2U));
200007e8:	68cf      	ldr	r7, [r1, #12]
200007ea:	fa07 f70e 	lsl.w	r7, r7, lr
200007ee:	433e      	orrs	r6, r7
        GPIOx->OSPEEDR = temp;
200007f0:	6086      	str	r6, [r0, #8]
        temp = GPIOx->OTYPER;
200007f2:	6846      	ldr	r6, [r0, #4]
        temp &= ~(GPIO_OTYPER_OT_0 << position) ;
200007f4:	ea26 0303 	bic.w	r3, r6, r3
        temp |= (((GPIO_Init->Mode & GPIO_OUTPUT_TYPE) >> 4U) << position);
200007f8:	684e      	ldr	r6, [r1, #4]
200007fa:	f3c6 1600 	ubfx	r6, r6, #4, #1
200007fe:	40a6      	lsls	r6, r4
20000800:	4333      	orrs	r3, r6
        GPIOx->OTYPER = temp;
20000802:	6043      	str	r3, [r0, #4]
      temp = GPIOx->PUPDR;
20000804:	68c3      	ldr	r3, [r0, #12]
      temp &= ~(GPIO_PUPDR_PUPDR0 << (position * 2U));
20000806:	401a      	ands	r2, r3
      temp |= ((GPIO_Init->Pull) << (position * 2U));
20000808:	688b      	ldr	r3, [r1, #8]
2000080a:	fa03 f30e 	lsl.w	r3, r3, lr
2000080e:	431a      	orrs	r2, r3
      GPIOx->PUPDR = temp;
20000810:	60c2      	str	r2, [r0, #12]
      if((GPIO_Init->Mode & EXTI_MODE) == EXTI_MODE)
20000812:	684b      	ldr	r3, [r1, #4]
20000814:	f013 5f80 	tst.w	r3, #268435456	; 0x10000000
20000818:	d0bd      	beq.n	20000796 <HAL_GPIO_Init+0x9e>
        __HAL_RCC_SYSCFG_CLK_ENABLE();
2000081a:	2300      	movs	r3, #0
2000081c:	9301      	str	r3, [sp, #4]
2000081e:	4b26      	ldr	r3, [pc, #152]	; (200008b8 <HAL_GPIO_Init+0x1c0>)
20000820:	6c5a      	ldr	r2, [r3, #68]	; 0x44
20000822:	f442 4280 	orr.w	r2, r2, #16384	; 0x4000
20000826:	645a      	str	r2, [r3, #68]	; 0x44
20000828:	6c5b      	ldr	r3, [r3, #68]	; 0x44
2000082a:	f403 4380 	and.w	r3, r3, #16384	; 0x4000
2000082e:	9301      	str	r3, [sp, #4]
20000830:	9b01      	ldr	r3, [sp, #4]
        temp = SYSCFG->EXTICR[position >> 2U];
20000832:	08a3      	lsrs	r3, r4, #2
20000834:	1c9e      	adds	r6, r3, #2
20000836:	4a1e      	ldr	r2, [pc, #120]	; (200008b0 <HAL_GPIO_Init+0x1b8>)
20000838:	f852 2026 	ldr.w	r2, [r2, r6, lsl #2]
        temp &= ~(0x0FU << (4U * (position & 0x03U)));
2000083c:	f004 0603 	and.w	r6, r4, #3
20000840:	ea4f 0e86 	mov.w	lr, r6, lsl #2
20000844:	260f      	movs	r6, #15
20000846:	fa06 f60e 	lsl.w	r6, r6, lr
2000084a:	ea22 0206 	bic.w	r2, r2, r6
        temp |= ((uint32_t)(GPIO_GET_INDEX(GPIOx)) << (4U * (position & 0x03U)));
2000084e:	4f1b      	ldr	r7, [pc, #108]	; (200008bc <HAL_GPIO_Init+0x1c4>)
20000850:	42b8      	cmp	r0, r7
20000852:	f43f af6b 	beq.w	2000072c <HAL_GPIO_Init+0x34>
20000856:	4e1a      	ldr	r6, [pc, #104]	; (200008c0 <HAL_GPIO_Init+0x1c8>)
20000858:	42b0      	cmp	r0, r6
2000085a:	d01a      	beq.n	20000892 <HAL_GPIO_Init+0x19a>
2000085c:	f506 6680 	add.w	r6, r6, #1024	; 0x400
20000860:	42b0      	cmp	r0, r6
20000862:	d018      	beq.n	20000896 <HAL_GPIO_Init+0x19e>
20000864:	f506 6680 	add.w	r6, r6, #1024	; 0x400
20000868:	42b0      	cmp	r0, r6
2000086a:	d016      	beq.n	2000089a <HAL_GPIO_Init+0x1a2>
2000086c:	f506 6680 	add.w	r6, r6, #1024	; 0x400
20000870:	42b0      	cmp	r0, r6
20000872:	d014      	beq.n	2000089e <HAL_GPIO_Init+0x1a6>
20000874:	f506 6680 	add.w	r6, r6, #1024	; 0x400
20000878:	42b0      	cmp	r0, r6
2000087a:	d012      	beq.n	200008a2 <HAL_GPIO_Init+0x1aa>
2000087c:	f506 6680 	add.w	r6, r6, #1024	; 0x400
20000880:	42b0      	cmp	r0, r6
20000882:	d010      	beq.n	200008a6 <HAL_GPIO_Init+0x1ae>
20000884:	f506 6680 	add.w	r6, r6, #1024	; 0x400
20000888:	42b0      	cmp	r0, r6
2000088a:	f43f af4d 	beq.w	20000728 <HAL_GPIO_Init+0x30>
2000088e:	2608      	movs	r6, #8
20000890:	e74d      	b.n	2000072e <HAL_GPIO_Init+0x36>
20000892:	2601      	movs	r6, #1
20000894:	e74b      	b.n	2000072e <HAL_GPIO_Init+0x36>
20000896:	2602      	movs	r6, #2
20000898:	e749      	b.n	2000072e <HAL_GPIO_Init+0x36>
2000089a:	2603      	movs	r6, #3
2000089c:	e747      	b.n	2000072e <HAL_GPIO_Init+0x36>
2000089e:	2604      	movs	r6, #4
200008a0:	e745      	b.n	2000072e <HAL_GPIO_Init+0x36>
200008a2:	2605      	movs	r6, #5
200008a4:	e743      	b.n	2000072e <HAL_GPIO_Init+0x36>
200008a6:	2606      	movs	r6, #6
200008a8:	e741      	b.n	2000072e <HAL_GPIO_Init+0x36>
      }
    }
  }
}
200008aa:	b003      	add	sp, #12
200008ac:	bdf0      	pop	{r4, r5, r6, r7, pc}
200008ae:	bf00      	nop
200008b0:	40013800 	.word	0x40013800
200008b4:	40013c00 	.word	0x40013c00
200008b8:	40023800 	.word	0x40023800
200008bc:	40020000 	.word	0x40020000
200008c0:	40020400 	.word	0x40020400

200008c4 <HAL_RCC_OscConfig>:
__weak HAL_StatusTypeDef HAL_RCC_OscConfig(RCC_OscInitTypeDef  *RCC_OscInitStruct)
{
  uint32_t tickstart;

  /* Check Null pointer */
  if(RCC_OscInitStruct == NULL)
200008c4:	2800      	cmp	r0, #0
200008c6:	f000 81bb 	beq.w	20000c40 <HAL_RCC_OscConfig+0x37c>
{
200008ca:	b570      	push	{r4, r5, r6, lr}
200008cc:	b082      	sub	sp, #8
200008ce:	4604      	mov	r4, r0
  }

  /* Check the parameters */
  assert_param(IS_RCC_OSCILLATORTYPE(RCC_OscInitStruct->OscillatorType));
  /*------------------------------- HSE Configuration ------------------------*/
  if(((RCC_OscInitStruct->OscillatorType) & RCC_OSCILLATORTYPE_HSE) == RCC_OSCILLATORTYPE_HSE)
200008d0:	6803      	ldr	r3, [r0, #0]
200008d2:	f013 0f01 	tst.w	r3, #1
200008d6:	d03b      	beq.n	20000950 <HAL_RCC_OscConfig+0x8c>
  {
    /* Check the parameters */
    assert_param(IS_RCC_HSE(RCC_OscInitStruct->HSEState));
    /* When the HSE is used as system clock or clock source for PLL in these cases HSE will not disabled */
    if((__HAL_RCC_GET_SYSCLK_SOURCE() == RCC_CFGR_SWS_HSE) ||\
200008d8:	4ba7      	ldr	r3, [pc, #668]	; (20000b78 <HAL_RCC_OscConfig+0x2b4>)
200008da:	689b      	ldr	r3, [r3, #8]
200008dc:	f003 030c 	and.w	r3, r3, #12
200008e0:	2b04      	cmp	r3, #4
200008e2:	d02c      	beq.n	2000093e <HAL_RCC_OscConfig+0x7a>
      ((__HAL_RCC_GET_SYSCLK_SOURCE() == RCC_CFGR_SWS_PLL) && ((RCC->PLLCFGR & RCC_PLLCFGR_PLLSRC) == RCC_PLLCFGR_PLLSRC_HSE)))
200008e4:	4ba4      	ldr	r3, [pc, #656]	; (20000b78 <HAL_RCC_OscConfig+0x2b4>)
200008e6:	689b      	ldr	r3, [r3, #8]
200008e8:	f003 030c 	and.w	r3, r3, #12
    if((__HAL_RCC_GET_SYSCLK_SOURCE() == RCC_CFGR_SWS_HSE) ||\
200008ec:	2b08      	cmp	r3, #8
200008ee:	d021      	beq.n	20000934 <HAL_RCC_OscConfig+0x70>
      }
    }
    else
    {
      /* Set the new HSE configuration ---------------------------------------*/
      __HAL_RCC_HSE_CONFIG(RCC_OscInitStruct->HSEState);
200008f0:	6863      	ldr	r3, [r4, #4]
200008f2:	f5b3 3f80 	cmp.w	r3, #65536	; 0x10000
200008f6:	d04f      	beq.n	20000998 <HAL_RCC_OscConfig+0xd4>
200008f8:	f5b3 2fa0 	cmp.w	r3, #327680	; 0x50000
200008fc:	d052      	beq.n	200009a4 <HAL_RCC_OscConfig+0xe0>
200008fe:	4b9e      	ldr	r3, [pc, #632]	; (20000b78 <HAL_RCC_OscConfig+0x2b4>)
20000900:	681a      	ldr	r2, [r3, #0]
20000902:	f422 3280 	bic.w	r2, r2, #65536	; 0x10000
20000906:	601a      	str	r2, [r3, #0]
20000908:	681a      	ldr	r2, [r3, #0]
2000090a:	f422 2280 	bic.w	r2, r2, #262144	; 0x40000
2000090e:	601a      	str	r2, [r3, #0]

      /* Check the HSE State */
      if((RCC_OscInitStruct->HSEState) != RCC_HSE_OFF)
20000910:	6863      	ldr	r3, [r4, #4]
20000912:	2b00      	cmp	r3, #0
20000914:	d050      	beq.n	200009b8 <HAL_RCC_OscConfig+0xf4>
      {
        /* Get Start Tick */
        tickstart = HAL_GetTick();
20000916:	f7ff fe59 	bl	200005cc <HAL_GetTick>
2000091a:	4605      	mov	r5, r0

        /* Wait till HSE is ready */
        while(__HAL_RCC_GET_FLAG(RCC_FLAG_HSERDY) == RESET)
2000091c:	4b96      	ldr	r3, [pc, #600]	; (20000b78 <HAL_RCC_OscConfig+0x2b4>)
2000091e:	681b      	ldr	r3, [r3, #0]
20000920:	f413 3f00 	tst.w	r3, #131072	; 0x20000
20000924:	d114      	bne.n	20000950 <HAL_RCC_OscConfig+0x8c>
        {
          if((HAL_GetTick() - tickstart ) > HSE_TIMEOUT_VALUE)
20000926:	f7ff fe51 	bl	200005cc <HAL_GetTick>
2000092a:	1b40      	subs	r0, r0, r5
2000092c:	2864      	cmp	r0, #100	; 0x64
2000092e:	d9f5      	bls.n	2000091c <HAL_RCC_OscConfig+0x58>
          {
            return HAL_TIMEOUT;
20000930:	2003      	movs	r0, #3
20000932:	e18a      	b.n	20000c4a <HAL_RCC_OscConfig+0x386>
      ((__HAL_RCC_GET_SYSCLK_SOURCE() == RCC_CFGR_SWS_PLL) && ((RCC->PLLCFGR & RCC_PLLCFGR_PLLSRC) == RCC_PLLCFGR_PLLSRC_HSE)))
20000934:	4b90      	ldr	r3, [pc, #576]	; (20000b78 <HAL_RCC_OscConfig+0x2b4>)
20000936:	685b      	ldr	r3, [r3, #4]
20000938:	f413 0f80 	tst.w	r3, #4194304	; 0x400000
2000093c:	d0d8      	beq.n	200008f0 <HAL_RCC_OscConfig+0x2c>
      if((__HAL_RCC_GET_FLAG(RCC_FLAG_HSERDY) != RESET) && (RCC_OscInitStruct->HSEState == RCC_HSE_OFF))
2000093e:	4b8e      	ldr	r3, [pc, #568]	; (20000b78 <HAL_RCC_OscConfig+0x2b4>)
20000940:	681b      	ldr	r3, [r3, #0]
20000942:	f413 3f00 	tst.w	r3, #131072	; 0x20000
20000946:	d003      	beq.n	20000950 <HAL_RCC_OscConfig+0x8c>
20000948:	6863      	ldr	r3, [r4, #4]
2000094a:	2b00      	cmp	r3, #0
2000094c:	f000 817a 	beq.w	20000c44 <HAL_RCC_OscConfig+0x380>
        }
      }
    }
  }
  /*----------------------------- HSI Configuration --------------------------*/
  if(((RCC_OscInitStruct->OscillatorType) & RCC_OSCILLATORTYPE_HSI) == RCC_OSCILLATORTYPE_HSI)
20000950:	6823      	ldr	r3, [r4, #0]
20000952:	f013 0f02 	tst.w	r3, #2
20000956:	d055      	beq.n	20000a04 <HAL_RCC_OscConfig+0x140>
    /* Check the parameters */
    assert_param(IS_RCC_HSI(RCC_OscInitStruct->HSIState));
    assert_param(IS_RCC_CALIBRATION_VALUE(RCC_OscInitStruct->HSICalibrationValue));

    /* Check if HSI is used as system clock or as PLL source when PLL is selected as system clock */
    if((__HAL_RCC_GET_SYSCLK_SOURCE() == RCC_CFGR_SWS_HSI) ||\
20000958:	4b87      	ldr	r3, [pc, #540]	; (20000b78 <HAL_RCC_OscConfig+0x2b4>)
2000095a:	689b      	ldr	r3, [r3, #8]
2000095c:	f013 0f0c 	tst.w	r3, #12
20000960:	d03e      	beq.n	200009e0 <HAL_RCC_OscConfig+0x11c>
      ((__HAL_RCC_GET_SYSCLK_SOURCE() == RCC_CFGR_SWS_PLL) && ((RCC->PLLCFGR & RCC_PLLCFGR_PLLSRC) == RCC_PLLCFGR_PLLSRC_HSI)))
20000962:	4b85      	ldr	r3, [pc, #532]	; (20000b78 <HAL_RCC_OscConfig+0x2b4>)
20000964:	689b      	ldr	r3, [r3, #8]
20000966:	f003 030c 	and.w	r3, r3, #12
    if((__HAL_RCC_GET_SYSCLK_SOURCE() == RCC_CFGR_SWS_HSI) ||\
2000096a:	2b08      	cmp	r3, #8
2000096c:	d033      	beq.n	200009d6 <HAL_RCC_OscConfig+0x112>
      }
    }
    else
    {
      /* Check the HSI State */
      if((RCC_OscInitStruct->HSIState)!= RCC_HSI_OFF)
2000096e:	68e3      	ldr	r3, [r4, #12]
20000970:	2b00      	cmp	r3, #0
20000972:	d068      	beq.n	20000a46 <HAL_RCC_OscConfig+0x182>
      {
        /* Enable the Internal High Speed oscillator (HSI). */
        __HAL_RCC_HSI_ENABLE();
20000974:	2201      	movs	r2, #1
20000976:	4b81      	ldr	r3, [pc, #516]	; (20000b7c <HAL_RCC_OscConfig+0x2b8>)
20000978:	601a      	str	r2, [r3, #0]

        /* Get Start Tick*/
        tickstart = HAL_GetTick();
2000097a:	f7ff fe27 	bl	200005cc <HAL_GetTick>
2000097e:	4605      	mov	r5, r0

        /* Wait till HSI is ready */
        while(__HAL_RCC_GET_FLAG(RCC_FLAG_HSIRDY) == RESET)
20000980:	4b7d      	ldr	r3, [pc, #500]	; (20000b78 <HAL_RCC_OscConfig+0x2b4>)
20000982:	681b      	ldr	r3, [r3, #0]
20000984:	f013 0f02 	tst.w	r3, #2
20000988:	d154      	bne.n	20000a34 <HAL_RCC_OscConfig+0x170>
        {
          if((HAL_GetTick() - tickstart ) > HSI_TIMEOUT_VALUE)
2000098a:	f7ff fe1f 	bl	200005cc <HAL_GetTick>
2000098e:	1b40      	subs	r0, r0, r5
20000990:	2802      	cmp	r0, #2
20000992:	d9f5      	bls.n	20000980 <HAL_RCC_OscConfig+0xbc>
          {
            return HAL_TIMEOUT;
20000994:	2003      	movs	r0, #3
20000996:	e158      	b.n	20000c4a <HAL_RCC_OscConfig+0x386>
      __HAL_RCC_HSE_CONFIG(RCC_OscInitStruct->HSEState);
20000998:	4a77      	ldr	r2, [pc, #476]	; (20000b78 <HAL_RCC_OscConfig+0x2b4>)
2000099a:	6813      	ldr	r3, [r2, #0]
2000099c:	f443 3380 	orr.w	r3, r3, #65536	; 0x10000
200009a0:	6013      	str	r3, [r2, #0]
200009a2:	e7b5      	b.n	20000910 <HAL_RCC_OscConfig+0x4c>
200009a4:	4b74      	ldr	r3, [pc, #464]	; (20000b78 <HAL_RCC_OscConfig+0x2b4>)
200009a6:	681a      	ldr	r2, [r3, #0]
200009a8:	f442 2280 	orr.w	r2, r2, #262144	; 0x40000
200009ac:	601a      	str	r2, [r3, #0]
200009ae:	681a      	ldr	r2, [r3, #0]
200009b0:	f442 3280 	orr.w	r2, r2, #65536	; 0x10000
200009b4:	601a      	str	r2, [r3, #0]
200009b6:	e7ab      	b.n	20000910 <HAL_RCC_OscConfig+0x4c>
        tickstart = HAL_GetTick();
200009b8:	f7ff fe08 	bl	200005cc <HAL_GetTick>
200009bc:	4605      	mov	r5, r0
        while(__HAL_RCC_GET_FLAG(RCC_FLAG_HSERDY) != RESET)
200009be:	4b6e      	ldr	r3, [pc, #440]	; (20000b78 <HAL_RCC_OscConfig+0x2b4>)
200009c0:	681b      	ldr	r3, [r3, #0]
200009c2:	f413 3f00 	tst.w	r3, #131072	; 0x20000
200009c6:	d0c3      	beq.n	20000950 <HAL_RCC_OscConfig+0x8c>
          if((HAL_GetTick() - tickstart ) > HSE_TIMEOUT_VALUE)
200009c8:	f7ff fe00 	bl	200005cc <HAL_GetTick>
200009cc:	1b40      	subs	r0, r0, r5
200009ce:	2864      	cmp	r0, #100	; 0x64
200009d0:	d9f5      	bls.n	200009be <HAL_RCC_OscConfig+0xfa>
            return HAL_TIMEOUT;
200009d2:	2003      	movs	r0, #3
200009d4:	e139      	b.n	20000c4a <HAL_RCC_OscConfig+0x386>
      ((__HAL_RCC_GET_SYSCLK_SOURCE() == RCC_CFGR_SWS_PLL) && ((RCC->PLLCFGR & RCC_PLLCFGR_PLLSRC) == RCC_PLLCFGR_PLLSRC_HSI)))
200009d6:	4b68      	ldr	r3, [pc, #416]	; (20000b78 <HAL_RCC_OscConfig+0x2b4>)
200009d8:	685b      	ldr	r3, [r3, #4]
200009da:	f413 0f80 	tst.w	r3, #4194304	; 0x400000
200009de:	d1c6      	bne.n	2000096e <HAL_RCC_OscConfig+0xaa>
      if((__HAL_RCC_GET_FLAG(RCC_FLAG_HSIRDY) != RESET) && (RCC_OscInitStruct->HSIState != RCC_HSI_ON))
200009e0:	4b65      	ldr	r3, [pc, #404]	; (20000b78 <HAL_RCC_OscConfig+0x2b4>)
200009e2:	681b      	ldr	r3, [r3, #0]
200009e4:	f013 0f02 	tst.w	r3, #2
200009e8:	d004      	beq.n	200009f4 <HAL_RCC_OscConfig+0x130>
200009ea:	68e3      	ldr	r3, [r4, #12]
200009ec:	2b01      	cmp	r3, #1
200009ee:	d001      	beq.n	200009f4 <HAL_RCC_OscConfig+0x130>
        return HAL_ERROR;
200009f0:	2001      	movs	r0, #1
200009f2:	e12a      	b.n	20000c4a <HAL_RCC_OscConfig+0x386>
        __HAL_RCC_HSI_CALIBRATIONVALUE_ADJUST(RCC_OscInitStruct->HSICalibrationValue);
200009f4:	4a60      	ldr	r2, [pc, #384]	; (20000b78 <HAL_RCC_OscConfig+0x2b4>)
200009f6:	6813      	ldr	r3, [r2, #0]
200009f8:	f023 03f8 	bic.w	r3, r3, #248	; 0xf8
200009fc:	6921      	ldr	r1, [r4, #16]
200009fe:	ea43 03c1 	orr.w	r3, r3, r1, lsl #3
20000a02:	6013      	str	r3, [r2, #0]
        }
      }
    }
  }
  /*------------------------------ LSI Configuration -------------------------*/
  if(((RCC_OscInitStruct->OscillatorType) & RCC_OSCILLATORTYPE_LSI) == RCC_OSCILLATORTYPE_LSI)
20000a04:	6823      	ldr	r3, [r4, #0]
20000a06:	f013 0f08 	tst.w	r3, #8
20000a0a:	d040      	beq.n	20000a8e <HAL_RCC_OscConfig+0x1ca>
  {
    /* Check the parameters */
    assert_param(IS_RCC_LSI(RCC_OscInitStruct->LSIState));

    /* Check the LSI State */
    if((RCC_OscInitStruct->LSIState)!= RCC_LSI_OFF)
20000a0c:	6963      	ldr	r3, [r4, #20]
20000a0e:	b363      	cbz	r3, 20000a6a <HAL_RCC_OscConfig+0x1a6>
    {
      /* Enable the Internal Low Speed oscillator (LSI). */
      __HAL_RCC_LSI_ENABLE();
20000a10:	2201      	movs	r2, #1
20000a12:	4b5b      	ldr	r3, [pc, #364]	; (20000b80 <HAL_RCC_OscConfig+0x2bc>)
20000a14:	601a      	str	r2, [r3, #0]

      /* Get Start Tick*/
      tickstart = HAL_GetTick();
20000a16:	f7ff fdd9 	bl	200005cc <HAL_GetTick>
20000a1a:	4605      	mov	r5, r0

      /* Wait till LSI is ready */
      while(__HAL_RCC_GET_FLAG(RCC_FLAG_LSIRDY) == RESET)
20000a1c:	4b56      	ldr	r3, [pc, #344]	; (20000b78 <HAL_RCC_OscConfig+0x2b4>)
20000a1e:	6f5b      	ldr	r3, [r3, #116]	; 0x74
20000a20:	f013 0f02 	tst.w	r3, #2
20000a24:	d133      	bne.n	20000a8e <HAL_RCC_OscConfig+0x1ca>
      {
        if((HAL_GetTick() - tickstart ) > LSI_TIMEOUT_VALUE)
20000a26:	f7ff fdd1 	bl	200005cc <HAL_GetTick>
20000a2a:	1b40      	subs	r0, r0, r5
20000a2c:	2802      	cmp	r0, #2
20000a2e:	d9f5      	bls.n	20000a1c <HAL_RCC_OscConfig+0x158>
        {
          return HAL_TIMEOUT;
20000a30:	2003      	movs	r0, #3
20000a32:	e10a      	b.n	20000c4a <HAL_RCC_OscConfig+0x386>
        __HAL_RCC_HSI_CALIBRATIONVALUE_ADJUST(RCC_OscInitStruct->HSICalibrationValue);
20000a34:	4a50      	ldr	r2, [pc, #320]	; (20000b78 <HAL_RCC_OscConfig+0x2b4>)
20000a36:	6813      	ldr	r3, [r2, #0]
20000a38:	f023 03f8 	bic.w	r3, r3, #248	; 0xf8
20000a3c:	6921      	ldr	r1, [r4, #16]
20000a3e:	ea43 03c1 	orr.w	r3, r3, r1, lsl #3
20000a42:	6013      	str	r3, [r2, #0]
20000a44:	e7de      	b.n	20000a04 <HAL_RCC_OscConfig+0x140>
        __HAL_RCC_HSI_DISABLE();
20000a46:	2200      	movs	r2, #0
20000a48:	4b4c      	ldr	r3, [pc, #304]	; (20000b7c <HAL_RCC_OscConfig+0x2b8>)
20000a4a:	601a      	str	r2, [r3, #0]
        tickstart = HAL_GetTick();
20000a4c:	f7ff fdbe 	bl	200005cc <HAL_GetTick>
20000a50:	4605      	mov	r5, r0
        while(__HAL_RCC_GET_FLAG(RCC_FLAG_HSIRDY) != RESET)
20000a52:	4b49      	ldr	r3, [pc, #292]	; (20000b78 <HAL_RCC_OscConfig+0x2b4>)
20000a54:	681b      	ldr	r3, [r3, #0]
20000a56:	f013 0f02 	tst.w	r3, #2
20000a5a:	d0d3      	beq.n	20000a04 <HAL_RCC_OscConfig+0x140>
          if((HAL_GetTick() - tickstart ) > HSI_TIMEOUT_VALUE)
20000a5c:	f7ff fdb6 	bl	200005cc <HAL_GetTick>
20000a60:	1b40      	subs	r0, r0, r5
20000a62:	2802      	cmp	r0, #2
20000a64:	d9f5      	bls.n	20000a52 <HAL_RCC_OscConfig+0x18e>
            return HAL_TIMEOUT;
20000a66:	2003      	movs	r0, #3
20000a68:	e0ef      	b.n	20000c4a <HAL_RCC_OscConfig+0x386>
      }
    }
    else
    {
      /* Disable the Internal Low Speed oscillator (LSI). */
      __HAL_RCC_LSI_DISABLE();
20000a6a:	2200      	movs	r2, #0
20000a6c:	4b44      	ldr	r3, [pc, #272]	; (20000b80 <HAL_RCC_OscConfig+0x2bc>)
20000a6e:	601a      	str	r2, [r3, #0]

      /* Get Start Tick */
      tickstart = HAL_GetTick();
20000a70:	f7ff fdac 	bl	200005cc <HAL_GetTick>
20000a74:	4605      	mov	r5, r0

      /* Wait till LSI is ready */
      while(__HAL_RCC_GET_FLAG(RCC_FLAG_LSIRDY) != RESET)
20000a76:	4b40      	ldr	r3, [pc, #256]	; (20000b78 <HAL_RCC_OscConfig+0x2b4>)
20000a78:	6f5b      	ldr	r3, [r3, #116]	; 0x74
20000a7a:	f013 0f02 	tst.w	r3, #2
20000a7e:	d006      	beq.n	20000a8e <HAL_RCC_OscConfig+0x1ca>
      {
        if((HAL_GetTick() - tickstart ) > LSI_TIMEOUT_VALUE)
20000a80:	f7ff fda4 	bl	200005cc <HAL_GetTick>
20000a84:	1b40      	subs	r0, r0, r5
20000a86:	2802      	cmp	r0, #2
20000a88:	d9f5      	bls.n	20000a76 <HAL_RCC_OscConfig+0x1b2>
        {
          return HAL_TIMEOUT;
20000a8a:	2003      	movs	r0, #3
20000a8c:	e0dd      	b.n	20000c4a <HAL_RCC_OscConfig+0x386>
        }
      }
    }
  }
  /*------------------------------ LSE Configuration -------------------------*/
  if(((RCC_OscInitStruct->OscillatorType) & RCC_OSCILLATORTYPE_LSE) == RCC_OSCILLATORTYPE_LSE)
20000a8e:	6823      	ldr	r3, [r4, #0]
20000a90:	f013 0f04 	tst.w	r3, #4
20000a94:	d079      	beq.n	20000b8a <HAL_RCC_OscConfig+0x2c6>
    /* Check the parameters */
    assert_param(IS_RCC_LSE(RCC_OscInitStruct->LSEState));

    /* Update LSE configuration in Backup Domain control register    */
    /* Requires to enable write access to Backup Domain of necessary */
    if(__HAL_RCC_PWR_IS_CLK_DISABLED())
20000a96:	4b38      	ldr	r3, [pc, #224]	; (20000b78 <HAL_RCC_OscConfig+0x2b4>)
20000a98:	6c1b      	ldr	r3, [r3, #64]	; 0x40
20000a9a:	f013 5f80 	tst.w	r3, #268435456	; 0x10000000
20000a9e:	d133      	bne.n	20000b08 <HAL_RCC_OscConfig+0x244>
    {
      __HAL_RCC_PWR_CLK_ENABLE();
20000aa0:	2300      	movs	r3, #0
20000aa2:	9301      	str	r3, [sp, #4]
20000aa4:	4b34      	ldr	r3, [pc, #208]	; (20000b78 <HAL_RCC_OscConfig+0x2b4>)
20000aa6:	6c1a      	ldr	r2, [r3, #64]	; 0x40
20000aa8:	f042 5280 	orr.w	r2, r2, #268435456	; 0x10000000
20000aac:	641a      	str	r2, [r3, #64]	; 0x40
20000aae:	6c1b      	ldr	r3, [r3, #64]	; 0x40
20000ab0:	f003 5380 	and.w	r3, r3, #268435456	; 0x10000000
20000ab4:	9301      	str	r3, [sp, #4]
20000ab6:	9b01      	ldr	r3, [sp, #4]
      pwrclkchanged = SET;
20000ab8:	2501      	movs	r5, #1
    }

    if(HAL_IS_BIT_CLR(PWR->CR, PWR_CR_DBP))
20000aba:	4b32      	ldr	r3, [pc, #200]	; (20000b84 <HAL_RCC_OscConfig+0x2c0>)
20000abc:	681b      	ldr	r3, [r3, #0]
20000abe:	f413 7f80 	tst.w	r3, #256	; 0x100
20000ac2:	d023      	beq.n	20000b0c <HAL_RCC_OscConfig+0x248>
        }
      }
    }

    /* Set the new LSE configuration -----------------------------------------*/
    __HAL_RCC_LSE_CONFIG(RCC_OscInitStruct->LSEState);
20000ac4:	68a3      	ldr	r3, [r4, #8]
20000ac6:	2b01      	cmp	r3, #1
20000ac8:	d034      	beq.n	20000b34 <HAL_RCC_OscConfig+0x270>
20000aca:	2b05      	cmp	r3, #5
20000acc:	d038      	beq.n	20000b40 <HAL_RCC_OscConfig+0x27c>
20000ace:	4b2a      	ldr	r3, [pc, #168]	; (20000b78 <HAL_RCC_OscConfig+0x2b4>)
20000ad0:	6f1a      	ldr	r2, [r3, #112]	; 0x70
20000ad2:	f022 0201 	bic.w	r2, r2, #1
20000ad6:	671a      	str	r2, [r3, #112]	; 0x70
20000ad8:	6f1a      	ldr	r2, [r3, #112]	; 0x70
20000ada:	f022 0204 	bic.w	r2, r2, #4
20000ade:	671a      	str	r2, [r3, #112]	; 0x70
    /* Check the LSE State */
    if((RCC_OscInitStruct->LSEState) != RCC_LSE_OFF)
20000ae0:	68a3      	ldr	r3, [r4, #8]
20000ae2:	2b00      	cmp	r3, #0
20000ae4:	d036      	beq.n	20000b54 <HAL_RCC_OscConfig+0x290>
    {
      /* Get Start Tick*/
      tickstart = HAL_GetTick();
20000ae6:	f7ff fd71 	bl	200005cc <HAL_GetTick>
20000aea:	4606      	mov	r6, r0

      /* Wait till LSE is ready */
      while(__HAL_RCC_GET_FLAG(RCC_FLAG_LSERDY) == RESET)
20000aec:	4b22      	ldr	r3, [pc, #136]	; (20000b78 <HAL_RCC_OscConfig+0x2b4>)
20000aee:	6f1b      	ldr	r3, [r3, #112]	; 0x70
20000af0:	f013 0f02 	tst.w	r3, #2
20000af4:	d148      	bne.n	20000b88 <HAL_RCC_OscConfig+0x2c4>
      {
        if((HAL_GetTick() - tickstart ) > RCC_LSE_TIMEOUT_VALUE)
20000af6:	f7ff fd69 	bl	200005cc <HAL_GetTick>
20000afa:	1b80      	subs	r0, r0, r6
20000afc:	f241 3388 	movw	r3, #5000	; 0x1388
20000b00:	4298      	cmp	r0, r3
20000b02:	d9f3      	bls.n	20000aec <HAL_RCC_OscConfig+0x228>
        {
          return HAL_TIMEOUT;
20000b04:	2003      	movs	r0, #3
20000b06:	e0a0      	b.n	20000c4a <HAL_RCC_OscConfig+0x386>
    FlagStatus       pwrclkchanged = RESET;
20000b08:	2500      	movs	r5, #0
20000b0a:	e7d6      	b.n	20000aba <HAL_RCC_OscConfig+0x1f6>
      SET_BIT(PWR->CR, PWR_CR_DBP);
20000b0c:	4a1d      	ldr	r2, [pc, #116]	; (20000b84 <HAL_RCC_OscConfig+0x2c0>)
20000b0e:	6813      	ldr	r3, [r2, #0]
20000b10:	f443 7380 	orr.w	r3, r3, #256	; 0x100
20000b14:	6013      	str	r3, [r2, #0]
      tickstart = HAL_GetTick();
20000b16:	f7ff fd59 	bl	200005cc <HAL_GetTick>
20000b1a:	4606      	mov	r6, r0
      while(HAL_IS_BIT_CLR(PWR->CR, PWR_CR_DBP))
20000b1c:	4b19      	ldr	r3, [pc, #100]	; (20000b84 <HAL_RCC_OscConfig+0x2c0>)
20000b1e:	681b      	ldr	r3, [r3, #0]
20000b20:	f413 7f80 	tst.w	r3, #256	; 0x100
20000b24:	d1ce      	bne.n	20000ac4 <HAL_RCC_OscConfig+0x200>
        if((HAL_GetTick() - tickstart) > RCC_DBP_TIMEOUT_VALUE)
20000b26:	f7ff fd51 	bl	200005cc <HAL_GetTick>
20000b2a:	1b80      	subs	r0, r0, r6
20000b2c:	2802      	cmp	r0, #2
20000b2e:	d9f5      	bls.n	20000b1c <HAL_RCC_OscConfig+0x258>
          return HAL_TIMEOUT;
20000b30:	2003      	movs	r0, #3
20000b32:	e08a      	b.n	20000c4a <HAL_RCC_OscConfig+0x386>
    __HAL_RCC_LSE_CONFIG(RCC_OscInitStruct->LSEState);
20000b34:	4a10      	ldr	r2, [pc, #64]	; (20000b78 <HAL_RCC_OscConfig+0x2b4>)
20000b36:	6f13      	ldr	r3, [r2, #112]	; 0x70
20000b38:	f043 0301 	orr.w	r3, r3, #1
20000b3c:	6713      	str	r3, [r2, #112]	; 0x70
20000b3e:	e7cf      	b.n	20000ae0 <HAL_RCC_OscConfig+0x21c>
20000b40:	4b0d      	ldr	r3, [pc, #52]	; (20000b78 <HAL_RCC_OscConfig+0x2b4>)
20000b42:	6f1a      	ldr	r2, [r3, #112]	; 0x70
20000b44:	f042 0204 	orr.w	r2, r2, #4
20000b48:	671a      	str	r2, [r3, #112]	; 0x70
20000b4a:	6f1a      	ldr	r2, [r3, #112]	; 0x70
20000b4c:	f042 0201 	orr.w	r2, r2, #1
20000b50:	671a      	str	r2, [r3, #112]	; 0x70
20000b52:	e7c5      	b.n	20000ae0 <HAL_RCC_OscConfig+0x21c>
      }
    }
    else
    {
      /* Get Start Tick */
      tickstart = HAL_GetTick();
20000b54:	f7ff fd3a 	bl	200005cc <HAL_GetTick>
20000b58:	4606      	mov	r6, r0

      /* Wait till LSE is ready */
      while(__HAL_RCC_GET_FLAG(RCC_FLAG_LSERDY) != RESET)
20000b5a:	4b07      	ldr	r3, [pc, #28]	; (20000b78 <HAL_RCC_OscConfig+0x2b4>)
20000b5c:	6f1b      	ldr	r3, [r3, #112]	; 0x70
20000b5e:	f013 0f02 	tst.w	r3, #2
20000b62:	d011      	beq.n	20000b88 <HAL_RCC_OscConfig+0x2c4>
      {
        if((HAL_GetTick() - tickstart ) > RCC_LSE_TIMEOUT_VALUE)
20000b64:	f7ff fd32 	bl	200005cc <HAL_GetTick>
20000b68:	1b80      	subs	r0, r0, r6
20000b6a:	f241 3388 	movw	r3, #5000	; 0x1388
20000b6e:	4298      	cmp	r0, r3
20000b70:	d9f3      	bls.n	20000b5a <HAL_RCC_OscConfig+0x296>
        {
          return HAL_TIMEOUT;
20000b72:	2003      	movs	r0, #3
20000b74:	e069      	b.n	20000c4a <HAL_RCC_OscConfig+0x386>
20000b76:	bf00      	nop
20000b78:	40023800 	.word	0x40023800
20000b7c:	42470000 	.word	0x42470000
20000b80:	42470e80 	.word	0x42470e80
20000b84:	40007000 	.word	0x40007000
        }
      }
    }

    /* Restore clock configuration if changed */
    if(pwrclkchanged == SET)
20000b88:	b9e5      	cbnz	r5, 20000bc4 <HAL_RCC_OscConfig+0x300>
    }
  }
  /*-------------------------------- PLL Configuration -----------------------*/
  /* Check the parameters */
  assert_param(IS_RCC_PLL(RCC_OscInitStruct->PLL.PLLState));
  if ((RCC_OscInitStruct->PLL.PLLState) != RCC_PLL_NONE)
20000b8a:	69a3      	ldr	r3, [r4, #24]
20000b8c:	2b00      	cmp	r3, #0
20000b8e:	d05b      	beq.n	20000c48 <HAL_RCC_OscConfig+0x384>
  {
    /* Check if the PLL is used as system clock or not */
    if(__HAL_RCC_GET_SYSCLK_SOURCE() != RCC_CFGR_SWS_PLL)
20000b90:	4a30      	ldr	r2, [pc, #192]	; (20000c54 <HAL_RCC_OscConfig+0x390>)
20000b92:	6892      	ldr	r2, [r2, #8]
20000b94:	f002 020c 	and.w	r2, r2, #12
20000b98:	2a08      	cmp	r2, #8
20000b9a:	d058      	beq.n	20000c4e <HAL_RCC_OscConfig+0x38a>
    {
      if((RCC_OscInitStruct->PLL.PLLState) == RCC_PLL_ON)
20000b9c:	2b02      	cmp	r3, #2
20000b9e:	d017      	beq.n	20000bd0 <HAL_RCC_OscConfig+0x30c>
        }
      }
      else
      {
        /* Disable the main PLL. */
        __HAL_RCC_PLL_DISABLE();
20000ba0:	2200      	movs	r2, #0
20000ba2:	4b2d      	ldr	r3, [pc, #180]	; (20000c58 <HAL_RCC_OscConfig+0x394>)
20000ba4:	601a      	str	r2, [r3, #0]

        /* Get Start Tick */
        tickstart = HAL_GetTick();
20000ba6:	f7ff fd11 	bl	200005cc <HAL_GetTick>
20000baa:	4604      	mov	r4, r0

        /* Wait till PLL is ready */
        while(__HAL_RCC_GET_FLAG(RCC_FLAG_PLLRDY) != RESET)
20000bac:	4b29      	ldr	r3, [pc, #164]	; (20000c54 <HAL_RCC_OscConfig+0x390>)
20000bae:	681b      	ldr	r3, [r3, #0]
20000bb0:	f013 7f00 	tst.w	r3, #33554432	; 0x2000000
20000bb4:	d042      	beq.n	20000c3c <HAL_RCC_OscConfig+0x378>
        {
          if((HAL_GetTick() - tickstart ) > PLL_TIMEOUT_VALUE)
20000bb6:	f7ff fd09 	bl	200005cc <HAL_GetTick>
20000bba:	1b00      	subs	r0, r0, r4
20000bbc:	2802      	cmp	r0, #2
20000bbe:	d9f5      	bls.n	20000bac <HAL_RCC_OscConfig+0x2e8>
          {
            return HAL_TIMEOUT;
20000bc0:	2003      	movs	r0, #3
20000bc2:	e042      	b.n	20000c4a <HAL_RCC_OscConfig+0x386>
      __HAL_RCC_PWR_CLK_DISABLE();
20000bc4:	4a23      	ldr	r2, [pc, #140]	; (20000c54 <HAL_RCC_OscConfig+0x390>)
20000bc6:	6c13      	ldr	r3, [r2, #64]	; 0x40
20000bc8:	f023 5380 	bic.w	r3, r3, #268435456	; 0x10000000
20000bcc:	6413      	str	r3, [r2, #64]	; 0x40
20000bce:	e7dc      	b.n	20000b8a <HAL_RCC_OscConfig+0x2c6>
        __HAL_RCC_PLL_DISABLE();
20000bd0:	2200      	movs	r2, #0
20000bd2:	4b21      	ldr	r3, [pc, #132]	; (20000c58 <HAL_RCC_OscConfig+0x394>)
20000bd4:	601a      	str	r2, [r3, #0]
        tickstart = HAL_GetTick();
20000bd6:	f7ff fcf9 	bl	200005cc <HAL_GetTick>
20000bda:	4605      	mov	r5, r0
        while(__HAL_RCC_GET_FLAG(RCC_FLAG_PLLRDY) != RESET)
20000bdc:	4b1d      	ldr	r3, [pc, #116]	; (20000c54 <HAL_RCC_OscConfig+0x390>)
20000bde:	681b      	ldr	r3, [r3, #0]
20000be0:	f013 7f00 	tst.w	r3, #33554432	; 0x2000000
20000be4:	d006      	beq.n	20000bf4 <HAL_RCC_OscConfig+0x330>
          if((HAL_GetTick() - tickstart ) > PLL_TIMEOUT_VALUE)
20000be6:	f7ff fcf1 	bl	200005cc <HAL_GetTick>
20000bea:	1b40      	subs	r0, r0, r5
20000bec:	2802      	cmp	r0, #2
20000bee:	d9f5      	bls.n	20000bdc <HAL_RCC_OscConfig+0x318>
            return HAL_TIMEOUT;
20000bf0:	2003      	movs	r0, #3
20000bf2:	e02a      	b.n	20000c4a <HAL_RCC_OscConfig+0x386>
        WRITE_REG(RCC->PLLCFGR, (RCC_OscInitStruct->PLL.PLLSource                                            | \
20000bf4:	69e3      	ldr	r3, [r4, #28]
20000bf6:	6a22      	ldr	r2, [r4, #32]
20000bf8:	4313      	orrs	r3, r2
20000bfa:	6a62      	ldr	r2, [r4, #36]	; 0x24
20000bfc:	ea43 1382 	orr.w	r3, r3, r2, lsl #6
20000c00:	6aa2      	ldr	r2, [r4, #40]	; 0x28
20000c02:	0852      	lsrs	r2, r2, #1
20000c04:	3a01      	subs	r2, #1
20000c06:	ea43 4302 	orr.w	r3, r3, r2, lsl #16
20000c0a:	6ae2      	ldr	r2, [r4, #44]	; 0x2c
20000c0c:	ea43 6302 	orr.w	r3, r3, r2, lsl #24
20000c10:	4a10      	ldr	r2, [pc, #64]	; (20000c54 <HAL_RCC_OscConfig+0x390>)
20000c12:	6053      	str	r3, [r2, #4]
        __HAL_RCC_PLL_ENABLE();
20000c14:	2201      	movs	r2, #1
20000c16:	4b10      	ldr	r3, [pc, #64]	; (20000c58 <HAL_RCC_OscConfig+0x394>)
20000c18:	601a      	str	r2, [r3, #0]
        tickstart = HAL_GetTick();
20000c1a:	f7ff fcd7 	bl	200005cc <HAL_GetTick>
20000c1e:	4604      	mov	r4, r0
        while(__HAL_RCC_GET_FLAG(RCC_FLAG_PLLRDY) == RESET)
20000c20:	4b0c      	ldr	r3, [pc, #48]	; (20000c54 <HAL_RCC_OscConfig+0x390>)
20000c22:	681b      	ldr	r3, [r3, #0]
20000c24:	f013 7f00 	tst.w	r3, #33554432	; 0x2000000
20000c28:	d106      	bne.n	20000c38 <HAL_RCC_OscConfig+0x374>
          if((HAL_GetTick() - tickstart ) > PLL_TIMEOUT_VALUE)
20000c2a:	f7ff fccf 	bl	200005cc <HAL_GetTick>
20000c2e:	1b00      	subs	r0, r0, r4
20000c30:	2802      	cmp	r0, #2
20000c32:	d9f5      	bls.n	20000c20 <HAL_RCC_OscConfig+0x35c>
            return HAL_TIMEOUT;
20000c34:	2003      	movs	r0, #3
20000c36:	e008      	b.n	20000c4a <HAL_RCC_OscConfig+0x386>
    else
    {
      return HAL_ERROR;
    }
  }
  return HAL_OK;
20000c38:	2000      	movs	r0, #0
20000c3a:	e006      	b.n	20000c4a <HAL_RCC_OscConfig+0x386>
20000c3c:	2000      	movs	r0, #0
20000c3e:	e004      	b.n	20000c4a <HAL_RCC_OscConfig+0x386>
    return HAL_ERROR;
20000c40:	2001      	movs	r0, #1
20000c42:	4770      	bx	lr
        return HAL_ERROR;
20000c44:	2001      	movs	r0, #1
20000c46:	e000      	b.n	20000c4a <HAL_RCC_OscConfig+0x386>
  return HAL_OK;
20000c48:	2000      	movs	r0, #0
}
20000c4a:	b002      	add	sp, #8
20000c4c:	bd70      	pop	{r4, r5, r6, pc}
      return HAL_ERROR;
20000c4e:	2001      	movs	r0, #1
20000c50:	e7fb      	b.n	20000c4a <HAL_RCC_OscConfig+0x386>
20000c52:	bf00      	nop
20000c54:	40023800 	.word	0x40023800
20000c58:	42470060 	.word	0x42470060

20000c5c <HAL_RCC_GetSysClockFreq>:
  *
  *
  * @retval SYSCLK frequency
  */
__weak uint32_t HAL_RCC_GetSysClockFreq(void)
{
20000c5c:	b5f8      	push	{r3, r4, r5, r6, r7, lr}
  uint32_t pllm = 0U, pllvco = 0U, pllp = 0U;
  uint32_t sysclockfreq = 0U;

  /* Get SYSCLK source -------------------------------------------------------*/
  switch (RCC->CFGR & RCC_CFGR_SWS)
20000c5e:	4b31      	ldr	r3, [pc, #196]	; (20000d24 <HAL_RCC_GetSysClockFreq+0xc8>)
20000c60:	689b      	ldr	r3, [r3, #8]
20000c62:	f003 030c 	and.w	r3, r3, #12
20000c66:	2b04      	cmp	r3, #4
20000c68:	d059      	beq.n	20000d1e <HAL_RCC_GetSysClockFreq+0xc2>
20000c6a:	2b08      	cmp	r3, #8
20000c6c:	d001      	beq.n	20000c72 <HAL_RCC_GetSysClockFreq+0x16>
  {
    case RCC_CFGR_SWS_HSI:  /* HSI used as system clock source */
    {
      sysclockfreq = HSI_VALUE;
20000c6e:	482e      	ldr	r0, [pc, #184]	; (20000d28 <HAL_RCC_GetSysClockFreq+0xcc>)
20000c70:	bdf8      	pop	{r3, r4, r5, r6, r7, pc}
    }
    case RCC_CFGR_SWS_PLL:  /* PLL used as system clock  source */
    {
      /* PLL_VCO = (HSE_VALUE or HSI_VALUE / PLLM) * PLLN
      SYSCLK = PLL_VCO / PLLP */
      pllm = RCC->PLLCFGR & RCC_PLLCFGR_PLLM;
20000c72:	4b2c      	ldr	r3, [pc, #176]	; (20000d24 <HAL_RCC_GetSysClockFreq+0xc8>)
20000c74:	685a      	ldr	r2, [r3, #4]
20000c76:	f002 023f 	and.w	r2, r2, #63	; 0x3f
      if(__HAL_RCC_GET_PLL_OSCSOURCE() != RCC_PLLSOURCE_HSI)
20000c7a:	685b      	ldr	r3, [r3, #4]
20000c7c:	f413 0f80 	tst.w	r3, #4194304	; 0x400000
20000c80:	d02a      	beq.n	20000cd8 <HAL_RCC_GetSysClockFreq+0x7c>
      {
        /* HSE used as PLL clock source */
        pllvco = (uint32_t) ((((uint64_t) HSE_VALUE * ((uint64_t) ((RCC->PLLCFGR & RCC_PLLCFGR_PLLN) >> RCC_PLLCFGR_PLLN_Pos)))) / (uint64_t)pllm);
20000c82:	4b28      	ldr	r3, [pc, #160]	; (20000d24 <HAL_RCC_GetSysClockFreq+0xc8>)
20000c84:	685b      	ldr	r3, [r3, #4]
20000c86:	f3c3 1388 	ubfx	r3, r3, #6, #9
20000c8a:	461e      	mov	r6, r3
20000c8c:	2700      	movs	r7, #0
20000c8e:	015c      	lsls	r4, r3, #5
20000c90:	2500      	movs	r5, #0
20000c92:	1ae4      	subs	r4, r4, r3
20000c94:	eb65 0507 	sbc.w	r5, r5, r7
20000c98:	01a9      	lsls	r1, r5, #6
20000c9a:	ea41 6194 	orr.w	r1, r1, r4, lsr #26
20000c9e:	01a0      	lsls	r0, r4, #6
20000ca0:	1b00      	subs	r0, r0, r4
20000ca2:	eb61 0105 	sbc.w	r1, r1, r5
20000ca6:	00cb      	lsls	r3, r1, #3
20000ca8:	ea43 7350 	orr.w	r3, r3, r0, lsr #29
20000cac:	00c4      	lsls	r4, r0, #3
20000cae:	19a0      	adds	r0, r4, r6
20000cb0:	eb43 0107 	adc.w	r1, r3, r7
20000cb4:	024b      	lsls	r3, r1, #9
20000cb6:	ea43 53d0 	orr.w	r3, r3, r0, lsr #23
20000cba:	0244      	lsls	r4, r0, #9
20000cbc:	4620      	mov	r0, r4
20000cbe:	4619      	mov	r1, r3
20000cc0:	2300      	movs	r3, #0
20000cc2:	f7ff fad5 	bl	20000270 <__aeabi_uldivmod>
      else
      {
        /* HSI used as PLL clock source */
        pllvco = (uint32_t) ((((uint64_t) HSI_VALUE * ((uint64_t) ((RCC->PLLCFGR & RCC_PLLCFGR_PLLN) >> RCC_PLLCFGR_PLLN_Pos)))) / (uint64_t)pllm);
      }
      pllp = ((((RCC->PLLCFGR & RCC_PLLCFGR_PLLP) >> RCC_PLLCFGR_PLLP_Pos) + 1U) *2U);
20000cc6:	4b17      	ldr	r3, [pc, #92]	; (20000d24 <HAL_RCC_GetSysClockFreq+0xc8>)
20000cc8:	685b      	ldr	r3, [r3, #4]
20000cca:	f3c3 4301 	ubfx	r3, r3, #16, #2
20000cce:	3301      	adds	r3, #1
20000cd0:	005b      	lsls	r3, r3, #1

      sysclockfreq = pllvco/pllp;
20000cd2:	fbb0 f0f3 	udiv	r0, r0, r3
      break;
20000cd6:	bdf8      	pop	{r3, r4, r5, r6, r7, pc}
        pllvco = (uint32_t) ((((uint64_t) HSI_VALUE * ((uint64_t) ((RCC->PLLCFGR & RCC_PLLCFGR_PLLN) >> RCC_PLLCFGR_PLLN_Pos)))) / (uint64_t)pllm);
20000cd8:	4b12      	ldr	r3, [pc, #72]	; (20000d24 <HAL_RCC_GetSysClockFreq+0xc8>)
20000cda:	685b      	ldr	r3, [r3, #4]
20000cdc:	f3c3 1388 	ubfx	r3, r3, #6, #9
20000ce0:	461e      	mov	r6, r3
20000ce2:	2700      	movs	r7, #0
20000ce4:	015c      	lsls	r4, r3, #5
20000ce6:	2500      	movs	r5, #0
20000ce8:	1ae4      	subs	r4, r4, r3
20000cea:	eb65 0507 	sbc.w	r5, r5, r7
20000cee:	01a9      	lsls	r1, r5, #6
20000cf0:	ea41 6194 	orr.w	r1, r1, r4, lsr #26
20000cf4:	01a0      	lsls	r0, r4, #6
20000cf6:	1b00      	subs	r0, r0, r4
20000cf8:	eb61 0105 	sbc.w	r1, r1, r5
20000cfc:	00cb      	lsls	r3, r1, #3
20000cfe:	ea43 7350 	orr.w	r3, r3, r0, lsr #29
20000d02:	00c4      	lsls	r4, r0, #3
20000d04:	19a0      	adds	r0, r4, r6
20000d06:	eb43 0107 	adc.w	r1, r3, r7
20000d0a:	028b      	lsls	r3, r1, #10
20000d0c:	ea43 5390 	orr.w	r3, r3, r0, lsr #22
20000d10:	0284      	lsls	r4, r0, #10
20000d12:	4620      	mov	r0, r4
20000d14:	4619      	mov	r1, r3
20000d16:	2300      	movs	r3, #0
20000d18:	f7ff faaa 	bl	20000270 <__aeabi_uldivmod>
20000d1c:	e7d3      	b.n	20000cc6 <HAL_RCC_GetSysClockFreq+0x6a>
      sysclockfreq = HSE_VALUE;
20000d1e:	4803      	ldr	r0, [pc, #12]	; (20000d2c <HAL_RCC_GetSysClockFreq+0xd0>)
      sysclockfreq = HSI_VALUE;
      break;
    }
  }
  return sysclockfreq;
}
20000d20:	bdf8      	pop	{r3, r4, r5, r6, r7, pc}
20000d22:	bf00      	nop
20000d24:	40023800 	.word	0x40023800
20000d28:	00f42400 	.word	0x00f42400
20000d2c:	007a1200 	.word	0x007a1200

20000d30 <HAL_RCC_ClockConfig>:
  if(RCC_ClkInitStruct == NULL)
20000d30:	2800      	cmp	r0, #0
20000d32:	f000 809d 	beq.w	20000e70 <HAL_RCC_ClockConfig+0x140>
{
20000d36:	b570      	push	{r4, r5, r6, lr}
20000d38:	4604      	mov	r4, r0
  if(FLatency > __HAL_FLASH_GET_LATENCY())
20000d3a:	4b4f      	ldr	r3, [pc, #316]	; (20000e78 <HAL_RCC_ClockConfig+0x148>)
20000d3c:	681b      	ldr	r3, [r3, #0]
20000d3e:	f003 030f 	and.w	r3, r3, #15
20000d42:	428b      	cmp	r3, r1
20000d44:	d209      	bcs.n	20000d5a <HAL_RCC_ClockConfig+0x2a>
    __HAL_FLASH_SET_LATENCY(FLatency);
20000d46:	b2cb      	uxtb	r3, r1
20000d48:	4a4b      	ldr	r2, [pc, #300]	; (20000e78 <HAL_RCC_ClockConfig+0x148>)
20000d4a:	7013      	strb	r3, [r2, #0]
    if(__HAL_FLASH_GET_LATENCY() != FLatency)
20000d4c:	6813      	ldr	r3, [r2, #0]
20000d4e:	f003 030f 	and.w	r3, r3, #15
20000d52:	4299      	cmp	r1, r3
20000d54:	d001      	beq.n	20000d5a <HAL_RCC_ClockConfig+0x2a>
      return HAL_ERROR;
20000d56:	2001      	movs	r0, #1
20000d58:	bd70      	pop	{r4, r5, r6, pc}
  if(((RCC_ClkInitStruct->ClockType) & RCC_CLOCKTYPE_HCLK) == RCC_CLOCKTYPE_HCLK)
20000d5a:	6823      	ldr	r3, [r4, #0]
20000d5c:	f013 0f02 	tst.w	r3, #2
20000d60:	d017      	beq.n	20000d92 <HAL_RCC_ClockConfig+0x62>
    if(((RCC_ClkInitStruct->ClockType) & RCC_CLOCKTYPE_PCLK1) == RCC_CLOCKTYPE_PCLK1)
20000d62:	f013 0f04 	tst.w	r3, #4
20000d66:	d004      	beq.n	20000d72 <HAL_RCC_ClockConfig+0x42>
      MODIFY_REG(RCC->CFGR, RCC_CFGR_PPRE1, RCC_HCLK_DIV16);
20000d68:	4a44      	ldr	r2, [pc, #272]	; (20000e7c <HAL_RCC_ClockConfig+0x14c>)
20000d6a:	6893      	ldr	r3, [r2, #8]
20000d6c:	f443 53e0 	orr.w	r3, r3, #7168	; 0x1c00
20000d70:	6093      	str	r3, [r2, #8]
    if(((RCC_ClkInitStruct->ClockType) & RCC_CLOCKTYPE_PCLK2) == RCC_CLOCKTYPE_PCLK2)
20000d72:	6823      	ldr	r3, [r4, #0]
20000d74:	f013 0f08 	tst.w	r3, #8
20000d78:	d004      	beq.n	20000d84 <HAL_RCC_ClockConfig+0x54>
      MODIFY_REG(RCC->CFGR, RCC_CFGR_PPRE2, (RCC_HCLK_DIV16 << 3));
20000d7a:	4a40      	ldr	r2, [pc, #256]	; (20000e7c <HAL_RCC_ClockConfig+0x14c>)
20000d7c:	6893      	ldr	r3, [r2, #8]
20000d7e:	f443 4360 	orr.w	r3, r3, #57344	; 0xe000
20000d82:	6093      	str	r3, [r2, #8]
    MODIFY_REG(RCC->CFGR, RCC_CFGR_HPRE, RCC_ClkInitStruct->AHBCLKDivider);
20000d84:	4a3d      	ldr	r2, [pc, #244]	; (20000e7c <HAL_RCC_ClockConfig+0x14c>)
20000d86:	6893      	ldr	r3, [r2, #8]
20000d88:	f023 03f0 	bic.w	r3, r3, #240	; 0xf0
20000d8c:	68a0      	ldr	r0, [r4, #8]
20000d8e:	4303      	orrs	r3, r0
20000d90:	6093      	str	r3, [r2, #8]
20000d92:	460d      	mov	r5, r1
  if(((RCC_ClkInitStruct->ClockType) & RCC_CLOCKTYPE_SYSCLK) == RCC_CLOCKTYPE_SYSCLK)
20000d94:	6823      	ldr	r3, [r4, #0]
20000d96:	f013 0f01 	tst.w	r3, #1
20000d9a:	d032      	beq.n	20000e02 <HAL_RCC_ClockConfig+0xd2>
    if(RCC_ClkInitStruct->SYSCLKSource == RCC_SYSCLKSOURCE_HSE)
20000d9c:	6863      	ldr	r3, [r4, #4]
20000d9e:	2b01      	cmp	r3, #1
20000da0:	d021      	beq.n	20000de6 <HAL_RCC_ClockConfig+0xb6>
    else if((RCC_ClkInitStruct->SYSCLKSource == RCC_SYSCLKSOURCE_PLLCLK)   ||
20000da2:	1e9a      	subs	r2, r3, #2
20000da4:	2a01      	cmp	r2, #1
20000da6:	d925      	bls.n	20000df4 <HAL_RCC_ClockConfig+0xc4>
      if(__HAL_RCC_GET_FLAG(RCC_FLAG_HSIRDY) == RESET)
20000da8:	4a34      	ldr	r2, [pc, #208]	; (20000e7c <HAL_RCC_ClockConfig+0x14c>)
20000daa:	6812      	ldr	r2, [r2, #0]
20000dac:	f012 0f02 	tst.w	r2, #2
20000db0:	d060      	beq.n	20000e74 <HAL_RCC_ClockConfig+0x144>
    __HAL_RCC_SYSCLK_CONFIG(RCC_ClkInitStruct->SYSCLKSource);
20000db2:	4932      	ldr	r1, [pc, #200]	; (20000e7c <HAL_RCC_ClockConfig+0x14c>)
20000db4:	688a      	ldr	r2, [r1, #8]
20000db6:	f022 0203 	bic.w	r2, r2, #3
20000dba:	4313      	orrs	r3, r2
20000dbc:	608b      	str	r3, [r1, #8]
    tickstart = HAL_GetTick();
20000dbe:	f7ff fc05 	bl	200005cc <HAL_GetTick>
20000dc2:	4606      	mov	r6, r0
    while (__HAL_RCC_GET_SYSCLK_SOURCE() != (RCC_ClkInitStruct->SYSCLKSource << RCC_CFGR_SWS_Pos))
20000dc4:	4b2d      	ldr	r3, [pc, #180]	; (20000e7c <HAL_RCC_ClockConfig+0x14c>)
20000dc6:	689b      	ldr	r3, [r3, #8]
20000dc8:	f003 030c 	and.w	r3, r3, #12
20000dcc:	6862      	ldr	r2, [r4, #4]
20000dce:	ebb3 0f82 	cmp.w	r3, r2, lsl #2
20000dd2:	d016      	beq.n	20000e02 <HAL_RCC_ClockConfig+0xd2>
      if ((HAL_GetTick() - tickstart) > CLOCKSWITCH_TIMEOUT_VALUE)
20000dd4:	f7ff fbfa 	bl	200005cc <HAL_GetTick>
20000dd8:	1b80      	subs	r0, r0, r6
20000dda:	f241 3388 	movw	r3, #5000	; 0x1388
20000dde:	4298      	cmp	r0, r3
20000de0:	d9f0      	bls.n	20000dc4 <HAL_RCC_ClockConfig+0x94>
        return HAL_TIMEOUT;
20000de2:	2003      	movs	r0, #3
20000de4:	bd70      	pop	{r4, r5, r6, pc}
      if(__HAL_RCC_GET_FLAG(RCC_FLAG_HSERDY) == RESET)
20000de6:	4a25      	ldr	r2, [pc, #148]	; (20000e7c <HAL_RCC_ClockConfig+0x14c>)
20000de8:	6812      	ldr	r2, [r2, #0]
20000dea:	f412 3f00 	tst.w	r2, #131072	; 0x20000
20000dee:	d1e0      	bne.n	20000db2 <HAL_RCC_ClockConfig+0x82>
        return HAL_ERROR;
20000df0:	2001      	movs	r0, #1
20000df2:	bd70      	pop	{r4, r5, r6, pc}
      if(__HAL_RCC_GET_FLAG(RCC_FLAG_PLLRDY) == RESET)
20000df4:	4a21      	ldr	r2, [pc, #132]	; (20000e7c <HAL_RCC_ClockConfig+0x14c>)
20000df6:	6812      	ldr	r2, [r2, #0]
20000df8:	f012 7f00 	tst.w	r2, #33554432	; 0x2000000
20000dfc:	d1d9      	bne.n	20000db2 <HAL_RCC_ClockConfig+0x82>
        return HAL_ERROR;
20000dfe:	2001      	movs	r0, #1
20000e00:	bd70      	pop	{r4, r5, r6, pc}
  if(FLatency < __HAL_FLASH_GET_LATENCY())
20000e02:	4b1d      	ldr	r3, [pc, #116]	; (20000e78 <HAL_RCC_ClockConfig+0x148>)
20000e04:	681b      	ldr	r3, [r3, #0]
20000e06:	f003 030f 	and.w	r3, r3, #15
20000e0a:	429d      	cmp	r5, r3
20000e0c:	d209      	bcs.n	20000e22 <HAL_RCC_ClockConfig+0xf2>
    __HAL_FLASH_SET_LATENCY(FLatency);
20000e0e:	b2ea      	uxtb	r2, r5
20000e10:	4b19      	ldr	r3, [pc, #100]	; (20000e78 <HAL_RCC_ClockConfig+0x148>)
20000e12:	701a      	strb	r2, [r3, #0]
    if(__HAL_FLASH_GET_LATENCY() != FLatency)
20000e14:	681b      	ldr	r3, [r3, #0]
20000e16:	f003 030f 	and.w	r3, r3, #15
20000e1a:	429d      	cmp	r5, r3
20000e1c:	d001      	beq.n	20000e22 <HAL_RCC_ClockConfig+0xf2>
      return HAL_ERROR;
20000e1e:	2001      	movs	r0, #1
}
20000e20:	bd70      	pop	{r4, r5, r6, pc}
  if(((RCC_ClkInitStruct->ClockType) & RCC_CLOCKTYPE_PCLK1) == RCC_CLOCKTYPE_PCLK1)
20000e22:	6823      	ldr	r3, [r4, #0]
20000e24:	f013 0f04 	tst.w	r3, #4
20000e28:	d006      	beq.n	20000e38 <HAL_RCC_ClockConfig+0x108>
    MODIFY_REG(RCC->CFGR, RCC_CFGR_PPRE1, RCC_ClkInitStruct->APB1CLKDivider);
20000e2a:	4a14      	ldr	r2, [pc, #80]	; (20000e7c <HAL_RCC_ClockConfig+0x14c>)
20000e2c:	6893      	ldr	r3, [r2, #8]
20000e2e:	f423 53e0 	bic.w	r3, r3, #7168	; 0x1c00
20000e32:	68e1      	ldr	r1, [r4, #12]
20000e34:	430b      	orrs	r3, r1
20000e36:	6093      	str	r3, [r2, #8]
  if(((RCC_ClkInitStruct->ClockType) & RCC_CLOCKTYPE_PCLK2) == RCC_CLOCKTYPE_PCLK2)
20000e38:	6823      	ldr	r3, [r4, #0]
20000e3a:	f013 0f08 	tst.w	r3, #8
20000e3e:	d007      	beq.n	20000e50 <HAL_RCC_ClockConfig+0x120>
    MODIFY_REG(RCC->CFGR, RCC_CFGR_PPRE2, ((RCC_ClkInitStruct->APB2CLKDivider) << 3U));
20000e40:	4a0e      	ldr	r2, [pc, #56]	; (20000e7c <HAL_RCC_ClockConfig+0x14c>)
20000e42:	6893      	ldr	r3, [r2, #8]
20000e44:	f423 4360 	bic.w	r3, r3, #57344	; 0xe000
20000e48:	6921      	ldr	r1, [r4, #16]
20000e4a:	ea43 03c1 	orr.w	r3, r3, r1, lsl #3
20000e4e:	6093      	str	r3, [r2, #8]
  SystemCoreClock = HAL_RCC_GetSysClockFreq() >> AHBPrescTable[(RCC->CFGR & RCC_CFGR_HPRE)>> RCC_CFGR_HPRE_Pos];
20000e50:	f7ff ff04 	bl	20000c5c <HAL_RCC_GetSysClockFreq>
20000e54:	4b09      	ldr	r3, [pc, #36]	; (20000e7c <HAL_RCC_ClockConfig+0x14c>)
20000e56:	689b      	ldr	r3, [r3, #8]
20000e58:	f3c3 1303 	ubfx	r3, r3, #4, #4
20000e5c:	4a08      	ldr	r2, [pc, #32]	; (20000e80 <HAL_RCC_ClockConfig+0x150>)
20000e5e:	5cd3      	ldrb	r3, [r2, r3]
20000e60:	40d8      	lsrs	r0, r3
20000e62:	4b08      	ldr	r3, [pc, #32]	; (20000e84 <HAL_RCC_ClockConfig+0x154>)
20000e64:	6018      	str	r0, [r3, #0]
  HAL_InitTick (TICK_INT_PRIORITY);
20000e66:	2000      	movs	r0, #0
20000e68:	f002 f96c 	bl	20003144 <HAL_InitTick>
  return HAL_OK;
20000e6c:	2000      	movs	r0, #0
20000e6e:	bd70      	pop	{r4, r5, r6, pc}
    return HAL_ERROR;
20000e70:	2001      	movs	r0, #1
20000e72:	4770      	bx	lr
        return HAL_ERROR;
20000e74:	2001      	movs	r0, #1
20000e76:	bd70      	pop	{r4, r5, r6, pc}
20000e78:	40023c00 	.word	0x40023c00
20000e7c:	40023800 	.word	0x40023800
20000e80:	2000b02c 	.word	0x2000b02c
20000e84:	20018070 	.word	0x20018070

20000e88 <HAL_RCC_GetHCLKFreq>:
  * @retval HCLK frequency
  */
uint32_t HAL_RCC_GetHCLKFreq(void)
{
  return SystemCoreClock;
}
20000e88:	4b01      	ldr	r3, [pc, #4]	; (20000e90 <HAL_RCC_GetHCLKFreq+0x8>)
20000e8a:	6818      	ldr	r0, [r3, #0]
20000e8c:	4770      	bx	lr
20000e8e:	bf00      	nop
20000e90:	20018070 	.word	0x20018070

20000e94 <HAL_RCC_GetPCLK1Freq>:
  * @note   Each time PCLK1 changes, this function must be called to update the
  *         right PCLK1 value. Otherwise, any configuration based on this function will be incorrect.
  * @retval PCLK1 frequency
  */
uint32_t HAL_RCC_GetPCLK1Freq(void)
{
20000e94:	b508      	push	{r3, lr}
  /* Get HCLK source and Compute PCLK1 frequency ---------------------------*/
  return (HAL_RCC_GetHCLKFreq() >> APBPrescTable[(RCC->CFGR & RCC_CFGR_PPRE1)>> RCC_CFGR_PPRE1_Pos]);
20000e96:	f7ff fff7 	bl	20000e88 <HAL_RCC_GetHCLKFreq>
20000e9a:	4b04      	ldr	r3, [pc, #16]	; (20000eac <HAL_RCC_GetPCLK1Freq+0x18>)
20000e9c:	689b      	ldr	r3, [r3, #8]
20000e9e:	f3c3 2382 	ubfx	r3, r3, #10, #3
20000ea2:	4a03      	ldr	r2, [pc, #12]	; (20000eb0 <HAL_RCC_GetPCLK1Freq+0x1c>)
20000ea4:	5cd3      	ldrb	r3, [r2, r3]
}
20000ea6:	40d8      	lsrs	r0, r3
20000ea8:	bd08      	pop	{r3, pc}
20000eaa:	bf00      	nop
20000eac:	40023800 	.word	0x40023800
20000eb0:	2000b03c 	.word	0x2000b03c

20000eb4 <HAL_RCC_GetClockConfig>:
  * @retval None
  */
void HAL_RCC_GetClockConfig(RCC_ClkInitTypeDef  *RCC_ClkInitStruct, uint32_t *pFLatency)
{
  /* Set all possible values for the Clock type parameter --------------------*/
  RCC_ClkInitStruct->ClockType = RCC_CLOCKTYPE_SYSCLK | RCC_CLOCKTYPE_HCLK | RCC_CLOCKTYPE_PCLK1 | RCC_CLOCKTYPE_PCLK2;
20000eb4:	230f      	movs	r3, #15
20000eb6:	6003      	str	r3, [r0, #0]

  /* Get the SYSCLK configuration --------------------------------------------*/
  RCC_ClkInitStruct->SYSCLKSource = (uint32_t)(RCC->CFGR & RCC_CFGR_SW);
20000eb8:	4b0b      	ldr	r3, [pc, #44]	; (20000ee8 <HAL_RCC_GetClockConfig+0x34>)
20000eba:	689a      	ldr	r2, [r3, #8]
20000ebc:	f002 0203 	and.w	r2, r2, #3
20000ec0:	6042      	str	r2, [r0, #4]

  /* Get the HCLK configuration ----------------------------------------------*/
  RCC_ClkInitStruct->AHBCLKDivider = (uint32_t)(RCC->CFGR & RCC_CFGR_HPRE);
20000ec2:	689a      	ldr	r2, [r3, #8]
20000ec4:	f002 02f0 	and.w	r2, r2, #240	; 0xf0
20000ec8:	6082      	str	r2, [r0, #8]

  /* Get the APB1 configuration ----------------------------------------------*/
  RCC_ClkInitStruct->APB1CLKDivider = (uint32_t)(RCC->CFGR & RCC_CFGR_PPRE1);
20000eca:	689a      	ldr	r2, [r3, #8]
20000ecc:	f402 52e0 	and.w	r2, r2, #7168	; 0x1c00
20000ed0:	60c2      	str	r2, [r0, #12]

  /* Get the APB2 configuration ----------------------------------------------*/
  RCC_ClkInitStruct->APB2CLKDivider = (uint32_t)((RCC->CFGR & RCC_CFGR_PPRE2) >> 3U);
20000ed2:	689b      	ldr	r3, [r3, #8]
20000ed4:	08db      	lsrs	r3, r3, #3
20000ed6:	f403 53e0 	and.w	r3, r3, #7168	; 0x1c00
20000eda:	6103      	str	r3, [r0, #16]

  /* Get the Flash Wait State (Latency) configuration ------------------------*/
  *pFLatency = (uint32_t)(FLASH->ACR & FLASH_ACR_LATENCY);
20000edc:	4b03      	ldr	r3, [pc, #12]	; (20000eec <HAL_RCC_GetClockConfig+0x38>)
20000ede:	681b      	ldr	r3, [r3, #0]
20000ee0:	f003 030f 	and.w	r3, r3, #15
20000ee4:	600b      	str	r3, [r1, #0]
20000ee6:	4770      	bx	lr
20000ee8:	40023800 	.word	0x40023800
20000eec:	40023c00 	.word	0x40023c00

20000ef0 <HAL_RCCEx_PeriphCLKConfig>:
  *        domain (RTC and RCC_BDCR register expect BKPSRAM) will be reset
  *
  * @retval HAL status
  */
HAL_StatusTypeDef HAL_RCCEx_PeriphCLKConfig(RCC_PeriphCLKInitTypeDef  *PeriphClkInit)
{
20000ef0:	b530      	push	{r4, r5, lr}
20000ef2:	b083      	sub	sp, #12
20000ef4:	4605      	mov	r5, r0

  /* Check the parameters */
  assert_param(IS_RCC_PERIPHCLOCK(PeriphClkInit->PeriphClockSelection));

  /*---------------------------- I2S configuration ---------------------------*/
  if((((PeriphClkInit->PeriphClockSelection) & RCC_PERIPHCLK_I2S) == RCC_PERIPHCLK_I2S) ||
20000ef6:	6803      	ldr	r3, [r0, #0]
20000ef8:	f013 0f05 	tst.w	r3, #5
20000efc:	d106      	bne.n	20000f0c <HAL_RCCEx_PeriphCLKConfig+0x1c>
      }
    }
  }

  /*---------------------------- RTC configuration ---------------------------*/
  if(((PeriphClkInit->PeriphClockSelection) & RCC_PERIPHCLK_RTC) == (RCC_PERIPHCLK_RTC))
20000efe:	682b      	ldr	r3, [r5, #0]
20000f00:	f013 0f02 	tst.w	r3, #2
20000f04:	d12e      	bne.n	20000f64 <HAL_RCCEx_PeriphCLKConfig+0x74>
  if(((PeriphClkInit->PeriphClockSelection) & RCC_PERIPHCLK_TIM) == (RCC_PERIPHCLK_TIM))
  {
    __HAL_RCC_TIMCLKPRESCALER(PeriphClkInit->TIMPresSelection);
  }
#endif /* STM32F401xC || STM32F401xE || STM32F411xE */
  return HAL_OK;
20000f06:	2000      	movs	r0, #0
}
20000f08:	b003      	add	sp, #12
20000f0a:	bd30      	pop	{r4, r5, pc}
    __HAL_RCC_PLLI2S_DISABLE();
20000f0c:	2200      	movs	r2, #0
20000f0e:	4b49      	ldr	r3, [pc, #292]	; (20001034 <HAL_RCCEx_PeriphCLKConfig+0x144>)
20000f10:	601a      	str	r2, [r3, #0]
    tickstart = HAL_GetTick();
20000f12:	f7ff fb5b 	bl	200005cc <HAL_GetTick>
20000f16:	4604      	mov	r4, r0
    while(__HAL_RCC_GET_FLAG(RCC_FLAG_PLLI2SRDY)  != RESET)
20000f18:	4b47      	ldr	r3, [pc, #284]	; (20001038 <HAL_RCCEx_PeriphCLKConfig+0x148>)
20000f1a:	681b      	ldr	r3, [r3, #0]
20000f1c:	f013 6f00 	tst.w	r3, #134217728	; 0x8000000
20000f20:	d006      	beq.n	20000f30 <HAL_RCCEx_PeriphCLKConfig+0x40>
      if((HAL_GetTick() - tickstart ) > PLLI2S_TIMEOUT_VALUE)
20000f22:	f7ff fb53 	bl	200005cc <HAL_GetTick>
20000f26:	1b00      	subs	r0, r0, r4
20000f28:	2802      	cmp	r0, #2
20000f2a:	d9f5      	bls.n	20000f18 <HAL_RCCEx_PeriphCLKConfig+0x28>
        return HAL_TIMEOUT;
20000f2c:	2003      	movs	r0, #3
20000f2e:	e7eb      	b.n	20000f08 <HAL_RCCEx_PeriphCLKConfig+0x18>
    __HAL_RCC_PLLI2S_CONFIG(PeriphClkInit->PLLI2S.PLLI2SN , PeriphClkInit->PLLI2S.PLLI2SR);
20000f30:	686a      	ldr	r2, [r5, #4]
20000f32:	68ab      	ldr	r3, [r5, #8]
20000f34:	071b      	lsls	r3, r3, #28
20000f36:	ea43 1382 	orr.w	r3, r3, r2, lsl #6
20000f3a:	4a3f      	ldr	r2, [pc, #252]	; (20001038 <HAL_RCCEx_PeriphCLKConfig+0x148>)
20000f3c:	f8c2 3084 	str.w	r3, [r2, #132]	; 0x84
    __HAL_RCC_PLLI2S_ENABLE();
20000f40:	2201      	movs	r2, #1
20000f42:	4b3c      	ldr	r3, [pc, #240]	; (20001034 <HAL_RCCEx_PeriphCLKConfig+0x144>)
20000f44:	601a      	str	r2, [r3, #0]
    tickstart = HAL_GetTick();
20000f46:	f7ff fb41 	bl	200005cc <HAL_GetTick>
20000f4a:	4604      	mov	r4, r0
    while(__HAL_RCC_GET_FLAG(RCC_FLAG_PLLI2SRDY)  == RESET)
20000f4c:	4b3a      	ldr	r3, [pc, #232]	; (20001038 <HAL_RCCEx_PeriphCLKConfig+0x148>)
20000f4e:	681b      	ldr	r3, [r3, #0]
20000f50:	f013 6f00 	tst.w	r3, #134217728	; 0x8000000
20000f54:	d1d3      	bne.n	20000efe <HAL_RCCEx_PeriphCLKConfig+0xe>
      if((HAL_GetTick() - tickstart ) > PLLI2S_TIMEOUT_VALUE)
20000f56:	f7ff fb39 	bl	200005cc <HAL_GetTick>
20000f5a:	1b00      	subs	r0, r0, r4
20000f5c:	2802      	cmp	r0, #2
20000f5e:	d9f5      	bls.n	20000f4c <HAL_RCCEx_PeriphCLKConfig+0x5c>
        return HAL_TIMEOUT;
20000f60:	2003      	movs	r0, #3
20000f62:	e7d1      	b.n	20000f08 <HAL_RCCEx_PeriphCLKConfig+0x18>
    __HAL_RCC_PWR_CLK_ENABLE();
20000f64:	2300      	movs	r3, #0
20000f66:	9301      	str	r3, [sp, #4]
20000f68:	4b33      	ldr	r3, [pc, #204]	; (20001038 <HAL_RCCEx_PeriphCLKConfig+0x148>)
20000f6a:	6c1a      	ldr	r2, [r3, #64]	; 0x40
20000f6c:	f042 5280 	orr.w	r2, r2, #268435456	; 0x10000000
20000f70:	641a      	str	r2, [r3, #64]	; 0x40
20000f72:	6c1b      	ldr	r3, [r3, #64]	; 0x40
20000f74:	f003 5380 	and.w	r3, r3, #268435456	; 0x10000000
20000f78:	9301      	str	r3, [sp, #4]
20000f7a:	9b01      	ldr	r3, [sp, #4]
    PWR->CR |= PWR_CR_DBP;
20000f7c:	4a2f      	ldr	r2, [pc, #188]	; (2000103c <HAL_RCCEx_PeriphCLKConfig+0x14c>)
20000f7e:	6813      	ldr	r3, [r2, #0]
20000f80:	f443 7380 	orr.w	r3, r3, #256	; 0x100
20000f84:	6013      	str	r3, [r2, #0]
    tickstart = HAL_GetTick();
20000f86:	f7ff fb21 	bl	200005cc <HAL_GetTick>
20000f8a:	4604      	mov	r4, r0
    while((PWR->CR & PWR_CR_DBP) == RESET)
20000f8c:	4b2b      	ldr	r3, [pc, #172]	; (2000103c <HAL_RCCEx_PeriphCLKConfig+0x14c>)
20000f8e:	681b      	ldr	r3, [r3, #0]
20000f90:	f413 7f80 	tst.w	r3, #256	; 0x100
20000f94:	d106      	bne.n	20000fa4 <HAL_RCCEx_PeriphCLKConfig+0xb4>
      if((HAL_GetTick() - tickstart ) > RCC_DBP_TIMEOUT_VALUE)
20000f96:	f7ff fb19 	bl	200005cc <HAL_GetTick>
20000f9a:	1b00      	subs	r0, r0, r4
20000f9c:	2802      	cmp	r0, #2
20000f9e:	d9f5      	bls.n	20000f8c <HAL_RCCEx_PeriphCLKConfig+0x9c>
        return HAL_TIMEOUT;
20000fa0:	2003      	movs	r0, #3
20000fa2:	e7b1      	b.n	20000f08 <HAL_RCCEx_PeriphCLKConfig+0x18>
    tmpreg1 = (RCC->BDCR & RCC_BDCR_RTCSEL);
20000fa4:	4b24      	ldr	r3, [pc, #144]	; (20001038 <HAL_RCCEx_PeriphCLKConfig+0x148>)
20000fa6:	6f1b      	ldr	r3, [r3, #112]	; 0x70
    if((tmpreg1 != 0x00000000U) && ((tmpreg1) != (PeriphClkInit->RTCClockSelection & RCC_BDCR_RTCSEL)))
20000fa8:	f413 7340 	ands.w	r3, r3, #768	; 0x300
20000fac:	d012      	beq.n	20000fd4 <HAL_RCCEx_PeriphCLKConfig+0xe4>
20000fae:	68ea      	ldr	r2, [r5, #12]
20000fb0:	f402 7240 	and.w	r2, r2, #768	; 0x300
20000fb4:	4293      	cmp	r3, r2
20000fb6:	d00d      	beq.n	20000fd4 <HAL_RCCEx_PeriphCLKConfig+0xe4>
      tmpreg1 = (RCC->BDCR & ~(RCC_BDCR_RTCSEL));
20000fb8:	4b1f      	ldr	r3, [pc, #124]	; (20001038 <HAL_RCCEx_PeriphCLKConfig+0x148>)
20000fba:	6f1a      	ldr	r2, [r3, #112]	; 0x70
20000fbc:	f422 7240 	bic.w	r2, r2, #768	; 0x300
      __HAL_RCC_BACKUPRESET_FORCE();
20000fc0:	491f      	ldr	r1, [pc, #124]	; (20001040 <HAL_RCCEx_PeriphCLKConfig+0x150>)
20000fc2:	2001      	movs	r0, #1
20000fc4:	6008      	str	r0, [r1, #0]
      __HAL_RCC_BACKUPRESET_RELEASE();
20000fc6:	2000      	movs	r0, #0
20000fc8:	6008      	str	r0, [r1, #0]
      RCC->BDCR = tmpreg1;
20000fca:	671a      	str	r2, [r3, #112]	; 0x70
      if(HAL_IS_BIT_SET(RCC->BDCR, RCC_BDCR_LSEON))
20000fcc:	6f1b      	ldr	r3, [r3, #112]	; 0x70
20000fce:	f013 0f01 	tst.w	r3, #1
20000fd2:	d113      	bne.n	20000ffc <HAL_RCCEx_PeriphCLKConfig+0x10c>
    __HAL_RCC_RTC_CONFIG(PeriphClkInit->RTCClockSelection);
20000fd4:	68eb      	ldr	r3, [r5, #12]
20000fd6:	f403 7240 	and.w	r2, r3, #768	; 0x300
20000fda:	f5b2 7f40 	cmp.w	r2, #768	; 0x300
20000fde:	d01e      	beq.n	2000101e <HAL_RCCEx_PeriphCLKConfig+0x12e>
20000fe0:	4a15      	ldr	r2, [pc, #84]	; (20001038 <HAL_RCCEx_PeriphCLKConfig+0x148>)
20000fe2:	6893      	ldr	r3, [r2, #8]
20000fe4:	f423 13f8 	bic.w	r3, r3, #2031616	; 0x1f0000
20000fe8:	6093      	str	r3, [r2, #8]
20000fea:	4913      	ldr	r1, [pc, #76]	; (20001038 <HAL_RCCEx_PeriphCLKConfig+0x148>)
20000fec:	6f0b      	ldr	r3, [r1, #112]	; 0x70
20000fee:	68ea      	ldr	r2, [r5, #12]
20000ff0:	f3c2 020b 	ubfx	r2, r2, #0, #12
20000ff4:	4313      	orrs	r3, r2
20000ff6:	670b      	str	r3, [r1, #112]	; 0x70
  return HAL_OK;
20000ff8:	2000      	movs	r0, #0
20000ffa:	e785      	b.n	20000f08 <HAL_RCCEx_PeriphCLKConfig+0x18>
        tickstart = HAL_GetTick();
20000ffc:	f7ff fae6 	bl	200005cc <HAL_GetTick>
20001000:	4604      	mov	r4, r0
        while(__HAL_RCC_GET_FLAG(RCC_FLAG_LSERDY) == RESET)
20001002:	4b0d      	ldr	r3, [pc, #52]	; (20001038 <HAL_RCCEx_PeriphCLKConfig+0x148>)
20001004:	6f1b      	ldr	r3, [r3, #112]	; 0x70
20001006:	f013 0f02 	tst.w	r3, #2
2000100a:	d1e3      	bne.n	20000fd4 <HAL_RCCEx_PeriphCLKConfig+0xe4>
          if((HAL_GetTick() - tickstart ) > RCC_LSE_TIMEOUT_VALUE)
2000100c:	f7ff fade 	bl	200005cc <HAL_GetTick>
20001010:	1b00      	subs	r0, r0, r4
20001012:	f241 3388 	movw	r3, #5000	; 0x1388
20001016:	4298      	cmp	r0, r3
20001018:	d9f3      	bls.n	20001002 <HAL_RCCEx_PeriphCLKConfig+0x112>
            return HAL_TIMEOUT;
2000101a:	2003      	movs	r0, #3
2000101c:	e774      	b.n	20000f08 <HAL_RCCEx_PeriphCLKConfig+0x18>
    __HAL_RCC_RTC_CONFIG(PeriphClkInit->RTCClockSelection);
2000101e:	4906      	ldr	r1, [pc, #24]	; (20001038 <HAL_RCCEx_PeriphCLKConfig+0x148>)
20001020:	688a      	ldr	r2, [r1, #8]
20001022:	f422 12f8 	bic.w	r2, r2, #2031616	; 0x1f0000
20001026:	f023 4370 	bic.w	r3, r3, #4026531840	; 0xf0000000
2000102a:	f423 7340 	bic.w	r3, r3, #768	; 0x300
2000102e:	4313      	orrs	r3, r2
20001030:	608b      	str	r3, [r1, #8]
20001032:	e7da      	b.n	20000fea <HAL_RCCEx_PeriphCLKConfig+0xfa>
20001034:	42470068 	.word	0x42470068
20001038:	40023800 	.word	0x40023800
2000103c:	40007000 	.word	0x40007000
20001040:	42470e40 	.word	0x42470e40

20001044 <HAL_RTC_WaitForSynchro>:
  * @param  hrtc pointer to a RTC_HandleTypeDef structure that contains
  *                the configuration information for RTC.
  * @retval HAL status
  */
HAL_StatusTypeDef HAL_RTC_WaitForSynchro(RTC_HandleTypeDef* hrtc)
{
20001044:	b538      	push	{r3, r4, r5, lr}
20001046:	4604      	mov	r4, r0
  uint32_t tickstart = 0U;

  /* Clear RSF flag */
  hrtc->Instance->ISR &= (uint32_t)RTC_RSF_MASK;
20001048:	6802      	ldr	r2, [r0, #0]
2000104a:	68d3      	ldr	r3, [r2, #12]
2000104c:	f023 03a0 	bic.w	r3, r3, #160	; 0xa0
20001050:	60d3      	str	r3, [r2, #12]

    /* Get tick */
    tickstart = HAL_GetTick();
20001052:	f7ff fabb 	bl	200005cc <HAL_GetTick>
20001056:	4605      	mov	r5, r0

  /* Wait the registers to be synchronised */
  while((hrtc->Instance->ISR & RTC_ISR_RSF) == (uint32_t)RESET)
20001058:	6823      	ldr	r3, [r4, #0]
2000105a:	68db      	ldr	r3, [r3, #12]
2000105c:	f013 0f20 	tst.w	r3, #32
20001060:	d107      	bne.n	20001072 <HAL_RTC_WaitForSynchro+0x2e>
  {
    if((HAL_GetTick() - tickstart ) > RTC_TIMEOUT_VALUE)
20001062:	f7ff fab3 	bl	200005cc <HAL_GetTick>
20001066:	1b40      	subs	r0, r0, r5
20001068:	f5b0 7f7a 	cmp.w	r0, #1000	; 0x3e8
2000106c:	d9f4      	bls.n	20001058 <HAL_RTC_WaitForSynchro+0x14>
    {       
      return HAL_TIMEOUT;
2000106e:	2003      	movs	r0, #3
    } 
  }

  return HAL_OK;
}
20001070:	bd38      	pop	{r3, r4, r5, pc}
  return HAL_OK;
20001072:	2000      	movs	r0, #0
20001074:	bd38      	pop	{r3, r4, r5, pc}

20001076 <RTC_EnterInitMode>:
  * @param  hrtc pointer to a RTC_HandleTypeDef structure that contains
  *                the configuration information for RTC.
  * @retval HAL status
  */
HAL_StatusTypeDef RTC_EnterInitMode(RTC_HandleTypeDef* hrtc)
{
20001076:	b538      	push	{r3, r4, r5, lr}
  uint32_t tickstart = 0U; 
  
  /* Check if the Initialization mode is set */
  if((hrtc->Instance->ISR & RTC_ISR_INITF) == (uint32_t)RESET)
20001078:	6803      	ldr	r3, [r0, #0]
2000107a:	68da      	ldr	r2, [r3, #12]
2000107c:	f012 0f40 	tst.w	r2, #64	; 0x40
20001080:	d001      	beq.n	20001086 <RTC_EnterInitMode+0x10>
        return HAL_TIMEOUT;
      } 
    }
  }
  
  return HAL_OK;  
20001082:	2000      	movs	r0, #0
20001084:	bd38      	pop	{r3, r4, r5, pc}
20001086:	4604      	mov	r4, r0
    hrtc->Instance->ISR = (uint32_t)RTC_INIT_MASK;
20001088:	f04f 32ff 	mov.w	r2, #4294967295
2000108c:	60da      	str	r2, [r3, #12]
    tickstart = HAL_GetTick();
2000108e:	f7ff fa9d 	bl	200005cc <HAL_GetTick>
20001092:	4605      	mov	r5, r0
    while((hrtc->Instance->ISR & RTC_ISR_INITF) == (uint32_t)RESET)
20001094:	6823      	ldr	r3, [r4, #0]
20001096:	68db      	ldr	r3, [r3, #12]
20001098:	f013 0f40 	tst.w	r3, #64	; 0x40
2000109c:	d107      	bne.n	200010ae <RTC_EnterInitMode+0x38>
      if((HAL_GetTick() - tickstart ) > RTC_TIMEOUT_VALUE)
2000109e:	f7ff fa95 	bl	200005cc <HAL_GetTick>
200010a2:	1b40      	subs	r0, r0, r5
200010a4:	f5b0 7f7a 	cmp.w	r0, #1000	; 0x3e8
200010a8:	d9f4      	bls.n	20001094 <RTC_EnterInitMode+0x1e>
        return HAL_TIMEOUT;
200010aa:	2003      	movs	r0, #3
}
200010ac:	bd38      	pop	{r3, r4, r5, pc}
  return HAL_OK;  
200010ae:	2000      	movs	r0, #0
200010b0:	bd38      	pop	{r3, r4, r5, pc}

200010b2 <HAL_RTC_Init>:
{
200010b2:	b538      	push	{r3, r4, r5, lr}
  if(hrtc == NULL)
200010b4:	2800      	cmp	r0, #0
200010b6:	d05c      	beq.n	20001172 <HAL_RTC_Init+0xc0>
200010b8:	4604      	mov	r4, r0
  if(hrtc->State == HAL_RTC_STATE_RESET)
200010ba:	7f43      	ldrb	r3, [r0, #29]
200010bc:	2b00      	cmp	r3, #0
200010be:	d041      	beq.n	20001144 <HAL_RTC_Init+0x92>
  hrtc->State = HAL_RTC_STATE_BUSY;  
200010c0:	2302      	movs	r3, #2
200010c2:	7763      	strb	r3, [r4, #29]
  __HAL_RTC_WRITEPROTECTION_DISABLE(hrtc);
200010c4:	6823      	ldr	r3, [r4, #0]
200010c6:	22ca      	movs	r2, #202	; 0xca
200010c8:	625a      	str	r2, [r3, #36]	; 0x24
200010ca:	6823      	ldr	r3, [r4, #0]
200010cc:	2253      	movs	r2, #83	; 0x53
200010ce:	625a      	str	r2, [r3, #36]	; 0x24
  if(RTC_EnterInitMode(hrtc) != HAL_OK)
200010d0:	4620      	mov	r0, r4
200010d2:	f7ff ffd0 	bl	20001076 <RTC_EnterInitMode>
200010d6:	4605      	mov	r5, r0
200010d8:	2800      	cmp	r0, #0
200010da:	d137      	bne.n	2000114c <HAL_RTC_Init+0x9a>
    hrtc->Instance->CR &= ((uint32_t)~(RTC_CR_FMT | RTC_CR_OSEL | RTC_CR_POL));
200010dc:	6822      	ldr	r2, [r4, #0]
200010de:	6893      	ldr	r3, [r2, #8]
200010e0:	f423 03e0 	bic.w	r3, r3, #7340032	; 0x700000
200010e4:	f023 0340 	bic.w	r3, r3, #64	; 0x40
200010e8:	6093      	str	r3, [r2, #8]
    hrtc->Instance->CR |= (uint32_t)(hrtc->Init.HourFormat | hrtc->Init.OutPut | hrtc->Init.OutPutPolarity);
200010ea:	6821      	ldr	r1, [r4, #0]
200010ec:	688a      	ldr	r2, [r1, #8]
200010ee:	6863      	ldr	r3, [r4, #4]
200010f0:	6920      	ldr	r0, [r4, #16]
200010f2:	4303      	orrs	r3, r0
200010f4:	6960      	ldr	r0, [r4, #20]
200010f6:	4303      	orrs	r3, r0
200010f8:	4313      	orrs	r3, r2
200010fa:	608b      	str	r3, [r1, #8]
    hrtc->Instance->PRER = (uint32_t)(hrtc->Init.SynchPrediv);
200010fc:	6823      	ldr	r3, [r4, #0]
200010fe:	68e2      	ldr	r2, [r4, #12]
20001100:	611a      	str	r2, [r3, #16]
    hrtc->Instance->PRER |= (uint32_t)(hrtc->Init.AsynchPrediv << 16U);
20001102:	6822      	ldr	r2, [r4, #0]
20001104:	6913      	ldr	r3, [r2, #16]
20001106:	68a1      	ldr	r1, [r4, #8]
20001108:	ea43 4301 	orr.w	r3, r3, r1, lsl #16
2000110c:	6113      	str	r3, [r2, #16]
    hrtc->Instance->ISR &= (uint32_t)~RTC_ISR_INIT; 
2000110e:	6822      	ldr	r2, [r4, #0]
20001110:	68d3      	ldr	r3, [r2, #12]
20001112:	f023 0380 	bic.w	r3, r3, #128	; 0x80
20001116:	60d3      	str	r3, [r2, #12]
    if((hrtc->Instance->CR & RTC_CR_BYPSHAD) == RESET)
20001118:	6823      	ldr	r3, [r4, #0]
2000111a:	689b      	ldr	r3, [r3, #8]
2000111c:	f013 0f20 	tst.w	r3, #32
20001120:	d01b      	beq.n	2000115a <HAL_RTC_Init+0xa8>
    hrtc->Instance->TAFCR &= (uint32_t)~RTC_TAFCR_ALARMOUTTYPE;
20001122:	6822      	ldr	r2, [r4, #0]
20001124:	6c13      	ldr	r3, [r2, #64]	; 0x40
20001126:	f423 2380 	bic.w	r3, r3, #262144	; 0x40000
2000112a:	6413      	str	r3, [r2, #64]	; 0x40
    hrtc->Instance->TAFCR |= (uint32_t)(hrtc->Init.OutPutType); 
2000112c:	6822      	ldr	r2, [r4, #0]
2000112e:	6c13      	ldr	r3, [r2, #64]	; 0x40
20001130:	69a1      	ldr	r1, [r4, #24]
20001132:	430b      	orrs	r3, r1
20001134:	6413      	str	r3, [r2, #64]	; 0x40
    __HAL_RTC_WRITEPROTECTION_ENABLE(hrtc); 
20001136:	6823      	ldr	r3, [r4, #0]
20001138:	22ff      	movs	r2, #255	; 0xff
2000113a:	625a      	str	r2, [r3, #36]	; 0x24
    hrtc->State = HAL_RTC_STATE_READY;
2000113c:	2301      	movs	r3, #1
2000113e:	7763      	strb	r3, [r4, #29]
}
20001140:	4628      	mov	r0, r5
20001142:	bd38      	pop	{r3, r4, r5, pc}
    hrtc->Lock = HAL_UNLOCKED;
20001144:	7703      	strb	r3, [r0, #28]
    HAL_RTC_MspInit(hrtc);
20001146:	f001 ffeb 	bl	20003120 <HAL_RTC_MspInit>
2000114a:	e7b9      	b.n	200010c0 <HAL_RTC_Init+0xe>
    __HAL_RTC_WRITEPROTECTION_ENABLE(hrtc); 
2000114c:	6823      	ldr	r3, [r4, #0]
2000114e:	22ff      	movs	r2, #255	; 0xff
20001150:	625a      	str	r2, [r3, #36]	; 0x24
    hrtc->State = HAL_RTC_STATE_ERROR;
20001152:	2304      	movs	r3, #4
20001154:	7763      	strb	r3, [r4, #29]
    return HAL_ERROR;
20001156:	2501      	movs	r5, #1
20001158:	e7f2      	b.n	20001140 <HAL_RTC_Init+0x8e>
      if(HAL_RTC_WaitForSynchro(hrtc) != HAL_OK)
2000115a:	4620      	mov	r0, r4
2000115c:	f7ff ff72 	bl	20001044 <HAL_RTC_WaitForSynchro>
20001160:	2800      	cmp	r0, #0
20001162:	d0de      	beq.n	20001122 <HAL_RTC_Init+0x70>
        __HAL_RTC_WRITEPROTECTION_ENABLE(hrtc);
20001164:	6823      	ldr	r3, [r4, #0]
20001166:	22ff      	movs	r2, #255	; 0xff
20001168:	625a      	str	r2, [r3, #36]	; 0x24
        hrtc->State = HAL_RTC_STATE_ERROR;
2000116a:	2304      	movs	r3, #4
2000116c:	7763      	strb	r3, [r4, #29]
        return HAL_ERROR;
2000116e:	2501      	movs	r5, #1
20001170:	e7e6      	b.n	20001140 <HAL_RTC_Init+0x8e>
     return HAL_ERROR;
20001172:	2501      	movs	r5, #1
20001174:	e7e4      	b.n	20001140 <HAL_RTC_Init+0x8e>

20001176 <HAL_SRAM_Init>:
  * @retval HAL status
  */
HAL_StatusTypeDef HAL_SRAM_Init(SRAM_HandleTypeDef *hsram, FMC_NORSRAM_TimingTypeDef *Timing, FMC_NORSRAM_TimingTypeDef *ExtTiming)
{ 
  /* Check the SRAM handle parameter */
  if(hsram == NULL)
20001176:	b328      	cbz	r0, 200011c4 <HAL_SRAM_Init+0x4e>
{ 
20001178:	b570      	push	{r4, r5, r6, lr}
2000117a:	4604      	mov	r4, r0
2000117c:	4615      	mov	r5, r2
2000117e:	460e      	mov	r6, r1
  {
     return HAL_ERROR;
  }
  
  if(hsram->State == HAL_SRAM_STATE_RESET)
20001180:	f890 3049 	ldrb.w	r3, [r0, #73]	; 0x49
20001184:	b1cb      	cbz	r3, 200011ba <HAL_SRAM_Init+0x44>
    /* Initialize the low level hardware (MSP) */
    HAL_SRAM_MspInit(hsram);
  }
  
  /* Initialize SRAM control Interface */
  FMC_NORSRAM_Init(hsram->Instance, &(hsram->Init));
20001186:	f104 0108 	add.w	r1, r4, #8
2000118a:	6820      	ldr	r0, [r4, #0]
2000118c:	f000 f994 	bl	200014b8 <FSMC_NORSRAM_Init>

  /* Initialize SRAM timing Interface */
  FMC_NORSRAM_Timing_Init(hsram->Instance, Timing, hsram->Init.NSBank); 
20001190:	68a2      	ldr	r2, [r4, #8]
20001192:	4631      	mov	r1, r6
20001194:	6820      	ldr	r0, [r4, #0]
20001196:	f000 f9bb 	bl	20001510 <FSMC_NORSRAM_Timing_Init>

  /* Initialize SRAM extended mode timing Interface */
  FMC_NORSRAM_Extended_Timing_Init(hsram->Extended, ExtTiming, hsram->Init.NSBank,  hsram->Init.ExtendedMode);  
2000119a:	6b23      	ldr	r3, [r4, #48]	; 0x30
2000119c:	68a2      	ldr	r2, [r4, #8]
2000119e:	4629      	mov	r1, r5
200011a0:	6860      	ldr	r0, [r4, #4]
200011a2:	f000 f9d5 	bl	20001550 <FSMC_NORSRAM_Extended_Timing_Init>
  
  /* Enable the NORSRAM device */
  __FMC_NORSRAM_ENABLE(hsram->Instance, hsram->Init.NSBank); 
200011a6:	6822      	ldr	r2, [r4, #0]
200011a8:	68a1      	ldr	r1, [r4, #8]
200011aa:	f852 3021 	ldr.w	r3, [r2, r1, lsl #2]
200011ae:	f043 0301 	orr.w	r3, r3, #1
200011b2:	f842 3021 	str.w	r3, [r2, r1, lsl #2]
  
  return HAL_OK;
200011b6:	2000      	movs	r0, #0
200011b8:	bd70      	pop	{r4, r5, r6, pc}
    hsram->Lock = HAL_UNLOCKED;
200011ba:	f880 3048 	strb.w	r3, [r0, #72]	; 0x48
    HAL_SRAM_MspInit(hsram);
200011be:	f001 ffbd 	bl	2000313c <HAL_SRAM_MspInit>
200011c2:	e7e0      	b.n	20001186 <HAL_SRAM_Init+0x10>
     return HAL_ERROR;
200011c4:	2001      	movs	r0, #1
200011c6:	4770      	bx	lr

200011c8 <HAL_TIM_Base_MspInit>:
  * @param  htim pointer to a TIM_HandleTypeDef structure that contains
  *                the configuration information for TIM module.
  * @retval None
  */
__weak void HAL_TIM_Base_MspInit(TIM_HandleTypeDef *htim)
{
200011c8:	4770      	bx	lr

200011ca <HAL_TIM_Base_Start_IT>:
{
  /* Check the parameters */
  assert_param(IS_TIM_INSTANCE(htim->Instance));
  
  /* Enable the TIM Update interrupt */
  __HAL_TIM_ENABLE_IT(htim, TIM_IT_UPDATE);
200011ca:	6802      	ldr	r2, [r0, #0]
200011cc:	68d3      	ldr	r3, [r2, #12]
200011ce:	f043 0301 	orr.w	r3, r3, #1
200011d2:	60d3      	str	r3, [r2, #12]
      
  /* Enable the Peripheral */
  __HAL_TIM_ENABLE(htim);
200011d4:	6802      	ldr	r2, [r0, #0]
200011d6:	6813      	ldr	r3, [r2, #0]
200011d8:	f043 0301 	orr.w	r3, r3, #1
200011dc:	6013      	str	r3, [r2, #0]
      
  /* Return function status */
  return HAL_OK;
}
200011de:	2000      	movs	r0, #0
200011e0:	4770      	bx	lr

200011e2 <HAL_TIM_OC_DelayElapsedCallback>:
  * @param  htim pointer to a TIM_HandleTypeDef structure that contains
  *                the configuration information for TIM module.
  * @retval None
  */
__weak void HAL_TIM_OC_DelayElapsedCallback(TIM_HandleTypeDef *htim)
{
200011e2:	4770      	bx	lr

200011e4 <HAL_TIM_IC_CaptureCallback>:
  * @param  htim pointer to a TIM_HandleTypeDef structure that contains
  *                the configuration information for TIM module.
  * @retval None
  */
__weak void HAL_TIM_IC_CaptureCallback(TIM_HandleTypeDef *htim)
{
200011e4:	4770      	bx	lr

200011e6 <HAL_TIM_PWM_PulseFinishedCallback>:
  * @param  htim pointer to a TIM_HandleTypeDef structure that contains
  *                the configuration information for TIM module.
  * @retval None
  */
__weak void HAL_TIM_PWM_PulseFinishedCallback(TIM_HandleTypeDef *htim)
{
200011e6:	4770      	bx	lr

200011e8 <HAL_TIM_TriggerCallback>:
  * @param  htim pointer to a TIM_HandleTypeDef structure that contains
  *                the configuration information for TIM module.
  * @retval None
  */
__weak void HAL_TIM_TriggerCallback(TIM_HandleTypeDef *htim)
{
200011e8:	4770      	bx	lr

200011ea <HAL_TIM_IRQHandler>:
{
200011ea:	b510      	push	{r4, lr}
200011ec:	4604      	mov	r4, r0
  if(__HAL_TIM_GET_FLAG(htim, TIM_FLAG_CC1) != RESET)
200011ee:	6803      	ldr	r3, [r0, #0]
200011f0:	691a      	ldr	r2, [r3, #16]
200011f2:	f012 0f02 	tst.w	r2, #2
200011f6:	d011      	beq.n	2000121c <HAL_TIM_IRQHandler+0x32>
    if(__HAL_TIM_GET_IT_SOURCE(htim, TIM_IT_CC1) !=RESET)
200011f8:	68da      	ldr	r2, [r3, #12]
200011fa:	f012 0f02 	tst.w	r2, #2
200011fe:	d00d      	beq.n	2000121c <HAL_TIM_IRQHandler+0x32>
        __HAL_TIM_CLEAR_IT(htim, TIM_IT_CC1);
20001200:	f06f 0202 	mvn.w	r2, #2
20001204:	611a      	str	r2, [r3, #16]
        htim->Channel = HAL_TIM_ACTIVE_CHANNEL_1;
20001206:	2301      	movs	r3, #1
20001208:	7603      	strb	r3, [r0, #24]
        if((htim->Instance->CCMR1 & TIM_CCMR1_CC1S) != 0x00U)
2000120a:	6803      	ldr	r3, [r0, #0]
2000120c:	699b      	ldr	r3, [r3, #24]
2000120e:	f013 0f03 	tst.w	r3, #3
20001212:	d070      	beq.n	200012f6 <HAL_TIM_IRQHandler+0x10c>
          HAL_TIM_IC_CaptureCallback(htim);
20001214:	f7ff ffe6 	bl	200011e4 <HAL_TIM_IC_CaptureCallback>
        htim->Channel = HAL_TIM_ACTIVE_CHANNEL_CLEARED;
20001218:	2300      	movs	r3, #0
2000121a:	7623      	strb	r3, [r4, #24]
  if(__HAL_TIM_GET_FLAG(htim, TIM_FLAG_CC2) != RESET)
2000121c:	6823      	ldr	r3, [r4, #0]
2000121e:	691a      	ldr	r2, [r3, #16]
20001220:	f012 0f04 	tst.w	r2, #4
20001224:	d012      	beq.n	2000124c <HAL_TIM_IRQHandler+0x62>
    if(__HAL_TIM_GET_IT_SOURCE(htim, TIM_IT_CC2) !=RESET)
20001226:	68da      	ldr	r2, [r3, #12]
20001228:	f012 0f04 	tst.w	r2, #4
2000122c:	d00e      	beq.n	2000124c <HAL_TIM_IRQHandler+0x62>
      __HAL_TIM_CLEAR_IT(htim, TIM_IT_CC2);
2000122e:	f06f 0204 	mvn.w	r2, #4
20001232:	611a      	str	r2, [r3, #16]
      htim->Channel = HAL_TIM_ACTIVE_CHANNEL_2;
20001234:	2302      	movs	r3, #2
20001236:	7623      	strb	r3, [r4, #24]
      if((htim->Instance->CCMR1 & TIM_CCMR1_CC2S) != 0x00U)
20001238:	6823      	ldr	r3, [r4, #0]
2000123a:	699b      	ldr	r3, [r3, #24]
2000123c:	f413 7f40 	tst.w	r3, #768	; 0x300
20001240:	d05f      	beq.n	20001302 <HAL_TIM_IRQHandler+0x118>
        HAL_TIM_IC_CaptureCallback(htim);
20001242:	4620      	mov	r0, r4
20001244:	f7ff ffce 	bl	200011e4 <HAL_TIM_IC_CaptureCallback>
      htim->Channel = HAL_TIM_ACTIVE_CHANNEL_CLEARED;
20001248:	2300      	movs	r3, #0
2000124a:	7623      	strb	r3, [r4, #24]
  if(__HAL_TIM_GET_FLAG(htim, TIM_FLAG_CC3) != RESET)
2000124c:	6823      	ldr	r3, [r4, #0]
2000124e:	691a      	ldr	r2, [r3, #16]
20001250:	f012 0f08 	tst.w	r2, #8
20001254:	d012      	beq.n	2000127c <HAL_TIM_IRQHandler+0x92>
    if(__HAL_TIM_GET_IT_SOURCE(htim, TIM_IT_CC3) !=RESET)
20001256:	68da      	ldr	r2, [r3, #12]
20001258:	f012 0f08 	tst.w	r2, #8
2000125c:	d00e      	beq.n	2000127c <HAL_TIM_IRQHandler+0x92>
      __HAL_TIM_CLEAR_IT(htim, TIM_IT_CC3);
2000125e:	f06f 0208 	mvn.w	r2, #8
20001262:	611a      	str	r2, [r3, #16]
      htim->Channel = HAL_TIM_ACTIVE_CHANNEL_3;
20001264:	2304      	movs	r3, #4
20001266:	7623      	strb	r3, [r4, #24]
      if((htim->Instance->CCMR2 & TIM_CCMR2_CC3S) != 0x00U)
20001268:	6823      	ldr	r3, [r4, #0]
2000126a:	69db      	ldr	r3, [r3, #28]
2000126c:	f013 0f03 	tst.w	r3, #3
20001270:	d04e      	beq.n	20001310 <HAL_TIM_IRQHandler+0x126>
        HAL_TIM_IC_CaptureCallback(htim);
20001272:	4620      	mov	r0, r4
20001274:	f7ff ffb6 	bl	200011e4 <HAL_TIM_IC_CaptureCallback>
      htim->Channel = HAL_TIM_ACTIVE_CHANNEL_CLEARED;
20001278:	2300      	movs	r3, #0
2000127a:	7623      	strb	r3, [r4, #24]
  if(__HAL_TIM_GET_FLAG(htim, TIM_FLAG_CC4) != RESET)
2000127c:	6823      	ldr	r3, [r4, #0]
2000127e:	691a      	ldr	r2, [r3, #16]
20001280:	f012 0f10 	tst.w	r2, #16
20001284:	d012      	beq.n	200012ac <HAL_TIM_IRQHandler+0xc2>
    if(__HAL_TIM_GET_IT_SOURCE(htim, TIM_IT_CC4) !=RESET)
20001286:	68da      	ldr	r2, [r3, #12]
20001288:	f012 0f10 	tst.w	r2, #16
2000128c:	d00e      	beq.n	200012ac <HAL_TIM_IRQHandler+0xc2>
      __HAL_TIM_CLEAR_IT(htim, TIM_IT_CC4);
2000128e:	f06f 0210 	mvn.w	r2, #16
20001292:	611a      	str	r2, [r3, #16]
      htim->Channel = HAL_TIM_ACTIVE_CHANNEL_4;
20001294:	2308      	movs	r3, #8
20001296:	7623      	strb	r3, [r4, #24]
      if((htim->Instance->CCMR2 & TIM_CCMR2_CC4S) != 0x00U)
20001298:	6823      	ldr	r3, [r4, #0]
2000129a:	69db      	ldr	r3, [r3, #28]
2000129c:	f413 7f40 	tst.w	r3, #768	; 0x300
200012a0:	d03d      	beq.n	2000131e <HAL_TIM_IRQHandler+0x134>
        HAL_TIM_IC_CaptureCallback(htim);
200012a2:	4620      	mov	r0, r4
200012a4:	f7ff ff9e 	bl	200011e4 <HAL_TIM_IC_CaptureCallback>
      htim->Channel = HAL_TIM_ACTIVE_CHANNEL_CLEARED;
200012a8:	2300      	movs	r3, #0
200012aa:	7623      	strb	r3, [r4, #24]
  if(__HAL_TIM_GET_FLAG(htim, TIM_FLAG_UPDATE) != RESET)
200012ac:	6823      	ldr	r3, [r4, #0]
200012ae:	691a      	ldr	r2, [r3, #16]
200012b0:	f012 0f01 	tst.w	r2, #1
200012b4:	d003      	beq.n	200012be <HAL_TIM_IRQHandler+0xd4>
    if(__HAL_TIM_GET_IT_SOURCE(htim, TIM_IT_UPDATE) !=RESET)
200012b6:	68da      	ldr	r2, [r3, #12]
200012b8:	f012 0f01 	tst.w	r2, #1
200012bc:	d136      	bne.n	2000132c <HAL_TIM_IRQHandler+0x142>
  if(__HAL_TIM_GET_FLAG(htim, TIM_FLAG_BREAK) != RESET)
200012be:	6823      	ldr	r3, [r4, #0]
200012c0:	691a      	ldr	r2, [r3, #16]
200012c2:	f012 0f80 	tst.w	r2, #128	; 0x80
200012c6:	d003      	beq.n	200012d0 <HAL_TIM_IRQHandler+0xe6>
    if(__HAL_TIM_GET_IT_SOURCE(htim, TIM_IT_BREAK) !=RESET)
200012c8:	68da      	ldr	r2, [r3, #12]
200012ca:	f012 0f80 	tst.w	r2, #128	; 0x80
200012ce:	d134      	bne.n	2000133a <HAL_TIM_IRQHandler+0x150>
  if(__HAL_TIM_GET_FLAG(htim, TIM_FLAG_TRIGGER) != RESET)
200012d0:	6823      	ldr	r3, [r4, #0]
200012d2:	691a      	ldr	r2, [r3, #16]
200012d4:	f012 0f40 	tst.w	r2, #64	; 0x40
200012d8:	d003      	beq.n	200012e2 <HAL_TIM_IRQHandler+0xf8>
    if(__HAL_TIM_GET_IT_SOURCE(htim, TIM_IT_TRIGGER) !=RESET)
200012da:	68da      	ldr	r2, [r3, #12]
200012dc:	f012 0f40 	tst.w	r2, #64	; 0x40
200012e0:	d132      	bne.n	20001348 <HAL_TIM_IRQHandler+0x15e>
  if(__HAL_TIM_GET_FLAG(htim, TIM_FLAG_COM) != RESET)
200012e2:	6823      	ldr	r3, [r4, #0]
200012e4:	691a      	ldr	r2, [r3, #16]
200012e6:	f012 0f20 	tst.w	r2, #32
200012ea:	d003      	beq.n	200012f4 <HAL_TIM_IRQHandler+0x10a>
    if(__HAL_TIM_GET_IT_SOURCE(htim, TIM_IT_COM) !=RESET)
200012ec:	68da      	ldr	r2, [r3, #12]
200012ee:	f012 0f20 	tst.w	r2, #32
200012f2:	d130      	bne.n	20001356 <HAL_TIM_IRQHandler+0x16c>
200012f4:	bd10      	pop	{r4, pc}
          HAL_TIM_OC_DelayElapsedCallback(htim);
200012f6:	f7ff ff74 	bl	200011e2 <HAL_TIM_OC_DelayElapsedCallback>
          HAL_TIM_PWM_PulseFinishedCallback(htim);
200012fa:	4620      	mov	r0, r4
200012fc:	f7ff ff73 	bl	200011e6 <HAL_TIM_PWM_PulseFinishedCallback>
20001300:	e78a      	b.n	20001218 <HAL_TIM_IRQHandler+0x2e>
        HAL_TIM_OC_DelayElapsedCallback(htim);
20001302:	4620      	mov	r0, r4
20001304:	f7ff ff6d 	bl	200011e2 <HAL_TIM_OC_DelayElapsedCallback>
        HAL_TIM_PWM_PulseFinishedCallback(htim);
20001308:	4620      	mov	r0, r4
2000130a:	f7ff ff6c 	bl	200011e6 <HAL_TIM_PWM_PulseFinishedCallback>
2000130e:	e79b      	b.n	20001248 <HAL_TIM_IRQHandler+0x5e>
        HAL_TIM_OC_DelayElapsedCallback(htim);
20001310:	4620      	mov	r0, r4
20001312:	f7ff ff66 	bl	200011e2 <HAL_TIM_OC_DelayElapsedCallback>
        HAL_TIM_PWM_PulseFinishedCallback(htim); 
20001316:	4620      	mov	r0, r4
20001318:	f7ff ff65 	bl	200011e6 <HAL_TIM_PWM_PulseFinishedCallback>
2000131c:	e7ac      	b.n	20001278 <HAL_TIM_IRQHandler+0x8e>
        HAL_TIM_OC_DelayElapsedCallback(htim);
2000131e:	4620      	mov	r0, r4
20001320:	f7ff ff5f 	bl	200011e2 <HAL_TIM_OC_DelayElapsedCallback>
        HAL_TIM_PWM_PulseFinishedCallback(htim);
20001324:	4620      	mov	r0, r4
20001326:	f7ff ff5e 	bl	200011e6 <HAL_TIM_PWM_PulseFinishedCallback>
2000132a:	e7bd      	b.n	200012a8 <HAL_TIM_IRQHandler+0xbe>
      __HAL_TIM_CLEAR_IT(htim, TIM_IT_UPDATE);
2000132c:	f06f 0201 	mvn.w	r2, #1
20001330:	611a      	str	r2, [r3, #16]
      HAL_TIM_PeriodElapsedCallback(htim);
20001332:	4620      	mov	r0, r4
20001334:	f001 fd92 	bl	20002e5c <HAL_TIM_PeriodElapsedCallback>
20001338:	e7c1      	b.n	200012be <HAL_TIM_IRQHandler+0xd4>
      __HAL_TIM_CLEAR_IT(htim, TIM_IT_BREAK);
2000133a:	f06f 0280 	mvn.w	r2, #128	; 0x80
2000133e:	611a      	str	r2, [r3, #16]
      HAL_TIMEx_BreakCallback(htim);
20001340:	4620      	mov	r0, r4
20001342:	f000 f8b7 	bl	200014b4 <HAL_TIMEx_BreakCallback>
20001346:	e7c3      	b.n	200012d0 <HAL_TIM_IRQHandler+0xe6>
      __HAL_TIM_CLEAR_IT(htim, TIM_IT_TRIGGER);
20001348:	f06f 0240 	mvn.w	r2, #64	; 0x40
2000134c:	611a      	str	r2, [r3, #16]
      HAL_TIM_TriggerCallback(htim);
2000134e:	4620      	mov	r0, r4
20001350:	f7ff ff4a 	bl	200011e8 <HAL_TIM_TriggerCallback>
20001354:	e7c5      	b.n	200012e2 <HAL_TIM_IRQHandler+0xf8>
      __HAL_TIM_CLEAR_IT(htim, TIM_FLAG_COM);
20001356:	f06f 0220 	mvn.w	r2, #32
2000135a:	611a      	str	r2, [r3, #16]
      HAL_TIMEx_CommutationCallback(htim);
2000135c:	4620      	mov	r0, r4
2000135e:	f000 f8a8 	bl	200014b2 <HAL_TIMEx_CommutationCallback>
}
20001362:	e7c7      	b.n	200012f4 <HAL_TIM_IRQHandler+0x10a>

20001364 <TIM_Base_SetConfig>:
  * @retval None
  */
void TIM_Base_SetConfig(TIM_TypeDef *TIMx, TIM_Base_InitTypeDef *Structure)
{
  uint32_t tmpcr1 = 0U;
  tmpcr1 = TIMx->CR1;
20001364:	6803      	ldr	r3, [r0, #0]
  
  /* Set TIM Time Base Unit parameters ---------------------------------------*/
  if(IS_TIM_CC3_INSTANCE(TIMx) != RESET)   
20001366:	4a45      	ldr	r2, [pc, #276]	; (2000147c <TIM_Base_SetConfig+0x118>)
20001368:	4290      	cmp	r0, r2
2000136a:	d04a      	beq.n	20001402 <TIM_Base_SetConfig+0x9e>
2000136c:	f1b0 4f80 	cmp.w	r0, #1073741824	; 0x40000000
20001370:	d049      	beq.n	20001406 <TIM_Base_SetConfig+0xa2>
20001372:	f5a2 427c 	sub.w	r2, r2, #64512	; 0xfc00
20001376:	4290      	cmp	r0, r2
20001378:	d047      	beq.n	2000140a <TIM_Base_SetConfig+0xa6>
2000137a:	f502 6280 	add.w	r2, r2, #1024	; 0x400
2000137e:	4290      	cmp	r0, r2
20001380:	d045      	beq.n	2000140e <TIM_Base_SetConfig+0xaa>
20001382:	f502 6280 	add.w	r2, r2, #1024	; 0x400
20001386:	4290      	cmp	r0, r2
20001388:	d043      	beq.n	20001412 <TIM_Base_SetConfig+0xae>
2000138a:	f502 4278 	add.w	r2, r2, #63488	; 0xf800
2000138e:	4290      	cmp	r0, r2
20001390:	d035      	beq.n	200013fe <TIM_Base_SetConfig+0x9a>
20001392:	2200      	movs	r2, #0
20001394:	b11a      	cbz	r2, 2000139e <TIM_Base_SetConfig+0x3a>
  {
    /* Select the Counter Mode */
    tmpcr1 &= ~(TIM_CR1_DIR | TIM_CR1_CMS);
20001396:	f023 0370 	bic.w	r3, r3, #112	; 0x70
    tmpcr1 |= Structure->CounterMode;
2000139a:	684a      	ldr	r2, [r1, #4]
2000139c:	4313      	orrs	r3, r2
  }
 
  if(IS_TIM_CC1_INSTANCE(TIMx) != RESET)  
2000139e:	4a37      	ldr	r2, [pc, #220]	; (2000147c <TIM_Base_SetConfig+0x118>)
200013a0:	4290      	cmp	r0, r2
200013a2:	d03a      	beq.n	2000141a <TIM_Base_SetConfig+0xb6>
200013a4:	f1b0 4f80 	cmp.w	r0, #1073741824	; 0x40000000
200013a8:	d050      	beq.n	2000144c <TIM_Base_SetConfig+0xe8>
200013aa:	f5a2 427c 	sub.w	r2, r2, #64512	; 0xfc00
200013ae:	4290      	cmp	r0, r2
200013b0:	d04e      	beq.n	20001450 <TIM_Base_SetConfig+0xec>
200013b2:	f502 6280 	add.w	r2, r2, #1024	; 0x400
200013b6:	4290      	cmp	r0, r2
200013b8:	d04c      	beq.n	20001454 <TIM_Base_SetConfig+0xf0>
200013ba:	f502 6280 	add.w	r2, r2, #1024	; 0x400
200013be:	4290      	cmp	r0, r2
200013c0:	d04a      	beq.n	20001458 <TIM_Base_SetConfig+0xf4>
200013c2:	f502 4278 	add.w	r2, r2, #63488	; 0xf800
200013c6:	4290      	cmp	r0, r2
200013c8:	d048      	beq.n	2000145c <TIM_Base_SetConfig+0xf8>
200013ca:	f502 5270 	add.w	r2, r2, #15360	; 0x3c00
200013ce:	4290      	cmp	r0, r2
200013d0:	d046      	beq.n	20001460 <TIM_Base_SetConfig+0xfc>
200013d2:	f502 6280 	add.w	r2, r2, #1024	; 0x400
200013d6:	4290      	cmp	r0, r2
200013d8:	d044      	beq.n	20001464 <TIM_Base_SetConfig+0x100>
200013da:	f502 6280 	add.w	r2, r2, #1024	; 0x400
200013de:	4290      	cmp	r0, r2
200013e0:	d042      	beq.n	20001468 <TIM_Base_SetConfig+0x104>
200013e2:	f5a2 3298 	sub.w	r2, r2, #77824	; 0x13000
200013e6:	4290      	cmp	r0, r2
200013e8:	d040      	beq.n	2000146c <TIM_Base_SetConfig+0x108>
200013ea:	f502 6280 	add.w	r2, r2, #1024	; 0x400
200013ee:	4290      	cmp	r0, r2
200013f0:	d03e      	beq.n	20001470 <TIM_Base_SetConfig+0x10c>
200013f2:	f502 6280 	add.w	r2, r2, #1024	; 0x400
200013f6:	4290      	cmp	r0, r2
200013f8:	d00d      	beq.n	20001416 <TIM_Base_SetConfig+0xb2>
200013fa:	2200      	movs	r2, #0
200013fc:	e00e      	b.n	2000141c <TIM_Base_SetConfig+0xb8>
  if(IS_TIM_CC3_INSTANCE(TIMx) != RESET)   
200013fe:	2201      	movs	r2, #1
20001400:	e7c8      	b.n	20001394 <TIM_Base_SetConfig+0x30>
20001402:	2201      	movs	r2, #1
20001404:	e7c6      	b.n	20001394 <TIM_Base_SetConfig+0x30>
20001406:	2201      	movs	r2, #1
20001408:	e7c4      	b.n	20001394 <TIM_Base_SetConfig+0x30>
2000140a:	2201      	movs	r2, #1
2000140c:	e7c2      	b.n	20001394 <TIM_Base_SetConfig+0x30>
2000140e:	2201      	movs	r2, #1
20001410:	e7c0      	b.n	20001394 <TIM_Base_SetConfig+0x30>
20001412:	2201      	movs	r2, #1
20001414:	e7be      	b.n	20001394 <TIM_Base_SetConfig+0x30>
  if(IS_TIM_CC1_INSTANCE(TIMx) != RESET)  
20001416:	2201      	movs	r2, #1
20001418:	e000      	b.n	2000141c <TIM_Base_SetConfig+0xb8>
2000141a:	2201      	movs	r2, #1
2000141c:	b11a      	cbz	r2, 20001426 <TIM_Base_SetConfig+0xc2>
  {
    /* Set the clock division */
    tmpcr1 &= ~TIM_CR1_CKD;
2000141e:	f423 7340 	bic.w	r3, r3, #768	; 0x300
    tmpcr1 |= (uint32_t)Structure->ClockDivision;
20001422:	68ca      	ldr	r2, [r1, #12]
20001424:	4313      	orrs	r3, r2
  }

  TIMx->CR1 = tmpcr1;
20001426:	6003      	str	r3, [r0, #0]

  /* Set the Auto-reload value */
  TIMx->ARR = (uint32_t)Structure->Period ;
20001428:	688b      	ldr	r3, [r1, #8]
2000142a:	62c3      	str	r3, [r0, #44]	; 0x2c
 
  /* Set the Prescaler value */
  TIMx->PSC = (uint32_t)Structure->Prescaler;
2000142c:	680b      	ldr	r3, [r1, #0]
2000142e:	6283      	str	r3, [r0, #40]	; 0x28
    
  if(IS_TIM_ADVANCED_INSTANCE(TIMx) != RESET)  
20001430:	4b12      	ldr	r3, [pc, #72]	; (2000147c <TIM_Base_SetConfig+0x118>)
20001432:	4298      	cmp	r0, r3
20001434:	d020      	beq.n	20001478 <TIM_Base_SetConfig+0x114>
20001436:	f503 6380 	add.w	r3, r3, #1024	; 0x400
2000143a:	4298      	cmp	r0, r3
2000143c:	d01a      	beq.n	20001474 <TIM_Base_SetConfig+0x110>
2000143e:	2300      	movs	r3, #0
20001440:	b10b      	cbz	r3, 20001446 <TIM_Base_SetConfig+0xe2>
  {
    /* Set the Repetition Counter value */
    TIMx->RCR = Structure->RepetitionCounter;
20001442:	690b      	ldr	r3, [r1, #16]
20001444:	6303      	str	r3, [r0, #48]	; 0x30
  }

  /* Generate an update event to reload the Prescaler 
     and the repetition counter(only for TIM1 and TIM8) value immediately */
  TIMx->EGR = TIM_EGR_UG;
20001446:	2301      	movs	r3, #1
20001448:	6143      	str	r3, [r0, #20]
2000144a:	4770      	bx	lr
  if(IS_TIM_CC1_INSTANCE(TIMx) != RESET)  
2000144c:	2201      	movs	r2, #1
2000144e:	e7e5      	b.n	2000141c <TIM_Base_SetConfig+0xb8>
20001450:	2201      	movs	r2, #1
20001452:	e7e3      	b.n	2000141c <TIM_Base_SetConfig+0xb8>
20001454:	2201      	movs	r2, #1
20001456:	e7e1      	b.n	2000141c <TIM_Base_SetConfig+0xb8>
20001458:	2201      	movs	r2, #1
2000145a:	e7df      	b.n	2000141c <TIM_Base_SetConfig+0xb8>
2000145c:	2201      	movs	r2, #1
2000145e:	e7dd      	b.n	2000141c <TIM_Base_SetConfig+0xb8>
20001460:	2201      	movs	r2, #1
20001462:	e7db      	b.n	2000141c <TIM_Base_SetConfig+0xb8>
20001464:	2201      	movs	r2, #1
20001466:	e7d9      	b.n	2000141c <TIM_Base_SetConfig+0xb8>
20001468:	2201      	movs	r2, #1
2000146a:	e7d7      	b.n	2000141c <TIM_Base_SetConfig+0xb8>
2000146c:	2201      	movs	r2, #1
2000146e:	e7d5      	b.n	2000141c <TIM_Base_SetConfig+0xb8>
20001470:	2201      	movs	r2, #1
20001472:	e7d3      	b.n	2000141c <TIM_Base_SetConfig+0xb8>
  if(IS_TIM_ADVANCED_INSTANCE(TIMx) != RESET)  
20001474:	2301      	movs	r3, #1
20001476:	e7e3      	b.n	20001440 <TIM_Base_SetConfig+0xdc>
20001478:	2301      	movs	r3, #1
2000147a:	e7e1      	b.n	20001440 <TIM_Base_SetConfig+0xdc>
2000147c:	40010000 	.word	0x40010000

20001480 <HAL_TIM_Base_Init>:
  if(htim == NULL)
20001480:	b1a8      	cbz	r0, 200014ae <HAL_TIM_Base_Init+0x2e>
{ 
20001482:	b510      	push	{r4, lr}
20001484:	4604      	mov	r4, r0
  if(htim->State == HAL_TIM_STATE_RESET)
20001486:	f890 3039 	ldrb.w	r3, [r0, #57]	; 0x39
2000148a:	b15b      	cbz	r3, 200014a4 <HAL_TIM_Base_Init+0x24>
  htim->State= HAL_TIM_STATE_BUSY;
2000148c:	2302      	movs	r3, #2
2000148e:	f884 3039 	strb.w	r3, [r4, #57]	; 0x39
  TIM_Base_SetConfig(htim->Instance, &htim->Init); 
20001492:	1d21      	adds	r1, r4, #4
20001494:	6820      	ldr	r0, [r4, #0]
20001496:	f7ff ff65 	bl	20001364 <TIM_Base_SetConfig>
  htim->State= HAL_TIM_STATE_READY;
2000149a:	2301      	movs	r3, #1
2000149c:	f884 3039 	strb.w	r3, [r4, #57]	; 0x39
  return HAL_OK;
200014a0:	2000      	movs	r0, #0
200014a2:	bd10      	pop	{r4, pc}
    htim->Lock = HAL_UNLOCKED;
200014a4:	f880 3038 	strb.w	r3, [r0, #56]	; 0x38
    HAL_TIM_Base_MspInit(htim);
200014a8:	f7ff fe8e 	bl	200011c8 <HAL_TIM_Base_MspInit>
200014ac:	e7ee      	b.n	2000148c <HAL_TIM_Base_Init+0xc>
    return HAL_ERROR;
200014ae:	2001      	movs	r0, #1
200014b0:	4770      	bx	lr

200014b2 <HAL_TIMEx_CommutationCallback>:
  * @param  htim pointer to a TIM_HandleTypeDef structure that contains
  *                the configuration information for TIM module.
  * @retval None
  */
__weak void HAL_TIMEx_CommutationCallback(TIM_HandleTypeDef *htim)
{
200014b2:	4770      	bx	lr

200014b4 <HAL_TIMEx_BreakCallback>:
  * @param  htim pointer to a TIM_HandleTypeDef structure that contains
  *                the configuration information for TIM module.
  * @retval None
  */
__weak void HAL_TIMEx_BreakCallback(TIM_HandleTypeDef *htim)
{
200014b4:	4770      	bx	lr
	...

200014b8 <FSMC_NORSRAM_Init>:
  * @param  Device Pointer to NORSRAM device instance
  * @param  Init Pointer to NORSRAM Initialization structure   
  * @retval HAL status
  */
HAL_StatusTypeDef  FSMC_NORSRAM_Init(FSMC_NORSRAM_TypeDef *Device, FSMC_NORSRAM_InitTypeDef* Init)
{ 
200014b8:	b470      	push	{r4, r5, r6}
  assert_param(IS_FSMC_WRITE_FIFO(Init->WriteFifo));
  assert_param(IS_FSMC_CONTINOUS_CLOCK(Init->ContinuousClock));
#endif /* STM32F412Zx || STM32F412Vx || STM32F413xx || STM32F423xx */
  
  /* Get the BTCR register value */
  tmpr = Device->BTCR[Init->NSBank];
200014ba:	680c      	ldr	r4, [r1, #0]
200014bc:	f850 3024 	ldr.w	r3, [r0, r4, lsl #2]

#if defined(STM32F405xx) || defined(STM32F415xx) || defined(STM32F407xx) || defined(STM32F417xx)
  /* Clear MBKEN, MUXEN, MTYP, MWID, FACCEN, BURSTEN, WAITPOL, WRAPMOD, WAITCFG, WREN,
           WAITEN, EXTMOD, ASYNCWAIT, CPSIZE and CBURSTRW bits */
  tmpr &= ((uint32_t)~(FSMC_BCR1_MBKEN     | FSMC_BCR1_MUXEN    | FSMC_BCR1_MTYP     | \
200014c0:	4a12      	ldr	r2, [pc, #72]	; (2000150c <FSMC_NORSRAM_Init+0x54>)
200014c2:	401a      	ands	r2, r3
                       FSMC_BCR1_MWID      | FSMC_BCR1_FACCEN   | FSMC_BCR1_BURSTEN  | \
                       FSMC_BCR1_WAITPOL   | FSMC_BCR1_WRAPMOD  | FSMC_BCR1_WAITCFG  | \
                       FSMC_BCR1_WREN      | FSMC_BCR1_WAITEN   | FSMC_BCR1_EXTMOD   | \
                       FSMC_BCR1_ASYNCWAIT | FSMC_BCR1_CPSIZE   | FSMC_BCR1_CBURSTRW));
  /* Set NORSRAM device control parameters */
  tmpr |= (uint32_t)(Init->DataAddressMux       |\
200014c4:	684b      	ldr	r3, [r1, #4]
                     Init->MemoryType           |\
200014c6:	688d      	ldr	r5, [r1, #8]
  tmpr |= (uint32_t)(Init->DataAddressMux       |\
200014c8:	432b      	orrs	r3, r5
                     Init->MemoryDataWidth      |\
200014ca:	68ce      	ldr	r6, [r1, #12]
                     Init->MemoryType           |\
200014cc:	4333      	orrs	r3, r6
                     Init->BurstAccessMode      |\
200014ce:	690e      	ldr	r6, [r1, #16]
                     Init->MemoryDataWidth      |\
200014d0:	4333      	orrs	r3, r6
                     Init->WaitSignalPolarity   |\
200014d2:	694e      	ldr	r6, [r1, #20]
                     Init->BurstAccessMode      |\
200014d4:	4333      	orrs	r3, r6
                     Init->WrapMode             |\
200014d6:	698e      	ldr	r6, [r1, #24]
                     Init->WaitSignalPolarity   |\
200014d8:	4333      	orrs	r3, r6
                     Init->WaitSignalActive     |\
200014da:	69ce      	ldr	r6, [r1, #28]
                     Init->WrapMode             |\
200014dc:	4333      	orrs	r3, r6
                     Init->WriteOperation       |\
200014de:	6a0e      	ldr	r6, [r1, #32]
                     Init->WaitSignalActive     |\
200014e0:	4333      	orrs	r3, r6
                     Init->WaitSignal           |\
200014e2:	6a4e      	ldr	r6, [r1, #36]	; 0x24
                     Init->WriteOperation       |\
200014e4:	4333      	orrs	r3, r6
                     Init->ExtendedMode         |\
200014e6:	6a8e      	ldr	r6, [r1, #40]	; 0x28
                     Init->WaitSignal           |\
200014e8:	4333      	orrs	r3, r6
                     Init->AsynchronousWait     |\
200014ea:	6ace      	ldr	r6, [r1, #44]	; 0x2c
                     Init->ExtendedMode         |\
200014ec:	4333      	orrs	r3, r6
                     Init->PageSize             |\
200014ee:	6bce      	ldr	r6, [r1, #60]	; 0x3c
                     Init->AsynchronousWait     |\
200014f0:	4333      	orrs	r3, r6
                     Init->WriteBurst
200014f2:	6b09      	ldr	r1, [r1, #48]	; 0x30
                     Init->PageSize             |\
200014f4:	430b      	orrs	r3, r1
  tmpr |= (uint32_t)(Init->DataAddressMux       |\
200014f6:	4313      	orrs	r3, r2
                     Init->ContinuousClock      |\
                     Init->PageSize             |\
                     Init->WriteFifo);
#endif /* STM32F405xx || STM32F415xx || STM32F407xx || STM32F417xx */ 
            
  if(Init->MemoryType == FSMC_MEMORY_TYPE_NOR)
200014f8:	2d08      	cmp	r5, #8
200014fa:	d004      	beq.n	20001506 <FSMC_NORSRAM_Init+0x4e>
  {
    tmpr |= (uint32_t)FSMC_NORSRAM_FLASH_ACCESS_ENABLE;
  }

  Device->BTCR[Init->NSBank] = tmpr;
200014fc:	f840 3024 	str.w	r3, [r0, r4, lsl #2]
    Device->BTCR[FSMC_NORSRAM_BANK1] |= (uint32_t)(Init->WriteFifo);
  }
#endif /* STM32F412Zx || STM32F412Vx || STM32F412Rx || STM32F413xx || STM32F423xx */

  return HAL_OK;
}
20001500:	2000      	movs	r0, #0
20001502:	bc70      	pop	{r4, r5, r6}
20001504:	4770      	bx	lr
    tmpr |= (uint32_t)FSMC_NORSRAM_FLASH_ACCESS_ENABLE;
20001506:	f043 0340 	orr.w	r3, r3, #64	; 0x40
2000150a:	e7f7      	b.n	200014fc <FSMC_NORSRAM_Init+0x44>
2000150c:	fff00080 	.word	0xfff00080

20001510 <FSMC_NORSRAM_Timing_Init>:
  * @param  Timing Pointer to NORSRAM Timing structure
  * @param  Bank NORSRAM bank number  
  * @retval HAL status
  */
HAL_StatusTypeDef FSMC_NORSRAM_Timing_Init(FSMC_NORSRAM_TypeDef *Device, FSMC_NORSRAM_TimingTypeDef *Timing, uint32_t Bank)
{
20001510:	b430      	push	{r4, r5}
  assert_param(IS_FSMC_DATA_LATENCY(Timing->DataLatency));
  assert_param(IS_FSMC_ACCESS_MODE(Timing->AccessMode));
  assert_param(IS_FSMC_NORSRAM_BANK(Bank));
  
  /* Get the BTCR register value */
  tmpr = Device->BTCR[Bank + 1U];
20001512:	3201      	adds	r2, #1
20001514:	f850 4022 	ldr.w	r4, [r0, r2, lsl #2]

  /* Clear ADDSET, ADDHLD, DATAST, BUSTURN, CLKDIV, DATLAT and ACCMOD bits */
  tmpr &= ((uint32_t)~(FSMC_BTR1_ADDSET  | FSMC_BTR1_ADDHLD | FSMC_BTR1_DATAST | \
20001518:	f004 4440 	and.w	r4, r4, #3221225472	; 0xc0000000
                       FSMC_BTR1_BUSTURN | FSMC_BTR1_CLKDIV | FSMC_BTR1_DATLAT | \
                       FSMC_BTR1_ACCMOD));
  
  /* Set FSMC_NORSRAM device timing parameters */  
  tmpr |= (uint32_t)(Timing->AddressSetupTime                  |\
2000151c:	680b      	ldr	r3, [r1, #0]
                    ((Timing->AddressHoldTime) << 4U)          |\
2000151e:	684d      	ldr	r5, [r1, #4]
  tmpr |= (uint32_t)(Timing->AddressSetupTime                  |\
20001520:	ea43 1305 	orr.w	r3, r3, r5, lsl #4
                    ((Timing->DataSetupTime) << 8U)            |\
20001524:	688d      	ldr	r5, [r1, #8]
                    ((Timing->AddressHoldTime) << 4U)          |\
20001526:	ea43 2305 	orr.w	r3, r3, r5, lsl #8
                    ((Timing->BusTurnAroundDuration) << 16U)   |\
2000152a:	68cd      	ldr	r5, [r1, #12]
                    ((Timing->DataSetupTime) << 8U)            |\
2000152c:	ea43 4305 	orr.w	r3, r3, r5, lsl #16
                    (((Timing->CLKDivision)-1U) << 20U)        |\
20001530:	690d      	ldr	r5, [r1, #16]
20001532:	3d01      	subs	r5, #1
                    ((Timing->BusTurnAroundDuration) << 16U)   |\
20001534:	ea43 5305 	orr.w	r3, r3, r5, lsl #20
                    (((Timing->DataLatency)-2U) << 24U)        |\
20001538:	694d      	ldr	r5, [r1, #20]
2000153a:	3d02      	subs	r5, #2
                    (((Timing->CLKDivision)-1U) << 20U)        |\
2000153c:	ea43 6305 	orr.w	r3, r3, r5, lsl #24
                    (Timing->AccessMode));
20001540:	6989      	ldr	r1, [r1, #24]
  tmpr |= (uint32_t)(Timing->AddressSetupTime                  |\
20001542:	430b      	orrs	r3, r1
20001544:	4323      	orrs	r3, r4
  
  Device->BTCR[Bank + 1] = tmpr; 
20001546:	f840 3022 	str.w	r3, [r0, r2, lsl #2]
    Device->BTCR[FSMC_NORSRAM_BANK1 + 1U] = tmpr;
  }
#endif /* STM32F412Zx || STM32F412Vx || STM32F412Rx || STM32F413xx || STM32F423xx */

  return HAL_OK;
}
2000154a:	2000      	movs	r0, #0
2000154c:	bc30      	pop	{r4, r5}
2000154e:	4770      	bx	lr

20001550 <FSMC_NORSRAM_Extended_Timing_Init>:
  
  /* Check the parameters */
  assert_param(IS_FSMC_EXTENDED_MODE(ExtendedMode));

  /* Set NORSRAM device timing register for write configuration, if extended mode is used */
  if(ExtendedMode == FSMC_EXTENDED_MODE_ENABLE)
20001550:	f5b3 4f80 	cmp.w	r3, #16384	; 0x4000
20001554:	d005      	beq.n	20001562 <FSMC_NORSRAM_Extended_Timing_Init+0x12>
    
    Device->BWTR[Bank] = tmpr;
  }
  else                                        
  {
    Device->BWTR[Bank] = 0x0FFFFFFFU;
20001556:	f06f 4370 	mvn.w	r3, #4026531840	; 0xf0000000
2000155a:	f840 3022 	str.w	r3, [r0, r2, lsl #2]
  }   
  
  return HAL_OK;  
}
2000155e:	2000      	movs	r0, #0
20001560:	4770      	bx	lr
{
20001562:	b430      	push	{r4, r5}
    tmpr = Device->BWTR[Bank];
20001564:	f850 3022 	ldr.w	r3, [r0, r2, lsl #2]
    tmpr &= ((uint32_t)~(FSMC_BWTR1_ADDSET  | FSMC_BWTR1_ADDHLD | FSMC_BWTR1_DATAST | \
20001568:	4c09      	ldr	r4, [pc, #36]	; (20001590 <FSMC_NORSRAM_Extended_Timing_Init+0x40>)
2000156a:	401c      	ands	r4, r3
    tmpr |= (uint32_t)(Timing->AddressSetupTime                  |\
2000156c:	680b      	ldr	r3, [r1, #0]
                      ((Timing->AddressHoldTime) << 4U)          |\
2000156e:	684d      	ldr	r5, [r1, #4]
    tmpr |= (uint32_t)(Timing->AddressSetupTime                  |\
20001570:	ea43 1305 	orr.w	r3, r3, r5, lsl #4
                      ((Timing->DataSetupTime) << 8U)            |\
20001574:	688d      	ldr	r5, [r1, #8]
                      ((Timing->AddressHoldTime) << 4U)          |\
20001576:	ea43 2305 	orr.w	r3, r3, r5, lsl #8
                      ((Timing->BusTurnAroundDuration) << 16U)   |\
2000157a:	68cd      	ldr	r5, [r1, #12]
                      ((Timing->DataSetupTime) << 8U)            |\
2000157c:	ea43 4305 	orr.w	r3, r3, r5, lsl #16
                      (Timing->AccessMode));
20001580:	6989      	ldr	r1, [r1, #24]
                      ((Timing->BusTurnAroundDuration) << 16U)   |\
20001582:	430b      	orrs	r3, r1
    tmpr |= (uint32_t)(Timing->AddressSetupTime                  |\
20001584:	4323      	orrs	r3, r4
    Device->BWTR[Bank] = tmpr;
20001586:	f840 3022 	str.w	r3, [r0, r2, lsl #2]
}
2000158a:	2000      	movs	r0, #0
2000158c:	bc30      	pop	{r4, r5}
2000158e:	4770      	bx	lr
20001590:	cff00000 	.word	0xcff00000

20001594 <ClearTest>:
extern const BITMAPSTRUCT rombitmap;
uint16_t bitmap[60 * 100];

//-----------------------------------------------------------------------------
uint32_t ClearTest(void)
{
20001594:	b510      	push	{r4, lr}
  uint32_t ctStartT = GetTime();
20001596:	f7ff f819 	bl	200005cc <HAL_GetTick>
2000159a:	4604      	mov	r4, r0
  BSP_LCD_Clear(LCD_COLOR_BLACK);
2000159c:	2000      	movs	r0, #0
2000159e:	f001 f951 	bl	20002844 <BSP_LCD_Clear>
  return(GetTime() - ctStartT);
200015a2:	f7ff f813 	bl	200005cc <HAL_GetTick>
}
200015a6:	1b00      	subs	r0, r0, r4
200015a8:	bd10      	pop	{r4, pc}
	...

200015ac <PixelTest>:

//-----------------------------------------------------------------------------
uint32_t PixelTest(uint32_t n)
{
200015ac:	e92d 43f8 	stmdb	sp!, {r3, r4, r5, r6, r7, r8, r9, lr}
200015b0:	4607      	mov	r7, r0
  uint16_t c, x, y;

  uint32_t ctStartT = GetTime();
200015b2:	f7ff f80b 	bl	200005cc <HAL_GetTick>
200015b6:	4680      	mov	r8, r0
  for(uint32_t i = 0; i < n; i++)
200015b8:	2600      	movs	r6, #0
200015ba:	e025      	b.n	20001608 <PixelTest+0x5c>
  {
    x = random() % BSP_LCD_GetXSize();
200015bc:	f001 ff62 	bl	20003484 <random>
200015c0:	4605      	mov	r5, r0
200015c2:	f001 f917 	bl	200027f4 <BSP_LCD_GetXSize>
200015c6:	fb95 f4f0 	sdiv	r4, r5, r0
200015ca:	fb00 5414 	mls	r4, r0, r4, r5
200015ce:	b2a4      	uxth	r4, r4
    y = random() % BSP_LCD_GetYSize();
200015d0:	f001 ff58 	bl	20003484 <random>
200015d4:	4681      	mov	r9, r0
200015d6:	f001 f915 	bl	20002804 <BSP_LCD_GetYSize>
200015da:	fb99 f5f0 	sdiv	r5, r9, r0
200015de:	fb00 9515 	mls	r5, r0, r5, r9
200015e2:	b2ad      	uxth	r5, r5
    c = random() % 0xFFFF;
200015e4:	f001 ff4e 	bl	20003484 <random>
200015e8:	4a0b      	ldr	r2, [pc, #44]	; (20001618 <PixelTest+0x6c>)
200015ea:	fb82 3200 	smull	r3, r2, r2, r0
200015ee:	1813      	adds	r3, r2, r0
200015f0:	17c2      	asrs	r2, r0, #31
200015f2:	ebc2 32e3 	rsb	r2, r2, r3, asr #15
200015f6:	ebc2 4202 	rsb	r2, r2, r2, lsl #16
200015fa:	1a82      	subs	r2, r0, r2
    BSP_LCD_DrawPixel(x, y, c);
200015fc:	b292      	uxth	r2, r2
200015fe:	4629      	mov	r1, r5
20001600:	4620      	mov	r0, r4
20001602:	f001 f953 	bl	200028ac <BSP_LCD_DrawPixel>
  for(uint32_t i = 0; i < n; i++)
20001606:	3601      	adds	r6, #1
20001608:	42be      	cmp	r6, r7
2000160a:	d3d7      	bcc.n	200015bc <PixelTest+0x10>
  }
  return(GetTime() - ctStartT);
2000160c:	f7fe ffde 	bl	200005cc <HAL_GetTick>
}
20001610:	eba0 0008 	sub.w	r0, r0, r8
20001614:	e8bd 83f8 	ldmia.w	sp!, {r3, r4, r5, r6, r7, r8, r9, pc}
20001618:	80008001 	.word	0x80008001

2000161c <LineTest>:

//-----------------------------------------------------------------------------
uint32_t LineTest(uint32_t n)
{
2000161c:	e92d 4ff8 	stmdb	sp!, {r3, r4, r5, r6, r7, r8, r9, sl, fp, lr}
20001620:	4681      	mov	r9, r0
  uint16_t x1, y1, x2, y2;

  uint32_t ctStartT = GetTime();
20001622:	f7fe ffd3 	bl	200005cc <HAL_GetTick>
20001626:	4682      	mov	sl, r0
  for(uint32_t i = 0; i < n; i++)
20001628:	f04f 0800 	mov.w	r8, #0
2000162c:	e03f      	b.n	200016ae <LineTest+0x92>
  {
    x1 = random() % BSP_LCD_GetXSize();
2000162e:	f001 ff29 	bl	20003484 <random>
20001632:	4605      	mov	r5, r0
20001634:	f001 f8de 	bl	200027f4 <BSP_LCD_GetXSize>
20001638:	fb95 f4f0 	sdiv	r4, r5, r0
2000163c:	fb00 5414 	mls	r4, r0, r4, r5
20001640:	b2a4      	uxth	r4, r4
    y1 = random() % BSP_LCD_GetYSize();
20001642:	f001 ff1f 	bl	20003484 <random>
20001646:	4606      	mov	r6, r0
20001648:	f001 f8dc 	bl	20002804 <BSP_LCD_GetYSize>
2000164c:	fb96 f5f0 	sdiv	r5, r6, r0
20001650:	fb00 6515 	mls	r5, r0, r5, r6
20001654:	b2ad      	uxth	r5, r5
    x2 = random() % BSP_LCD_GetXSize();
20001656:	f001 ff15 	bl	20003484 <random>
2000165a:	4607      	mov	r7, r0
2000165c:	f001 f8ca 	bl	200027f4 <BSP_LCD_GetXSize>
20001660:	fb97 f6f0 	sdiv	r6, r7, r0
20001664:	fb00 7616 	mls	r6, r0, r6, r7
20001668:	b2b6      	uxth	r6, r6
    y2 = random() % BSP_LCD_GetYSize();
2000166a:	f001 ff0b 	bl	20003484 <random>
2000166e:	4683      	mov	fp, r0
20001670:	f001 f8c8 	bl	20002804 <BSP_LCD_GetYSize>
20001674:	fb9b f7f0 	sdiv	r7, fp, r0
20001678:	fb00 b717 	mls	r7, r0, r7, fp
2000167c:	b2bf      	uxth	r7, r7
    BSP_LCD_SetTextColor(RD(random() % 0xFFFF));
2000167e:	f001 ff01 	bl	20003484 <random>
20001682:	4b0f      	ldr	r3, [pc, #60]	; (200016c0 <LineTest+0xa4>)
20001684:	fb83 2300 	smull	r2, r3, r3, r0
20001688:	181a      	adds	r2, r3, r0
2000168a:	17c3      	asrs	r3, r0, #31
2000168c:	ebc3 33e2 	rsb	r3, r3, r2, asr #15
20001690:	ebc3 4303 	rsb	r3, r3, r3, lsl #16
20001694:	1ac3      	subs	r3, r0, r3
  \return               Reversed value
 */
__attribute__((always_inline)) __STATIC_INLINE int32_t __REVSH(int32_t value)
{
#if (__GNUC__ > 4) || (__GNUC__ == 4 && __GNUC_MINOR__ >= 8)
  return (short)__builtin_bswap16(value);
20001696:	ba58      	rev16	r0, r3
20001698:	b280      	uxth	r0, r0
2000169a:	f001 f8bb 	bl	20002814 <BSP_LCD_SetTextColor>
    BSP_LCD_DrawLine(x1, y1, x2, y2);
2000169e:	463b      	mov	r3, r7
200016a0:	4632      	mov	r2, r6
200016a2:	4629      	mov	r1, r5
200016a4:	4620      	mov	r0, r4
200016a6:	f001 f94b 	bl	20002940 <BSP_LCD_DrawLine>
  for(uint32_t i = 0; i < n; i++)
200016aa:	f108 0801 	add.w	r8, r8, #1
200016ae:	45c8      	cmp	r8, r9
200016b0:	d3bd      	bcc.n	2000162e <LineTest+0x12>
  }
  return(GetTime() - ctStartT);
200016b2:	f7fe ff8b 	bl	200005cc <HAL_GetTick>
}
200016b6:	eba0 000a 	sub.w	r0, r0, sl
200016ba:	e8bd 8ff8 	ldmia.w	sp!, {r3, r4, r5, r6, r7, r8, r9, sl, fp, pc}
200016be:	bf00      	nop
200016c0:	80008001 	.word	0x80008001

200016c4 <FillRectTest>:

//-----------------------------------------------------------------------------
uint32_t FillRectTest(uint32_t n)
{
200016c4:	e92d 4ff8 	stmdb	sp!, {r3, r4, r5, r6, r7, r8, r9, sl, fp, lr}
200016c8:	4681      	mov	r9, r0
  uint16_t x, y, w, h;

  uint32_t ctStartT = GetTime();
200016ca:	f7fe ff7f 	bl	200005cc <HAL_GetTick>
200016ce:	4682      	mov	sl, r0
  for(uint32_t i = 0; i < n; i++)
200016d0:	f04f 0800 	mov.w	r8, #0
200016d4:	e045      	b.n	20001762 <FillRectTest+0x9e>
  {
    w = random() % (BSP_LCD_GetXSize() >> 1);
200016d6:	f001 fed5 	bl	20003484 <random>
200016da:	4605      	mov	r5, r0
200016dc:	f001 f88a 	bl	200027f4 <BSP_LCD_GetXSize>
200016e0:	f3c0 004f 	ubfx	r0, r0, #1, #16
200016e4:	fb95 f4f0 	sdiv	r4, r5, r0
200016e8:	fb00 5414 	mls	r4, r0, r4, r5
200016ec:	b2a4      	uxth	r4, r4
    h = random() % (BSP_LCD_GetYSize() >> 1);
200016ee:	f001 fec9 	bl	20003484 <random>
200016f2:	4606      	mov	r6, r0
200016f4:	f001 f886 	bl	20002804 <BSP_LCD_GetYSize>
200016f8:	f3c0 004f 	ubfx	r0, r0, #1, #16
200016fc:	fb96 f5f0 	sdiv	r5, r6, r0
20001700:	fb00 6515 	mls	r5, r0, r5, r6
20001704:	b2ad      	uxth	r5, r5
    x = random() % (BSP_LCD_GetXSize() - w);
20001706:	f001 febd 	bl	20003484 <random>
2000170a:	4607      	mov	r7, r0
2000170c:	f001 f872 	bl	200027f4 <BSP_LCD_GetXSize>
20001710:	1b00      	subs	r0, r0, r4
20001712:	fb97 f6f0 	sdiv	r6, r7, r0
20001716:	fb00 7616 	mls	r6, r0, r6, r7
2000171a:	b2b6      	uxth	r6, r6
    y = random() % (BSP_LCD_GetYSize() - h);
2000171c:	f001 feb2 	bl	20003484 <random>
20001720:	4683      	mov	fp, r0
20001722:	f001 f86f 	bl	20002804 <BSP_LCD_GetYSize>
20001726:	1b40      	subs	r0, r0, r5
20001728:	fb9b f7f0 	sdiv	r7, fp, r0
2000172c:	fb00 b717 	mls	r7, r0, r7, fp
20001730:	b2bf      	uxth	r7, r7
    BSP_LCD_SetTextColor(RD(random() % 0xFFFF));
20001732:	f001 fea7 	bl	20003484 <random>
20001736:	4b0f      	ldr	r3, [pc, #60]	; (20001774 <FillRectTest+0xb0>)
20001738:	fb83 2300 	smull	r2, r3, r3, r0
2000173c:	181a      	adds	r2, r3, r0
2000173e:	17c3      	asrs	r3, r0, #31
20001740:	ebc3 33e2 	rsb	r3, r3, r2, asr #15
20001744:	ebc3 4303 	rsb	r3, r3, r3, lsl #16
20001748:	1ac3      	subs	r3, r0, r3
2000174a:	ba58      	rev16	r0, r3
2000174c:	b280      	uxth	r0, r0
2000174e:	f001 f861 	bl	20002814 <BSP_LCD_SetTextColor>
    BSP_LCD_FillRect(x, y, w, h);
20001752:	462b      	mov	r3, r5
20001754:	4622      	mov	r2, r4
20001756:	4639      	mov	r1, r7
20001758:	4630      	mov	r0, r6
2000175a:	f001 fa8f 	bl	20002c7c <BSP_LCD_FillRect>
  for(uint32_t i = 0; i < n; i++)
2000175e:	f108 0801 	add.w	r8, r8, #1
20001762:	45c8      	cmp	r8, r9
20001764:	d3b7      	bcc.n	200016d6 <FillRectTest+0x12>
  }
  return(GetTime() - ctStartT);
20001766:	f7fe ff31 	bl	200005cc <HAL_GetTick>
}
2000176a:	eba0 000a 	sub.w	r0, r0, sl
2000176e:	e8bd 8ff8 	ldmia.w	sp!, {r3, r4, r5, r6, r7, r8, r9, sl, fp, pc}
20001772:	bf00      	nop
20001774:	80008001 	.word	0x80008001

20001778 <CharTest>:

//-----------------------------------------------------------------------------
uint32_t CharTest(uint32_t n)
{
20001778:	e92d 43f8 	stmdb	sp!, {r3, r4, r5, r6, r7, r8, r9, lr}
2000177c:	4607      	mov	r7, r0
  uint16_t x, y;
  uint8_t  c;
  sFONT * fp;

  uint32_t ctStartT = GetTime();
2000177e:	f7fe ff25 	bl	200005cc <HAL_GetTick>
20001782:	4680      	mov	r8, r0
  for(uint32_t i = 0; i < n; i++)
20001784:	2600      	movs	r6, #0
20001786:	e051      	b.n	2000182c <CharTest+0xb4>
  {
    c = random() % 5;
    if(c == 0)
      BSP_LCD_SetFont(&Font8);
20001788:	483f      	ldr	r0, [pc, #252]	; (20001888 <CharTest+0x110>)
2000178a:	f001 f84f 	bl	2000282c <BSP_LCD_SetFont>
      BSP_LCD_SetFont(&Font16);
    else if(c == 3)
      BSP_LCD_SetFont(&Font20);
    else if(c == 4)
      BSP_LCD_SetFont(&Font24);
    fp = BSP_LCD_GetFont();
2000178e:	f001 f853 	bl	20002838 <BSP_LCD_GetFont>
20001792:	4605      	mov	r5, r0

    x = random() % (BSP_LCD_GetXSize() - fp->Width);
20001794:	f001 fe76 	bl	20003484 <random>
20001798:	4681      	mov	r9, r0
2000179a:	f001 f82b 	bl	200027f4 <BSP_LCD_GetXSize>
2000179e:	88ac      	ldrh	r4, [r5, #4]
200017a0:	1b00      	subs	r0, r0, r4
200017a2:	fb99 f4f0 	sdiv	r4, r9, r0
200017a6:	fb00 9014 	mls	r0, r0, r4, r9
200017aa:	b284      	uxth	r4, r0
    y = random() % (BSP_LCD_GetYSize() - fp->Height);
200017ac:	f001 fe6a 	bl	20003484 <random>
200017b0:	4681      	mov	r9, r0
200017b2:	f001 f827 	bl	20002804 <BSP_LCD_GetYSize>
200017b6:	88ed      	ldrh	r5, [r5, #6]
200017b8:	1b40      	subs	r0, r0, r5
200017ba:	fb99 f5f0 	sdiv	r5, r9, r0
200017be:	fb00 9015 	mls	r0, r0, r5, r9
200017c2:	b285      	uxth	r5, r0
    BSP_LCD_SetTextColor(RD(random() % 0xFFFF));
200017c4:	f001 fe5e 	bl	20003484 <random>
200017c8:	f8df 90d8 	ldr.w	r9, [pc, #216]	; 200018a4 <CharTest+0x12c>
200017cc:	fb89 2300 	smull	r2, r3, r9, r0
200017d0:	181a      	adds	r2, r3, r0
200017d2:	17c3      	asrs	r3, r0, #31
200017d4:	ebc3 33e2 	rsb	r3, r3, r2, asr #15
200017d8:	ebc3 4303 	rsb	r3, r3, r3, lsl #16
200017dc:	1ac3      	subs	r3, r0, r3
200017de:	ba58      	rev16	r0, r3
200017e0:	b280      	uxth	r0, r0
200017e2:	f001 f817 	bl	20002814 <BSP_LCD_SetTextColor>
    BSP_LCD_SetBackColor(RD(random() % 0xFFFF));
200017e6:	f001 fe4d 	bl	20003484 <random>
200017ea:	fb89 3900 	smull	r3, r9, r9, r0
200017ee:	4481      	add	r9, r0
200017f0:	17c3      	asrs	r3, r0, #31
200017f2:	ebc3 33e9 	rsb	r3, r3, r9, asr #15
200017f6:	ebc3 4303 	rsb	r3, r3, r3, lsl #16
200017fa:	1ac3      	subs	r3, r0, r3
200017fc:	ba58      	rev16	r0, r3
200017fe:	b280      	uxth	r0, r0
20001800:	f001 f80e 	bl	20002820 <BSP_LCD_SetBackColor>

    c = random() % 96 + ' ';
20001804:	f001 fe3e 	bl	20003484 <random>
20001808:	4b20      	ldr	r3, [pc, #128]	; (2000188c <CharTest+0x114>)
2000180a:	fb83 2300 	smull	r2, r3, r3, r0
2000180e:	17c2      	asrs	r2, r0, #31
20001810:	ebc2 1223 	rsb	r2, r2, r3, asr #4
20001814:	eb02 0242 	add.w	r2, r2, r2, lsl #1
20001818:	0153      	lsls	r3, r2, #5
2000181a:	1ac2      	subs	r2, r0, r3
2000181c:	b2d2      	uxtb	r2, r2
2000181e:	3220      	adds	r2, #32
    BSP_LCD_DisplayChar(x, y, c);
20001820:	b2d2      	uxtb	r2, r2
20001822:	4629      	mov	r1, r5
20001824:	4620      	mov	r0, r4
20001826:	f001 fa15 	bl	20002c54 <BSP_LCD_DisplayChar>
  for(uint32_t i = 0; i < n; i++)
2000182a:	3601      	adds	r6, #1
2000182c:	42be      	cmp	r6, r7
2000182e:	d225      	bcs.n	2000187c <CharTest+0x104>
    c = random() % 5;
20001830:	f001 fe28 	bl	20003484 <random>
20001834:	4a16      	ldr	r2, [pc, #88]	; (20001890 <CharTest+0x118>)
20001836:	fb82 3200 	smull	r3, r2, r2, r0
2000183a:	17c3      	asrs	r3, r0, #31
2000183c:	ebc3 0362 	rsb	r3, r3, r2, asr #1
20001840:	eb03 0383 	add.w	r3, r3, r3, lsl #2
20001844:	1ac3      	subs	r3, r0, r3
    if(c == 0)
20001846:	f013 03ff 	ands.w	r3, r3, #255	; 0xff
2000184a:	d09d      	beq.n	20001788 <CharTest+0x10>
    else if(c == 1)
2000184c:	2b01      	cmp	r3, #1
2000184e:	d009      	beq.n	20001864 <CharTest+0xec>
    else if(c == 2)
20001850:	2b02      	cmp	r3, #2
20001852:	d00b      	beq.n	2000186c <CharTest+0xf4>
    else if(c == 3)
20001854:	2b03      	cmp	r3, #3
20001856:	d00d      	beq.n	20001874 <CharTest+0xfc>
    else if(c == 4)
20001858:	2b04      	cmp	r3, #4
2000185a:	d198      	bne.n	2000178e <CharTest+0x16>
      BSP_LCD_SetFont(&Font24);
2000185c:	480d      	ldr	r0, [pc, #52]	; (20001894 <CharTest+0x11c>)
2000185e:	f000 ffe5 	bl	2000282c <BSP_LCD_SetFont>
20001862:	e794      	b.n	2000178e <CharTest+0x16>
      BSP_LCD_SetFont(&Font12);
20001864:	480c      	ldr	r0, [pc, #48]	; (20001898 <CharTest+0x120>)
20001866:	f000 ffe1 	bl	2000282c <BSP_LCD_SetFont>
2000186a:	e790      	b.n	2000178e <CharTest+0x16>
      BSP_LCD_SetFont(&Font16);
2000186c:	480b      	ldr	r0, [pc, #44]	; (2000189c <CharTest+0x124>)
2000186e:	f000 ffdd 	bl	2000282c <BSP_LCD_SetFont>
20001872:	e78c      	b.n	2000178e <CharTest+0x16>
      BSP_LCD_SetFont(&Font20);
20001874:	480a      	ldr	r0, [pc, #40]	; (200018a0 <CharTest+0x128>)
20001876:	f000 ffd9 	bl	2000282c <BSP_LCD_SetFont>
2000187a:	e788      	b.n	2000178e <CharTest+0x16>
  }
  return(GetTime() - ctStartT);
2000187c:	f7fe fea6 	bl	200005cc <HAL_GetTick>
}
20001880:	eba0 0008 	sub.w	r0, r0, r8
20001884:	e8bd 83f8 	ldmia.w	sp!, {r3, r4, r5, r6, r7, r8, r9, pc}
20001888:	20018024 	.word	0x20018024
2000188c:	2aaaaaab 	.word	0x2aaaaaab
20001890:	66666667 	.word	0x66666667
20001894:	2001801c 	.word	0x2001801c
20001898:	20018004 	.word	0x20018004
2000189c:	2001800c 	.word	0x2001800c
200018a0:	20018014 	.word	0x20018014
200018a4:	80008001 	.word	0x80008001

200018a8 <CircleTest>:

//-----------------------------------------------------------------------------
uint32_t CircleTest(uint32_t n)
{
200018a8:	e92d 4ff8 	stmdb	sp!, {r3, r4, r5, r6, r7, r8, r9, sl, fp, lr}
200018ac:	4680      	mov	r8, r0
  uint16_t c, x, y, r, rmax;

  rmax = BSP_LCD_GetXSize();
200018ae:	f000 ffa1 	bl	200027f4 <BSP_LCD_GetXSize>
200018b2:	4606      	mov	r6, r0
  if(rmax > BSP_LCD_GetYSize())
200018b4:	f000 ffa6 	bl	20002804 <BSP_LCD_GetYSize>
200018b8:	4286      	cmp	r6, r0
200018ba:	d806      	bhi.n	200018ca <CircleTest+0x22>
    rmax = BSP_LCD_GetYSize();
  rmax >>= 2;
200018bc:	f3c6 068f 	ubfx	r6, r6, #2, #16

  uint32_t ctStartT = GetTime();
200018c0:	f7fe fe84 	bl	200005cc <HAL_GetTick>
200018c4:	4681      	mov	r9, r0
  for(uint32_t i = 0; i < n; i++)
200018c6:	2700      	movs	r7, #0
200018c8:	e040      	b.n	2000194c <CircleTest+0xa4>
    rmax = BSP_LCD_GetYSize();
200018ca:	f000 ff9b 	bl	20002804 <BSP_LCD_GetYSize>
200018ce:	4606      	mov	r6, r0
200018d0:	e7f4      	b.n	200018bc <CircleTest+0x14>
  {
    do
      r = random() % rmax;
200018d2:	f001 fdd7 	bl	20003484 <random>
200018d6:	fb90 f4f6 	sdiv	r4, r0, r6
200018da:	fb06 0414 	mls	r4, r6, r4, r0
200018de:	b2a5      	uxth	r5, r4
    while(r == 0);
200018e0:	2d00      	cmp	r5, #0
200018e2:	d0f6      	beq.n	200018d2 <CircleTest+0x2a>

    x = random() % (BSP_LCD_GetXSize() - (r << 1)) + r;
200018e4:	f001 fdce 	bl	20003484 <random>
200018e8:	4683      	mov	fp, r0
200018ea:	f000 ff83 	bl	200027f4 <BSP_LCD_GetXSize>
200018ee:	4b1b      	ldr	r3, [pc, #108]	; (2000195c <CircleTest+0xb4>)
200018f0:	ea03 0444 	and.w	r4, r3, r4, lsl #1
200018f4:	1b00      	subs	r0, r0, r4
200018f6:	fb9b faf0 	sdiv	sl, fp, r0
200018fa:	fb00 ba1a 	mls	sl, r0, sl, fp
200018fe:	fa15 fa8a 	uxtah	sl, r5, sl
20001902:	fa1f fa8a 	uxth.w	sl, sl
    y = random() % (BSP_LCD_GetYSize() - (r << 1)) + r;
20001906:	f001 fdbd 	bl	20003484 <random>
2000190a:	4683      	mov	fp, r0
2000190c:	f000 ff7a 	bl	20002804 <BSP_LCD_GetYSize>
20001910:	1b00      	subs	r0, r0, r4
20001912:	fb9b f4f0 	sdiv	r4, fp, r0
20001916:	fb00 b414 	mls	r4, r0, r4, fp
2000191a:	fa15 f484 	uxtah	r4, r5, r4
2000191e:	b2a4      	uxth	r4, r4
    c = random() % 0xFFFF;
20001920:	f001 fdb0 	bl	20003484 <random>
20001924:	4b0e      	ldr	r3, [pc, #56]	; (20001960 <CircleTest+0xb8>)
20001926:	fb83 2300 	smull	r2, r3, r3, r0
2000192a:	181a      	adds	r2, r3, r0
2000192c:	17c3      	asrs	r3, r0, #31
2000192e:	ebc3 33e2 	rsb	r3, r3, r2, asr #15
20001932:	ebc3 4303 	rsb	r3, r3, r3, lsl #16
20001936:	1ac3      	subs	r3, r0, r3
20001938:	ba58      	rev16	r0, r3
    BSP_LCD_SetTextColor(RD(c));
2000193a:	b280      	uxth	r0, r0
2000193c:	f000 ff6a 	bl	20002814 <BSP_LCD_SetTextColor>
    BSP_LCD_DrawCircle(x, y, r);
20001940:	462a      	mov	r2, r5
20001942:	4621      	mov	r1, r4
20001944:	4650      	mov	r0, sl
20001946:	f001 f867 	bl	20002a18 <BSP_LCD_DrawCircle>
  for(uint32_t i = 0; i < n; i++)
2000194a:	3701      	adds	r7, #1
2000194c:	4547      	cmp	r7, r8
2000194e:	d3c0      	bcc.n	200018d2 <CircleTest+0x2a>
  }
  return(GetTime() - ctStartT);
20001950:	f7fe fe3c 	bl	200005cc <HAL_GetTick>
}
20001954:	eba0 0009 	sub.w	r0, r0, r9
20001958:	e8bd 8ff8 	ldmia.w	sp!, {r3, r4, r5, r6, r7, r8, r9, sl, fp, pc}
2000195c:	0001fffe 	.word	0x0001fffe
20001960:	80008001 	.word	0x80008001

20001964 <FillCircleTest>:

//-----------------------------------------------------------------------------
uint32_t FillCircleTest(uint32_t n)
{
20001964:	e92d 4ff8 	stmdb	sp!, {r3, r4, r5, r6, r7, r8, r9, sl, fp, lr}
20001968:	4680      	mov	r8, r0
  uint16_t c, x, y, r, rmax;

  rmax = BSP_LCD_GetXSize();
2000196a:	f000 ff43 	bl	200027f4 <BSP_LCD_GetXSize>
2000196e:	4606      	mov	r6, r0
  if(rmax > BSP_LCD_GetYSize())
20001970:	f000 ff48 	bl	20002804 <BSP_LCD_GetYSize>
20001974:	4286      	cmp	r6, r0
20001976:	d806      	bhi.n	20001986 <FillCircleTest+0x22>
    rmax = BSP_LCD_GetYSize();
  rmax >>= 2;
20001978:	f3c6 068f 	ubfx	r6, r6, #2, #16

  uint32_t ctStartT = GetTime();
2000197c:	f7fe fe26 	bl	200005cc <HAL_GetTick>
20001980:	4681      	mov	r9, r0
  for(uint32_t i = 0; i < n; i++)
20001982:	2700      	movs	r7, #0
20001984:	e040      	b.n	20001a08 <FillCircleTest+0xa4>
    rmax = BSP_LCD_GetYSize();
20001986:	f000 ff3d 	bl	20002804 <BSP_LCD_GetYSize>
2000198a:	4606      	mov	r6, r0
2000198c:	e7f4      	b.n	20001978 <FillCircleTest+0x14>
  {
    do
      r = random() % rmax;
2000198e:	f001 fd79 	bl	20003484 <random>
20001992:	fb90 f4f6 	sdiv	r4, r0, r6
20001996:	fb06 0414 	mls	r4, r6, r4, r0
2000199a:	b2a5      	uxth	r5, r4
    while(r == 0);
2000199c:	2d00      	cmp	r5, #0
2000199e:	d0f6      	beq.n	2000198e <FillCircleTest+0x2a>

    x = random() % (BSP_LCD_GetXSize() - (r << 1)) + r;
200019a0:	f001 fd70 	bl	20003484 <random>
200019a4:	4683      	mov	fp, r0
200019a6:	f000 ff25 	bl	200027f4 <BSP_LCD_GetXSize>
200019aa:	4b1b      	ldr	r3, [pc, #108]	; (20001a18 <FillCircleTest+0xb4>)
200019ac:	ea03 0444 	and.w	r4, r3, r4, lsl #1
200019b0:	1b00      	subs	r0, r0, r4
200019b2:	fb9b faf0 	sdiv	sl, fp, r0
200019b6:	fb00 ba1a 	mls	sl, r0, sl, fp
200019ba:	fa15 fa8a 	uxtah	sl, r5, sl
200019be:	fa1f fa8a 	uxth.w	sl, sl
    y = random() % (BSP_LCD_GetYSize() - (r << 1)) + r;
200019c2:	f001 fd5f 	bl	20003484 <random>
200019c6:	4683      	mov	fp, r0
200019c8:	f000 ff1c 	bl	20002804 <BSP_LCD_GetYSize>
200019cc:	1b00      	subs	r0, r0, r4
200019ce:	fb9b f4f0 	sdiv	r4, fp, r0
200019d2:	fb00 b414 	mls	r4, r0, r4, fp
200019d6:	fa15 f484 	uxtah	r4, r5, r4
200019da:	b2a4      	uxth	r4, r4
    c = random() % 0xFFFF;
200019dc:	f001 fd52 	bl	20003484 <random>
200019e0:	4b0e      	ldr	r3, [pc, #56]	; (20001a1c <FillCircleTest+0xb8>)
200019e2:	fb83 2300 	smull	r2, r3, r3, r0
200019e6:	181a      	adds	r2, r3, r0
200019e8:	17c3      	asrs	r3, r0, #31
200019ea:	ebc3 33e2 	rsb	r3, r3, r2, asr #15
200019ee:	ebc3 4303 	rsb	r3, r3, r3, lsl #16
200019f2:	1ac3      	subs	r3, r0, r3
200019f4:	ba58      	rev16	r0, r3
    BSP_LCD_SetTextColor(RD(c));
200019f6:	b280      	uxth	r0, r0
200019f8:	f000 ff0c 	bl	20002814 <BSP_LCD_SetTextColor>
    BSP_LCD_FillCircle(x, y, r);
200019fc:	462a      	mov	r2, r5
200019fe:	4621      	mov	r1, r4
20001a00:	4650      	mov	r0, sl
20001a02:	f001 f94b 	bl	20002c9c <BSP_LCD_FillCircle>
  for(uint32_t i = 0; i < n; i++)
20001a06:	3701      	adds	r7, #1
20001a08:	4547      	cmp	r7, r8
20001a0a:	d3c0      	bcc.n	2000198e <FillCircleTest+0x2a>
  }
  return(GetTime() - ctStartT);
20001a0c:	f7fe fdde 	bl	200005cc <HAL_GetTick>
}
20001a10:	eba0 0009 	sub.w	r0, r0, r9
20001a14:	e8bd 8ff8 	ldmia.w	sp!, {r3, r4, r5, r6, r7, r8, r9, sl, fp, pc}
20001a18:	0001fffe 	.word	0x0001fffe
20001a1c:	80008001 	.word	0x80008001

20001a20 <ColorTest>:

//-----------------------------------------------------------------------------
uint32_t ColorTest(void)
{
20001a20:	e92d 4ff8 	stmdb	sp!, {r3, r4, r5, r6, r7, r8, r9, sl, fp, lr}
  uint16_t c_rgb565, xs, ys;
  uint8_t  cy;

  uint32_t ctStartT = GetTime();
20001a24:	f7fe fdd2 	bl	200005cc <HAL_GetTick>
20001a28:	4681      	mov	r9, r0
  xs = BSP_LCD_GetXSize();
20001a2a:	f000 fee3 	bl	200027f4 <BSP_LCD_GetXSize>
20001a2e:	4607      	mov	r7, r0
  ys = BSP_LCD_GetYSize();
20001a30:	f000 fee8 	bl	20002804 <BSP_LCD_GetYSize>
20001a34:	4680      	mov	r8, r0
  for(uint16_t x = 0; x < xs; x++)
20001a36:	2500      	movs	r5, #0
20001a38:	e042      	b.n	20001ac0 <ColorTest+0xa0>
  {
    cy = (uint32_t)(x << 8) / xs;
20001a3a:	022c      	lsls	r4, r5, #8
20001a3c:	fbb4 f4f7 	udiv	r4, r4, r7
20001a40:	0226      	lsls	r6, r4, #8
    c_rgb565 = RGB888TORGB565(cy, cy, cy);
20001a42:	f426 63ff 	bic.w	r3, r6, #2040	; 0x7f8
20001a46:	f023 0307 	bic.w	r3, r3, #7
20001a4a:	b218      	sxth	r0, r3
20001a4c:	ea4f 0ac4 	mov.w	sl, r4, lsl #3
20001a50:	f40a 6aff 	and.w	sl, sl, #2040	; 0x7f8
20001a54:	f40a 63fc 	and.w	r3, sl, #2016	; 0x7e0
20001a58:	4318      	orrs	r0, r3
20001a5a:	f3c4 04c4 	ubfx	r4, r4, #3, #5
20001a5e:	4320      	orrs	r0, r4
20001a60:	ba40      	rev16	r0, r0
    BSP_LCD_SetTextColor(RD(c_rgb565));
20001a62:	b280      	uxth	r0, r0
20001a64:	f000 fed6 	bl	20002814 <BSP_LCD_SetTextColor>
    BSP_LCD_DrawVLine(x, 0, ys >> 2);
20001a68:	f3c8 0b8f 	ubfx	fp, r8, #2, #16
20001a6c:	465a      	mov	r2, fp
20001a6e:	2100      	movs	r1, #0
20001a70:	4628      	mov	r0, r5
20001a72:	f000 ff45 	bl	20002900 <BSP_LCD_DrawVLine>

    c_rgb565 = RGB888TORGB565(cy, 0, 0);
20001a76:	f406 4078 	and.w	r0, r6, #63488	; 0xf800
20001a7a:	ba40      	rev16	r0, r0
    BSP_LCD_SetTextColor(RD(c_rgb565));
20001a7c:	b280      	uxth	r0, r0
20001a7e:	f000 fec9 	bl	20002814 <BSP_LCD_SetTextColor>
    BSP_LCD_DrawVLine(x, ys >> 2, ys >> 2);
20001a82:	465a      	mov	r2, fp
20001a84:	4659      	mov	r1, fp
20001a86:	4628      	mov	r0, r5
20001a88:	f000 ff3a 	bl	20002900 <BSP_LCD_DrawVLine>

    c_rgb565 = RGB888TORGB565(0, cy, 0);
20001a8c:	f40a 60fc 	and.w	r0, sl, #2016	; 0x7e0
20001a90:	ba40      	rev16	r0, r0
    BSP_LCD_SetTextColor(RD(c_rgb565));
20001a92:	b280      	uxth	r0, r0
20001a94:	f000 febe 	bl	20002814 <BSP_LCD_SetTextColor>
    BSP_LCD_DrawVLine(x, ys >> 1, ys >> 2);
20001a98:	f3c8 064f 	ubfx	r6, r8, #1, #16
20001a9c:	465a      	mov	r2, fp
20001a9e:	4631      	mov	r1, r6
20001aa0:	4628      	mov	r0, r5
20001aa2:	f000 ff2d 	bl	20002900 <BSP_LCD_DrawVLine>
20001aa6:	ba60      	rev16	r0, r4

    c_rgb565 = RGB888TORGB565(0, 0, cy);
    BSP_LCD_SetTextColor(RD(c_rgb565));
20001aa8:	b280      	uxth	r0, r0
20001aaa:	f000 feb3 	bl	20002814 <BSP_LCD_SetTextColor>
    BSP_LCD_DrawVLine(x, (ys >> 1) + (ys >> 2), ys >> 2);
20001aae:	eb0b 0106 	add.w	r1, fp, r6
20001ab2:	465a      	mov	r2, fp
20001ab4:	b289      	uxth	r1, r1
20001ab6:	4628      	mov	r0, r5
20001ab8:	f000 ff22 	bl	20002900 <BSP_LCD_DrawVLine>
  for(uint16_t x = 0; x < xs; x++)
20001abc:	3501      	adds	r5, #1
20001abe:	b2ad      	uxth	r5, r5
20001ac0:	42bd      	cmp	r5, r7
20001ac2:	d3ba      	bcc.n	20001a3a <ColorTest+0x1a>
  }
  return(GetTime() - ctStartT);
20001ac4:	f7fe fd82 	bl	200005cc <HAL_GetTick>
}
20001ac8:	eba0 0009 	sub.w	r0, r0, r9
20001acc:	e8bd 8ff8 	ldmia.w	sp!, {r3, r4, r5, r6, r7, r8, r9, sl, fp, pc}

20001ad0 <BitmapTest>:

//-----------------------------------------------------------------------------
uint32_t BitmapTest(uint32_t n)
{
20001ad0:	e92d 43f8 	stmdb	sp!, {r3, r4, r5, r6, r7, r8, r9, lr}
20001ad4:	4607      	mov	r7, r0
  extern const BITMAPSTRUCT beer_60x100_16;
  uint16_t x, y;

  uint32_t ctStartT = GetTime();
20001ad6:	f7fe fd79 	bl	200005cc <HAL_GetTick>
20001ada:	4680      	mov	r8, r0
  for(uint32_t i = 0; i < n; i++)
20001adc:	2600      	movs	r6, #0
20001ade:	e01f      	b.n	20001b20 <BitmapTest+0x50>
  {
    x = random() % (BSP_LCD_GetXSize() - rombitmap.infoHeader.biWidth);
20001ae0:	f001 fcd0 	bl	20003484 <random>
20001ae4:	4681      	mov	r9, r0
20001ae6:	f000 fe85 	bl	200027f4 <BSP_LCD_GetXSize>
20001aea:	4d11      	ldr	r5, [pc, #68]	; (20001b30 <BitmapTest+0x60>)
20001aec:	f8d5 4012 	ldr.w	r4, [r5, #18]
20001af0:	1b00      	subs	r0, r0, r4
20001af2:	fbb9 f4f0 	udiv	r4, r9, r0
20001af6:	fb00 9014 	mls	r0, r0, r4, r9
20001afa:	b284      	uxth	r4, r0
    y = random() % (BSP_LCD_GetYSize() - rombitmap.infoHeader.biHeight);
20001afc:	f001 fcc2 	bl	20003484 <random>
20001b00:	4681      	mov	r9, r0
20001b02:	f000 fe7f 	bl	20002804 <BSP_LCD_GetYSize>
20001b06:	f8d5 1016 	ldr.w	r1, [r5, #22]
20001b0a:	1a40      	subs	r0, r0, r1
20001b0c:	fbb9 f1f0 	udiv	r1, r9, r0
20001b10:	fb00 9111 	mls	r1, r0, r1, r9
    BSP_LCD_DrawBitmap(x, y, (uint8_t *)&rombitmap);
20001b14:	462a      	mov	r2, r5
20001b16:	b289      	uxth	r1, r1
20001b18:	4620      	mov	r0, r4
20001b1a:	f000 ffeb 	bl	20002af4 <BSP_LCD_DrawBitmap>
  for(uint32_t i = 0; i < n; i++)
20001b1e:	3601      	adds	r6, #1
20001b20:	42be      	cmp	r6, r7
20001b22:	d3dd      	bcc.n	20001ae0 <BitmapTest+0x10>
  }
  return(GetTime() - ctStartT);
20001b24:	f7fe fd52 	bl	200005cc <HAL_GetTick>
}
20001b28:	eba0 0008 	sub.w	r0, r0, r8
20001b2c:	e8bd 83f8 	ldmia.w	sp!, {r3, r4, r5, r6, r7, r8, r9, pc}
20001b30:	20004428 	.word	0x20004428

20001b34 <ReadPixelTest>:

//-----------------------------------------------------------------------------
uint32_t ReadPixelTest(uint32_t n)
{
20001b34:	e92d 4ff0 	stmdb	sp!, {r4, r5, r6, r7, r8, r9, sl, fp, lr}
20001b38:	b085      	sub	sp, #20
20001b3a:	4604      	mov	r4, r0
  uint16_t x, y, x0, y0, xsize, ysize;
  uint32_t error = 0;

  x0 = 20;
  y0 =  5;
  xsize = rombitmap.infoHeader.biWidth;
20001b3c:	4a33      	ldr	r2, [pc, #204]	; (20001c0c <ReadPixelTest+0xd8>)
20001b3e:	f8d2 8012 	ldr.w	r8, [r2, #18]
20001b42:	fa1f f788 	uxth.w	r7, r8
  ysize = rombitmap.infoHeader.biHeight;
20001b46:	f8d2 a016 	ldr.w	sl, [r2, #22]
20001b4a:	fa1f f98a 	uxth.w	r9, sl

  /* Draw bitmap */
  BSP_LCD_DrawBitmap(x0, y0, (uint8_t *)&rombitmap);
20001b4e:	2105      	movs	r1, #5
20001b50:	2014      	movs	r0, #20
20001b52:	f000 ffcf 	bl	20002af4 <BSP_LCD_DrawBitmap>

  /* Read bitmap (BSP_LCD_ReadPixel) */
  uint32_t ctStartT = GetTime();
20001b56:	f7fe fd39 	bl	200005cc <HAL_GetTick>
20001b5a:	9003      	str	r0, [sp, #12]
  while(n--)
20001b5c:	e018      	b.n	20001b90 <ReadPixelTest+0x5c>
    for(y = 0; y < ysize; y++)
      for(x = 0; x < xsize; x++)
        bitmap[y * xsize + x] = BSP_LCD_ReadPixel(x0 + x, y0 + y);
20001b5e:	fa1f f588 	uxth.w	r5, r8
20001b62:	fb06 4505 	mla	r5, r6, r5, r4
20001b66:	1d71      	adds	r1, r6, #5
20001b68:	f104 0014 	add.w	r0, r4, #20
20001b6c:	b289      	uxth	r1, r1
20001b6e:	b280      	uxth	r0, r0
20001b70:	f001 f90c 	bl	20002d8c <BSP_LCD_ReadPixel>
20001b74:	4b26      	ldr	r3, [pc, #152]	; (20001c10 <ReadPixelTest+0xdc>)
20001b76:	f823 0015 	strh.w	r0, [r3, r5, lsl #1]
      for(x = 0; x < xsize; x++)
20001b7a:	3401      	adds	r4, #1
20001b7c:	b2a4      	uxth	r4, r4
20001b7e:	42bc      	cmp	r4, r7
20001b80:	d3ed      	bcc.n	20001b5e <ReadPixelTest+0x2a>
    for(y = 0; y < ysize; y++)
20001b82:	3601      	adds	r6, #1
20001b84:	b2b6      	uxth	r6, r6
20001b86:	454e      	cmp	r6, r9
20001b88:	d201      	bcs.n	20001b8e <ReadPixelTest+0x5a>
20001b8a:	2400      	movs	r4, #0
20001b8c:	e7f7      	b.n	20001b7e <ReadPixelTest+0x4a>
  while(n--)
20001b8e:	465c      	mov	r4, fp
20001b90:	f104 3bff 	add.w	fp, r4, #4294967295
20001b94:	b10c      	cbz	r4, 20001b9a <ReadPixelTest+0x66>
20001b96:	2600      	movs	r6, #0
20001b98:	e7f5      	b.n	20001b86 <ReadPixelTest+0x52>
  ctStartT = GetTime() - ctStartT;
20001b9a:	f7fe fd17 	bl	200005cc <HAL_GetTick>
20001b9e:	9b03      	ldr	r3, [sp, #12]
20001ba0:	1ac5      	subs	r5, r0, r3

  /* Check the read error */
  for(y = 0; y < ysize; y++)
20001ba2:	2000      	movs	r0, #0
20001ba4:	e01b      	b.n	20001bde <ReadPixelTest+0xaa>
    for(x = 0; x < xsize; x++)
20001ba6:	3301      	adds	r3, #1
20001ba8:	b29b      	uxth	r3, r3
20001baa:	42bb      	cmp	r3, r7
20001bac:	d215      	bcs.n	20001bda <ReadPixelTest+0xa6>
    {
      if(bitmap[y * xsize + x] != rombitmap.data[(ysize - 1 - y) * xsize + x])
20001bae:	fa1f f288 	uxth.w	r2, r8
20001bb2:	fb02 3600 	mla	r6, r2, r0, r3
20001bb6:	4916      	ldr	r1, [pc, #88]	; (20001c10 <ReadPixelTest+0xdc>)
20001bb8:	f831 6016 	ldrh.w	r6, [r1, r6, lsl #1]
20001bbc:	fa1f f18a 	uxth.w	r1, sl
20001bc0:	3901      	subs	r1, #1
20001bc2:	1a09      	subs	r1, r1, r0
20001bc4:	fb01 3202 	mla	r2, r1, r2, r3
20001bc8:	3218      	adds	r2, #24
20001bca:	4910      	ldr	r1, [pc, #64]	; (20001c0c <ReadPixelTest+0xd8>)
20001bcc:	eb01 0242 	add.w	r2, r1, r2, lsl #1
20001bd0:	88d2      	ldrh	r2, [r2, #6]
20001bd2:	4296      	cmp	r6, r2
20001bd4:	d0e7      	beq.n	20001ba6 <ReadPixelTest+0x72>
        error++;
20001bd6:	3401      	adds	r4, #1
20001bd8:	e7e5      	b.n	20001ba6 <ReadPixelTest+0x72>
  for(y = 0; y < ysize; y++)
20001bda:	3001      	adds	r0, #1
20001bdc:	b280      	uxth	r0, r0
20001bde:	4548      	cmp	r0, r9
20001be0:	d201      	bcs.n	20001be6 <ReadPixelTest+0xb2>
20001be2:	2300      	movs	r3, #0
20001be4:	e7e1      	b.n	20001baa <ReadPixelTest+0x76>
    }

  if(error)
20001be6:	b95c      	cbnz	r4, 20001c00 <ReadPixelTest+0xcc>
    printf("ReadPixelTest error: %d\r\n", (int)error);

  BSP_LCD_DrawRGB16Image(x0 + 45, y0 + 10, xsize, ysize, &bitmap[0]);
20001be8:	4b09      	ldr	r3, [pc, #36]	; (20001c10 <ReadPixelTest+0xdc>)
20001bea:	9300      	str	r3, [sp, #0]
20001bec:	464b      	mov	r3, r9
20001bee:	463a      	mov	r2, r7
20001bf0:	210f      	movs	r1, #15
20001bf2:	2041      	movs	r0, #65	; 0x41
20001bf4:	f001 f8d6 	bl	20002da4 <BSP_LCD_DrawRGB16Image>
  return(ctStartT);
}
20001bf8:	4628      	mov	r0, r5
20001bfa:	b005      	add	sp, #20
20001bfc:	e8bd 8ff0 	ldmia.w	sp!, {r4, r5, r6, r7, r8, r9, sl, fp, pc}
    printf("ReadPixelTest error: %d\r\n", (int)error);
20001c00:	4621      	mov	r1, r4
20001c02:	4804      	ldr	r0, [pc, #16]	; (20001c14 <ReadPixelTest+0xe0>)
20001c04:	f001 fbc2 	bl	2000338c <iprintf>
20001c08:	e7ee      	b.n	20001be8 <ReadPixelTest+0xb4>
20001c0a:	bf00      	nop
20001c0c:	20004428 	.word	0x20004428
20001c10:	20018474 	.word	0x20018474
20001c14:	2000430c 	.word	0x2000430c

20001c18 <ReadImageTest>:

//-----------------------------------------------------------------------------
uint32_t ReadImageTest(uint32_t n)
{
20001c18:	e92d 47f0 	stmdb	sp!, {r4, r5, r6, r7, r8, r9, sl, lr}
20001c1c:	b082      	sub	sp, #8
20001c1e:	4604      	mov	r4, r0
  uint16_t x, y, x0, y0, xsize, ysize;
  uint32_t error = 0;

  x0 = 20;
  y0 =  5;
  xsize = rombitmap.infoHeader.biWidth;
20001c20:	4a29      	ldr	r2, [pc, #164]	; (20001cc8 <ReadImageTest+0xb0>)
20001c22:	f8d2 6012 	ldr.w	r6, [r2, #18]
20001c26:	b2b5      	uxth	r5, r6
  ysize = rombitmap.infoHeader.biHeight;
20001c28:	f8d2 7016 	ldr.w	r7, [r2, #22]
20001c2c:	fa1f f887 	uxth.w	r8, r7

  /* Draw bitmap */
  BSP_LCD_DrawBitmap(x0, y0, (uint8_t *)&rombitmap);
20001c30:	2105      	movs	r1, #5
20001c32:	2014      	movs	r0, #20
20001c34:	f000 ff5e 	bl	20002af4 <BSP_LCD_DrawBitmap>

  /* Read bitmap (BSP_LCD_ReadRGB16Image) */
  uint32_t ctStartT = GetTime();
20001c38:	f7fe fcc8 	bl	200005cc <HAL_GetTick>
20001c3c:	4681      	mov	r9, r0
  while(n--)
20001c3e:	e008      	b.n	20001c52 <ReadImageTest+0x3a>
    BSP_LCD_ReadRGB16Image(x0, y0, xsize, ysize, &bitmap[0]);
20001c40:	4b22      	ldr	r3, [pc, #136]	; (20001ccc <ReadImageTest+0xb4>)
20001c42:	9300      	str	r3, [sp, #0]
20001c44:	4643      	mov	r3, r8
20001c46:	462a      	mov	r2, r5
20001c48:	2105      	movs	r1, #5
20001c4a:	2014      	movs	r0, #20
20001c4c:	f001 f8b6 	bl	20002dbc <BSP_LCD_ReadRGB16Image>
  while(n--)
20001c50:	4654      	mov	r4, sl
20001c52:	f104 3aff 	add.w	sl, r4, #4294967295
20001c56:	2c00      	cmp	r4, #0
20001c58:	d1f2      	bne.n	20001c40 <ReadImageTest+0x28>
  ctStartT = GetTime() - ctStartT;
20001c5a:	f7fe fcb7 	bl	200005cc <HAL_GetTick>
20001c5e:	eba0 0909 	sub.w	r9, r0, r9

  /* Check the read error */
  for(y = 0; y < ysize; y++)
20001c62:	2000      	movs	r0, #0
20001c64:	e019      	b.n	20001c9a <ReadImageTest+0x82>
    for(x = 0; x < xsize; x++)
20001c66:	3301      	adds	r3, #1
20001c68:	b29b      	uxth	r3, r3
20001c6a:	42ab      	cmp	r3, r5
20001c6c:	d213      	bcs.n	20001c96 <ReadImageTest+0x7e>
    {
      if(bitmap[y * xsize + x] != rombitmap.data[(ysize - 1 - y) * xsize + x])
20001c6e:	b2b2      	uxth	r2, r6
20001c70:	fb02 3e00 	mla	lr, r2, r0, r3
20001c74:	4915      	ldr	r1, [pc, #84]	; (20001ccc <ReadImageTest+0xb4>)
20001c76:	f831 e01e 	ldrh.w	lr, [r1, lr, lsl #1]
20001c7a:	b2b9      	uxth	r1, r7
20001c7c:	3901      	subs	r1, #1
20001c7e:	1a09      	subs	r1, r1, r0
20001c80:	fb01 3202 	mla	r2, r1, r2, r3
20001c84:	3218      	adds	r2, #24
20001c86:	4910      	ldr	r1, [pc, #64]	; (20001cc8 <ReadImageTest+0xb0>)
20001c88:	eb01 0242 	add.w	r2, r1, r2, lsl #1
20001c8c:	88d2      	ldrh	r2, [r2, #6]
20001c8e:	4596      	cmp	lr, r2
20001c90:	d0e9      	beq.n	20001c66 <ReadImageTest+0x4e>
        error++;
20001c92:	3401      	adds	r4, #1
20001c94:	e7e7      	b.n	20001c66 <ReadImageTest+0x4e>
  for(y = 0; y < ysize; y++)
20001c96:	3001      	adds	r0, #1
20001c98:	b280      	uxth	r0, r0
20001c9a:	4540      	cmp	r0, r8
20001c9c:	d201      	bcs.n	20001ca2 <ReadImageTest+0x8a>
20001c9e:	2300      	movs	r3, #0
20001ca0:	e7e3      	b.n	20001c6a <ReadImageTest+0x52>
    }

  if(error)
20001ca2:	b95c      	cbnz	r4, 20001cbc <ReadImageTest+0xa4>
    printf("ReadImageTest error: %d\r\n", (int)error);

  BSP_LCD_DrawRGB16Image(x0 - 15, y0 + 20, xsize, ysize, &bitmap[0]);
20001ca4:	4b09      	ldr	r3, [pc, #36]	; (20001ccc <ReadImageTest+0xb4>)
20001ca6:	9300      	str	r3, [sp, #0]
20001ca8:	4643      	mov	r3, r8
20001caa:	462a      	mov	r2, r5
20001cac:	2119      	movs	r1, #25
20001cae:	2005      	movs	r0, #5
20001cb0:	f001 f878 	bl	20002da4 <BSP_LCD_DrawRGB16Image>
  return(ctStartT);
}
20001cb4:	4648      	mov	r0, r9
20001cb6:	b002      	add	sp, #8
20001cb8:	e8bd 87f0 	ldmia.w	sp!, {r4, r5, r6, r7, r8, r9, sl, pc}
    printf("ReadImageTest error: %d\r\n", (int)error);
20001cbc:	4621      	mov	r1, r4
20001cbe:	4804      	ldr	r0, [pc, #16]	; (20001cd0 <ReadImageTest+0xb8>)
20001cc0:	f001 fb64 	bl	2000338c <iprintf>
20001cc4:	e7ee      	b.n	20001ca4 <ReadImageTest+0x8c>
20001cc6:	bf00      	nop
20001cc8:	20004428 	.word	0x20004428
20001ccc:	20018474 	.word	0x20018474
20001cd0:	200042f0 	.word	0x200042f0

20001cd4 <mainApp>:
#ifdef osCMSIS
void StartDefaultTask(void const * argument)
#else
void mainApp(void)
#endif
{
20001cd4:	b508      	push	{r3, lr}
  uint32_t t;

  Delay(300);
20001cd6:	f44f 7096 	mov.w	r0, #300	; 0x12c
20001cda:	f7fe fc7d 	bl	200005d8 <HAL_Delay>

  BSP_LCD_Init();
20001cde:	f000 fdc7 	bl	20002870 <BSP_LCD_Init>

  t = random();
20001ce2:	f001 fbcf 	bl	20003484 <random>

  Delay(100);
20001ce6:	2064      	movs	r0, #100	; 0x64
20001ce8:	f7fe fc76 	bl	200005d8 <HAL_Delay>
  printf("Display ID = %X\r\n", (unsigned int)BSP_LCD_ReadID());
20001cec:	f001 f842 	bl	20002d74 <BSP_LCD_ReadID>
20001cf0:	4601      	mov	r1, r0
20001cf2:	4859      	ldr	r0, [pc, #356]	; (20001e58 <mainApp+0x184>)
20001cf4:	f001 fb4a 	bl	2000338c <iprintf>
  POWERMETER_RUN;
  Delay(100);
20001cf8:	2064      	movs	r0, #100	; 0x64
20001cfa:	f7fe fc6d 	bl	200005d8 <HAL_Delay>
  Delay(1000);
  #endif

  while(1)
  {
    _impure_ptr->_r48->_rand_next = 0;
20001cfe:	4b57      	ldr	r3, [pc, #348]	; (20001e5c <mainApp+0x188>)
20001d00:	681b      	ldr	r3, [r3, #0]
20001d02:	6b9b      	ldr	r3, [r3, #56]	; 0x38
20001d04:	2000      	movs	r0, #0
20001d06:	2100      	movs	r1, #0
20001d08:	e9c3 0104 	strd	r0, r1, [r3, #16]

    POWERMETER_RUN;
    t = ClearTest();
20001d0c:	f7ff fc42 	bl	20001594 <ClearTest>
    POWERMETER_STOP;
    printf("Clear Test: %d ms\r\n", (int)t);
20001d10:	4601      	mov	r1, r0
20001d12:	4853      	ldr	r0, [pc, #332]	; (20001e60 <mainApp+0x18c>)
20001d14:	f001 fb3a 	bl	2000338c <iprintf>
    POWERMETER_PRINT;
    Delay(1000);
20001d18:	f44f 707a 	mov.w	r0, #1000	; 0x3e8
20001d1c:	f7fe fc5c 	bl	200005d8 <HAL_Delay>

    POWERMETER_RUN;
    t = PixelTest(100000);
20001d20:	4850      	ldr	r0, [pc, #320]	; (20001e64 <mainApp+0x190>)
20001d22:	f7ff fc43 	bl	200015ac <PixelTest>
    POWERMETER_STOP;
    printf("Pixel Test: %d ms\r\n", (int)t);
20001d26:	4601      	mov	r1, r0
20001d28:	484f      	ldr	r0, [pc, #316]	; (20001e68 <mainApp+0x194>)
20001d2a:	f001 fb2f 	bl	2000338c <iprintf>
    POWERMETER_PRINT;
    Delay(1000);
20001d2e:	f44f 707a 	mov.w	r0, #1000	; 0x3e8
20001d32:	f7fe fc51 	bl	200005d8 <HAL_Delay>

    BSP_LCD_Clear(LCD_COLOR_BLACK);
20001d36:	2000      	movs	r0, #0
20001d38:	f000 fd84 	bl	20002844 <BSP_LCD_Clear>
    POWERMETER_RUN;
    t = LineTest(1000);
20001d3c:	f44f 707a 	mov.w	r0, #1000	; 0x3e8
20001d40:	f7ff fc6c 	bl	2000161c <LineTest>
    POWERMETER_STOP;
    printf("Line Test: %d ms\r\n", (int)t);
20001d44:	4601      	mov	r1, r0
20001d46:	4849      	ldr	r0, [pc, #292]	; (20001e6c <mainApp+0x198>)
20001d48:	f001 fb20 	bl	2000338c <iprintf>
    POWERMETER_PRINT;
    Delay(1000);
20001d4c:	f44f 707a 	mov.w	r0, #1000	; 0x3e8
20001d50:	f7fe fc42 	bl	200005d8 <HAL_Delay>

    BSP_LCD_Clear(LCD_COLOR_BLACK);
20001d54:	2000      	movs	r0, #0
20001d56:	f000 fd75 	bl	20002844 <BSP_LCD_Clear>
    POWERMETER_RUN;
    t = FillRectTest(250);
20001d5a:	20fa      	movs	r0, #250	; 0xfa
20001d5c:	f7ff fcb2 	bl	200016c4 <FillRectTest>
    POWERMETER_STOP;
    printf("Fill Rect Test: %d ms\r\n", (int)t);
20001d60:	4601      	mov	r1, r0
20001d62:	4843      	ldr	r0, [pc, #268]	; (20001e70 <mainApp+0x19c>)
20001d64:	f001 fb12 	bl	2000338c <iprintf>
    POWERMETER_PRINT;
    Delay(1000);
20001d68:	f44f 707a 	mov.w	r0, #1000	; 0x3e8
20001d6c:	f7fe fc34 	bl	200005d8 <HAL_Delay>

    BSP_LCD_Clear(LCD_COLOR_BLACK);
20001d70:	2000      	movs	r0, #0
20001d72:	f000 fd67 	bl	20002844 <BSP_LCD_Clear>
    POWERMETER_RUN;
    t = CircleTest(1000);
20001d76:	f44f 707a 	mov.w	r0, #1000	; 0x3e8
20001d7a:	f7ff fd95 	bl	200018a8 <CircleTest>
    POWERMETER_STOP;
    printf("Circle Test: %d ms\r\n", (int)t);
20001d7e:	4601      	mov	r1, r0
20001d80:	483c      	ldr	r0, [pc, #240]	; (20001e74 <mainApp+0x1a0>)
20001d82:	f001 fb03 	bl	2000338c <iprintf>
    POWERMETER_PRINT;
    Delay(1000);
20001d86:	f44f 707a 	mov.w	r0, #1000	; 0x3e8
20001d8a:	f7fe fc25 	bl	200005d8 <HAL_Delay>

    BSP_LCD_Clear(LCD_COLOR_BLACK);
20001d8e:	2000      	movs	r0, #0
20001d90:	f000 fd58 	bl	20002844 <BSP_LCD_Clear>
    POWERMETER_RUN;
    t = FillCircleTest(250);
20001d94:	20fa      	movs	r0, #250	; 0xfa
20001d96:	f7ff fde5 	bl	20001964 <FillCircleTest>
    POWERMETER_STOP;
    printf("Fill Circle Test: %d ms\r\n", (int)t);
20001d9a:	4601      	mov	r1, r0
20001d9c:	4836      	ldr	r0, [pc, #216]	; (20001e78 <mainApp+0x1a4>)
20001d9e:	f001 faf5 	bl	2000338c <iprintf>
    POWERMETER_PRINT;
    Delay(1000);
20001da2:	f44f 707a 	mov.w	r0, #1000	; 0x3e8
20001da6:	f7fe fc17 	bl	200005d8 <HAL_Delay>

    BSP_LCD_Clear(LCD_COLOR_BLACK);
20001daa:	2000      	movs	r0, #0
20001dac:	f000 fd4a 	bl	20002844 <BSP_LCD_Clear>
    POWERMETER_RUN;
    t = CharTest(5000);
20001db0:	f241 3088 	movw	r0, #5000	; 0x1388
20001db4:	f7ff fce0 	bl	20001778 <CharTest>
    POWERMETER_STOP;
    printf("Char Test: %d ms\r\n", (int)t);
20001db8:	4601      	mov	r1, r0
20001dba:	4830      	ldr	r0, [pc, #192]	; (20001e7c <mainApp+0x1a8>)
20001dbc:	f001 fae6 	bl	2000338c <iprintf>
    POWERMETER_PRINT;
    Delay(1000);
20001dc0:	f44f 707a 	mov.w	r0, #1000	; 0x3e8
20001dc4:	f7fe fc08 	bl	200005d8 <HAL_Delay>

    BSP_LCD_Clear(LCD_COLOR_BLACK);
20001dc8:	2000      	movs	r0, #0
20001dca:	f000 fd3b 	bl	20002844 <BSP_LCD_Clear>
    POWERMETER_RUN;
    t = BitmapTest(100);
20001dce:	2064      	movs	r0, #100	; 0x64
20001dd0:	f7ff fe7e 	bl	20001ad0 <BitmapTest>
    POWERMETER_STOP;
    printf("Bitmap Test: %d ms\r\n", (int)t);
20001dd4:	4601      	mov	r1, r0
20001dd6:	482a      	ldr	r0, [pc, #168]	; (20001e80 <mainApp+0x1ac>)
20001dd8:	f001 fad8 	bl	2000338c <iprintf>
    POWERMETER_PRINT;
    Delay(1000);
20001ddc:	f44f 707a 	mov.w	r0, #1000	; 0x3e8
20001de0:	f7fe fbfa 	bl	200005d8 <HAL_Delay>

    BSP_LCD_Clear(LCD_COLOR_BLACK);
20001de4:	2000      	movs	r0, #0
20001de6:	f000 fd2d 	bl	20002844 <BSP_LCD_Clear>
    POWERMETER_RUN;
    t = ReadPixelTest(20);
20001dea:	2014      	movs	r0, #20
20001dec:	f7ff fea2 	bl	20001b34 <ReadPixelTest>
    POWERMETER_STOP;
    printf("ReadPixel Test: %d ms\r\n", (int)t);
20001df0:	4601      	mov	r1, r0
20001df2:	4824      	ldr	r0, [pc, #144]	; (20001e84 <mainApp+0x1b0>)
20001df4:	f001 faca 	bl	2000338c <iprintf>
    POWERMETER_PRINT;
    Delay(1000);
20001df8:	f44f 707a 	mov.w	r0, #1000	; 0x3e8
20001dfc:	f7fe fbec 	bl	200005d8 <HAL_Delay>

    BSP_LCD_Clear(LCD_COLOR_BLACK);
20001e00:	2000      	movs	r0, #0
20001e02:	f000 fd1f 	bl	20002844 <BSP_LCD_Clear>
    POWERMETER_RUN;
    t = ReadImageTest(20);
20001e06:	2014      	movs	r0, #20
20001e08:	f7ff ff06 	bl	20001c18 <ReadImageTest>
    POWERMETER_STOP;
    printf("ReadImage Test: %d ms\r\n", (int)t);
20001e0c:	4601      	mov	r1, r0
20001e0e:	481e      	ldr	r0, [pc, #120]	; (20001e88 <mainApp+0x1b4>)
20001e10:	f001 fabc 	bl	2000338c <iprintf>
    POWERMETER_PRINT;
    Delay(1000);
20001e14:	f44f 707a 	mov.w	r0, #1000	; 0x3e8
20001e18:	f7fe fbde 	bl	200005d8 <HAL_Delay>

    BSP_LCD_Clear(LCD_COLOR_BLACK);
20001e1c:	2000      	movs	r0, #0
20001e1e:	f000 fd11 	bl	20002844 <BSP_LCD_Clear>
    POWERMETER_RUN;
    t = ColorTest();
20001e22:	f7ff fdfd 	bl	20001a20 <ColorTest>
    POWERMETER_STOP;
    printf("Color Test: %d ms\r\n", (int)t);
20001e26:	4601      	mov	r1, r0
20001e28:	4818      	ldr	r0, [pc, #96]	; (20001e8c <mainApp+0x1b8>)
20001e2a:	f001 faaf 	bl	2000338c <iprintf>
    POWERMETER_PRINT;
    Delay(3000);
20001e2e:	f640 30b8 	movw	r0, #3000	; 0xbb8
20001e32:	f7fe fbd1 	bl	200005d8 <HAL_Delay>

    BSP_LCD_DisplayOff();
20001e36:	f000 ff95 	bl	20002d64 <BSP_LCD_DisplayOff>
    Delay(1000);
20001e3a:	f44f 707a 	mov.w	r0, #1000	; 0x3e8
20001e3e:	f7fe fbcb 	bl	200005d8 <HAL_Delay>
    BSP_LCD_DisplayOn();
20001e42:	f000 ff87 	bl	20002d54 <BSP_LCD_DisplayOn>
    Delay(1000);
20001e46:	f44f 707a 	mov.w	r0, #1000	; 0x3e8
20001e4a:	f7fe fbc5 	bl	200005d8 <HAL_Delay>

    printf("\r\n");
20001e4e:	4810      	ldr	r0, [pc, #64]	; (20001e90 <mainApp+0x1bc>)
20001e50:	f001 fb10 	bl	20003474 <puts>
20001e54:	e753      	b.n	20001cfe <mainApp+0x2a>
20001e56:	bf00      	nop
20001e58:	20004328 	.word	0x20004328
20001e5c:	20018074 	.word	0x20018074
20001e60:	2000433c 	.word	0x2000433c
20001e64:	000186a0 	.word	0x000186a0
20001e68:	200043e0 	.word	0x200043e0
20001e6c:	20004350 	.word	0x20004350
20001e70:	20004364 	.word	0x20004364
20001e74:	2000437c 	.word	0x2000437c
20001e78:	20004394 	.word	0x20004394
20001e7c:	200043b0 	.word	0x200043b0
20001e80:	200043c4 	.word	0x200043c4
20001e84:	200043dc 	.word	0x200043dc
20001e88:	200043f4 	.word	0x200043f4
20001e8c:	2000440c 	.word	0x2000440c
20001e90:	20004420 	.word	0x20004420

20001e94 <ili9325_GetLcdPixelWidth>:
  #if ((ILI9325_ORIENTATION == 0) || (ILI9325_ORIENTATION == 2))
  return (uint16_t)ILI9325_LCD_PIXEL_WIDTH;
  #else
  return (uint16_t)ILI9325_LCD_PIXEL_HEIGHT;
  #endif
}
20001e94:	f44f 70a0 	mov.w	r0, #320	; 0x140
20001e98:	4770      	bx	lr

20001e9a <ili9325_GetLcdPixelHeight>:
  #if ((ILI9325_ORIENTATION == 0) || (ILI9325_ORIENTATION == 2))
  return (uint16_t)ILI9325_LCD_PIXEL_HEIGHT;
  #else
  return (uint16_t)ILI9325_LCD_PIXEL_WIDTH;
  #endif
}
20001e9a:	20f0      	movs	r0, #240	; 0xf0
20001e9c:	4770      	bx	lr
	...

20001ea0 <ili9325_Init>:
{
20001ea0:	b508      	push	{r3, lr}
  if((Is_ili9325_Initialized & ILI9325_LCD_INITIALIZED) == 0)
20001ea2:	4b95      	ldr	r3, [pc, #596]	; (200020f8 <ili9325_Init+0x258>)
20001ea4:	781b      	ldrb	r3, [r3, #0]
20001ea6:	f013 0f01 	tst.w	r3, #1
20001eaa:	f040 8121 	bne.w	200020f0 <ili9325_Init+0x250>
    Is_ili9325_Initialized |= ILI9325_LCD_INITIALIZED;
20001eae:	f043 0301 	orr.w	r3, r3, #1
20001eb2:	4a91      	ldr	r2, [pc, #580]	; (200020f8 <ili9325_Init+0x258>)
20001eb4:	7013      	strb	r3, [r2, #0]
    if((Is_ili9325_Initialized & ILI9325_IO_INITIALIZED) == 0)
20001eb6:	f013 0f02 	tst.w	r3, #2
20001eba:	f000 811a 	beq.w	200020f2 <ili9325_Init+0x252>
    Is_ili9325_Initialized |= ILI9325_IO_INITIALIZED;
20001ebe:	4a8e      	ldr	r2, [pc, #568]	; (200020f8 <ili9325_Init+0x258>)
20001ec0:	7813      	ldrb	r3, [r2, #0]
20001ec2:	f043 0302 	orr.w	r3, r3, #2
20001ec6:	7013      	strb	r3, [r2, #0]
    LCD_IO_WriteCmd16(RC(0xF3)); LCD_IO_WriteData16(RC(0x0008));
20001ec8:	f44f 4073 	mov.w	r0, #62208	; 0xf300
20001ecc:	f000 fbd6 	bl	2000267c <LCD_IO_WriteCmd16>
20001ed0:	f44f 6000 	mov.w	r0, #2048	; 0x800
20001ed4:	f000 fbd6 	bl	20002684 <LCD_IO_WriteData16>
    LCD_Delay(5);
20001ed8:	2005      	movs	r0, #5
20001eda:	f000 fb7c 	bl	200025d6 <LCD_Delay>
    LCD_IO_WriteCmd16(RC(ILI9325_DRIV_OUT_CTRL)); LCD_IO_WriteData16(RC(ILI9325_DRIV_OUT_CTRL_DATA));
20001ede:	f44f 7080 	mov.w	r0, #256	; 0x100
20001ee2:	f000 fbcb 	bl	2000267c <LCD_IO_WriteCmd16>
20001ee6:	2001      	movs	r0, #1
20001ee8:	f000 fbcc 	bl	20002684 <LCD_IO_WriteData16>
    LCD_IO_WriteCmd16(RC(ILI9325_DRIV_WAV_CTRL)); LCD_IO_WriteData16(RC(0x0700));
20001eec:	f44f 7000 	mov.w	r0, #512	; 0x200
20001ef0:	f000 fbc4 	bl	2000267c <LCD_IO_WriteCmd16>
20001ef4:	2007      	movs	r0, #7
20001ef6:	f000 fbc5 	bl	20002684 <LCD_IO_WriteData16>
    LCD_IO_WriteCmd16(RC(ILI9325_ENTRY_MOD)); LCD_IO_WriteData16(RC(ILI9325_ENTRY_DATA_RIGHT_THEN_DOWN));
20001efa:	f44f 7040 	mov.w	r0, #768	; 0x300
20001efe:	f000 fbbd 	bl	2000267c <LCD_IO_WriteCmd16>
20001f02:	f643 0010 	movw	r0, #14352	; 0x3810
20001f06:	f000 fbbd 	bl	20002684 <LCD_IO_WriteData16>
    LCD_IO_WriteCmd16(RC(ILI9325_DISP_CTRL2)); LCD_IO_WriteData16(RC(0x0302));
20001f0a:	f44f 6000 	mov.w	r0, #2048	; 0x800
20001f0e:	f000 fbb5 	bl	2000267c <LCD_IO_WriteCmd16>
20001f12:	f240 2003 	movw	r0, #515	; 0x203
20001f16:	f000 fbb5 	bl	20002684 <LCD_IO_WriteData16>
    LCD_IO_WriteCmd16(RC(ILI9325_DISP_CTRL3)); LCD_IO_WriteData16(RC(0x0000));
20001f1a:	f44f 6010 	mov.w	r0, #2304	; 0x900
20001f1e:	f000 fbad 	bl	2000267c <LCD_IO_WriteCmd16>
20001f22:	2000      	movs	r0, #0
20001f24:	f000 fbae 	bl	20002684 <LCD_IO_WriteData16>
    LCD_IO_WriteCmd16(RC(ILI9325_POW_CTRL1)); LCD_IO_WriteData16(RC(0x0000));
20001f28:	f44f 5080 	mov.w	r0, #4096	; 0x1000
20001f2c:	f000 fba6 	bl	2000267c <LCD_IO_WriteCmd16>
20001f30:	2000      	movs	r0, #0
20001f32:	f000 fba7 	bl	20002684 <LCD_IO_WriteData16>
    LCD_IO_WriteCmd16(RC(ILI9325_POW_CTRL2)); LCD_IO_WriteData16(RC(0x0007));
20001f36:	f44f 5088 	mov.w	r0, #4352	; 0x1100
20001f3a:	f000 fb9f 	bl	2000267c <LCD_IO_WriteCmd16>
20001f3e:	f44f 60e0 	mov.w	r0, #1792	; 0x700
20001f42:	f000 fb9f 	bl	20002684 <LCD_IO_WriteData16>
    LCD_IO_WriteCmd16(RC(ILI9325_POW_CTRL3)); LCD_IO_WriteData16(RC(0x0000));
20001f46:	f44f 5090 	mov.w	r0, #4608	; 0x1200
20001f4a:	f000 fb97 	bl	2000267c <LCD_IO_WriteCmd16>
20001f4e:	2000      	movs	r0, #0
20001f50:	f000 fb98 	bl	20002684 <LCD_IO_WriteData16>
    LCD_IO_WriteCmd16(RC(ILI9325_POW_CTRL4)); LCD_IO_WriteData16(RC(0x0000));
20001f54:	f44f 5098 	mov.w	r0, #4864	; 0x1300
20001f58:	f000 fb90 	bl	2000267c <LCD_IO_WriteCmd16>
20001f5c:	2000      	movs	r0, #0
20001f5e:	f000 fb91 	bl	20002684 <LCD_IO_WriteData16>
    LCD_Delay(5);
20001f62:	2005      	movs	r0, #5
20001f64:	f000 fb37 	bl	200025d6 <LCD_Delay>
    LCD_IO_WriteCmd16(RC(ILI9325_POW_CTRL1)); LCD_IO_WriteData16(RC(0x14B0));
20001f68:	f44f 5080 	mov.w	r0, #4096	; 0x1000
20001f6c:	f000 fb86 	bl	2000267c <LCD_IO_WriteCmd16>
20001f70:	f24b 0014 	movw	r0, #45076	; 0xb014
20001f74:	f000 fb86 	bl	20002684 <LCD_IO_WriteData16>
    LCD_Delay(5);
20001f78:	2005      	movs	r0, #5
20001f7a:	f000 fb2c 	bl	200025d6 <LCD_Delay>
    LCD_IO_WriteCmd16(RC(ILI9325_POW_CTRL2)); LCD_IO_WriteData16(RC(0x0007));
20001f7e:	f44f 5088 	mov.w	r0, #4352	; 0x1100
20001f82:	f000 fb7b 	bl	2000267c <LCD_IO_WriteCmd16>
20001f86:	f44f 60e0 	mov.w	r0, #1792	; 0x700
20001f8a:	f000 fb7b 	bl	20002684 <LCD_IO_WriteData16>
    LCD_Delay(5);
20001f8e:	2005      	movs	r0, #5
20001f90:	f000 fb21 	bl	200025d6 <LCD_Delay>
    LCD_IO_WriteCmd16(RC(ILI9325_POW_CTRL3)); LCD_IO_WriteData16(RC(0x008E));
20001f94:	f44f 5090 	mov.w	r0, #4608	; 0x1200
20001f98:	f000 fb70 	bl	2000267c <LCD_IO_WriteCmd16>
20001f9c:	f44f 400e 	mov.w	r0, #36352	; 0x8e00
20001fa0:	f000 fb70 	bl	20002684 <LCD_IO_WriteData16>
    LCD_IO_WriteCmd16(RC(ILI9325_POW_CTRL4)); LCD_IO_WriteData16(RC(0x0C00));
20001fa4:	f44f 5098 	mov.w	r0, #4864	; 0x1300
20001fa8:	f000 fb68 	bl	2000267c <LCD_IO_WriteCmd16>
20001fac:	200c      	movs	r0, #12
20001fae:	f000 fb69 	bl	20002684 <LCD_IO_WriteData16>
    LCD_IO_WriteCmd16(RC(ILI9325_POW_CTRL7)); LCD_IO_WriteData16(RC(0x0015));
20001fb2:	f44f 5024 	mov.w	r0, #10496	; 0x2900
20001fb6:	f000 fb61 	bl	2000267c <LCD_IO_WriteCmd16>
20001fba:	f44f 50a8 	mov.w	r0, #5376	; 0x1500
20001fbe:	f000 fb61 	bl	20002684 <LCD_IO_WriteData16>
    LCD_Delay(5);
20001fc2:	2005      	movs	r0, #5
20001fc4:	f000 fb07 	bl	200025d6 <LCD_Delay>
    LCD_IO_WriteCmd16(RC(ILI9325_GAMMA_CTRL1)); LCD_IO_WriteData16(RC(0x0000));
20001fc8:	f44f 5040 	mov.w	r0, #12288	; 0x3000
20001fcc:	f000 fb56 	bl	2000267c <LCD_IO_WriteCmd16>
20001fd0:	2000      	movs	r0, #0
20001fd2:	f000 fb57 	bl	20002684 <LCD_IO_WriteData16>
    LCD_IO_WriteCmd16(RC(ILI9325_GAMMA_CTRL2)); LCD_IO_WriteData16(RC(0x0107));
20001fd6:	f44f 5044 	mov.w	r0, #12544	; 0x3100
20001fda:	f000 fb4f 	bl	2000267c <LCD_IO_WriteCmd16>
20001fde:	f240 7001 	movw	r0, #1793	; 0x701
20001fe2:	f000 fb4f 	bl	20002684 <LCD_IO_WriteData16>
    LCD_IO_WriteCmd16(RC(ILI9325_GAMMA_CTRL3)); LCD_IO_WriteData16(RC(0x0000));
20001fe6:	f44f 5048 	mov.w	r0, #12800	; 0x3200
20001fea:	f000 fb47 	bl	2000267c <LCD_IO_WriteCmd16>
20001fee:	2000      	movs	r0, #0
20001ff0:	f000 fb48 	bl	20002684 <LCD_IO_WriteData16>
    LCD_IO_WriteCmd16(RC(ILI9325_GAMMA_CTRL4)); LCD_IO_WriteData16(RC(0x0203));
20001ff4:	f44f 5054 	mov.w	r0, #13568	; 0x3500
20001ff8:	f000 fb40 	bl	2000267c <LCD_IO_WriteCmd16>
20001ffc:	f240 3002 	movw	r0, #770	; 0x302
20002000:	f000 fb40 	bl	20002684 <LCD_IO_WriteData16>
    LCD_IO_WriteCmd16(RC(ILI9325_GAMMA_CTRL5)); LCD_IO_WriteData16(RC(0x0402));
20002004:	f44f 5058 	mov.w	r0, #13824	; 0x3600
20002008:	f000 fb38 	bl	2000267c <LCD_IO_WriteCmd16>
2000200c:	f44f 7001 	mov.w	r0, #516	; 0x204
20002010:	f000 fb38 	bl	20002684 <LCD_IO_WriteData16>
    LCD_IO_WriteCmd16(RC(ILI9325_GAMMA_CTRL6)); LCD_IO_WriteData16(RC(0x0000));
20002014:	f44f 505c 	mov.w	r0, #14080	; 0x3700
20002018:	f000 fb30 	bl	2000267c <LCD_IO_WriteCmd16>
2000201c:	2000      	movs	r0, #0
2000201e:	f000 fb31 	bl	20002684 <LCD_IO_WriteData16>
    LCD_IO_WriteCmd16(RC(ILI9325_GAMMA_CTRL7)); LCD_IO_WriteData16(RC(0x0207));
20002022:	f44f 5060 	mov.w	r0, #14336	; 0x3800
20002026:	f000 fb29 	bl	2000267c <LCD_IO_WriteCmd16>
2000202a:	f240 7002 	movw	r0, #1794	; 0x702
2000202e:	f000 fb29 	bl	20002684 <LCD_IO_WriteData16>
    LCD_IO_WriteCmd16(RC(ILI9325_GAMMA_CTRL8)); LCD_IO_WriteData16(RC(0x0000));
20002032:	f44f 5064 	mov.w	r0, #14592	; 0x3900
20002036:	f000 fb21 	bl	2000267c <LCD_IO_WriteCmd16>
2000203a:	2000      	movs	r0, #0
2000203c:	f000 fb22 	bl	20002684 <LCD_IO_WriteData16>
    LCD_IO_WriteCmd16(RC(ILI9325_GAMMA_CTRL9)); LCD_IO_WriteData16(RC(0x0203));
20002040:	f44f 5070 	mov.w	r0, #15360	; 0x3c00
20002044:	f000 fb1a 	bl	2000267c <LCD_IO_WriteCmd16>
20002048:	f240 3002 	movw	r0, #770	; 0x302
2000204c:	f000 fb1a 	bl	20002684 <LCD_IO_WriteData16>
    LCD_IO_WriteCmd16(RC(ILI9325_GAMMA_CTRL10)); LCD_IO_WriteData16(RC(0x0403));
20002050:	f44f 5074 	mov.w	r0, #15616	; 0x3d00
20002054:	f000 fb12 	bl	2000267c <LCD_IO_WriteCmd16>
20002058:	f44f 7041 	mov.w	r0, #772	; 0x304
2000205c:	f000 fb12 	bl	20002684 <LCD_IO_WriteData16>
    LCD_IO_WriteCmd16(RC(ILI9325_HOR_START_AD)); LCD_IO_WriteData16(RC(0));
20002060:	f44f 40a0 	mov.w	r0, #20480	; 0x5000
20002064:	f000 fb0a 	bl	2000267c <LCD_IO_WriteCmd16>
20002068:	2000      	movs	r0, #0
2000206a:	f000 fb0b 	bl	20002684 <LCD_IO_WriteData16>
    LCD_IO_WriteCmd16(RC(ILI9325_HOR_END_AD)); LCD_IO_WriteData16(RC(ILI9325_LCD_PIXEL_WIDTH - 1));  // 240 - 1
2000206e:	f44f 40a2 	mov.w	r0, #20736	; 0x5100
20002072:	f000 fb03 	bl	2000267c <LCD_IO_WriteCmd16>
20002076:	f44f 406f 	mov.w	r0, #61184	; 0xef00
2000207a:	f000 fb03 	bl	20002684 <LCD_IO_WriteData16>
    LCD_IO_WriteCmd16(RC(ILI9325_VER_START_AD)); LCD_IO_WriteData16(RC(0));
2000207e:	f44f 40a4 	mov.w	r0, #20992	; 0x5200
20002082:	f000 fafb 	bl	2000267c <LCD_IO_WriteCmd16>
20002086:	2000      	movs	r0, #0
20002088:	f000 fafc 	bl	20002684 <LCD_IO_WriteData16>
    LCD_IO_WriteCmd16(RC(ILI9325_VER_END_AD)); LCD_IO_WriteData16(RC(ILI9325_LCD_PIXEL_HEIGHT - 1)); // 320 - 1
2000208c:	f44f 40a6 	mov.w	r0, #21248	; 0x5300
20002090:	f000 faf4 	bl	2000267c <LCD_IO_WriteCmd16>
20002094:	f643 7001 	movw	r0, #16129	; 0x3f01
20002098:	f000 faf4 	bl	20002684 <LCD_IO_WriteData16>
    LCD_IO_WriteCmd16(RC(ILI9325_GATE_SCAN_CTRL1)); LCD_IO_WriteData16(RC(ILI9325_GATE_SCAN_CTRL1_DATA));
2000209c:	f44f 40c0 	mov.w	r0, #24576	; 0x6000
200020a0:	f000 faec 	bl	2000267c <LCD_IO_WriteCmd16>
200020a4:	2027      	movs	r0, #39	; 0x27
200020a6:	f000 faed 	bl	20002684 <LCD_IO_WriteData16>
    LCD_IO_WriteCmd16(RC(ILI9325_GATE_SCAN_CTRL2)); LCD_IO_WriteData16(RC(0x0001));
200020aa:	f44f 40c2 	mov.w	r0, #24832	; 0x6100
200020ae:	f000 fae5 	bl	2000267c <LCD_IO_WriteCmd16>
200020b2:	f44f 7080 	mov.w	r0, #256	; 0x100
200020b6:	f000 fae5 	bl	20002684 <LCD_IO_WriteData16>
    LCD_IO_WriteCmd16(RC(ILI9325_PANEL_IF_CTRL1)); LCD_IO_WriteData16(RC(0x0029)); /* RTNI setting */
200020ba:	f44f 4010 	mov.w	r0, #36864	; 0x9000
200020be:	f000 fadd 	bl	2000267c <LCD_IO_WriteCmd16>
200020c2:	f44f 5024 	mov.w	r0, #10496	; 0x2900
200020c6:	f000 fadd 	bl	20002684 <LCD_IO_WriteData16>
    LCD_Delay(5);
200020ca:	2005      	movs	r0, #5
200020cc:	f000 fa83 	bl	200025d6 <LCD_Delay>
    LCD_IO_WriteCmd16(RC(ILI9325_FRM_RATE_COL_CTRL)); LCD_IO_WriteData16(RC(0x000E)); // 110Hz, hogy ne vibrljon
200020d0:	f44f 502c 	mov.w	r0, #11008	; 0x2b00
200020d4:	f000 fad2 	bl	2000267c <LCD_IO_WriteCmd16>
200020d8:	f44f 6060 	mov.w	r0, #3584	; 0xe00
200020dc:	f000 fad2 	bl	20002684 <LCD_IO_WriteData16>
    LCD_IO_WriteCmd16(RC(ILI9325_DISP_CTRL1)); LCD_IO_WriteData16(RC(0x0133));
200020e0:	f44f 60e0 	mov.w	r0, #1792	; 0x700
200020e4:	f000 faca 	bl	2000267c <LCD_IO_WriteCmd16>
200020e8:	f243 3001 	movw	r0, #13057	; 0x3301
200020ec:	f000 faca 	bl	20002684 <LCD_IO_WriteData16>
200020f0:	bd08      	pop	{r3, pc}
      LCD_IO_Init();
200020f2:	f000 fa81 	bl	200025f8 <LCD_IO_Init>
200020f6:	e6e2      	b.n	20001ebe <ili9325_Init+0x1e>
200020f8:	200180f4 	.word	0x200180f4

200020fc <ili9325_DisplayOn>:
{
200020fc:	b508      	push	{r3, lr}
  LCD_IO_WriteCmd16(RC(ILI9325_POW_CTRL1)); LCD_IO_WriteData16(RC(0x0000)); /* SAP, BT[3:0], AP, DSTB, SLP, STB */
200020fe:	f44f 5080 	mov.w	r0, #4096	; 0x1000
20002102:	f000 fabb 	bl	2000267c <LCD_IO_WriteCmd16>
20002106:	2000      	movs	r0, #0
20002108:	f000 fabc 	bl	20002684 <LCD_IO_WriteData16>
  LCD_IO_WriteCmd16(RC(ILI9325_POW_CTRL2)); LCD_IO_WriteData16(RC(0x0000)); /* DC1[2:0], DC0[2:0], VC[2:0] */
2000210c:	f44f 5088 	mov.w	r0, #4352	; 0x1100
20002110:	f000 fab4 	bl	2000267c <LCD_IO_WriteCmd16>
20002114:	2000      	movs	r0, #0
20002116:	f000 fab5 	bl	20002684 <LCD_IO_WriteData16>
  LCD_IO_WriteCmd16(RC(ILI9325_POW_CTRL3)); LCD_IO_WriteData16(RC(0x0000)); /* VREG1OUT voltage */
2000211a:	f44f 5090 	mov.w	r0, #4608	; 0x1200
2000211e:	f000 faad 	bl	2000267c <LCD_IO_WriteCmd16>
20002122:	2000      	movs	r0, #0
20002124:	f000 faae 	bl	20002684 <LCD_IO_WriteData16>
  LCD_IO_WriteCmd16(RC(ILI9325_POW_CTRL4)); LCD_IO_WriteData16(RC(0x0000)); /* VDV[4:0] for VCOM amplitude*/
20002128:	f44f 5098 	mov.w	r0, #4864	; 0x1300
2000212c:	f000 faa6 	bl	2000267c <LCD_IO_WriteCmd16>
20002130:	2000      	movs	r0, #0
20002132:	f000 faa7 	bl	20002684 <LCD_IO_WriteData16>
  LCD_Delay(5);
20002136:	2005      	movs	r0, #5
20002138:	f000 fa4d 	bl	200025d6 <LCD_Delay>
  LCD_IO_WriteCmd16(RC(ILI9325_POW_CTRL1)); LCD_IO_WriteData16(RC(0x14B0));
2000213c:	f44f 5080 	mov.w	r0, #4096	; 0x1000
20002140:	f000 fa9c 	bl	2000267c <LCD_IO_WriteCmd16>
20002144:	f24b 0014 	movw	r0, #45076	; 0xb014
20002148:	f000 fa9c 	bl	20002684 <LCD_IO_WriteData16>
  LCD_IO_WriteCmd16(RC(ILI9325_POW_CTRL2)); LCD_IO_WriteData16(RC(0x0007));
2000214c:	f44f 5088 	mov.w	r0, #4352	; 0x1100
20002150:	f000 fa94 	bl	2000267c <LCD_IO_WriteCmd16>
20002154:	f44f 60e0 	mov.w	r0, #1792	; 0x700
20002158:	f000 fa94 	bl	20002684 <LCD_IO_WriteData16>
  LCD_IO_WriteCmd16(RC(ILI9325_POW_CTRL3)); LCD_IO_WriteData16(RC(0x008E)); /* VREG1OUT voltage */
2000215c:	f44f 5090 	mov.w	r0, #4608	; 0x1200
20002160:	f000 fa8c 	bl	2000267c <LCD_IO_WriteCmd16>
20002164:	f44f 400e 	mov.w	r0, #36352	; 0x8e00
20002168:	f000 fa8c 	bl	20002684 <LCD_IO_WriteData16>
  LCD_IO_WriteCmd16(RC(ILI9325_POW_CTRL4)); LCD_IO_WriteData16(RC(0x0C00));
2000216c:	f44f 5098 	mov.w	r0, #4864	; 0x1300
20002170:	f000 fa84 	bl	2000267c <LCD_IO_WriteCmd16>
20002174:	200c      	movs	r0, #12
20002176:	f000 fa85 	bl	20002684 <LCD_IO_WriteData16>
  LCD_IO_WriteCmd16(RC(ILI9325_POW_CTRL7)); LCD_IO_WriteData16(RC(0x0015));
2000217a:	f44f 5024 	mov.w	r0, #10496	; 0x2900
2000217e:	f000 fa7d 	bl	2000267c <LCD_IO_WriteCmd16>
20002182:	f44f 50a8 	mov.w	r0, #5376	; 0x1500
20002186:	f000 fa7d 	bl	20002684 <LCD_IO_WriteData16>
  LCD_IO_WriteCmd16(RC(ILI9325_FRM_RATE_COL_CTRL)); LCD_IO_WriteData16(RC(0x000E)); // 110Hz, hogy ne vibrljon
2000218a:	f44f 502c 	mov.w	r0, #11008	; 0x2b00
2000218e:	f000 fa75 	bl	2000267c <LCD_IO_WriteCmd16>
20002192:	f44f 6060 	mov.w	r0, #3584	; 0xe00
20002196:	f000 fa75 	bl	20002684 <LCD_IO_WriteData16>
  LCD_IO_WriteCmd16(RC(ILI9325_DISP_CTRL1)); LCD_IO_WriteData16(RC(0x0133)); /* display ON */
2000219a:	f44f 60e0 	mov.w	r0, #1792	; 0x700
2000219e:	f000 fa6d 	bl	2000267c <LCD_IO_WriteCmd16>
200021a2:	f243 3001 	movw	r0, #13057	; 0x3301
200021a6:	f000 fa6d 	bl	20002684 <LCD_IO_WriteData16>
  LCD_IO_Bl_OnOff(1);
200021aa:	2001      	movs	r0, #1
200021ac:	f000 fa18 	bl	200025e0 <LCD_IO_Bl_OnOff>
200021b0:	bd08      	pop	{r3, pc}

200021b2 <ili9325_DisplayOff>:
{
200021b2:	b508      	push	{r3, lr}
  LCD_IO_WriteCmd16(RC(ILI9325_POW_CTRL1)); LCD_IO_WriteData16(RC(0x0000)); /* SAP, BT[3:0], AP, DSTB, SLP, STB */
200021b4:	f44f 5080 	mov.w	r0, #4096	; 0x1000
200021b8:	f000 fa60 	bl	2000267c <LCD_IO_WriteCmd16>
200021bc:	2000      	movs	r0, #0
200021be:	f000 fa61 	bl	20002684 <LCD_IO_WriteData16>
  LCD_IO_WriteCmd16(RC(ILI9325_POW_CTRL2)); LCD_IO_WriteData16(RC(0x0000)); /* DC1[2:0], DC0[2:0], VC[2:0] */
200021c2:	f44f 5088 	mov.w	r0, #4352	; 0x1100
200021c6:	f000 fa59 	bl	2000267c <LCD_IO_WriteCmd16>
200021ca:	2000      	movs	r0, #0
200021cc:	f000 fa5a 	bl	20002684 <LCD_IO_WriteData16>
  LCD_IO_WriteCmd16(RC(ILI9325_POW_CTRL3)); LCD_IO_WriteData16(RC(0x0000)); /* VREG1OUT voltage */
200021d0:	f44f 5090 	mov.w	r0, #4608	; 0x1200
200021d4:	f000 fa52 	bl	2000267c <LCD_IO_WriteCmd16>
200021d8:	2000      	movs	r0, #0
200021da:	f000 fa53 	bl	20002684 <LCD_IO_WriteData16>
  LCD_IO_WriteCmd16(RC(ILI9325_POW_CTRL4)); LCD_IO_WriteData16(RC(0x0000)); /* VDV[4:0] for VCOM amplitude*/
200021de:	f44f 5098 	mov.w	r0, #4864	; 0x1300
200021e2:	f000 fa4b 	bl	2000267c <LCD_IO_WriteCmd16>
200021e6:	2000      	movs	r0, #0
200021e8:	f000 fa4c 	bl	20002684 <LCD_IO_WriteData16>
  LCD_IO_WriteCmd16(RC(ILI9325_POW_CTRL7)); LCD_IO_WriteData16(RC(0x0000)); /* VCM[4:0] for VCOMH */
200021ec:	f44f 5024 	mov.w	r0, #10496	; 0x2900
200021f0:	f000 fa44 	bl	2000267c <LCD_IO_WriteCmd16>
200021f4:	2000      	movs	r0, #0
200021f6:	f000 fa45 	bl	20002684 <LCD_IO_WriteData16>
  LCD_IO_WriteCmd16(RC(ILI9325_DISP_CTRL1)); LCD_IO_WriteData16(RC(0x0));
200021fa:	f44f 60e0 	mov.w	r0, #1792	; 0x700
200021fe:	f000 fa3d 	bl	2000267c <LCD_IO_WriteCmd16>
20002202:	2000      	movs	r0, #0
20002204:	f000 fa3e 	bl	20002684 <LCD_IO_WriteData16>
  LCD_IO_Bl_OnOff(0);
20002208:	2000      	movs	r0, #0
2000220a:	f000 f9e9 	bl	200025e0 <LCD_IO_Bl_OnOff>
2000220e:	bd08      	pop	{r3, pc}

20002210 <ili9325_SetCursor>:
  * @param  Xpos: specifies the X position.
  * @param  Ypos: specifies the Y position.
  * @retval None
  */
void ili9325_SetCursor(uint16_t Xpos, uint16_t Ypos)
{
20002210:	b538      	push	{r3, r4, r5, lr}
20002212:	4604      	mov	r4, r0
20002214:	460d      	mov	r5, r1
  ILI9325_LCDMUTEX_PUSH();
  ILI9325_SETCURSOR(Xpos, Ypos);
20002216:	f44f 5000 	mov.w	r0, #8192	; 0x2000
2000221a:	f000 fa2f 	bl	2000267c <LCD_IO_WriteCmd16>
2000221e:	ba68      	rev16	r0, r5
20002220:	b280      	uxth	r0, r0
20002222:	f000 fa2f 	bl	20002684 <LCD_IO_WriteData16>
20002226:	f44f 5004 	mov.w	r0, #8448	; 0x2100
2000222a:	f000 fa27 	bl	2000267c <LCD_IO_WriteCmd16>
2000222e:	ba60      	rev16	r0, r4
20002230:	b280      	uxth	r0, r0
20002232:	f000 fa27 	bl	20002684 <LCD_IO_WriteData16>
20002236:	bd38      	pop	{r3, r4, r5, pc}

20002238 <ili9325_WritePixel>:
  * @param  Ypos: specifies the Y position.
  * @param  RGBCode: the RGB pixel color
  * @retval None
  */
void ili9325_WritePixel(uint16_t Xpos, uint16_t Ypos, uint16_t RGBCode)
{
20002238:	b570      	push	{r4, r5, r6, lr}
2000223a:	4604      	mov	r4, r0
2000223c:	460d      	mov	r5, r1
2000223e:	4616      	mov	r6, r2
  ILI9325_LCDMUTEX_PUSH();
  ILI9325_SETCURSOR(Xpos, Ypos);
20002240:	f44f 5000 	mov.w	r0, #8192	; 0x2000
20002244:	f000 fa1a 	bl	2000267c <LCD_IO_WriteCmd16>
20002248:	ba68      	rev16	r0, r5
2000224a:	b280      	uxth	r0, r0
2000224c:	f000 fa1a 	bl	20002684 <LCD_IO_WriteData16>
20002250:	f44f 5004 	mov.w	r0, #8448	; 0x2100
20002254:	f000 fa12 	bl	2000267c <LCD_IO_WriteCmd16>
20002258:	ba60      	rev16	r0, r4
2000225a:	b280      	uxth	r0, r0
2000225c:	f000 fa12 	bl	20002684 <LCD_IO_WriteData16>
  LCD_IO_WriteCmd16(RC(ILI9325_RW_GRAM)); LCD_IO_WriteData16(RGBCode);
20002260:	f44f 5008 	mov.w	r0, #8704	; 0x2200
20002264:	f000 fa0a 	bl	2000267c <LCD_IO_WriteCmd16>
20002268:	4630      	mov	r0, r6
2000226a:	f000 fa0b 	bl	20002684 <LCD_IO_WriteData16>
2000226e:	bd70      	pop	{r4, r5, r6, pc}

20002270 <ili9325_SetDisplayWindow>:
  * @param  Height: display window height.
  * @param  Width:  display window width.
  * @retval None
  */
void ili9325_SetDisplayWindow(uint16_t Xpos, uint16_t Ypos, uint16_t Width, uint16_t Height)
{
20002270:	b5f8      	push	{r3, r4, r5, r6, r7, lr}
20002272:	4606      	mov	r6, r0
20002274:	460f      	mov	r7, r1
20002276:	4614      	mov	r4, r2
20002278:	461d      	mov	r5, r3
  LCD_IO_WriteCmd16(RC(ILI9325_HOR_START_AD)); LCD_IO_WriteData16(RD(Xpos));
  LCD_IO_WriteCmd16(RC(ILI9325_HOR_END_AD)); LCD_IO_WriteData16(RD(Xpos + Width - 1));
  LCD_IO_WriteCmd16(RC(ILI9325_VER_START_AD)); LCD_IO_WriteData16(RD(Ypos));
  LCD_IO_WriteCmd16(RC(ILI9325_VER_END_AD)); LCD_IO_WriteData16(RD(Ypos + Height - 1));
  #elif (ILI9325_ORIENTATION == 1) || (ILI9325_ORIENTATION == 3)
  LCD_IO_WriteCmd16(RC(ILI9325_HOR_START_AD)); LCD_IO_WriteData16(RD(Ypos));
2000227a:	f44f 40a0 	mov.w	r0, #20480	; 0x5000
2000227e:	f000 f9fd 	bl	2000267c <LCD_IO_WriteCmd16>
20002282:	ba78      	rev16	r0, r7
20002284:	b280      	uxth	r0, r0
20002286:	f000 f9fd 	bl	20002684 <LCD_IO_WriteData16>
  LCD_IO_WriteCmd16(RC(ILI9325_HOR_END_AD)); LCD_IO_WriteData16(RD(Ypos + Height - 1));
2000228a:	f44f 40a2 	mov.w	r0, #20736	; 0x5100
2000228e:	f000 f9f5 	bl	2000267c <LCD_IO_WriteCmd16>
20002292:	19e8      	adds	r0, r5, r7
20002294:	3801      	subs	r0, #1
20002296:	ba40      	rev16	r0, r0
20002298:	b280      	uxth	r0, r0
2000229a:	f000 f9f3 	bl	20002684 <LCD_IO_WriteData16>
  LCD_IO_WriteCmd16(RC(ILI9325_VER_START_AD)); LCD_IO_WriteData16(RD(Xpos));
2000229e:	f44f 40a4 	mov.w	r0, #20992	; 0x5200
200022a2:	f000 f9eb 	bl	2000267c <LCD_IO_WriteCmd16>
200022a6:	ba70      	rev16	r0, r6
200022a8:	b280      	uxth	r0, r0
200022aa:	f000 f9eb 	bl	20002684 <LCD_IO_WriteData16>
  LCD_IO_WriteCmd16(RC(ILI9325_VER_END_AD)); LCD_IO_WriteData16(RD(Xpos + Width - 1));
200022ae:	f44f 40a6 	mov.w	r0, #21248	; 0x5300
200022b2:	f000 f9e3 	bl	2000267c <LCD_IO_WriteCmd16>
200022b6:	19a0      	adds	r0, r4, r6
200022b8:	3801      	subs	r0, #1
200022ba:	ba40      	rev16	r0, r0
200022bc:	b280      	uxth	r0, r0
200022be:	f000 f9e1 	bl	20002684 <LCD_IO_WriteData16>
200022c2:	bdf8      	pop	{r3, r4, r5, r6, r7, pc}

200022c4 <ili9325_ReadID>:
{
200022c4:	b500      	push	{lr}
200022c6:	b083      	sub	sp, #12
  if(Is_ili9325_Initialized == 0)
200022c8:	4b09      	ldr	r3, [pc, #36]	; (200022f0 <ili9325_ReadID+0x2c>)
200022ca:	781b      	ldrb	r3, [r3, #0]
200022cc:	b16b      	cbz	r3, 200022ea <ili9325_ReadID+0x26>
  LCD_IO_ReadCmd16MultipleData16(RC(0x00), &ret, 1, 2);
200022ce:	2302      	movs	r3, #2
200022d0:	2201      	movs	r2, #1
200022d2:	f10d 0106 	add.w	r1, sp, #6
200022d6:	2000      	movs	r0, #0
200022d8:	f000 fa48 	bl	2000276c <LCD_IO_ReadCmd16MultipleData16>
  return RD(ret);
200022dc:	f8bd 0006 	ldrh.w	r0, [sp, #6]
200022e0:	ba40      	rev16	r0, r0
}
200022e2:	b280      	uxth	r0, r0
200022e4:	b003      	add	sp, #12
200022e6:	f85d fb04 	ldr.w	pc, [sp], #4
    ili9325_Init();
200022ea:	f7ff fdd9 	bl	20001ea0 <ili9325_Init>
200022ee:	e7ee      	b.n	200022ce <ili9325_ReadID+0xa>
200022f0:	200180f4 	.word	0x200180f4

200022f4 <ili9325_ReadPixel>:
{
200022f4:	b530      	push	{r4, r5, lr}
200022f6:	b083      	sub	sp, #12
200022f8:	4604      	mov	r4, r0
200022fa:	460d      	mov	r5, r1
  ILI9325_SETCURSOR(Xpos, Ypos);
200022fc:	f44f 5000 	mov.w	r0, #8192	; 0x2000
20002300:	f000 f9bc 	bl	2000267c <LCD_IO_WriteCmd16>
20002304:	ba68      	rev16	r0, r5
20002306:	b280      	uxth	r0, r0
20002308:	f000 f9bc 	bl	20002684 <LCD_IO_WriteData16>
2000230c:	f44f 5004 	mov.w	r0, #8448	; 0x2100
20002310:	f000 f9b4 	bl	2000267c <LCD_IO_WriteCmd16>
20002314:	ba60      	rev16	r0, r4
20002316:	b280      	uxth	r0, r0
20002318:	f000 f9b4 	bl	20002684 <LCD_IO_WriteData16>
  LCD_IO_ReadCmd16MultipleData16(RC(ILI9325_RW_GRAM), &ret, 1, 2);
2000231c:	2302      	movs	r3, #2
2000231e:	2201      	movs	r2, #1
20002320:	f10d 0106 	add.w	r1, sp, #6
20002324:	f44f 5008 	mov.w	r0, #8704	; 0x2200
20002328:	f000 fa20 	bl	2000276c <LCD_IO_ReadCmd16MultipleData16>
}
2000232c:	f8bd 0006 	ldrh.w	r0, [sp, #6]
20002330:	b003      	add	sp, #12
20002332:	bd30      	pop	{r4, r5, pc}

20002334 <ili9325_ReadRGBImage>:
  * @param  Ysize: Image Y size in the LCD
  * @retval None
  * @brief  Draw direction: right then down
  */
void ili9325_ReadRGBImage(uint16_t Xpos, uint16_t Ypos, uint16_t Xsize, uint16_t Ysize, uint8_t *pdata)
{
20002334:	e92d 47f0 	stmdb	sp!, {r4, r5, r6, r7, r8, r9, sl, lr}
20002338:	4607      	mov	r7, r0
2000233a:	4689      	mov	r9, r1
2000233c:	4690      	mov	r8, r2
2000233e:	469a      	mov	sl, r3
20002340:	9d08      	ldr	r5, [sp, #32]
  LCD_IO_WriteCmd16(RC(ILI9325_HOR_START_AD)); LCD_IO_WriteData16(RC(0));
  LCD_IO_WriteCmd16(RC(ILI9325_HOR_END_AD)); LCD_IO_WriteData16(RC(ILI9325_LCD_PIXEL_WIDTH - 1));
  LCD_IO_WriteCmd16(RC(ILI9325_VER_START_AD)); LCD_IO_WriteData16(RC(0));
  LCD_IO_WriteCmd16(RC(ILI9325_VER_END_AD)); LCD_IO_WriteData16(RC(ILI9325_LCD_PIXEL_HEIGHT - 1));
  #else
  for(uint16_t yp = Ypos; yp < Ypos + Ysize; yp++)
20002342:	460e      	mov	r6, r1
20002344:	e01f      	b.n	20002386 <ili9325_ReadRGBImage+0x52>
    for(uint16_t xp = Xpos; xp < Xpos + Xsize; xp++)
    { // mivel memoria olvasskor nem lpteti a memoriacimet automatikusan csak ez a modszer marad :(
      ILI9325_SETCURSOR(xp, yp);
20002346:	f44f 5000 	mov.w	r0, #8192	; 0x2000
2000234a:	f000 f997 	bl	2000267c <LCD_IO_WriteCmd16>
2000234e:	ba70      	rev16	r0, r6
20002350:	b280      	uxth	r0, r0
20002352:	f000 f997 	bl	20002684 <LCD_IO_WriteData16>
20002356:	f44f 5004 	mov.w	r0, #8448	; 0x2100
2000235a:	f000 f98f 	bl	2000267c <LCD_IO_WriteCmd16>
2000235e:	ba60      	rev16	r0, r4
20002360:	b280      	uxth	r0, r0
20002362:	f000 f98f 	bl	20002684 <LCD_IO_WriteData16>
      LCD_IO_ReadCmd16MultipleData16(RC(ILI9325_RW_GRAM), (uint16_t *)pdata, 1, 2);
20002366:	2302      	movs	r3, #2
20002368:	2201      	movs	r2, #1
2000236a:	4629      	mov	r1, r5
2000236c:	f44f 5008 	mov.w	r0, #8704	; 0x2200
20002370:	f000 f9fc 	bl	2000276c <LCD_IO_ReadCmd16MultipleData16>
      pdata += 2;
20002374:	3502      	adds	r5, #2
    for(uint16_t xp = Xpos; xp < Xpos + Xsize; xp++)
20002376:	3401      	adds	r4, #1
20002378:	b2a4      	uxth	r4, r4
2000237a:	eb07 0308 	add.w	r3, r7, r8
2000237e:	429c      	cmp	r4, r3
20002380:	dbe1      	blt.n	20002346 <ili9325_ReadRGBImage+0x12>
  for(uint16_t yp = Ypos; yp < Ypos + Ysize; yp++)
20002382:	3601      	adds	r6, #1
20002384:	b2b6      	uxth	r6, r6
20002386:	eb09 030a 	add.w	r3, r9, sl
2000238a:	429e      	cmp	r6, r3
2000238c:	da01      	bge.n	20002392 <ili9325_ReadRGBImage+0x5e>
2000238e:	463c      	mov	r4, r7
20002390:	e7f3      	b.n	2000237a <ili9325_ReadRGBImage+0x46>
    }
  #endif
  ILI9325_LCDMUTEX_POP();
}
20002392:	e8bd 87f0 	ldmia.w	sp!, {r4, r5, r6, r7, r8, r9, sl, pc}

20002396 <ili9325_DrawHLine>:
{
20002396:	b5f8      	push	{r3, r4, r5, r6, r7, lr}
20002398:	4606      	mov	r6, r0
2000239a:	460c      	mov	r4, r1
2000239c:	4615      	mov	r5, r2
2000239e:	461f      	mov	r7, r3
  ILI9325_SETCURSOR(Xpos, Ypos);
200023a0:	f44f 5000 	mov.w	r0, #8192	; 0x2000
200023a4:	f000 f96a 	bl	2000267c <LCD_IO_WriteCmd16>
200023a8:	ba68      	rev16	r0, r5
200023aa:	b280      	uxth	r0, r0
200023ac:	f000 f96a 	bl	20002684 <LCD_IO_WriteData16>
200023b0:	f44f 5004 	mov.w	r0, #8448	; 0x2100
200023b4:	f000 f962 	bl	2000267c <LCD_IO_WriteCmd16>
200023b8:	ba60      	rev16	r0, r4
200023ba:	b280      	uxth	r0, r0
200023bc:	f000 f962 	bl	20002684 <LCD_IO_WriteData16>
  LCD_IO_WriteCmd16DataFill16(RC(ILI9325_RW_GRAM), RGBCode, Length);
200023c0:	463a      	mov	r2, r7
200023c2:	4631      	mov	r1, r6
200023c4:	f44f 5008 	mov.w	r0, #8704	; 0x2200
200023c8:	f000 f962 	bl	20002690 <LCD_IO_WriteCmd16DataFill16>
200023cc:	bdf8      	pop	{r3, r4, r5, r6, r7, pc}

200023ce <ili9325_DrawVLine>:
{
200023ce:	b5f8      	push	{r3, r4, r5, r6, r7, lr}
200023d0:	4606      	mov	r6, r0
200023d2:	460c      	mov	r4, r1
200023d4:	4615      	mov	r5, r2
200023d6:	461f      	mov	r7, r3
  LCD_IO_WriteCmd16(RC(ILI9325_ENTRY_MOD)); LCD_IO_WriteData16(RC(ILI9325_ENTRY_DATA_DOWN_THEN_RIGHT));
200023d8:	f44f 7040 	mov.w	r0, #768	; 0x300
200023dc:	f000 f94e 	bl	2000267c <LCD_IO_WriteCmd16>
200023e0:	f243 0010 	movw	r0, #12304	; 0x3010
200023e4:	f000 f94e 	bl	20002684 <LCD_IO_WriteData16>
  ILI9325_SETCURSOR(Xpos, Ypos);
200023e8:	f44f 5000 	mov.w	r0, #8192	; 0x2000
200023ec:	f000 f946 	bl	2000267c <LCD_IO_WriteCmd16>
200023f0:	ba68      	rev16	r0, r5
200023f2:	b280      	uxth	r0, r0
200023f4:	f000 f946 	bl	20002684 <LCD_IO_WriteData16>
200023f8:	f44f 5004 	mov.w	r0, #8448	; 0x2100
200023fc:	f000 f93e 	bl	2000267c <LCD_IO_WriteCmd16>
20002400:	ba60      	rev16	r0, r4
20002402:	b280      	uxth	r0, r0
20002404:	f000 f93e 	bl	20002684 <LCD_IO_WriteData16>
  LCD_IO_WriteCmd16DataFill16(RC(ILI9325_RW_GRAM), RGBCode, Length);
20002408:	463a      	mov	r2, r7
2000240a:	4631      	mov	r1, r6
2000240c:	f44f 5008 	mov.w	r0, #8704	; 0x2200
20002410:	f000 f93e 	bl	20002690 <LCD_IO_WriteCmd16DataFill16>
  LCD_IO_WriteCmd16(RC(ILI9325_ENTRY_MOD)); LCD_IO_WriteData16(RC(ILI9325_ENTRY_DATA_RIGHT_THEN_DOWN));
20002414:	f44f 7040 	mov.w	r0, #768	; 0x300
20002418:	f000 f930 	bl	2000267c <LCD_IO_WriteCmd16>
2000241c:	f643 0010 	movw	r0, #14352	; 0x3810
20002420:	f000 f930 	bl	20002684 <LCD_IO_WriteData16>
20002424:	bdf8      	pop	{r3, r4, r5, r6, r7, pc}

20002426 <ili9325_FillRect>:
{
20002426:	b5f8      	push	{r3, r4, r5, r6, r7, lr}
20002428:	4604      	mov	r4, r0
2000242a:	460d      	mov	r5, r1
2000242c:	4616      	mov	r6, r2
2000242e:	461f      	mov	r7, r3
  ili9325_SetDisplayWindow(Xpos, Ypos, Xsize, Ysize);
20002430:	f7ff ff1e 	bl	20002270 <ili9325_SetDisplayWindow>
  ILI9325_SETCURSOR(Xpos, Ypos);
20002434:	f44f 5000 	mov.w	r0, #8192	; 0x2000
20002438:	f000 f920 	bl	2000267c <LCD_IO_WriteCmd16>
2000243c:	ba68      	rev16	r0, r5
2000243e:	b280      	uxth	r0, r0
20002440:	f000 f920 	bl	20002684 <LCD_IO_WriteData16>
20002444:	f44f 5004 	mov.w	r0, #8448	; 0x2100
20002448:	f000 f918 	bl	2000267c <LCD_IO_WriteCmd16>
2000244c:	ba60      	rev16	r0, r4
2000244e:	b280      	uxth	r0, r0
20002450:	f000 f918 	bl	20002684 <LCD_IO_WriteData16>
  LCD_IO_WriteCmd16DataFill16(RC(ILI9325_RW_GRAM), RGBCode, Xsize * Ysize);
20002454:	fb07 f206 	mul.w	r2, r7, r6
20002458:	f8bd 1018 	ldrh.w	r1, [sp, #24]
2000245c:	f44f 5008 	mov.w	r0, #8704	; 0x2200
20002460:	f000 f916 	bl	20002690 <LCD_IO_WriteCmd16DataFill16>
  LCD_IO_WriteCmd16(RC(ILI9325_HOR_START_AD)); LCD_IO_WriteData16(RC(0));
20002464:	f44f 40a0 	mov.w	r0, #20480	; 0x5000
20002468:	f000 f908 	bl	2000267c <LCD_IO_WriteCmd16>
2000246c:	2000      	movs	r0, #0
2000246e:	f000 f909 	bl	20002684 <LCD_IO_WriteData16>
  LCD_IO_WriteCmd16(RC(ILI9325_HOR_END_AD)); LCD_IO_WriteData16(RC(ILI9325_LCD_PIXEL_WIDTH - 1));
20002472:	f44f 40a2 	mov.w	r0, #20736	; 0x5100
20002476:	f000 f901 	bl	2000267c <LCD_IO_WriteCmd16>
2000247a:	f44f 406f 	mov.w	r0, #61184	; 0xef00
2000247e:	f000 f901 	bl	20002684 <LCD_IO_WriteData16>
  LCD_IO_WriteCmd16(RC(ILI9325_VER_START_AD)); LCD_IO_WriteData16(RC(0));
20002482:	f44f 40a4 	mov.w	r0, #20992	; 0x5200
20002486:	f000 f8f9 	bl	2000267c <LCD_IO_WriteCmd16>
2000248a:	2000      	movs	r0, #0
2000248c:	f000 f8fa 	bl	20002684 <LCD_IO_WriteData16>
  LCD_IO_WriteCmd16(RC(ILI9325_VER_END_AD)); LCD_IO_WriteData16(RC(ILI9325_LCD_PIXEL_HEIGHT - 1));
20002490:	f44f 40a6 	mov.w	r0, #21248	; 0x5300
20002494:	f000 f8f2 	bl	2000267c <LCD_IO_WriteCmd16>
20002498:	f643 7001 	movw	r0, #16129	; 0x3f01
2000249c:	f000 f8f2 	bl	20002684 <LCD_IO_WriteData16>
200024a0:	bdf8      	pop	{r3, r4, r5, r6, r7, pc}

200024a2 <ili9325_DrawBitmap>:
{
200024a2:	b5f8      	push	{r3, r4, r5, r6, r7, lr}
200024a4:	4607      	mov	r7, r0
  Ypos += pbmp[22] + (pbmp[23] << 8) - 1;
200024a6:	7d94      	ldrb	r4, [r2, #22]
200024a8:	7dd3      	ldrb	r3, [r2, #23]
200024aa:	eb04 2403 	add.w	r4, r4, r3, lsl #8
200024ae:	fa11 f484 	uxtah	r4, r1, r4
200024b2:	b2a4      	uxth	r4, r4
200024b4:	3c01      	subs	r4, #1
200024b6:	b2a4      	uxth	r4, r4
  size = *(volatile uint16_t *) (pbmp + 2);
200024b8:	8856      	ldrh	r6, [r2, #2]
200024ba:	b2b6      	uxth	r6, r6
  size |= (*(volatile uint16_t *) (pbmp + 4)) << 16;
200024bc:	8893      	ldrh	r3, [r2, #4]
200024be:	ea46 4603 	orr.w	r6, r6, r3, lsl #16
  index = *(volatile uint16_t *) (pbmp + 10);
200024c2:	8955      	ldrh	r5, [r2, #10]
200024c4:	b2ad      	uxth	r5, r5
  index |= (*(volatile uint16_t *) (pbmp + 12)) << 16;
200024c6:	8993      	ldrh	r3, [r2, #12]
200024c8:	ea45 4503 	orr.w	r5, r5, r3, lsl #16
  size = (size - index) / 2;
200024cc:	1b76      	subs	r6, r6, r5
200024ce:	0876      	lsrs	r6, r6, #1
  pbmp += index;
200024d0:	4415      	add	r5, r2
  LCD_IO_WriteCmd16(RC(ILI9325_ENTRY_MOD)); LCD_IO_WriteData16(RC(ILI9325_ENTRY_DATA_RIGHT_THEN_UP));
200024d2:	f44f 7040 	mov.w	r0, #768	; 0x300
200024d6:	f000 f8d1 	bl	2000267c <LCD_IO_WriteCmd16>
200024da:	f642 0010 	movw	r0, #10256	; 0x2810
200024de:	f000 f8d1 	bl	20002684 <LCD_IO_WriteData16>
  ILI9325_SETCURSOR(Xpos, Ypos);
200024e2:	f44f 5000 	mov.w	r0, #8192	; 0x2000
200024e6:	f000 f8c9 	bl	2000267c <LCD_IO_WriteCmd16>
200024ea:	ba60      	rev16	r0, r4
200024ec:	b280      	uxth	r0, r0
200024ee:	f000 f8c9 	bl	20002684 <LCD_IO_WriteData16>
200024f2:	f44f 5004 	mov.w	r0, #8448	; 0x2100
200024f6:	f000 f8c1 	bl	2000267c <LCD_IO_WriteCmd16>
200024fa:	ba78      	rev16	r0, r7
200024fc:	b280      	uxth	r0, r0
200024fe:	f000 f8c1 	bl	20002684 <LCD_IO_WriteData16>
  LCD_IO_WriteCmd16MultipleData16(RC(ILI9325_RW_GRAM), (uint16_t *)pbmp, size);
20002502:	4632      	mov	r2, r6
20002504:	4629      	mov	r1, r5
20002506:	f44f 5008 	mov.w	r0, #8704	; 0x2200
2000250a:	f000 f8f9 	bl	20002700 <LCD_IO_WriteCmd16MultipleData16>
  LCD_IO_WriteCmd16(RC(ILI9325_ENTRY_MOD)); LCD_IO_WriteData16(RC(ILI9325_ENTRY_DATA_RIGHT_THEN_DOWN));
2000250e:	f44f 7040 	mov.w	r0, #768	; 0x300
20002512:	f000 f8b3 	bl	2000267c <LCD_IO_WriteCmd16>
20002516:	f643 0010 	movw	r0, #14352	; 0x3810
2000251a:	f000 f8b3 	bl	20002684 <LCD_IO_WriteData16>
  LCD_IO_WriteCmd16(RC(ILI9325_HOR_START_AD)); LCD_IO_WriteData16(RC(0));
2000251e:	f44f 40a0 	mov.w	r0, #20480	; 0x5000
20002522:	f000 f8ab 	bl	2000267c <LCD_IO_WriteCmd16>
20002526:	2000      	movs	r0, #0
20002528:	f000 f8ac 	bl	20002684 <LCD_IO_WriteData16>
  LCD_IO_WriteCmd16(RC(ILI9325_HOR_END_AD)); LCD_IO_WriteData16(RC(ILI9325_LCD_PIXEL_WIDTH - 1));
2000252c:	f44f 40a2 	mov.w	r0, #20736	; 0x5100
20002530:	f000 f8a4 	bl	2000267c <LCD_IO_WriteCmd16>
20002534:	f44f 406f 	mov.w	r0, #61184	; 0xef00
20002538:	f000 f8a4 	bl	20002684 <LCD_IO_WriteData16>
  LCD_IO_WriteCmd16(RC(ILI9325_VER_START_AD)); LCD_IO_WriteData16(RC(0));
2000253c:	f44f 40a4 	mov.w	r0, #20992	; 0x5200
20002540:	f000 f89c 	bl	2000267c <LCD_IO_WriteCmd16>
20002544:	2000      	movs	r0, #0
20002546:	f000 f89d 	bl	20002684 <LCD_IO_WriteData16>
  LCD_IO_WriteCmd16(RC(ILI9325_VER_END_AD)); LCD_IO_WriteData16(RC(ILI9325_LCD_PIXEL_HEIGHT - 1));
2000254a:	f44f 40a6 	mov.w	r0, #21248	; 0x5300
2000254e:	f000 f895 	bl	2000267c <LCD_IO_WriteCmd16>
20002552:	f643 7001 	movw	r0, #16129	; 0x3f01
20002556:	f000 f895 	bl	20002684 <LCD_IO_WriteData16>
2000255a:	bdf8      	pop	{r3, r4, r5, r6, r7, pc}

2000255c <ili9325_DrawRGBImage>:
{
2000255c:	b5f8      	push	{r3, r4, r5, r6, r7, lr}
2000255e:	4604      	mov	r4, r0
20002560:	460d      	mov	r5, r1
20002562:	4616      	mov	r6, r2
20002564:	461f      	mov	r7, r3
  ili9325_SetDisplayWindow(Xpos, Ypos, Xsize, Ysize);
20002566:	f7ff fe83 	bl	20002270 <ili9325_SetDisplayWindow>
  ILI9325_SETCURSOR(Xpos, Ypos);
2000256a:	f44f 5000 	mov.w	r0, #8192	; 0x2000
2000256e:	f000 f885 	bl	2000267c <LCD_IO_WriteCmd16>
20002572:	ba68      	rev16	r0, r5
20002574:	b280      	uxth	r0, r0
20002576:	f000 f885 	bl	20002684 <LCD_IO_WriteData16>
2000257a:	f44f 5004 	mov.w	r0, #8448	; 0x2100
2000257e:	f000 f87d 	bl	2000267c <LCD_IO_WriteCmd16>
20002582:	ba60      	rev16	r0, r4
20002584:	b280      	uxth	r0, r0
20002586:	f000 f87d 	bl	20002684 <LCD_IO_WriteData16>
  LCD_IO_WriteCmd16MultipleData16(RC(ILI9325_RW_GRAM), (uint16_t *)pdata, Xsize * Ysize);
2000258a:	fb07 f206 	mul.w	r2, r7, r6
2000258e:	9906      	ldr	r1, [sp, #24]
20002590:	f44f 5008 	mov.w	r0, #8704	; 0x2200
20002594:	f000 f8b4 	bl	20002700 <LCD_IO_WriteCmd16MultipleData16>
  LCD_IO_WriteCmd16(RC(ILI9325_HOR_START_AD)); LCD_IO_WriteData16(RC(0));
20002598:	f44f 40a0 	mov.w	r0, #20480	; 0x5000
2000259c:	f000 f86e 	bl	2000267c <LCD_IO_WriteCmd16>
200025a0:	2000      	movs	r0, #0
200025a2:	f000 f86f 	bl	20002684 <LCD_IO_WriteData16>
  LCD_IO_WriteCmd16(RC(ILI9325_HOR_END_AD)); LCD_IO_WriteData16(RC(ILI9325_LCD_PIXEL_WIDTH - 1));
200025a6:	f44f 40a2 	mov.w	r0, #20736	; 0x5100
200025aa:	f000 f867 	bl	2000267c <LCD_IO_WriteCmd16>
200025ae:	f44f 406f 	mov.w	r0, #61184	; 0xef00
200025b2:	f000 f867 	bl	20002684 <LCD_IO_WriteData16>
  LCD_IO_WriteCmd16(RC(ILI9325_VER_START_AD)); LCD_IO_WriteData16(RC(0));
200025b6:	f44f 40a4 	mov.w	r0, #20992	; 0x5200
200025ba:	f000 f85f 	bl	2000267c <LCD_IO_WriteCmd16>
200025be:	2000      	movs	r0, #0
200025c0:	f000 f860 	bl	20002684 <LCD_IO_WriteData16>
  LCD_IO_WriteCmd16(RC(ILI9325_VER_END_AD)); LCD_IO_WriteData16(RC(ILI9325_LCD_PIXEL_HEIGHT - 1));
200025c4:	f44f 40a6 	mov.w	r0, #21248	; 0x5300
200025c8:	f000 f858 	bl	2000267c <LCD_IO_WriteCmd16>
200025cc:	f643 7001 	movw	r0, #16129	; 0x3f01
200025d0:	f000 f858 	bl	20002684 <LCD_IO_WriteData16>
200025d4:	bdf8      	pop	{r3, r4, r5, r6, r7, pc}

200025d6 <LCD_Delay>:
}
#pragma GCC pop_options

//-----------------------------------------------------------------------------
void LCD_Delay(uint32_t Delay)
{
200025d6:	b508      	push	{r3, lr}
  HAL_Delay(Delay);
200025d8:	f7fd fffe 	bl	200005d8 <HAL_Delay>
200025dc:	bd08      	pop	{r3, pc}
	...

200025e0 <LCD_IO_Bl_OnOff>:

//-----------------------------------------------------------------------------
void LCD_IO_Bl_OnOff(uint8_t Bl)
{
  #if (GPIOX_PORTNUM(LCD_BL) >= 1) && (GPIOX_PORTNUM(LCD_BL) <= 12)
  if(Bl)
200025e0:	b918      	cbnz	r0, 200025ea <LCD_IO_Bl_OnOff+0xa>
    GPIOX_ODR(LCD_BL) = LCD_BLON;
  else
    GPIOX_ODR(LCD_BL) = 1 - LCD_BLON;
200025e2:	2201      	movs	r2, #1
200025e4:	4b03      	ldr	r3, [pc, #12]	; (200025f4 <LCD_IO_Bl_OnOff+0x14>)
200025e6:	601a      	str	r2, [r3, #0]
200025e8:	4770      	bx	lr
    GPIOX_ODR(LCD_BL) = LCD_BLON;
200025ea:	2200      	movs	r2, #0
200025ec:	4b01      	ldr	r3, [pc, #4]	; (200025f4 <LCD_IO_Bl_OnOff+0x14>)
200025ee:	601a      	str	r2, [r3, #0]
200025f0:	4770      	bx	lr
200025f2:	bf00      	nop
200025f4:	42408284 	.word	0x42408284

200025f8 <LCD_IO_Init>:
  #endif
}

//-----------------------------------------------------------------------------
void LCD_IO_Init(void)
{
200025f8:	e92d 4178 	stmdb	sp!, {r3, r4, r5, r6, r8, lr}
  // GPIO Ports Clock Enable
  #ifdef ADCX
  RCC->APB2ENR |= GPIOX_CLOCK(LCD_RST) | GPIOX_CLOCK(TS_XM) | GPIOX_CLOCK(TS_XP) | GPIOX_CLOCK(TS_YM) | GPIOX_CLOCK(TS_YP);
  #else
  RCC->APB2ENR |= GPIOX_CLOCK(LCD_RST);
200025fc:	4c1a      	ldr	r4, [pc, #104]	; (20002668 <LCD_IO_Init+0x70>)
200025fe:	6c63      	ldr	r3, [r4, #68]	; 0x44
20002600:	f043 0304 	orr.w	r3, r3, #4
20002604:	6463      	str	r3, [r4, #68]	; 0x44
  #endif

  #if (GPIOX_PORTNUM(LCD_BL) >= 1) && (GPIOX_PORTNUM(LCD_BL) <= 12)
  RCC->APB2ENR |= GPIOX_CLOCK(LCD_BL);
20002606:	6c63      	ldr	r3, [r4, #68]	; 0x44
20002608:	f043 0302 	orr.w	r3, r3, #2
2000260c:	6463      	str	r3, [r4, #68]	; 0x44
  GPIOX_ODR(LCD_BL) = LCD_BLON;
2000260e:	2600      	movs	r6, #0
20002610:	4b16      	ldr	r3, [pc, #88]	; (2000266c <LCD_IO_Init+0x74>)
20002612:	601e      	str	r6, [r3, #0]
  GPIOX_MODER(MODE_OUT, LCD_BL);
20002614:	4a16      	ldr	r2, [pc, #88]	; (20002670 <LCD_IO_Init+0x78>)
20002616:	6813      	ldr	r3, [r2, #0]
20002618:	f023 030c 	bic.w	r3, r3, #12
2000261c:	f043 0304 	orr.w	r3, r3, #4
20002620:	6013      	str	r3, [r2, #0]
  #endif

  GPIOX_MODER(MODE_OUT, LCD_RST);       // RST = GPIO OUT
20002622:	f502 6280 	add.w	r2, r2, #1024	; 0x400
20002626:	6813      	ldr	r3, [r2, #0]
20002628:	f423 6340 	bic.w	r3, r3, #3072	; 0xc00
2000262c:	f443 6380 	orr.w	r3, r3, #1024	; 0x400
20002630:	6013      	str	r3, [r2, #0]
  GPIOX_ODR(LCD_RST) = 1;               // RST = 1
20002632:	f8df 8044 	ldr.w	r8, [pc, #68]	; 20002678 <LCD_IO_Init+0x80>
20002636:	2501      	movs	r5, #1
20002638:	f8c8 5000 	str.w	r5, [r8]

  /* Set or Reset the control line */
  LCD_Delay(1);
2000263c:	4628      	mov	r0, r5
2000263e:	f7ff ffca 	bl	200025d6 <LCD_Delay>
  GPIOX_ODR(LCD_RST) = 0;               // RST = 0
20002642:	f8c8 6000 	str.w	r6, [r8]
  LCD_Delay(1);
20002646:	4628      	mov	r0, r5
20002648:	f7ff ffc5 	bl	200025d6 <LCD_Delay>
  GPIOX_ODR(LCD_RST) = 1;               // RST = 1
2000264c:	f8c8 5000 	str.w	r5, [r8]
  LCD_Delay(1);
20002650:	4628      	mov	r0, r5
20002652:	f7ff ffc0 	bl	200025d6 <LCD_Delay>

  GPIOX_ODR(LCD_CS) = 1;
20002656:	4b07      	ldr	r3, [pc, #28]	; (20002674 <LCD_IO_Init+0x7c>)
20002658:	601d      	str	r5, [r3, #0]
  #endif // #ifdef ADCX

  #if DMANUM(LCD_DMA) == 1
  RCC->AHB1ENR |= RCC_AHB1ENR_DMA1EN;
  #elif DMANUM(LCD_DMA) == 2
  RCC->AHB1ENR |= RCC_AHB1ENR_DMA2EN;
2000265a:	6b23      	ldr	r3, [r4, #48]	; 0x30
2000265c:	f443 0380 	orr.w	r3, r3, #4194304	; 0x400000
20002660:	6323      	str	r3, [r4, #48]	; 0x30
20002662:	e8bd 8178 	ldmia.w	sp!, {r3, r4, r5, r6, r8, pc}
20002666:	bf00      	nop
20002668:	40023800 	.word	0x40023800
2000266c:	42408284 	.word	0x42408284
20002670:	40020400 	.word	0x40020400
20002674:	4241829c 	.word	0x4241829c
20002678:	42410294 	.word	0x42410294

2000267c <LCD_IO_WriteCmd16>:
}

//-----------------------------------------------------------------------------
void LCD_IO_WriteCmd16(uint16_t Cmd)
{
  *(volatile uint16_t *)LCD_ADDR_BASE = RD(Cmd);
2000267c:	f04f 43c0 	mov.w	r3, #1610612736	; 0x60000000
20002680:	8018      	strh	r0, [r3, #0]
20002682:	4770      	bx	lr

20002684 <LCD_IO_WriteData16>:
}

//-----------------------------------------------------------------------------
void LCD_IO_WriteData16(uint16_t Data)
{
  *(volatile uint16_t *)LCD_ADDR_DATA = RD(Data);
20002684:	4b01      	ldr	r3, [pc, #4]	; (2000268c <LCD_IO_WriteData16+0x8>)
20002686:	8018      	strh	r0, [r3, #0]
20002688:	4770      	bx	lr
2000268a:	bf00      	nop
2000268c:	60040000 	.word	0x60040000

20002690 <LCD_IO_WriteCmd16DataFill16>:
  #endif
}

//-----------------------------------------------------------------------------
void LCD_IO_WriteCmd16DataFill16(uint16_t Cmd, uint16_t Data, uint32_t Size)
{
20002690:	b082      	sub	sp, #8
  *(volatile uint16_t *)LCD_ADDR_BASE = RD(Cmd);
20002692:	f04f 43c0 	mov.w	r3, #1610612736	; 0x60000000
20002696:	8018      	strh	r0, [r3, #0]
  uint16_t d = RD(Data);
20002698:	f8ad 1006 	strh.w	r1, [sp, #6]
  #if DMANUM(LCD_DMA) == 0
  while(Size--)
    *(volatile uint16_t *)LCD_ADDR_DATA = d;

  #else
  LCD_FSMC_DMA(&d, LCD_ADDR_DATA, 0, 0, Size, 1);
2000269c:	e00e      	b.n	200026bc <LCD_IO_WriteCmd16DataFill16+0x2c>
2000269e:	4b14      	ldr	r3, [pc, #80]	; (200026f0 <LCD_IO_WriteCmd16DataFill16+0x60>)
200026a0:	605a      	str	r2, [r3, #4]
200026a2:	2200      	movs	r2, #0
200026a4:	4b12      	ldr	r3, [pc, #72]	; (200026f0 <LCD_IO_WriteCmd16DataFill16+0x60>)
200026a6:	4913      	ldr	r1, [pc, #76]	; (200026f4 <LCD_IO_WriteCmd16DataFill16+0x64>)
200026a8:	6019      	str	r1, [r3, #0]
200026aa:	6819      	ldr	r1, [r3, #0]
200026ac:	f041 0101 	orr.w	r1, r1, #1
200026b0:	6019      	str	r1, [r3, #0]
200026b2:	4b11      	ldr	r3, [pc, #68]	; (200026f8 <LCD_IO_WriteCmd16DataFill16+0x68>)
200026b4:	685b      	ldr	r3, [r3, #4]
200026b6:	f013 6f00 	tst.w	r3, #134217728	; 0x8000000
200026ba:	d0fa      	beq.n	200026b2 <LCD_IO_WriteCmd16DataFill16+0x22>
200026bc:	b1aa      	cbz	r2, 200026ea <LCD_IO_WriteCmd16DataFill16+0x5a>
200026be:	4b0c      	ldr	r3, [pc, #48]	; (200026f0 <LCD_IO_WriteCmd16DataFill16+0x60>)
200026c0:	2100      	movs	r1, #0
200026c2:	6019      	str	r1, [r3, #0]
200026c4:	f04f 6000 	mov.w	r0, #134217728	; 0x8000000
200026c8:	490b      	ldr	r1, [pc, #44]	; (200026f8 <LCD_IO_WriteCmd16DataFill16+0x68>)
200026ca:	60c8      	str	r0, [r1, #12]
200026cc:	f10d 0106 	add.w	r1, sp, #6
200026d0:	6099      	str	r1, [r3, #8]
200026d2:	490a      	ldr	r1, [pc, #40]	; (200026fc <LCD_IO_WriteCmd16DataFill16+0x6c>)
200026d4:	60d9      	str	r1, [r3, #12]
200026d6:	f5b2 3f80 	cmp.w	r2, #65536	; 0x10000
200026da:	d3e0      	bcc.n	2000269e <LCD_IO_WriteCmd16DataFill16+0xe>
200026dc:	f64f 71ff 	movw	r1, #65535	; 0xffff
200026e0:	6059      	str	r1, [r3, #4]
200026e2:	f5a2 427f 	sub.w	r2, r2, #65280	; 0xff00
200026e6:	3aff      	subs	r2, #255	; 0xff
200026e8:	e7dc      	b.n	200026a4 <LCD_IO_WriteCmd16DataFill16+0x14>
  #endif
}
200026ea:	b002      	add	sp, #8
200026ec:	4770      	bx	lr
200026ee:	bf00      	nop
200026f0:	400264b8 	.word	0x400264b8
200026f4:	0e012880 	.word	0x0e012880
200026f8:	40026400 	.word	0x40026400
200026fc:	60040000 	.word	0x60040000

20002700 <LCD_IO_WriteCmd16MultipleData16>:
}

//-----------------------------------------------------------------------------
void LCD_IO_WriteCmd16MultipleData16(uint16_t Cmd, uint16_t *pData, uint32_t Size)
{
  *(volatile uint16_t *)LCD_ADDR_BASE = RD(Cmd);
20002700:	f04f 43c0 	mov.w	r3, #1610612736	; 0x60000000
20002704:	8018      	strh	r0, [r3, #0]
    *(volatile uint16_t *)LCD_ADDR_DATA = RD(*pData);
    pData++;
  }

  #else
  LCD_FSMC_DMA(pData, LCD_ADDR_DATA, 1, 0, Size, 1);
20002706:	b342      	cbz	r2, 2000275a <LCD_IO_WriteCmd16MultipleData16+0x5a>
{
20002708:	b410      	push	{r4}
2000270a:	e00f      	b.n	2000272c <LCD_IO_WriteCmd16MultipleData16+0x2c>
  LCD_FSMC_DMA(pData, LCD_ADDR_DATA, 1, 0, Size, 1);
2000270c:	4b13      	ldr	r3, [pc, #76]	; (2000275c <LCD_IO_WriteCmd16MultipleData16+0x5c>)
2000270e:	605a      	str	r2, [r3, #4]
20002710:	2200      	movs	r2, #0
20002712:	4b12      	ldr	r3, [pc, #72]	; (2000275c <LCD_IO_WriteCmd16MultipleData16+0x5c>)
20002714:	4812      	ldr	r0, [pc, #72]	; (20002760 <LCD_IO_WriteCmd16MultipleData16+0x60>)
20002716:	6018      	str	r0, [r3, #0]
20002718:	6818      	ldr	r0, [r3, #0]
2000271a:	f040 0001 	orr.w	r0, r0, #1
2000271e:	6018      	str	r0, [r3, #0]
20002720:	4b10      	ldr	r3, [pc, #64]	; (20002764 <LCD_IO_WriteCmd16MultipleData16+0x64>)
20002722:	685b      	ldr	r3, [r3, #4]
20002724:	f013 6f00 	tst.w	r3, #134217728	; 0x8000000
20002728:	d0fa      	beq.n	20002720 <LCD_IO_WriteCmd16MultipleData16+0x20>
2000272a:	b19a      	cbz	r2, 20002754 <LCD_IO_WriteCmd16MultipleData16+0x54>
2000272c:	4b0b      	ldr	r3, [pc, #44]	; (2000275c <LCD_IO_WriteCmd16MultipleData16+0x5c>)
2000272e:	2000      	movs	r0, #0
20002730:	6018      	str	r0, [r3, #0]
20002732:	f04f 6400 	mov.w	r4, #134217728	; 0x8000000
20002736:	480b      	ldr	r0, [pc, #44]	; (20002764 <LCD_IO_WriteCmd16MultipleData16+0x64>)
20002738:	60c4      	str	r4, [r0, #12]
2000273a:	6099      	str	r1, [r3, #8]
2000273c:	480a      	ldr	r0, [pc, #40]	; (20002768 <LCD_IO_WriteCmd16MultipleData16+0x68>)
2000273e:	60d8      	str	r0, [r3, #12]
20002740:	f5b2 3f80 	cmp.w	r2, #65536	; 0x10000
20002744:	d3e2      	bcc.n	2000270c <LCD_IO_WriteCmd16MultipleData16+0xc>
20002746:	f64f 70ff 	movw	r0, #65535	; 0xffff
2000274a:	6058      	str	r0, [r3, #4]
2000274c:	f5a2 427f 	sub.w	r2, r2, #65280	; 0xff00
20002750:	3aff      	subs	r2, #255	; 0xff
20002752:	e7de      	b.n	20002712 <LCD_IO_WriteCmd16MultipleData16+0x12>
  #endif
}
20002754:	f85d 4b04 	ldr.w	r4, [sp], #4
20002758:	4770      	bx	lr
2000275a:	4770      	bx	lr
2000275c:	400264b8 	.word	0x400264b8
20002760:	0e012a80 	.word	0x0e012a80
20002764:	40026400 	.word	0x40026400
20002768:	60040000 	.word	0x60040000

2000276c <LCD_IO_ReadCmd16MultipleData16>:
  #endif
}

//-----------------------------------------------------------------------------
void LCD_IO_ReadCmd16MultipleData16(uint16_t Cmd, uint16_t *pData, uint32_t Size, uint32_t DummySize)
{
2000276c:	b430      	push	{r4, r5}
  #pragma GCC diagnostic push
  #pragma GCC diagnostic ignored "-Wunused-but-set-variable"
  uint8_t DummyData;
  #pragma GCC diagnostic pop

  *(volatile uint16_t *)LCD_ADDR_BASE = RD(Cmd);
2000276e:	f04f 44c0 	mov.w	r4, #1610612736	; 0x60000000
20002772:	8020      	strh	r0, [r4, #0]

  while(DummySize--)
20002774:	e002      	b.n	2000277c <LCD_IO_ReadCmd16MultipleData16+0x10>
    DummyData = *(volatile uint8_t *)LCD_ADDR_DATA;
20002776:	4b16      	ldr	r3, [pc, #88]	; (200027d0 <LCD_IO_ReadCmd16MultipleData16+0x64>)
20002778:	781b      	ldrb	r3, [r3, #0]
  while(DummySize--)
2000277a:	4603      	mov	r3, r0
2000277c:	1e58      	subs	r0, r3, #1
2000277e:	2b00      	cmp	r3, #0
20002780:	d1f9      	bne.n	20002776 <LCD_IO_ReadCmd16MultipleData16+0xa>
20002782:	e00e      	b.n	200027a2 <LCD_IO_ReadCmd16MultipleData16+0x36>
    pData++;
    Size--;
  }

  #else
  LCD_FSMC_DMA(LCD_ADDR_DATA, pData, 0, 1, Size, 1);
20002784:	4813      	ldr	r0, [pc, #76]	; (200027d4 <LCD_IO_ReadCmd16MultipleData16+0x68>)
20002786:	6042      	str	r2, [r0, #4]
20002788:	461a      	mov	r2, r3
2000278a:	4812      	ldr	r0, [pc, #72]	; (200027d4 <LCD_IO_ReadCmd16MultipleData16+0x68>)
2000278c:	4c12      	ldr	r4, [pc, #72]	; (200027d8 <LCD_IO_ReadCmd16MultipleData16+0x6c>)
2000278e:	6004      	str	r4, [r0, #0]
20002790:	6804      	ldr	r4, [r0, #0]
20002792:	f044 0401 	orr.w	r4, r4, #1
20002796:	6004      	str	r4, [r0, #0]
20002798:	4810      	ldr	r0, [pc, #64]	; (200027dc <LCD_IO_ReadCmd16MultipleData16+0x70>)
2000279a:	6840      	ldr	r0, [r0, #4]
2000279c:	f010 6f00 	tst.w	r0, #134217728	; 0x8000000
200027a0:	d0fa      	beq.n	20002798 <LCD_IO_ReadCmd16MultipleData16+0x2c>
200027a2:	b19a      	cbz	r2, 200027cc <LCD_IO_ReadCmd16MultipleData16+0x60>
200027a4:	480b      	ldr	r0, [pc, #44]	; (200027d4 <LCD_IO_ReadCmd16MultipleData16+0x68>)
200027a6:	2400      	movs	r4, #0
200027a8:	6004      	str	r4, [r0, #0]
200027aa:	f04f 6500 	mov.w	r5, #134217728	; 0x8000000
200027ae:	4c0b      	ldr	r4, [pc, #44]	; (200027dc <LCD_IO_ReadCmd16MultipleData16+0x70>)
200027b0:	60e5      	str	r5, [r4, #12]
200027b2:	4c07      	ldr	r4, [pc, #28]	; (200027d0 <LCD_IO_ReadCmd16MultipleData16+0x64>)
200027b4:	6084      	str	r4, [r0, #8]
200027b6:	60c1      	str	r1, [r0, #12]
200027b8:	f5b2 3f80 	cmp.w	r2, #65536	; 0x10000
200027bc:	d3e2      	bcc.n	20002784 <LCD_IO_ReadCmd16MultipleData16+0x18>
200027be:	f64f 74ff 	movw	r4, #65535	; 0xffff
200027c2:	6044      	str	r4, [r0, #4]
200027c4:	f5a2 427f 	sub.w	r2, r2, #65280	; 0xff00
200027c8:	3aff      	subs	r2, #255	; 0xff
200027ca:	e7de      	b.n	2000278a <LCD_IO_ReadCmd16MultipleData16+0x1e>
  #endif
}
200027cc:	bc30      	pop	{r4, r5}
200027ce:	4770      	bx	lr
200027d0:	60040000 	.word	0x60040000
200027d4:	400264b8 	.word	0x400264b8
200027d8:	0e012c80 	.word	0x0e012c80
200027dc:	40026400 	.word	0x40026400

200027e0 <SetDisplayWindow>:
  * @param  Width: LCD window width
  * @param  Height: LCD window height  
  * @retval None
  */
static void SetDisplayWindow(uint16_t Xpos, uint16_t Ypos, uint16_t Width, uint16_t Height)
{
200027e0:	b510      	push	{r4, lr}
  if(lcd_drv->SetDisplayWindow != NULL)
200027e2:	4c03      	ldr	r4, [pc, #12]	; (200027f0 <SetDisplayWindow+0x10>)
200027e4:	6824      	ldr	r4, [r4, #0]
200027e6:	69e4      	ldr	r4, [r4, #28]
200027e8:	b104      	cbz	r4, 200027ec <SetDisplayWindow+0xc>
  {
    lcd_drv->SetDisplayWindow(Xpos, Ypos, Width, Height);
200027ea:	47a0      	blx	r4
200027ec:	bd10      	pop	{r4, pc}
200027ee:	bf00      	nop
200027f0:	2001806c 	.word	0x2001806c

200027f4 <BSP_LCD_GetXSize>:
{
200027f4:	b508      	push	{r3, lr}
  return(lcd_drv->GetLcdPixelWidth());
200027f6:	4b02      	ldr	r3, [pc, #8]	; (20002800 <BSP_LCD_GetXSize+0xc>)
200027f8:	681b      	ldr	r3, [r3, #0]
200027fa:	6a9b      	ldr	r3, [r3, #40]	; 0x28
200027fc:	4798      	blx	r3
}
200027fe:	bd08      	pop	{r3, pc}
20002800:	2001806c 	.word	0x2001806c

20002804 <BSP_LCD_GetYSize>:
{
20002804:	b508      	push	{r3, lr}
  return(lcd_drv->GetLcdPixelHeight());
20002806:	4b02      	ldr	r3, [pc, #8]	; (20002810 <BSP_LCD_GetYSize+0xc>)
20002808:	681b      	ldr	r3, [r3, #0]
2000280a:	6adb      	ldr	r3, [r3, #44]	; 0x2c
2000280c:	4798      	blx	r3
}
2000280e:	bd08      	pop	{r3, pc}
20002810:	2001806c 	.word	0x2001806c

20002814 <BSP_LCD_SetTextColor>:
  DrawProp.TextColor = Color;
20002814:	4b01      	ldr	r3, [pc, #4]	; (2000281c <BSP_LCD_SetTextColor+0x8>)
20002816:	6018      	str	r0, [r3, #0]
20002818:	4770      	bx	lr
2000281a:	bf00      	nop
2000281c:	2001b354 	.word	0x2001b354

20002820 <BSP_LCD_SetBackColor>:
  DrawProp.BackColor = Color;
20002820:	4b01      	ldr	r3, [pc, #4]	; (20002828 <BSP_LCD_SetBackColor+0x8>)
20002822:	6058      	str	r0, [r3, #4]
20002824:	4770      	bx	lr
20002826:	bf00      	nop
20002828:	2001b354 	.word	0x2001b354

2000282c <BSP_LCD_SetFont>:
  DrawProp.pFont = pFonts;
2000282c:	4b01      	ldr	r3, [pc, #4]	; (20002834 <BSP_LCD_SetFont+0x8>)
2000282e:	6098      	str	r0, [r3, #8]
20002830:	4770      	bx	lr
20002832:	bf00      	nop
20002834:	2001b354 	.word	0x2001b354

20002838 <BSP_LCD_GetFont>:
}
20002838:	4b01      	ldr	r3, [pc, #4]	; (20002840 <BSP_LCD_GetFont+0x8>)
2000283a:	6898      	ldr	r0, [r3, #8]
2000283c:	4770      	bx	lr
2000283e:	bf00      	nop
20002840:	2001b354 	.word	0x2001b354

20002844 <BSP_LCD_Clear>:
{
20002844:	b570      	push	{r4, r5, r6, lr}
20002846:	b082      	sub	sp, #8
20002848:	4606      	mov	r6, r0
  lcd_drv->FillRect(0, 0, BSP_LCD_GetXSize(), BSP_LCD_GetYSize(), Color);
2000284a:	4b08      	ldr	r3, [pc, #32]	; (2000286c <BSP_LCD_Clear+0x28>)
2000284c:	681b      	ldr	r3, [r3, #0]
2000284e:	6b9c      	ldr	r4, [r3, #56]	; 0x38
20002850:	f7ff ffd0 	bl	200027f4 <BSP_LCD_GetXSize>
20002854:	4605      	mov	r5, r0
20002856:	f7ff ffd5 	bl	20002804 <BSP_LCD_GetYSize>
2000285a:	9600      	str	r6, [sp, #0]
2000285c:	4603      	mov	r3, r0
2000285e:	462a      	mov	r2, r5
20002860:	2100      	movs	r1, #0
20002862:	4608      	mov	r0, r1
20002864:	47a0      	blx	r4
}
20002866:	b002      	add	sp, #8
20002868:	bd70      	pop	{r4, r5, r6, pc}
2000286a:	bf00      	nop
2000286c:	2001806c 	.word	0x2001806c

20002870 <BSP_LCD_Init>:
{ 
20002870:	b510      	push	{r4, lr}
  DrawProp.BackColor = 0xFFFF;
20002872:	4b0a      	ldr	r3, [pc, #40]	; (2000289c <BSP_LCD_Init+0x2c>)
20002874:	f64f 72ff 	movw	r2, #65535	; 0xffff
20002878:	605a      	str	r2, [r3, #4]
  DrawProp.pFont     = &Font24;
2000287a:	4a09      	ldr	r2, [pc, #36]	; (200028a0 <BSP_LCD_Init+0x30>)
2000287c:	609a      	str	r2, [r3, #8]
  DrawProp.TextColor = 0x0000;
2000287e:	2400      	movs	r4, #0
20002880:	601c      	str	r4, [r3, #0]
  lcd_drv->Init();
20002882:	4b08      	ldr	r3, [pc, #32]	; (200028a4 <BSP_LCD_Init+0x34>)
20002884:	681b      	ldr	r3, [r3, #0]
20002886:	681b      	ldr	r3, [r3, #0]
20002888:	4798      	blx	r3
  BSP_LCD_Clear(0x5AA5 /*LCD_COLOR_WHITE*/);
2000288a:	f645 20a5 	movw	r0, #23205	; 0x5aa5
2000288e:	f7ff ffd9 	bl	20002844 <BSP_LCD_Clear>
  BSP_LCD_SetFont(&LCD_DEFAULT_FONT);
20002892:	4805      	ldr	r0, [pc, #20]	; (200028a8 <BSP_LCD_Init+0x38>)
20002894:	f7ff ffca 	bl	2000282c <BSP_LCD_SetFont>
}
20002898:	4620      	mov	r0, r4
2000289a:	bd10      	pop	{r4, pc}
2000289c:	2001b354 	.word	0x2001b354
200028a0:	2001801c 	.word	0x2001801c
200028a4:	2001806c 	.word	0x2001806c
200028a8:	20018024 	.word	0x20018024

200028ac <BSP_LCD_DrawPixel>:
{
200028ac:	b508      	push	{r3, lr}
  if(lcd_drv->WritePixel != NULL)
200028ae:	4b03      	ldr	r3, [pc, #12]	; (200028bc <BSP_LCD_DrawPixel+0x10>)
200028b0:	681b      	ldr	r3, [r3, #0]
200028b2:	695b      	ldr	r3, [r3, #20]
200028b4:	b103      	cbz	r3, 200028b8 <BSP_LCD_DrawPixel+0xc>
    lcd_drv->WritePixel(Xpos, Ypos, RGB_Code);
200028b6:	4798      	blx	r3
200028b8:	bd08      	pop	{r3, pc}
200028ba:	bf00      	nop
200028bc:	2001806c 	.word	0x2001806c

200028c0 <BSP_LCD_DrawHLine>:
{
200028c0:	b5f8      	push	{r3, r4, r5, r6, r7, lr}
200028c2:	4606      	mov	r6, r0
200028c4:	460f      	mov	r7, r1
200028c6:	4615      	mov	r5, r2
  if(lcd_drv->DrawHLine != NULL)
200028c8:	4b0b      	ldr	r3, [pc, #44]	; (200028f8 <BSP_LCD_DrawHLine+0x38>)
200028ca:	681b      	ldr	r3, [r3, #0]
200028cc:	6a1c      	ldr	r4, [r3, #32]
200028ce:	b18c      	cbz	r4, 200028f4 <BSP_LCD_DrawHLine+0x34>
    lcd_drv->DrawHLine(DrawProp.TextColor, Xpos, Ypos, Length);
200028d0:	4613      	mov	r3, r2
200028d2:	460a      	mov	r2, r1
200028d4:	4601      	mov	r1, r0
200028d6:	4809      	ldr	r0, [pc, #36]	; (200028fc <BSP_LCD_DrawHLine+0x3c>)
200028d8:	8800      	ldrh	r0, [r0, #0]
200028da:	47a0      	blx	r4
200028dc:	bdf8      	pop	{r3, r4, r5, r6, r7, pc}
      BSP_LCD_DrawPixel((Xpos + index), Ypos, DrawProp.TextColor);
200028de:	1930      	adds	r0, r6, r4
200028e0:	4b06      	ldr	r3, [pc, #24]	; (200028fc <BSP_LCD_DrawHLine+0x3c>)
200028e2:	881a      	ldrh	r2, [r3, #0]
200028e4:	4639      	mov	r1, r7
200028e6:	b280      	uxth	r0, r0
200028e8:	f7ff ffe0 	bl	200028ac <BSP_LCD_DrawPixel>
    for(index = 0; index < Length; index++)
200028ec:	3401      	adds	r4, #1
200028ee:	42ac      	cmp	r4, r5
200028f0:	d3f5      	bcc.n	200028de <BSP_LCD_DrawHLine+0x1e>
200028f2:	bdf8      	pop	{r3, r4, r5, r6, r7, pc}
200028f4:	2400      	movs	r4, #0
200028f6:	e7fa      	b.n	200028ee <BSP_LCD_DrawHLine+0x2e>
200028f8:	2001806c 	.word	0x2001806c
200028fc:	2001b354 	.word	0x2001b354

20002900 <BSP_LCD_DrawVLine>:
{
20002900:	b5f8      	push	{r3, r4, r5, r6, r7, lr}
20002902:	4606      	mov	r6, r0
20002904:	460f      	mov	r7, r1
20002906:	4615      	mov	r5, r2
  if(lcd_drv->DrawVLine != NULL)
20002908:	4b0b      	ldr	r3, [pc, #44]	; (20002938 <BSP_LCD_DrawVLine+0x38>)
2000290a:	681b      	ldr	r3, [r3, #0]
2000290c:	6a5c      	ldr	r4, [r3, #36]	; 0x24
2000290e:	b18c      	cbz	r4, 20002934 <BSP_LCD_DrawVLine+0x34>
    lcd_drv->DrawVLine(DrawProp.TextColor, Xpos, Ypos, Length);
20002910:	4613      	mov	r3, r2
20002912:	460a      	mov	r2, r1
20002914:	4601      	mov	r1, r0
20002916:	4809      	ldr	r0, [pc, #36]	; (2000293c <BSP_LCD_DrawVLine+0x3c>)
20002918:	8800      	ldrh	r0, [r0, #0]
2000291a:	47a0      	blx	r4
2000291c:	bdf8      	pop	{r3, r4, r5, r6, r7, pc}
      BSP_LCD_DrawPixel(Xpos, Ypos + index, DrawProp.TextColor);
2000291e:	1939      	adds	r1, r7, r4
20002920:	4b06      	ldr	r3, [pc, #24]	; (2000293c <BSP_LCD_DrawVLine+0x3c>)
20002922:	881a      	ldrh	r2, [r3, #0]
20002924:	b289      	uxth	r1, r1
20002926:	4630      	mov	r0, r6
20002928:	f7ff ffc0 	bl	200028ac <BSP_LCD_DrawPixel>
    for(index = 0; index < Length; index++)
2000292c:	3401      	adds	r4, #1
2000292e:	42ac      	cmp	r4, r5
20002930:	d3f5      	bcc.n	2000291e <BSP_LCD_DrawVLine+0x1e>
20002932:	bdf8      	pop	{r3, r4, r5, r6, r7, pc}
20002934:	2400      	movs	r4, #0
20002936:	e7fa      	b.n	2000292e <BSP_LCD_DrawVLine+0x2e>
20002938:	2001806c 	.word	0x2001806c
2000293c:	2001b354 	.word	0x2001b354

20002940 <BSP_LCD_DrawLine>:
{
20002940:	e92d 4ff0 	stmdb	sp!, {r4, r5, r6, r7, r8, r9, sl, fp, lr}
20002944:	b085      	sub	sp, #20
  deltax = ABS(x2 - x1);        /* The difference between the x's */
20002946:	eba2 0a00 	sub.w	sl, r2, r0
2000294a:	f1ba 0f00 	cmp.w	sl, #0
2000294e:	bfb8      	it	lt
20002950:	f1ca 0a00 	rsblt	sl, sl, #0
20002954:	fa0f fa8a 	sxth.w	sl, sl
  deltay = ABS(y2 - y1);        /* The difference between the y's */
20002958:	eba3 0b01 	sub.w	fp, r3, r1
2000295c:	f1bb 0f00 	cmp.w	fp, #0
20002960:	bfb8      	it	lt
20002962:	f1cb 0b00 	rsblt	fp, fp, #0
20002966:	fa0f fb8b 	sxth.w	fp, fp
  x = x1;                       /* Start x off at the first pixel */
2000296a:	b205      	sxth	r5, r0
  y = y1;                       /* Start y off at the first pixel */
2000296c:	b20f      	sxth	r7, r1
  if (x2 >= x1)                 /* The x-values are increasing */
2000296e:	4282      	cmp	r2, r0
20002970:	d313      	bcc.n	2000299a <BSP_LCD_DrawLine+0x5a>
    xinc1 = 1;
20002972:	2201      	movs	r2, #1
20002974:	9202      	str	r2, [sp, #8]
  if (y2 >= y1)                 /* The y-values are increasing */
20002976:	428b      	cmp	r3, r1
20002978:	d313      	bcc.n	200029a2 <BSP_LCD_DrawLine+0x62>
    yinc1 = 1;
2000297a:	2301      	movs	r3, #1
2000297c:	9303      	str	r3, [sp, #12]
  if (deltax >= deltay)         /* There is at least one x-value for every y-value */
2000297e:	45da      	cmp	sl, fp
20002980:	db13      	blt.n	200029aa <BSP_LCD_DrawLine+0x6a>
    num = deltax / 2;
20002982:	eb0a 74da 	add.w	r4, sl, sl, lsr #31
20002986:	f344 044f 	sbfx	r4, r4, #1, #16
2000298a:	9b02      	ldr	r3, [sp, #8]
2000298c:	9300      	str	r3, [sp, #0]
    yinc2 = 0;                  /* Don't change the y for every iteration */
2000298e:	2300      	movs	r3, #0
20002990:	9302      	str	r3, [sp, #8]
    xinc1 = 0;                  /* Don't change the x when numerator >= denominator */
20002992:	9301      	str	r3, [sp, #4]
  for (curpixel = 0; curpixel <= numpixels; curpixel++)
20002994:	f04f 0900 	mov.w	r9, #0
20002998:	e01e      	b.n	200029d8 <BSP_LCD_DrawLine+0x98>
    xinc1 = -1;
2000299a:	f04f 32ff 	mov.w	r2, #4294967295
2000299e:	9202      	str	r2, [sp, #8]
200029a0:	e7e9      	b.n	20002976 <BSP_LCD_DrawLine+0x36>
    yinc1 = -1;
200029a2:	f04f 33ff 	mov.w	r3, #4294967295
200029a6:	9303      	str	r3, [sp, #12]
200029a8:	e7e9      	b.n	2000297e <BSP_LCD_DrawLine+0x3e>
    num = deltay / 2;
200029aa:	eb0b 74db 	add.w	r4, fp, fp, lsr #31
200029ae:	f344 044f 	sbfx	r4, r4, #1, #16
200029b2:	4653      	mov	r3, sl
    den = deltay;
200029b4:	46da      	mov	sl, fp
    numadd = deltax;
200029b6:	469b      	mov	fp, r3
    num = deltay / 2;
200029b8:	9b03      	ldr	r3, [sp, #12]
200029ba:	9301      	str	r3, [sp, #4]
    yinc1 = 0;                  /* Don't change the y when numerator >= denominator */
200029bc:	2300      	movs	r3, #0
200029be:	9303      	str	r3, [sp, #12]
    xinc2 = 0;                  /* Don't change the x for every iteration */
200029c0:	9300      	str	r3, [sp, #0]
200029c2:	e7e7      	b.n	20002994 <BSP_LCD_DrawLine+0x54>
    x += xinc2;                               /* Change the x as appropriate */
200029c4:	9b00      	ldr	r3, [sp, #0]
200029c6:	441d      	add	r5, r3
200029c8:	b22d      	sxth	r5, r5
    y += yinc2;                               /* Change the y as appropriate */
200029ca:	9b01      	ldr	r3, [sp, #4]
200029cc:	441f      	add	r7, r3
200029ce:	b23f      	sxth	r7, r7
  for (curpixel = 0; curpixel <= numpixels; curpixel++)
200029d0:	f109 0901 	add.w	r9, r9, #1
200029d4:	fa0f f989 	sxth.w	r9, r9
200029d8:	45ca      	cmp	sl, r9
200029da:	db18      	blt.n	20002a0e <BSP_LCD_DrawLine+0xce>
    BSP_LCD_DrawPixel(x, y, DrawProp.TextColor);  /* Draw the current pixel */
200029dc:	fa1f f885 	uxth.w	r8, r5
200029e0:	b2be      	uxth	r6, r7
200029e2:	4b0c      	ldr	r3, [pc, #48]	; (20002a14 <BSP_LCD_DrawLine+0xd4>)
200029e4:	881a      	ldrh	r2, [r3, #0]
200029e6:	4631      	mov	r1, r6
200029e8:	4640      	mov	r0, r8
200029ea:	f7ff ff5f 	bl	200028ac <BSP_LCD_DrawPixel>
    num += numadd;                            /* Increase the numerator by the top of the fraction */
200029ee:	445c      	add	r4, fp
200029f0:	b2a3      	uxth	r3, r4
200029f2:	b21c      	sxth	r4, r3
    if (num >= den)                           /* Check if numerator >= denominator */
200029f4:	45a2      	cmp	sl, r4
200029f6:	dce5      	bgt.n	200029c4 <BSP_LCD_DrawLine+0x84>
      num -= den;                             /* Calculate the new numerator value */
200029f8:	eba3 040a 	sub.w	r4, r3, sl
200029fc:	b224      	sxth	r4, r4
      x += xinc1;                             /* Change the x as appropriate */
200029fe:	9b02      	ldr	r3, [sp, #8]
20002a00:	eb08 0503 	add.w	r5, r8, r3
20002a04:	b22d      	sxth	r5, r5
      y += yinc1;                             /* Change the y as appropriate */
20002a06:	9b03      	ldr	r3, [sp, #12]
20002a08:	18f7      	adds	r7, r6, r3
20002a0a:	b23f      	sxth	r7, r7
20002a0c:	e7da      	b.n	200029c4 <BSP_LCD_DrawLine+0x84>
}
20002a0e:	b005      	add	sp, #20
20002a10:	e8bd 8ff0 	ldmia.w	sp!, {r4, r5, r6, r7, r8, r9, sl, fp, pc}
20002a14:	2001b354 	.word	0x2001b354

20002a18 <BSP_LCD_DrawCircle>:
{
20002a18:	e92d 4ff0 	stmdb	sp!, {r4, r5, r6, r7, r8, r9, sl, fp, lr}
20002a1c:	b087      	sub	sp, #28
20002a1e:	4682      	mov	sl, r0
20002a20:	468b      	mov	fp, r1
  D = 3 - (Radius << 1);
20002a22:	0053      	lsls	r3, r2, #1
20002a24:	f1c3 0303 	rsb	r3, r3, #3
20002a28:	9301      	str	r3, [sp, #4]
  CurY = Radius;
20002a2a:	4691      	mov	r9, r2
  CurX = 0;
20002a2c:	f04f 0800 	mov.w	r8, #0
  while (CurX <= CurY)
20002a30:	e005      	b.n	20002a3e <BSP_LCD_DrawCircle+0x26>
      D += (CurX << 2) + 6;
20002a32:	eb03 0388 	add.w	r3, r3, r8, lsl #2
20002a36:	3306      	adds	r3, #6
20002a38:	9301      	str	r3, [sp, #4]
    CurX++;
20002a3a:	f108 0801 	add.w	r8, r8, #1
  while (CurX <= CurY)
20002a3e:	45c8      	cmp	r8, r9
20002a40:	d853      	bhi.n	20002aea <BSP_LCD_DrawCircle+0xd2>
    BSP_LCD_DrawPixel((Xpos + CurX), (Ypos - CurY), DrawProp.TextColor);
20002a42:	fa1f f488 	uxth.w	r4, r8
20002a46:	eb04 030a 	add.w	r3, r4, sl
20002a4a:	b29b      	uxth	r3, r3
20002a4c:	fa1f f589 	uxth.w	r5, r9
20002a50:	ebab 0705 	sub.w	r7, fp, r5
20002a54:	b2bf      	uxth	r7, r7
20002a56:	4e26      	ldr	r6, [pc, #152]	; (20002af0 <BSP_LCD_DrawCircle+0xd8>)
20002a58:	8832      	ldrh	r2, [r6, #0]
20002a5a:	4639      	mov	r1, r7
20002a5c:	9302      	str	r3, [sp, #8]
20002a5e:	4618      	mov	r0, r3
20002a60:	f7ff ff24 	bl	200028ac <BSP_LCD_DrawPixel>
    BSP_LCD_DrawPixel((Xpos - CurX), (Ypos - CurY), DrawProp.TextColor);
20002a64:	ebaa 0304 	sub.w	r3, sl, r4
20002a68:	b29a      	uxth	r2, r3
20002a6a:	4610      	mov	r0, r2
20002a6c:	8832      	ldrh	r2, [r6, #0]
20002a6e:	4639      	mov	r1, r7
20002a70:	9003      	str	r0, [sp, #12]
20002a72:	f7ff ff1b 	bl	200028ac <BSP_LCD_DrawPixel>
    BSP_LCD_DrawPixel((Xpos + CurY), (Ypos - CurX), DrawProp.TextColor);
20002a76:	eb0a 0305 	add.w	r3, sl, r5
20002a7a:	b299      	uxth	r1, r3
20002a7c:	460f      	mov	r7, r1
20002a7e:	ebab 0304 	sub.w	r3, fp, r4
20002a82:	b299      	uxth	r1, r3
20002a84:	8832      	ldrh	r2, [r6, #0]
20002a86:	9105      	str	r1, [sp, #20]
20002a88:	9704      	str	r7, [sp, #16]
20002a8a:	4638      	mov	r0, r7
20002a8c:	f7ff ff0e 	bl	200028ac <BSP_LCD_DrawPixel>
    BSP_LCD_DrawPixel((Xpos - CurY), (Ypos - CurX), DrawProp.TextColor);
20002a90:	ebaa 0705 	sub.w	r7, sl, r5
20002a94:	b2bf      	uxth	r7, r7
20002a96:	8832      	ldrh	r2, [r6, #0]
20002a98:	9905      	ldr	r1, [sp, #20]
20002a9a:	4638      	mov	r0, r7
20002a9c:	f7ff ff06 	bl	200028ac <BSP_LCD_DrawPixel>
    BSP_LCD_DrawPixel((Xpos + CurX), (Ypos + CurY), DrawProp.TextColor);
20002aa0:	445d      	add	r5, fp
20002aa2:	b2ad      	uxth	r5, r5
20002aa4:	8832      	ldrh	r2, [r6, #0]
20002aa6:	4629      	mov	r1, r5
20002aa8:	9802      	ldr	r0, [sp, #8]
20002aaa:	f7ff feff 	bl	200028ac <BSP_LCD_DrawPixel>
    BSP_LCD_DrawPixel((Xpos - CurX), (Ypos + CurY), DrawProp.TextColor);
20002aae:	8832      	ldrh	r2, [r6, #0]
20002ab0:	4629      	mov	r1, r5
20002ab2:	9803      	ldr	r0, [sp, #12]
20002ab4:	f7ff fefa 	bl	200028ac <BSP_LCD_DrawPixel>
    BSP_LCD_DrawPixel((Xpos + CurY), (Ypos + CurX), DrawProp.TextColor);
20002ab8:	445c      	add	r4, fp
20002aba:	b2a4      	uxth	r4, r4
20002abc:	8832      	ldrh	r2, [r6, #0]
20002abe:	4621      	mov	r1, r4
20002ac0:	9804      	ldr	r0, [sp, #16]
20002ac2:	f7ff fef3 	bl	200028ac <BSP_LCD_DrawPixel>
    BSP_LCD_DrawPixel((Xpos - CurY), (Ypos + CurX), DrawProp.TextColor);   
20002ac6:	8832      	ldrh	r2, [r6, #0]
20002ac8:	4621      	mov	r1, r4
20002aca:	4638      	mov	r0, r7
20002acc:	f7ff feee 	bl	200028ac <BSP_LCD_DrawPixel>
    if (D < 0)
20002ad0:	9b01      	ldr	r3, [sp, #4]
20002ad2:	2b00      	cmp	r3, #0
20002ad4:	dbad      	blt.n	20002a32 <BSP_LCD_DrawCircle+0x1a>
      D += ((CurX - CurY) << 2) + 10;
20002ad6:	eba8 0309 	sub.w	r3, r8, r9
20002ada:	9a01      	ldr	r2, [sp, #4]
20002adc:	eb02 0383 	add.w	r3, r2, r3, lsl #2
20002ae0:	330a      	adds	r3, #10
20002ae2:	9301      	str	r3, [sp, #4]
      CurY--;
20002ae4:	f109 39ff 	add.w	r9, r9, #4294967295
20002ae8:	e7a7      	b.n	20002a3a <BSP_LCD_DrawCircle+0x22>
}
20002aea:	b007      	add	sp, #28
20002aec:	e8bd 8ff0 	ldmia.w	sp!, {r4, r5, r6, r7, r8, r9, sl, fp, pc}
20002af0:	2001b354 	.word	0x2001b354

20002af4 <BSP_LCD_DrawBitmap>:
{
20002af4:	b5f8      	push	{r3, r4, r5, r6, r7, lr}
20002af6:	4605      	mov	r5, r0
20002af8:	460e      	mov	r6, r1
20002afa:	4614      	mov	r4, r2
  width = pBmp[18] + (pBmp[19] << 8) + (pBmp[20] << 16)  + (pBmp[21] << 24);
20002afc:	7c92      	ldrb	r2, [r2, #18]
20002afe:	7ce3      	ldrb	r3, [r4, #19]
20002b00:	eb02 2203 	add.w	r2, r2, r3, lsl #8
  height = pBmp[22] + (pBmp[23] << 8) + (pBmp[24] << 16)  + (pBmp[25] << 24);
20002b04:	7da3      	ldrb	r3, [r4, #22]
20002b06:	7de7      	ldrb	r7, [r4, #23]
20002b08:	eb03 2307 	add.w	r3, r3, r7, lsl #8
  SetDisplayWindow(Xpos, Ypos, width, height);
20002b0c:	b29b      	uxth	r3, r3
20002b0e:	b292      	uxth	r2, r2
20002b10:	f7ff fe66 	bl	200027e0 <SetDisplayWindow>
  if(lcd_drv->DrawBitmap != NULL)
20002b14:	4b09      	ldr	r3, [pc, #36]	; (20002b3c <BSP_LCD_DrawBitmap+0x48>)
20002b16:	681b      	ldr	r3, [r3, #0]
20002b18:	6b1b      	ldr	r3, [r3, #48]	; 0x30
20002b1a:	b11b      	cbz	r3, 20002b24 <BSP_LCD_DrawBitmap+0x30>
    lcd_drv->DrawBitmap(Xpos, Ypos, pBmp);
20002b1c:	4622      	mov	r2, r4
20002b1e:	4631      	mov	r1, r6
20002b20:	4628      	mov	r0, r5
20002b22:	4798      	blx	r3
  SetDisplayWindow(0, 0, BSP_LCD_GetXSize(), BSP_LCD_GetYSize());
20002b24:	f7ff fe66 	bl	200027f4 <BSP_LCD_GetXSize>
20002b28:	4604      	mov	r4, r0
20002b2a:	f7ff fe6b 	bl	20002804 <BSP_LCD_GetYSize>
20002b2e:	4603      	mov	r3, r0
20002b30:	4622      	mov	r2, r4
20002b32:	2100      	movs	r1, #0
20002b34:	4608      	mov	r0, r1
20002b36:	f7ff fe53 	bl	200027e0 <SetDisplayWindow>
20002b3a:	bdf8      	pop	{r3, r4, r5, r6, r7, pc}
20002b3c:	2001806c 	.word	0x2001806c

20002b40 <DrawChar>:
{
20002b40:	e92d 4ff0 	stmdb	sp!, {r4, r5, r6, r7, r8, r9, sl, fp, lr}
20002b44:	b083      	sub	sp, #12
20002b46:	9000      	str	r0, [sp, #0]
20002b48:	9101      	str	r1, [sp, #4]
  height = DrawProp.pFont->Height;
20002b4a:	4b40      	ldr	r3, [pc, #256]	; (20002c4c <DrawChar+0x10c>)
20002b4c:	689b      	ldr	r3, [r3, #8]
20002b4e:	f8b3 a006 	ldrh.w	sl, [r3, #6]
  width  = DrawProp.pFont->Width;
20002b52:	f8b3 9004 	ldrh.w	r9, [r3, #4]
  *(uint16_t *) (bitmap + 2) = (uint16_t)(height*width*2+OFFSET_BITMAP);
20002b56:	fb1a f109 	smulbb	r1, sl, r9
20002b5a:	311b      	adds	r1, #27
20002b5c:	0049      	lsls	r1, r1, #1
20002b5e:	4b3c      	ldr	r3, [pc, #240]	; (20002c50 <DrawChar+0x110>)
20002b60:	8059      	strh	r1, [r3, #2]
  *(uint16_t *) (bitmap + 4) = (uint16_t)((height*width*2+OFFSET_BITMAP)>>16);
20002b62:	fb09 f10a 	mul.w	r1, r9, sl
20002b66:	311b      	adds	r1, #27
20002b68:	f3c1 31cf 	ubfx	r1, r1, #15, #16
20002b6c:	8099      	strh	r1, [r3, #4]
  *(uint16_t *) (bitmap + 10) = OFFSET_BITMAP;
20002b6e:	2136      	movs	r1, #54	; 0x36
20002b70:	8159      	strh	r1, [r3, #10]
  *(uint16_t *) (bitmap + 18) = (uint16_t)(width);
20002b72:	f8a3 9012 	strh.w	r9, [r3, #18]
  *(uint16_t *) (bitmap + 20) = (uint16_t)((width)>>16);
20002b76:	2100      	movs	r1, #0
20002b78:	8299      	strh	r1, [r3, #20]
  *(uint16_t *) (bitmap + 22) = (uint16_t)(height);
20002b7a:	f8a3 a016 	strh.w	sl, [r3, #22]
  *(uint16_t *) (bitmap + 24) = (uint16_t)((height)>>16);
20002b7e:	8319      	strh	r1, [r3, #24]
  offset =  8 *((width + 7)/8) - width ;
20002b80:	f109 0b07 	add.w	fp, r9, #7
20002b84:	ea4f 0beb 	mov.w	fp, fp, asr #3
20002b88:	ea4f 08cb 	mov.w	r8, fp, lsl #3
20002b8c:	fa5f f888 	uxtb.w	r8, r8
20002b90:	fa5f f389 	uxtb.w	r3, r9
20002b94:	eba8 0803 	sub.w	r8, r8, r3
20002b98:	fa5f f888 	uxtb.w	r8, r8
  uint32_t line = 0;
20002b9c:	460f      	mov	r7, r1
  for(counterh = 0; counterh < height; counterh++)
20002b9e:	468e      	mov	lr, r1
20002ba0:	e02b      	b.n	20002bfa <DrawChar+0xba>
        bitmap[index] = (uint8_t)DrawProp.BackColor;
20002ba2:	492a      	ldr	r1, [pc, #168]	; (20002c4c <DrawChar+0x10c>)
20002ba4:	6849      	ldr	r1, [r1, #4]
20002ba6:	f8df c0a8 	ldr.w	ip, [pc, #168]	; 20002c50 <DrawChar+0x110>
20002baa:	f80c 1013 	strb.w	r1, [ip, r3, lsl #1]
        bitmap[index+1] = (uint8_t)(DrawProp.BackColor >> 8);
20002bae:	3401      	adds	r4, #1
20002bb0:	f3c1 2107 	ubfx	r1, r1, #8, #8
20002bb4:	f80c 1004 	strb.w	r1, [ip, r4]
    for (counterw = 0; counterw < width; counterw++)
20002bb8:	3001      	adds	r0, #1
20002bba:	42a8      	cmp	r0, r5
20002bbc:	d21b      	bcs.n	20002bf6 <DrawChar+0xb6>
      index = (((height-counterh-1)*width)+(counterw))*2+OFFSET_BITMAP;
20002bbe:	eba6 030e 	sub.w	r3, r6, lr
20002bc2:	3b01      	subs	r3, #1
20002bc4:	fb03 0305 	mla	r3, r3, r5, r0
20002bc8:	331b      	adds	r3, #27
20002bca:	005c      	lsls	r4, r3, #1
      if(line & (1 << (width- counterw + offset- 1))) 
20002bcc:	1a29      	subs	r1, r5, r0
20002bce:	4441      	add	r1, r8
20002bd0:	3901      	subs	r1, #1
20002bd2:	f04f 0c01 	mov.w	ip, #1
20002bd6:	fa0c f101 	lsl.w	r1, ip, r1
20002bda:	420f      	tst	r7, r1
20002bdc:	d0e1      	beq.n	20002ba2 <DrawChar+0x62>
        bitmap[index] = (uint8_t)DrawProp.TextColor;
20002bde:	491b      	ldr	r1, [pc, #108]	; (20002c4c <DrawChar+0x10c>)
20002be0:	6809      	ldr	r1, [r1, #0]
20002be2:	f8df c06c 	ldr.w	ip, [pc, #108]	; 20002c50 <DrawChar+0x110>
20002be6:	f80c 1013 	strb.w	r1, [ip, r3, lsl #1]
        bitmap[index+1] = (uint8_t)(DrawProp.TextColor >> 8);
20002bea:	3401      	adds	r4, #1
20002bec:	f3c1 2107 	ubfx	r1, r1, #8, #8
20002bf0:	f80c 1004 	strb.w	r1, [ip, r4]
20002bf4:	e7e0      	b.n	20002bb8 <DrawChar+0x78>
  for(counterh = 0; counterh < height; counterh++)
20002bf6:	f10e 0e01 	add.w	lr, lr, #1
20002bfa:	4656      	mov	r6, sl
20002bfc:	45d6      	cmp	lr, sl
20002bfe:	d21d      	bcs.n	20002c3c <DrawChar+0xfc>
    pchar = ((uint8_t *)pChar + (width + 7)/8 * counterh);
20002c00:	fb0b f30e 	mul.w	r3, fp, lr
20002c04:	18d1      	adds	r1, r2, r3
    if(((width + 7)/8) == 3)
20002c06:	464d      	mov	r5, r9
20002c08:	f1a9 0011 	sub.w	r0, r9, #17
20002c0c:	2807      	cmp	r0, #7
20002c0e:	d806      	bhi.n	20002c1e <DrawChar+0xde>
      line =  (pchar[0]<< 16) | (pchar[1]<< 8) | pchar[2];
20002c10:	5cd0      	ldrb	r0, [r2, r3]
20002c12:	784f      	ldrb	r7, [r1, #1]
20002c14:	023f      	lsls	r7, r7, #8
20002c16:	ea47 4700 	orr.w	r7, r7, r0, lsl #16
20002c1a:	7888      	ldrb	r0, [r1, #2]
20002c1c:	4307      	orrs	r7, r0
    if(((width + 7)/8) == 2)
20002c1e:	f1a9 0009 	sub.w	r0, r9, #9
20002c22:	2807      	cmp	r0, #7
20002c24:	d803      	bhi.n	20002c2e <DrawChar+0xee>
      line =  (pchar[0]<< 8) | pchar[1];
20002c26:	5cd0      	ldrb	r0, [r2, r3]
20002c28:	784f      	ldrb	r7, [r1, #1]
20002c2a:	ea47 2700 	orr.w	r7, r7, r0, lsl #8
    if(((width + 7)/8) == 1)
20002c2e:	f109 31ff 	add.w	r1, r9, #4294967295
20002c32:	2907      	cmp	r1, #7
20002c34:	d800      	bhi.n	20002c38 <DrawChar+0xf8>
      line =  pchar[0];
20002c36:	5cd7      	ldrb	r7, [r2, r3]
    for (counterw = 0; counterw < width; counterw++)
20002c38:	2000      	movs	r0, #0
20002c3a:	e7be      	b.n	20002bba <DrawChar+0x7a>
  BSP_LCD_DrawBitmap(Xpos, Ypos, bitmap);
20002c3c:	4a04      	ldr	r2, [pc, #16]	; (20002c50 <DrawChar+0x110>)
20002c3e:	9901      	ldr	r1, [sp, #4]
20002c40:	9800      	ldr	r0, [sp, #0]
20002c42:	f7ff ff57 	bl	20002af4 <BSP_LCD_DrawBitmap>
}
20002c46:	b003      	add	sp, #12
20002c48:	e8bd 8ff0 	ldmia.w	sp!, {r4, r5, r6, r7, r8, r9, sl, fp, pc}
20002c4c:	2001b354 	.word	0x2001b354
20002c50:	200180f8 	.word	0x200180f8

20002c54 <BSP_LCD_DisplayChar>:
{
20002c54:	b538      	push	{r3, r4, r5, lr}
  DrawChar(Xpos, Ypos, &DrawProp.pFont->table[(Ascii-' ') *\
20002c56:	4b08      	ldr	r3, [pc, #32]	; (20002c78 <BSP_LCD_DisplayChar+0x24>)
20002c58:	689b      	ldr	r3, [r3, #8]
20002c5a:	681c      	ldr	r4, [r3, #0]
20002c5c:	f1a2 0520 	sub.w	r5, r2, #32
    DrawProp.pFont->Height * ((DrawProp.pFont->Width + 7) / 8)]);
20002c60:	88da      	ldrh	r2, [r3, #6]
  DrawChar(Xpos, Ypos, &DrawProp.pFont->table[(Ascii-' ') *\
20002c62:	fb02 f205 	mul.w	r2, r2, r5
    DrawProp.pFont->Height * ((DrawProp.pFont->Width + 7) / 8)]);
20002c66:	889b      	ldrh	r3, [r3, #4]
20002c68:	3307      	adds	r3, #7
20002c6a:	10db      	asrs	r3, r3, #3
  DrawChar(Xpos, Ypos, &DrawProp.pFont->table[(Ascii-' ') *\
20002c6c:	fb03 4202 	mla	r2, r3, r2, r4
20002c70:	f7ff ff66 	bl	20002b40 <DrawChar>
20002c74:	bd38      	pop	{r3, r4, r5, pc}
20002c76:	bf00      	nop
20002c78:	2001b354 	.word	0x2001b354

20002c7c <BSP_LCD_FillRect>:
{
20002c7c:	b530      	push	{r4, r5, lr}
20002c7e:	b083      	sub	sp, #12
  lcd_drv->FillRect(Xpos, Ypos, Width, Height, DrawProp.TextColor);
20002c80:	4c04      	ldr	r4, [pc, #16]	; (20002c94 <BSP_LCD_FillRect+0x18>)
20002c82:	6824      	ldr	r4, [r4, #0]
20002c84:	6ba4      	ldr	r4, [r4, #56]	; 0x38
20002c86:	4d04      	ldr	r5, [pc, #16]	; (20002c98 <BSP_LCD_FillRect+0x1c>)
20002c88:	882d      	ldrh	r5, [r5, #0]
20002c8a:	9500      	str	r5, [sp, #0]
20002c8c:	47a0      	blx	r4
}
20002c8e:	b003      	add	sp, #12
20002c90:	bd30      	pop	{r4, r5, pc}
20002c92:	bf00      	nop
20002c94:	2001806c 	.word	0x2001806c
20002c98:	2001b354 	.word	0x2001b354

20002c9c <BSP_LCD_FillCircle>:
{
20002c9c:	e92d 4ff0 	stmdb	sp!, {r4, r5, r6, r7, r8, r9, sl, fp, lr}
20002ca0:	b083      	sub	sp, #12
20002ca2:	4682      	mov	sl, r0
20002ca4:	4689      	mov	r9, r1
20002ca6:	9201      	str	r2, [sp, #4]
  D = 3 - (Radius << 1);
20002ca8:	0056      	lsls	r6, r2, #1
20002caa:	f1c6 0603 	rsb	r6, r6, #3
  CurY = Radius;
20002cae:	4615      	mov	r5, r2
  BSP_LCD_SetTextColor(DrawProp.TextColor);
20002cb0:	4b27      	ldr	r3, [pc, #156]	; (20002d50 <BSP_LCD_FillCircle+0xb4>)
20002cb2:	8818      	ldrh	r0, [r3, #0]
20002cb4:	f7ff fdae 	bl	20002814 <BSP_LCD_SetTextColor>
  CurX = 0;
20002cb8:	2400      	movs	r4, #0
  while (CurX <= CurY)
20002cba:	e01f      	b.n	20002cfc <BSP_LCD_FillCircle+0x60>
      BSP_LCD_DrawHLine(Xpos - CurY, Ypos + CurX, 2*CurY);
20002cbc:	b2af      	uxth	r7, r5
20002cbe:	ebaa 0b07 	sub.w	fp, sl, r7
20002cc2:	fa1f fb8b 	uxth.w	fp, fp
20002cc6:	fa1f f884 	uxth.w	r8, r4
20002cca:	007f      	lsls	r7, r7, #1
20002ccc:	b2bf      	uxth	r7, r7
20002cce:	eb08 0109 	add.w	r1, r8, r9
20002cd2:	463a      	mov	r2, r7
20002cd4:	b289      	uxth	r1, r1
20002cd6:	4658      	mov	r0, fp
20002cd8:	f7ff fdf2 	bl	200028c0 <BSP_LCD_DrawHLine>
      BSP_LCD_DrawHLine(Xpos - CurY, Ypos - CurX, 2*CurY);
20002cdc:	eba9 0108 	sub.w	r1, r9, r8
20002ce0:	463a      	mov	r2, r7
20002ce2:	b289      	uxth	r1, r1
20002ce4:	4658      	mov	r0, fp
20002ce6:	f7ff fdeb 	bl	200028c0 <BSP_LCD_DrawHLine>
20002cea:	e00b      	b.n	20002d04 <BSP_LCD_FillCircle+0x68>
    if (D < 0)
20002cec:	2e00      	cmp	r6, #0
20002cee:	db23      	blt.n	20002d38 <BSP_LCD_FillCircle+0x9c>
      D += ((CurX - CurY) << 2) + 10;
20002cf0:	1b63      	subs	r3, r4, r5
20002cf2:	eb06 0683 	add.w	r6, r6, r3, lsl #2
20002cf6:	360a      	adds	r6, #10
      CurY--;
20002cf8:	3d01      	subs	r5, #1
    CurX++;
20002cfa:	3401      	adds	r4, #1
  while (CurX <= CurY)
20002cfc:	42ac      	cmp	r4, r5
20002cfe:	d81f      	bhi.n	20002d40 <BSP_LCD_FillCircle+0xa4>
    if(CurY > 0) 
20002d00:	2d00      	cmp	r5, #0
20002d02:	d1db      	bne.n	20002cbc <BSP_LCD_FillCircle+0x20>
    if(CurX > 0) 
20002d04:	2c00      	cmp	r4, #0
20002d06:	d0f1      	beq.n	20002cec <BSP_LCD_FillCircle+0x50>
      BSP_LCD_DrawHLine(Xpos - CurX, Ypos - CurY, 2*CurX);
20002d08:	b2a7      	uxth	r7, r4
20002d0a:	ebaa 0b07 	sub.w	fp, sl, r7
20002d0e:	fa1f fb8b 	uxth.w	fp, fp
20002d12:	fa1f f885 	uxth.w	r8, r5
20002d16:	007f      	lsls	r7, r7, #1
20002d18:	b2bf      	uxth	r7, r7
20002d1a:	eba9 0108 	sub.w	r1, r9, r8
20002d1e:	463a      	mov	r2, r7
20002d20:	b289      	uxth	r1, r1
20002d22:	4658      	mov	r0, fp
20002d24:	f7ff fdcc 	bl	200028c0 <BSP_LCD_DrawHLine>
      BSP_LCD_DrawHLine(Xpos - CurX, Ypos + CurY, 2*CurX);
20002d28:	eb09 0108 	add.w	r1, r9, r8
20002d2c:	463a      	mov	r2, r7
20002d2e:	b289      	uxth	r1, r1
20002d30:	4658      	mov	r0, fp
20002d32:	f7ff fdc5 	bl	200028c0 <BSP_LCD_DrawHLine>
20002d36:	e7d9      	b.n	20002cec <BSP_LCD_FillCircle+0x50>
      D += (CurX << 2) + 6;
20002d38:	eb06 0684 	add.w	r6, r6, r4, lsl #2
20002d3c:	3606      	adds	r6, #6
20002d3e:	e7dc      	b.n	20002cfa <BSP_LCD_FillCircle+0x5e>
  BSP_LCD_DrawCircle(Xpos, Ypos, Radius);
20002d40:	9a01      	ldr	r2, [sp, #4]
20002d42:	4649      	mov	r1, r9
20002d44:	4650      	mov	r0, sl
20002d46:	f7ff fe67 	bl	20002a18 <BSP_LCD_DrawCircle>
}
20002d4a:	b003      	add	sp, #12
20002d4c:	e8bd 8ff0 	ldmia.w	sp!, {r4, r5, r6, r7, r8, r9, sl, fp, pc}
20002d50:	2001b354 	.word	0x2001b354

20002d54 <BSP_LCD_DisplayOn>:
{
20002d54:	b508      	push	{r3, lr}
  lcd_drv->DisplayOn();
20002d56:	4b02      	ldr	r3, [pc, #8]	; (20002d60 <BSP_LCD_DisplayOn+0xc>)
20002d58:	681b      	ldr	r3, [r3, #0]
20002d5a:	689b      	ldr	r3, [r3, #8]
20002d5c:	4798      	blx	r3
20002d5e:	bd08      	pop	{r3, pc}
20002d60:	2001806c 	.word	0x2001806c

20002d64 <BSP_LCD_DisplayOff>:
{
20002d64:	b508      	push	{r3, lr}
  lcd_drv->DisplayOff();
20002d66:	4b02      	ldr	r3, [pc, #8]	; (20002d70 <BSP_LCD_DisplayOff+0xc>)
20002d68:	681b      	ldr	r3, [r3, #0]
20002d6a:	68db      	ldr	r3, [r3, #12]
20002d6c:	4798      	blx	r3
20002d6e:	bd08      	pop	{r3, pc}
20002d70:	2001806c 	.word	0x2001806c

20002d74 <BSP_LCD_ReadID>:
  }  
}

#ifdef   LCD_DRVTYPE_V1_1
uint16_t BSP_LCD_ReadID(void)
{
20002d74:	b508      	push	{r3, lr}
  if(lcd_drv->ReadID)
20002d76:	4b04      	ldr	r3, [pc, #16]	; (20002d88 <BSP_LCD_ReadID+0x14>)
20002d78:	681b      	ldr	r3, [r3, #0]
20002d7a:	685b      	ldr	r3, [r3, #4]
20002d7c:	b10b      	cbz	r3, 20002d82 <BSP_LCD_ReadID+0xe>
    return lcd_drv->ReadID();
20002d7e:	4798      	blx	r3
20002d80:	bd08      	pop	{r3, pc}
  else
    return 0;
20002d82:	2000      	movs	r0, #0
}
20002d84:	bd08      	pop	{r3, pc}
20002d86:	bf00      	nop
20002d88:	2001806c 	.word	0x2001806c

20002d8c <BSP_LCD_ReadPixel>:

uint16_t BSP_LCD_ReadPixel(uint16_t Xpos, uint16_t Ypos)
{
20002d8c:	b508      	push	{r3, lr}
  if(lcd_drv->ReadPixel != NULL)
20002d8e:	4b04      	ldr	r3, [pc, #16]	; (20002da0 <BSP_LCD_ReadPixel+0x14>)
20002d90:	681b      	ldr	r3, [r3, #0]
20002d92:	699b      	ldr	r3, [r3, #24]
20002d94:	b10b      	cbz	r3, 20002d9a <BSP_LCD_ReadPixel+0xe>
    return lcd_drv->ReadPixel(Xpos, Ypos);
20002d96:	4798      	blx	r3
20002d98:	bd08      	pop	{r3, pc}
  else
    return 0;
20002d9a:	2000      	movs	r0, #0
}
20002d9c:	bd08      	pop	{r3, pc}
20002d9e:	bf00      	nop
20002da0:	2001806c 	.word	0x2001806c

20002da4 <BSP_LCD_DrawRGB16Image>:

void BSP_LCD_DrawRGB16Image(uint16_t Xpos, uint16_t Ypos, uint16_t Xsize, uint16_t Ysize, uint16_t *pData)
{
20002da4:	b530      	push	{r4, r5, lr}
20002da6:	b083      	sub	sp, #12
  lcd_drv->DrawRGBImage(Xpos, Ypos, Xsize, Ysize, (uint8_t *)pData);
20002da8:	4c03      	ldr	r4, [pc, #12]	; (20002db8 <BSP_LCD_DrawRGB16Image+0x14>)
20002daa:	6824      	ldr	r4, [r4, #0]
20002dac:	6b64      	ldr	r4, [r4, #52]	; 0x34
20002dae:	9d06      	ldr	r5, [sp, #24]
20002db0:	9500      	str	r5, [sp, #0]
20002db2:	47a0      	blx	r4
}
20002db4:	b003      	add	sp, #12
20002db6:	bd30      	pop	{r4, r5, pc}
20002db8:	2001806c 	.word	0x2001806c

20002dbc <BSP_LCD_ReadRGB16Image>:

void BSP_LCD_ReadRGB16Image(uint16_t Xpos, uint16_t Ypos, uint16_t Xsize, uint16_t Ysize, uint16_t *pData)
{
20002dbc:	b530      	push	{r4, r5, lr}
20002dbe:	b083      	sub	sp, #12
  lcd_drv->ReadRGBImage(Xpos, Ypos, Xsize, Ysize, (uint8_t *)pData);
20002dc0:	4c03      	ldr	r4, [pc, #12]	; (20002dd0 <BSP_LCD_ReadRGB16Image+0x14>)
20002dc2:	6824      	ldr	r4, [r4, #0]
20002dc4:	6be4      	ldr	r4, [r4, #60]	; 0x3c
20002dc6:	9d06      	ldr	r5, [sp, #24]
20002dc8:	9500      	str	r5, [sp, #0]
20002dca:	47a0      	blx	r4
}
20002dcc:	b003      	add	sp, #12
20002dce:	bd30      	pop	{r4, r5, pc}
20002dd0:	2001806c 	.word	0x2001806c

20002dd4 <MX_GPIO_Init>:
        * Output
        * EVENT_OUT
        * EXTI
*/
static void MX_GPIO_Init(void)
{
20002dd4:	b086      	sub	sp, #24

  /* GPIO Ports Clock Enable */
  __HAL_RCC_GPIOC_CLK_ENABLE();
20002dd6:	2200      	movs	r2, #0
20002dd8:	9200      	str	r2, [sp, #0]
20002dda:	4b1f      	ldr	r3, [pc, #124]	; (20002e58 <MX_GPIO_Init+0x84>)
20002ddc:	6b19      	ldr	r1, [r3, #48]	; 0x30
20002dde:	f041 0104 	orr.w	r1, r1, #4
20002de2:	6319      	str	r1, [r3, #48]	; 0x30
20002de4:	6b19      	ldr	r1, [r3, #48]	; 0x30
20002de6:	f001 0104 	and.w	r1, r1, #4
20002dea:	9100      	str	r1, [sp, #0]
20002dec:	9900      	ldr	r1, [sp, #0]
  __HAL_RCC_GPIOH_CLK_ENABLE();
20002dee:	9201      	str	r2, [sp, #4]
20002df0:	6b19      	ldr	r1, [r3, #48]	; 0x30
20002df2:	f041 0180 	orr.w	r1, r1, #128	; 0x80
20002df6:	6319      	str	r1, [r3, #48]	; 0x30
20002df8:	6b19      	ldr	r1, [r3, #48]	; 0x30
20002dfa:	f001 0180 	and.w	r1, r1, #128	; 0x80
20002dfe:	9101      	str	r1, [sp, #4]
20002e00:	9901      	ldr	r1, [sp, #4]
  __HAL_RCC_GPIOE_CLK_ENABLE();
20002e02:	9202      	str	r2, [sp, #8]
20002e04:	6b19      	ldr	r1, [r3, #48]	; 0x30
20002e06:	f041 0110 	orr.w	r1, r1, #16
20002e0a:	6319      	str	r1, [r3, #48]	; 0x30
20002e0c:	6b19      	ldr	r1, [r3, #48]	; 0x30
20002e0e:	f001 0110 	and.w	r1, r1, #16
20002e12:	9102      	str	r1, [sp, #8]
20002e14:	9902      	ldr	r1, [sp, #8]
  __HAL_RCC_GPIOD_CLK_ENABLE();
20002e16:	9203      	str	r2, [sp, #12]
20002e18:	6b19      	ldr	r1, [r3, #48]	; 0x30
20002e1a:	f041 0108 	orr.w	r1, r1, #8
20002e1e:	6319      	str	r1, [r3, #48]	; 0x30
20002e20:	6b19      	ldr	r1, [r3, #48]	; 0x30
20002e22:	f001 0108 	and.w	r1, r1, #8
20002e26:	9103      	str	r1, [sp, #12]
20002e28:	9903      	ldr	r1, [sp, #12]
  __HAL_RCC_GPIOA_CLK_ENABLE();
20002e2a:	9204      	str	r2, [sp, #16]
20002e2c:	6b19      	ldr	r1, [r3, #48]	; 0x30
20002e2e:	f041 0101 	orr.w	r1, r1, #1
20002e32:	6319      	str	r1, [r3, #48]	; 0x30
20002e34:	6b19      	ldr	r1, [r3, #48]	; 0x30
20002e36:	f001 0101 	and.w	r1, r1, #1
20002e3a:	9104      	str	r1, [sp, #16]
20002e3c:	9904      	ldr	r1, [sp, #16]
  __HAL_RCC_GPIOB_CLK_ENABLE();
20002e3e:	9205      	str	r2, [sp, #20]
20002e40:	6b1a      	ldr	r2, [r3, #48]	; 0x30
20002e42:	f042 0202 	orr.w	r2, r2, #2
20002e46:	631a      	str	r2, [r3, #48]	; 0x30
20002e48:	6b1b      	ldr	r3, [r3, #48]	; 0x30
20002e4a:	f003 0302 	and.w	r3, r3, #2
20002e4e:	9305      	str	r3, [sp, #20]
20002e50:	9b05      	ldr	r3, [sp, #20]

}
20002e52:	b006      	add	sp, #24
20002e54:	4770      	bx	lr
20002e56:	bf00      	nop
20002e58:	40023800 	.word	0x40023800

20002e5c <HAL_TIM_PeriodElapsedCallback>:
  * a global variable "uwTick" used as application time base.
  * @param  htim : TIM handle
  * @retval None
  */
void HAL_TIM_PeriodElapsedCallback(TIM_HandleTypeDef *htim)
{
20002e5c:	b508      	push	{r3, lr}
  /* USER CODE BEGIN Callback 0 */

  /* USER CODE END Callback 0 */
  if (htim->Instance == TIM6) {
20002e5e:	6802      	ldr	r2, [r0, #0]
20002e60:	4b03      	ldr	r3, [pc, #12]	; (20002e70 <HAL_TIM_PeriodElapsedCallback+0x14>)
20002e62:	429a      	cmp	r2, r3
20002e64:	d000      	beq.n	20002e68 <HAL_TIM_PeriodElapsedCallback+0xc>
20002e66:	bd08      	pop	{r3, pc}
    HAL_IncTick();
20002e68:	f7fd fba4 	bl	200005b4 <HAL_IncTick>
  }
  /* USER CODE BEGIN Callback 1 */

  /* USER CODE END Callback 1 */
}
20002e6c:	e7fb      	b.n	20002e66 <HAL_TIM_PeriodElapsedCallback+0xa>
20002e6e:	bf00      	nop
20002e70:	40001000 	.word	0x40001000

20002e74 <_Error_Handler>:
  * @param  file: The file name as string.
  * @param  line: The line in file as a number.
  * @retval None
  */
void _Error_Handler(char *file, int line)
{
20002e74:	e7fe      	b.n	20002e74 <_Error_Handler>
	...

20002e78 <MX_RTC_Init>:
{
20002e78:	b508      	push	{r3, lr}
  hrtc.Instance = RTC;
20002e7a:	480a      	ldr	r0, [pc, #40]	; (20002ea4 <MX_RTC_Init+0x2c>)
20002e7c:	4b0a      	ldr	r3, [pc, #40]	; (20002ea8 <MX_RTC_Init+0x30>)
20002e7e:	6003      	str	r3, [r0, #0]
  hrtc.Init.HourFormat = RTC_HOURFORMAT_24;
20002e80:	2300      	movs	r3, #0
20002e82:	6043      	str	r3, [r0, #4]
  hrtc.Init.AsynchPrediv = 127;
20002e84:	227f      	movs	r2, #127	; 0x7f
20002e86:	6082      	str	r2, [r0, #8]
  hrtc.Init.SynchPrediv = 255;
20002e88:	22ff      	movs	r2, #255	; 0xff
20002e8a:	60c2      	str	r2, [r0, #12]
  hrtc.Init.OutPut = RTC_OUTPUT_DISABLE;
20002e8c:	6103      	str	r3, [r0, #16]
  hrtc.Init.OutPutPolarity = RTC_OUTPUT_POLARITY_HIGH;
20002e8e:	6143      	str	r3, [r0, #20]
  hrtc.Init.OutPutType = RTC_OUTPUT_TYPE_OPENDRAIN;
20002e90:	6183      	str	r3, [r0, #24]
  if (HAL_RTC_Init(&hrtc) != HAL_OK)
20002e92:	f7fe f90e 	bl	200010b2 <HAL_RTC_Init>
20002e96:	b900      	cbnz	r0, 20002e9a <MX_RTC_Init+0x22>
20002e98:	bd08      	pop	{r3, pc}
    _Error_Handler(__FILE__, __LINE__);
20002e9a:	21d5      	movs	r1, #213	; 0xd5
20002e9c:	4803      	ldr	r0, [pc, #12]	; (20002eac <MX_RTC_Init+0x34>)
20002e9e:	f7ff ffe9 	bl	20002e74 <_Error_Handler>
20002ea2:	bf00      	nop
20002ea4:	2001b3b0 	.word	0x2001b3b0
20002ea8:	40002800 	.word	0x40002800
20002eac:	2000b01c 	.word	0x2000b01c

20002eb0 <MX_FSMC_Init>:
{
20002eb0:	b500      	push	{lr}
20002eb2:	b089      	sub	sp, #36	; 0x24
  hsram1.Instance = FSMC_NORSRAM_DEVICE;
20002eb4:	4818      	ldr	r0, [pc, #96]	; (20002f18 <MX_FSMC_Init+0x68>)
20002eb6:	f04f 4320 	mov.w	r3, #2684354560	; 0xa0000000
20002eba:	6003      	str	r3, [r0, #0]
  hsram1.Extended = FSMC_NORSRAM_EXTENDED_DEVICE;
20002ebc:	f503 7382 	add.w	r3, r3, #260	; 0x104
20002ec0:	6043      	str	r3, [r0, #4]
  hsram1.Init.NSBank = FSMC_NORSRAM_BANK1;
20002ec2:	2200      	movs	r2, #0
20002ec4:	6082      	str	r2, [r0, #8]
  hsram1.Init.DataAddressMux = FSMC_DATA_ADDRESS_MUX_DISABLE;
20002ec6:	60c2      	str	r2, [r0, #12]
  hsram1.Init.MemoryType = FSMC_MEMORY_TYPE_SRAM;
20002ec8:	6102      	str	r2, [r0, #16]
  hsram1.Init.MemoryDataWidth = FSMC_NORSRAM_MEM_BUS_WIDTH_8;
20002eca:	6142      	str	r2, [r0, #20]
  hsram1.Init.BurstAccessMode = FSMC_BURST_ACCESS_MODE_DISABLE;
20002ecc:	6182      	str	r2, [r0, #24]
  hsram1.Init.WaitSignalPolarity = FSMC_WAIT_SIGNAL_POLARITY_LOW;
20002ece:	61c2      	str	r2, [r0, #28]
  hsram1.Init.WrapMode = FSMC_WRAP_MODE_DISABLE;
20002ed0:	6202      	str	r2, [r0, #32]
  hsram1.Init.WaitSignalActive = FSMC_WAIT_TIMING_BEFORE_WS;
20002ed2:	6242      	str	r2, [r0, #36]	; 0x24
  hsram1.Init.WriteOperation = FSMC_WRITE_OPERATION_ENABLE;
20002ed4:	f44f 5380 	mov.w	r3, #4096	; 0x1000
20002ed8:	6283      	str	r3, [r0, #40]	; 0x28
  hsram1.Init.WaitSignal = FSMC_WAIT_SIGNAL_DISABLE;
20002eda:	62c2      	str	r2, [r0, #44]	; 0x2c
  hsram1.Init.ExtendedMode = FSMC_EXTENDED_MODE_DISABLE;
20002edc:	6302      	str	r2, [r0, #48]	; 0x30
  hsram1.Init.AsynchronousWait = FSMC_ASYNCHRONOUS_WAIT_DISABLE;
20002ede:	6342      	str	r2, [r0, #52]	; 0x34
  hsram1.Init.WriteBurst = FSMC_WRITE_BURST_DISABLE;
20002ee0:	6382      	str	r2, [r0, #56]	; 0x38
  hsram1.Init.PageSize = FSMC_PAGE_SIZE_NONE;
20002ee2:	6442      	str	r2, [r0, #68]	; 0x44
  Timing.AddressSetupTime = 5;
20002ee4:	2305      	movs	r3, #5
20002ee6:	9301      	str	r3, [sp, #4]
  Timing.AddressHoldTime = 15;
20002ee8:	230f      	movs	r3, #15
20002eea:	9302      	str	r3, [sp, #8]
  Timing.DataSetupTime = 8;
20002eec:	2308      	movs	r3, #8
20002eee:	9303      	str	r3, [sp, #12]
  Timing.BusTurnAroundDuration = 1;
20002ef0:	2301      	movs	r3, #1
20002ef2:	9304      	str	r3, [sp, #16]
  Timing.CLKDivision = 16;
20002ef4:	2310      	movs	r3, #16
20002ef6:	9305      	str	r3, [sp, #20]
  Timing.DataLatency = 17;
20002ef8:	2311      	movs	r3, #17
20002efa:	9306      	str	r3, [sp, #24]
  Timing.AccessMode = FSMC_ACCESS_MODE_A;
20002efc:	9207      	str	r2, [sp, #28]
  if (HAL_SRAM_Init(&hsram1, &Timing, NULL) != HAL_OK)
20002efe:	a901      	add	r1, sp, #4
20002f00:	f7fe f939 	bl	20001176 <HAL_SRAM_Init>
20002f04:	b910      	cbnz	r0, 20002f0c <MX_FSMC_Init+0x5c>
}
20002f06:	b009      	add	sp, #36	; 0x24
20002f08:	f85d fb04 	ldr.w	pc, [sp], #4
    _Error_Handler(__FILE__, __LINE__);
20002f0c:	f44f 7189 	mov.w	r1, #274	; 0x112
20002f10:	4802      	ldr	r0, [pc, #8]	; (20002f1c <MX_FSMC_Init+0x6c>)
20002f12:	f7ff ffaf 	bl	20002e74 <_Error_Handler>
20002f16:	bf00      	nop
20002f18:	2001b360 	.word	0x2001b360
20002f1c:	2000b01c 	.word	0x2000b01c

20002f20 <SystemClock_Config>:
{
20002f20:	b500      	push	{lr}
20002f22:	b099      	sub	sp, #100	; 0x64
  __HAL_RCC_PWR_CLK_ENABLE();
20002f24:	2300      	movs	r3, #0
20002f26:	9301      	str	r3, [sp, #4]
20002f28:	4a31      	ldr	r2, [pc, #196]	; (20002ff0 <SystemClock_Config+0xd0>)
20002f2a:	6c11      	ldr	r1, [r2, #64]	; 0x40
20002f2c:	f041 5180 	orr.w	r1, r1, #268435456	; 0x10000000
20002f30:	6411      	str	r1, [r2, #64]	; 0x40
20002f32:	6c12      	ldr	r2, [r2, #64]	; 0x40
20002f34:	f002 5280 	and.w	r2, r2, #268435456	; 0x10000000
20002f38:	9201      	str	r2, [sp, #4]
20002f3a:	9a01      	ldr	r2, [sp, #4]
  __HAL_PWR_VOLTAGESCALING_CONFIG(PWR_REGULATOR_VOLTAGE_SCALE1);
20002f3c:	9302      	str	r3, [sp, #8]
20002f3e:	4a2d      	ldr	r2, [pc, #180]	; (20002ff4 <SystemClock_Config+0xd4>)
20002f40:	6811      	ldr	r1, [r2, #0]
20002f42:	f441 4180 	orr.w	r1, r1, #16384	; 0x4000
20002f46:	6011      	str	r1, [r2, #0]
20002f48:	6812      	ldr	r2, [r2, #0]
20002f4a:	f402 4280 	and.w	r2, r2, #16384	; 0x4000
20002f4e:	9202      	str	r2, [sp, #8]
20002f50:	9a02      	ldr	r2, [sp, #8]
  RCC_OscInitStruct.OscillatorType = RCC_OSCILLATORTYPE_HSI|RCC_OSCILLATORTYPE_LSE;
20002f52:	2206      	movs	r2, #6
20002f54:	920c      	str	r2, [sp, #48]	; 0x30
  RCC_OscInitStruct.LSEState = RCC_LSE_ON;
20002f56:	2201      	movs	r2, #1
20002f58:	920e      	str	r2, [sp, #56]	; 0x38
  RCC_OscInitStruct.HSIState = RCC_HSI_ON;
20002f5a:	920f      	str	r2, [sp, #60]	; 0x3c
  RCC_OscInitStruct.HSICalibrationValue = 16;
20002f5c:	2210      	movs	r2, #16
20002f5e:	9210      	str	r2, [sp, #64]	; 0x40
  RCC_OscInitStruct.PLL.PLLState = RCC_PLL_ON;
20002f60:	2202      	movs	r2, #2
20002f62:	9212      	str	r2, [sp, #72]	; 0x48
  RCC_OscInitStruct.PLL.PLLSource = RCC_PLLSOURCE_HSI;
20002f64:	9313      	str	r3, [sp, #76]	; 0x4c
  RCC_OscInitStruct.PLL.PLLM = 8;
20002f66:	2308      	movs	r3, #8
20002f68:	9314      	str	r3, [sp, #80]	; 0x50
  RCC_OscInitStruct.PLL.PLLN = 168;
20002f6a:	23a8      	movs	r3, #168	; 0xa8
20002f6c:	9315      	str	r3, [sp, #84]	; 0x54
  RCC_OscInitStruct.PLL.PLLP = RCC_PLLP_DIV2;
20002f6e:	9216      	str	r2, [sp, #88]	; 0x58
  RCC_OscInitStruct.PLL.PLLQ = 4;
20002f70:	2304      	movs	r3, #4
20002f72:	9317      	str	r3, [sp, #92]	; 0x5c
  if (HAL_RCC_OscConfig(&RCC_OscInitStruct) != HAL_OK)
20002f74:	a80c      	add	r0, sp, #48	; 0x30
20002f76:	f7fd fca5 	bl	200008c4 <HAL_RCC_OscConfig>
20002f7a:	bb68      	cbnz	r0, 20002fd8 <SystemClock_Config+0xb8>
  RCC_ClkInitStruct.ClockType = RCC_CLOCKTYPE_HCLK|RCC_CLOCKTYPE_SYSCLK
20002f7c:	230f      	movs	r3, #15
20002f7e:	9307      	str	r3, [sp, #28]
  RCC_ClkInitStruct.SYSCLKSource = RCC_SYSCLKSOURCE_PLLCLK;
20002f80:	2302      	movs	r3, #2
20002f82:	9308      	str	r3, [sp, #32]
  RCC_ClkInitStruct.AHBCLKDivider = RCC_SYSCLK_DIV1;
20002f84:	2300      	movs	r3, #0
20002f86:	9309      	str	r3, [sp, #36]	; 0x24
  RCC_ClkInitStruct.APB1CLKDivider = RCC_HCLK_DIV4;
20002f88:	f44f 53a0 	mov.w	r3, #5120	; 0x1400
20002f8c:	930a      	str	r3, [sp, #40]	; 0x28
  RCC_ClkInitStruct.APB2CLKDivider = RCC_HCLK_DIV2;
20002f8e:	f44f 5380 	mov.w	r3, #4096	; 0x1000
20002f92:	930b      	str	r3, [sp, #44]	; 0x2c
  if (HAL_RCC_ClockConfig(&RCC_ClkInitStruct, FLASH_LATENCY_5) != HAL_OK)
20002f94:	2105      	movs	r1, #5
20002f96:	a807      	add	r0, sp, #28
20002f98:	f7fd feca 	bl	20000d30 <HAL_RCC_ClockConfig>
20002f9c:	bb00      	cbnz	r0, 20002fe0 <SystemClock_Config+0xc0>
  PeriphClkInitStruct.PeriphClockSelection = RCC_PERIPHCLK_RTC;
20002f9e:	2302      	movs	r3, #2
20002fa0:	9303      	str	r3, [sp, #12]
  PeriphClkInitStruct.RTCClockSelection = RCC_RTCCLKSOURCE_LSE;
20002fa2:	f44f 7380 	mov.w	r3, #256	; 0x100
20002fa6:	9306      	str	r3, [sp, #24]
  if (HAL_RCCEx_PeriphCLKConfig(&PeriphClkInitStruct) != HAL_OK)
20002fa8:	a803      	add	r0, sp, #12
20002faa:	f7fd ffa1 	bl	20000ef0 <HAL_RCCEx_PeriphCLKConfig>
20002fae:	b9d8      	cbnz	r0, 20002fe8 <SystemClock_Config+0xc8>
  HAL_SYSTICK_Config(HAL_RCC_GetHCLKFreq()/1000);
20002fb0:	f7fd ff6a 	bl	20000e88 <HAL_RCC_GetHCLKFreq>
20002fb4:	4b10      	ldr	r3, [pc, #64]	; (20002ff8 <SystemClock_Config+0xd8>)
20002fb6:	fba3 3000 	umull	r3, r0, r3, r0
20002fba:	0980      	lsrs	r0, r0, #6
20002fbc:	f7fd fb70 	bl	200006a0 <HAL_SYSTICK_Config>
  HAL_SYSTICK_CLKSourceConfig(SYSTICK_CLKSOURCE_HCLK);
20002fc0:	2004      	movs	r0, #4
20002fc2:	f7fd fb83 	bl	200006cc <HAL_SYSTICK_CLKSourceConfig>
  HAL_NVIC_SetPriority(SysTick_IRQn, 0, 0);
20002fc6:	2200      	movs	r2, #0
20002fc8:	4611      	mov	r1, r2
20002fca:	f04f 30ff 	mov.w	r0, #4294967295
20002fce:	f7fd fb29 	bl	20000624 <HAL_NVIC_SetPriority>
}
20002fd2:	b019      	add	sp, #100	; 0x64
20002fd4:	f85d fb04 	ldr.w	pc, [sp], #4
    _Error_Handler(__FILE__, __LINE__);
20002fd8:	219a      	movs	r1, #154	; 0x9a
20002fda:	4808      	ldr	r0, [pc, #32]	; (20002ffc <SystemClock_Config+0xdc>)
20002fdc:	f7ff ff4a 	bl	20002e74 <_Error_Handler>
    _Error_Handler(__FILE__, __LINE__);
20002fe0:	21a8      	movs	r1, #168	; 0xa8
20002fe2:	4806      	ldr	r0, [pc, #24]	; (20002ffc <SystemClock_Config+0xdc>)
20002fe4:	f7ff ff46 	bl	20002e74 <_Error_Handler>
    _Error_Handler(__FILE__, __LINE__);
20002fe8:	21af      	movs	r1, #175	; 0xaf
20002fea:	4804      	ldr	r0, [pc, #16]	; (20002ffc <SystemClock_Config+0xdc>)
20002fec:	f7ff ff42 	bl	20002e74 <_Error_Handler>
20002ff0:	40023800 	.word	0x40023800
20002ff4:	40007000 	.word	0x40007000
20002ff8:	10624dd3 	.word	0x10624dd3
20002ffc:	2000b01c 	.word	0x2000b01c

20003000 <main>:
{
20003000:	b508      	push	{r3, lr}
  HAL_Init();
20003002:	f7fd fabd 	bl	20000580 <HAL_Init>
  SystemClock_Config();
20003006:	f7ff ff8b 	bl	20002f20 <SystemClock_Config>
  MX_GPIO_Init();
2000300a:	f7ff fee3 	bl	20002dd4 <MX_GPIO_Init>
  MX_RTC_Init();
2000300e:	f7ff ff33 	bl	20002e78 <MX_RTC_Init>
  MX_FSMC_Init();
20003012:	f7ff ff4d 	bl	20002eb0 <MX_FSMC_Init>
  mainApp();
20003016:	f7fe fe5d 	bl	20001cd4 <mainApp>
2000301a:	e7fe      	b.n	2000301a <main+0x1a>

2000301c <HAL_FSMC_MspInit>:
static void HAL_FSMC_MspInit(void){
  /* USER CODE BEGIN FSMC_MspInit 0 */

  /* USER CODE END FSMC_MspInit 0 */
  GPIO_InitTypeDef GPIO_InitStruct;
  if (FSMC_Initialized) {
2000301c:	4b17      	ldr	r3, [pc, #92]	; (2000307c <HAL_FSMC_MspInit+0x60>)
2000301e:	681b      	ldr	r3, [r3, #0]
20003020:	b103      	cbz	r3, 20003024 <HAL_FSMC_MspInit+0x8>
20003022:	4770      	bx	lr
static void HAL_FSMC_MspInit(void){
20003024:	b5f0      	push	{r4, r5, r6, r7, lr}
20003026:	b087      	sub	sp, #28
    return;
  }
  FSMC_Initialized = 1;
20003028:	2201      	movs	r2, #1
2000302a:	4b14      	ldr	r3, [pc, #80]	; (2000307c <HAL_FSMC_MspInit+0x60>)
2000302c:	601a      	str	r2, [r3, #0]
  /* Peripheral clock enable */
  __HAL_RCC_FSMC_CLK_ENABLE();
2000302e:	2400      	movs	r4, #0
20003030:	9400      	str	r4, [sp, #0]
20003032:	4b13      	ldr	r3, [pc, #76]	; (20003080 <HAL_FSMC_MspInit+0x64>)
20003034:	6b9a      	ldr	r2, [r3, #56]	; 0x38
20003036:	f042 0201 	orr.w	r2, r2, #1
2000303a:	639a      	str	r2, [r3, #56]	; 0x38
2000303c:	6b9b      	ldr	r3, [r3, #56]	; 0x38
2000303e:	f003 0301 	and.w	r3, r3, #1
20003042:	9300      	str	r3, [sp, #0]
20003044:	9b00      	ldr	r3, [sp, #0]
  PD1   ------> FSMC_D3
  PD4   ------> FSMC_NOE
  PD5   ------> FSMC_NWE
  PD7   ------> FSMC_NE1
  */
  GPIO_InitStruct.Pin = GPIO_PIN_7|GPIO_PIN_8|GPIO_PIN_9|GPIO_PIN_10;
20003046:	f44f 63f0 	mov.w	r3, #1920	; 0x780
2000304a:	9301      	str	r3, [sp, #4]
  GPIO_InitStruct.Mode = GPIO_MODE_AF_PP;
2000304c:	2702      	movs	r7, #2
2000304e:	9702      	str	r7, [sp, #8]
  GPIO_InitStruct.Pull = GPIO_NOPULL;
20003050:	9403      	str	r4, [sp, #12]
  GPIO_InitStruct.Speed = GPIO_SPEED_FREQ_VERY_HIGH;
20003052:	2603      	movs	r6, #3
20003054:	9604      	str	r6, [sp, #16]
  GPIO_InitStruct.Alternate = GPIO_AF12_FSMC;
20003056:	250c      	movs	r5, #12
20003058:	9505      	str	r5, [sp, #20]
  HAL_GPIO_Init(GPIOE, &GPIO_InitStruct);
2000305a:	a901      	add	r1, sp, #4
2000305c:	4809      	ldr	r0, [pc, #36]	; (20003084 <HAL_FSMC_MspInit+0x68>)
2000305e:	f7fd fb4b 	bl	200006f8 <HAL_GPIO_Init>

  GPIO_InitStruct.Pin = GPIO_PIN_13|GPIO_PIN_14|GPIO_PIN_15|GPIO_PIN_0 
20003062:	f24e 03b3 	movw	r3, #57523	; 0xe0b3
20003066:	9301      	str	r3, [sp, #4]
                          |GPIO_PIN_1|GPIO_PIN_4|GPIO_PIN_5|GPIO_PIN_7;
  GPIO_InitStruct.Mode = GPIO_MODE_AF_PP;
20003068:	9702      	str	r7, [sp, #8]
  GPIO_InitStruct.Pull = GPIO_NOPULL;
2000306a:	9403      	str	r4, [sp, #12]
  GPIO_InitStruct.Speed = GPIO_SPEED_FREQ_VERY_HIGH;
2000306c:	9604      	str	r6, [sp, #16]
  GPIO_InitStruct.Alternate = GPIO_AF12_FSMC;
2000306e:	9505      	str	r5, [sp, #20]
  HAL_GPIO_Init(GPIOD, &GPIO_InitStruct);
20003070:	a901      	add	r1, sp, #4
20003072:	4805      	ldr	r0, [pc, #20]	; (20003088 <HAL_FSMC_MspInit+0x6c>)
20003074:	f7fd fb40 	bl	200006f8 <HAL_GPIO_Init>

  /* USER CODE BEGIN FSMC_MspInit 1 */

  /* USER CODE END FSMC_MspInit 1 */
}
20003078:	b007      	add	sp, #28
2000307a:	bdf0      	pop	{r4, r5, r6, r7, pc}
2000307c:	20018460 	.word	0x20018460
20003080:	40023800 	.word	0x40023800
20003084:	40021000 	.word	0x40021000
20003088:	40020c00 	.word	0x40020c00

2000308c <HAL_MspInit>:
{
2000308c:	b510      	push	{r4, lr}
2000308e:	b082      	sub	sp, #8
  __HAL_RCC_SYSCFG_CLK_ENABLE();
20003090:	2400      	movs	r4, #0
20003092:	9400      	str	r4, [sp, #0]
20003094:	4b21      	ldr	r3, [pc, #132]	; (2000311c <HAL_MspInit+0x90>)
20003096:	6c5a      	ldr	r2, [r3, #68]	; 0x44
20003098:	f442 4280 	orr.w	r2, r2, #16384	; 0x4000
2000309c:	645a      	str	r2, [r3, #68]	; 0x44
2000309e:	6c5a      	ldr	r2, [r3, #68]	; 0x44
200030a0:	f402 4280 	and.w	r2, r2, #16384	; 0x4000
200030a4:	9200      	str	r2, [sp, #0]
200030a6:	9a00      	ldr	r2, [sp, #0]
  __HAL_RCC_PWR_CLK_ENABLE();
200030a8:	9401      	str	r4, [sp, #4]
200030aa:	6c1a      	ldr	r2, [r3, #64]	; 0x40
200030ac:	f042 5280 	orr.w	r2, r2, #268435456	; 0x10000000
200030b0:	641a      	str	r2, [r3, #64]	; 0x40
200030b2:	6c1b      	ldr	r3, [r3, #64]	; 0x40
200030b4:	f003 5380 	and.w	r3, r3, #268435456	; 0x10000000
200030b8:	9301      	str	r3, [sp, #4]
200030ba:	9b01      	ldr	r3, [sp, #4]
  HAL_NVIC_SetPriorityGrouping(NVIC_PRIORITYGROUP_4);
200030bc:	2003      	movs	r0, #3
200030be:	f7fd fa9f 	bl	20000600 <HAL_NVIC_SetPriorityGrouping>
  HAL_NVIC_SetPriority(MemoryManagement_IRQn, 0, 0);
200030c2:	4622      	mov	r2, r4
200030c4:	4621      	mov	r1, r4
200030c6:	f06f 000b 	mvn.w	r0, #11
200030ca:	f7fd faab 	bl	20000624 <HAL_NVIC_SetPriority>
  HAL_NVIC_SetPriority(BusFault_IRQn, 0, 0);
200030ce:	4622      	mov	r2, r4
200030d0:	4621      	mov	r1, r4
200030d2:	f06f 000a 	mvn.w	r0, #10
200030d6:	f7fd faa5 	bl	20000624 <HAL_NVIC_SetPriority>
  HAL_NVIC_SetPriority(UsageFault_IRQn, 0, 0);
200030da:	4622      	mov	r2, r4
200030dc:	4621      	mov	r1, r4
200030de:	f06f 0009 	mvn.w	r0, #9
200030e2:	f7fd fa9f 	bl	20000624 <HAL_NVIC_SetPriority>
  HAL_NVIC_SetPriority(SVCall_IRQn, 0, 0);
200030e6:	4622      	mov	r2, r4
200030e8:	4621      	mov	r1, r4
200030ea:	f06f 0004 	mvn.w	r0, #4
200030ee:	f7fd fa99 	bl	20000624 <HAL_NVIC_SetPriority>
  HAL_NVIC_SetPriority(DebugMonitor_IRQn, 0, 0);
200030f2:	4622      	mov	r2, r4
200030f4:	4621      	mov	r1, r4
200030f6:	f06f 0003 	mvn.w	r0, #3
200030fa:	f7fd fa93 	bl	20000624 <HAL_NVIC_SetPriority>
  HAL_NVIC_SetPriority(PendSV_IRQn, 0, 0);
200030fe:	4622      	mov	r2, r4
20003100:	4621      	mov	r1, r4
20003102:	f06f 0001 	mvn.w	r0, #1
20003106:	f7fd fa8d 	bl	20000624 <HAL_NVIC_SetPriority>
  HAL_NVIC_SetPriority(SysTick_IRQn, 0, 0);
2000310a:	4622      	mov	r2, r4
2000310c:	4621      	mov	r1, r4
2000310e:	f04f 30ff 	mov.w	r0, #4294967295
20003112:	f7fd fa87 	bl	20000624 <HAL_NVIC_SetPriority>
}
20003116:	b002      	add	sp, #8
20003118:	bd10      	pop	{r4, pc}
2000311a:	bf00      	nop
2000311c:	40023800 	.word	0x40023800

20003120 <HAL_RTC_MspInit>:
  if(hrtc->Instance==RTC)
20003120:	6802      	ldr	r2, [r0, #0]
20003122:	4b04      	ldr	r3, [pc, #16]	; (20003134 <HAL_RTC_MspInit+0x14>)
20003124:	429a      	cmp	r2, r3
20003126:	d000      	beq.n	2000312a <HAL_RTC_MspInit+0xa>
20003128:	4770      	bx	lr
    __HAL_RCC_RTC_ENABLE();
2000312a:	2201      	movs	r2, #1
2000312c:	4b02      	ldr	r3, [pc, #8]	; (20003138 <HAL_RTC_MspInit+0x18>)
2000312e:	601a      	str	r2, [r3, #0]
}
20003130:	e7fa      	b.n	20003128 <HAL_RTC_MspInit+0x8>
20003132:	bf00      	nop
20003134:	40002800 	.word	0x40002800
20003138:	42470e3c 	.word	0x42470e3c

2000313c <HAL_SRAM_MspInit>:

void HAL_SRAM_MspInit(SRAM_HandleTypeDef* hsram){
2000313c:	b508      	push	{r3, lr}
  /* USER CODE BEGIN SRAM_MspInit 0 */

  /* USER CODE END SRAM_MspInit 0 */
  HAL_FSMC_MspInit();
2000313e:	f7ff ff6d 	bl	2000301c <HAL_FSMC_MspInit>
20003142:	bd08      	pop	{r3, pc}

20003144 <HAL_InitTick>:
  *         reset by HAL_Init() or at any time when clock is configured, by HAL_RCC_ClockConfig(). 
  * @param  TickPriority: Tick interrupt priorty.
  * @retval HAL status
  */
HAL_StatusTypeDef HAL_InitTick(uint32_t TickPriority)
{
20003144:	b510      	push	{r4, lr}
20003146:	b088      	sub	sp, #32
  uint32_t              uwTimclock = 0;
  uint32_t              uwPrescalerValue = 0;
  uint32_t              pFLatency;
  
  /*Configure the TIM6 IRQ priority */
  HAL_NVIC_SetPriority(TIM6_DAC_IRQn, TickPriority ,0); 
20003148:	2200      	movs	r2, #0
2000314a:	4601      	mov	r1, r0
2000314c:	2036      	movs	r0, #54	; 0x36
2000314e:	f7fd fa69 	bl	20000624 <HAL_NVIC_SetPriority>
  
  /* Enable the TIM6 global Interrupt */
  HAL_NVIC_EnableIRQ(TIM6_DAC_IRQn); 
20003152:	2036      	movs	r0, #54	; 0x36
20003154:	f7fd fa98 	bl	20000688 <HAL_NVIC_EnableIRQ>
  
  /* Enable TIM6 clock */
  __HAL_RCC_TIM6_CLK_ENABLE();
20003158:	2400      	movs	r4, #0
2000315a:	9401      	str	r4, [sp, #4]
2000315c:	4b14      	ldr	r3, [pc, #80]	; (200031b0 <HAL_InitTick+0x6c>)
2000315e:	6c1a      	ldr	r2, [r3, #64]	; 0x40
20003160:	f042 0210 	orr.w	r2, r2, #16
20003164:	641a      	str	r2, [r3, #64]	; 0x40
20003166:	6c1b      	ldr	r3, [r3, #64]	; 0x40
20003168:	f003 0310 	and.w	r3, r3, #16
2000316c:	9301      	str	r3, [sp, #4]
2000316e:	9b01      	ldr	r3, [sp, #4]
  
  /* Get clock configuration */
  HAL_RCC_GetClockConfig(&clkconfig, &pFLatency);
20003170:	a902      	add	r1, sp, #8
20003172:	a803      	add	r0, sp, #12
20003174:	f7fd fe9e 	bl	20000eb4 <HAL_RCC_GetClockConfig>
  
  /* Compute TIM6 clock */
  uwTimclock = 2*HAL_RCC_GetPCLK1Freq();
20003178:	f7fd fe8c 	bl	20000e94 <HAL_RCC_GetPCLK1Freq>
2000317c:	0043      	lsls	r3, r0, #1
   
  /* Compute the prescaler value to have TIM6 counter clock equal to 1MHz */
  uwPrescalerValue = (uint32_t) ((uwTimclock / 1000000) - 1);
2000317e:	480d      	ldr	r0, [pc, #52]	; (200031b4 <HAL_InitTick+0x70>)
20003180:	fba0 2303 	umull	r2, r3, r0, r3
20003184:	0c9b      	lsrs	r3, r3, #18
20003186:	3b01      	subs	r3, #1
  
  /* Initialize TIM6 */
  htim6.Instance = TIM6;
20003188:	480b      	ldr	r0, [pc, #44]	; (200031b8 <HAL_InitTick+0x74>)
2000318a:	4a0c      	ldr	r2, [pc, #48]	; (200031bc <HAL_InitTick+0x78>)
2000318c:	6002      	str	r2, [r0, #0]
  + Period = [(TIM6CLK/1000) - 1]. to have a (1/1000) s time base.
  + Prescaler = (uwTimclock/1000000 - 1) to have a 1MHz counter clock.
  + ClockDivision = 0
  + Counter direction = Up
  */
  htim6.Init.Period = (1000000 / 1000) - 1;
2000318e:	f240 32e7 	movw	r2, #999	; 0x3e7
20003192:	60c2      	str	r2, [r0, #12]
  htim6.Init.Prescaler = uwPrescalerValue;
20003194:	6043      	str	r3, [r0, #4]
  htim6.Init.ClockDivision = 0;
20003196:	6104      	str	r4, [r0, #16]
  htim6.Init.CounterMode = TIM_COUNTERMODE_UP;
20003198:	6084      	str	r4, [r0, #8]
  if(HAL_TIM_Base_Init(&htim6) == HAL_OK)
2000319a:	f7fe f971 	bl	20001480 <HAL_TIM_Base_Init>
2000319e:	b110      	cbz	r0, 200031a6 <HAL_InitTick+0x62>
    /* Start the TIM time Base generation in interrupt mode */
    return HAL_TIM_Base_Start_IT(&htim6);
  }
  
  /* Return function status */
  return HAL_ERROR;
200031a0:	2001      	movs	r0, #1
}
200031a2:	b008      	add	sp, #32
200031a4:	bd10      	pop	{r4, pc}
    return HAL_TIM_Base_Start_IT(&htim6);
200031a6:	4804      	ldr	r0, [pc, #16]	; (200031b8 <HAL_InitTick+0x74>)
200031a8:	f7fe f80f 	bl	200011ca <HAL_TIM_Base_Start_IT>
200031ac:	e7f9      	b.n	200031a2 <HAL_InitTick+0x5e>
200031ae:	bf00      	nop
200031b0:	40023800 	.word	0x40023800
200031b4:	431bde83 	.word	0x431bde83
200031b8:	2001b3d0 	.word	0x2001b3d0
200031bc:	40001000 	.word	0x40001000

200031c0 <NMI_Handler>:

/**
* @brief This function handles Non maskable interrupt.
*/
void NMI_Handler(void)
{
200031c0:	4770      	bx	lr

200031c2 <HardFault_Handler>:

/**
* @brief This function handles Hard fault interrupt.
*/
void HardFault_Handler(void)
{
200031c2:	e7fe      	b.n	200031c2 <HardFault_Handler>

200031c4 <MemManage_Handler>:

/**
* @brief This function handles Memory management fault.
*/
void MemManage_Handler(void)
{
200031c4:	e7fe      	b.n	200031c4 <MemManage_Handler>

200031c6 <BusFault_Handler>:

/**
* @brief This function handles Pre-fetch fault, memory access fault.
*/
void BusFault_Handler(void)
{
200031c6:	e7fe      	b.n	200031c6 <BusFault_Handler>

200031c8 <UsageFault_Handler>:

/**
* @brief This function handles Undefined instruction or illegal state.
*/
void UsageFault_Handler(void)
{
200031c8:	e7fe      	b.n	200031c8 <UsageFault_Handler>

200031ca <SVC_Handler>:

/**
* @brief This function handles System service call via SWI instruction.
*/
void SVC_Handler(void)
{
200031ca:	4770      	bx	lr

200031cc <DebugMon_Handler>:

/**
* @brief This function handles Debug monitor.
*/
void DebugMon_Handler(void)
{
200031cc:	4770      	bx	lr

200031ce <PendSV_Handler>:

/**
* @brief This function handles Pendable request for system service.
*/
void PendSV_Handler(void)
{
200031ce:	4770      	bx	lr

200031d0 <SysTick_Handler>:

/**
* @brief This function handles System tick timer.
*/
void SysTick_Handler(void)
{
200031d0:	b508      	push	{r3, lr}
  /* USER CODE BEGIN SysTick_IRQn 0 */

  /* USER CODE END SysTick_IRQn 0 */
  HAL_SYSTICK_IRQHandler();
200031d2:	f7fd fa8c 	bl	200006ee <HAL_SYSTICK_IRQHandler>
200031d6:	bd08      	pop	{r3, pc}

200031d8 <TIM6_DAC_IRQHandler>:

/**
* @brief This function handles TIM6 global interrupt, DAC1 and DAC2 underrun error interrupts.
*/
void TIM6_DAC_IRQHandler(void)
{
200031d8:	b508      	push	{r3, lr}
  /* USER CODE BEGIN TIM6_DAC_IRQn 0 */

  /* USER CODE END TIM6_DAC_IRQn 0 */
  HAL_TIM_IRQHandler(&htim6);
200031da:	4802      	ldr	r0, [pc, #8]	; (200031e4 <TIM6_DAC_IRQHandler+0xc>)
200031dc:	f7fe f805 	bl	200011ea <HAL_TIM_IRQHandler>
200031e0:	bd08      	pop	{r3, pc}
200031e2:	bf00      	nop
200031e4:	2001b3d0 	.word	0x2001b3d0

200031e8 <_write>:
{
	while (1) {}		/* Make sure we hang here */
}

int _write(int32_t file, uint8_t *ptr, int32_t len)
{
200031e8:	b430      	push	{r4, r5}
	/* Implement your write code here, this is used by puts and printf for example */
	/* return len; */
	int i;
	for(i = 0; i < len; i++)
200031ea:	2400      	movs	r4, #0
200031ec:	e00a      	b.n	20003204 <_write+0x1c>
  __ASM volatile ("nop");
200031ee:	bf00      	nop
__STATIC_INLINE uint32_t ITM_SendChar (uint32_t ch)
{
  if (((ITM->TCR & ITM_TCR_ITMENA_Msk) != 0UL) &&      /* ITM enabled */
      ((ITM->TER & 1UL               ) != 0UL)   )     /* ITM Port #0 enabled */
  {
    while (ITM->PORT[0U].u32 == 0UL)
200031f0:	f04f 4360 	mov.w	r3, #3758096384	; 0xe0000000
200031f4:	681b      	ldr	r3, [r3, #0]
200031f6:	2b00      	cmp	r3, #0
200031f8:	d0f9      	beq.n	200031ee <_write+0x6>
    {
      __NOP();
    }
    ITM->PORT[0U].u8 = (uint8_t)ch;
200031fa:	f04f 4360 	mov.w	r3, #3758096384	; 0xe0000000
200031fe:	7019      	strb	r1, [r3, #0]
20003200:	3401      	adds	r4, #1
		ITM_SendChar(*ptr++);
20003202:	4629      	mov	r1, r5
	for(i = 0; i < len; i++)
20003204:	4294      	cmp	r4, r2
20003206:	da10      	bge.n	2000322a <_write+0x42>
		ITM_SendChar(*ptr++);
20003208:	1c4d      	adds	r5, r1, #1
2000320a:	7809      	ldrb	r1, [r1, #0]
  if (((ITM->TCR & ITM_TCR_ITMENA_Msk) != 0UL) &&      /* ITM enabled */
2000320c:	f04f 4360 	mov.w	r3, #3758096384	; 0xe0000000
20003210:	f8d3 3e80 	ldr.w	r3, [r3, #3712]	; 0xe80
20003214:	f013 0f01 	tst.w	r3, #1
20003218:	d0f2      	beq.n	20003200 <_write+0x18>
      ((ITM->TER & 1UL               ) != 0UL)   )     /* ITM Port #0 enabled */
2000321a:	f04f 4360 	mov.w	r3, #3758096384	; 0xe0000000
2000321e:	f8d3 3e00 	ldr.w	r3, [r3, #3584]	; 0xe00
  if (((ITM->TCR & ITM_TCR_ITMENA_Msk) != 0UL) &&      /* ITM enabled */
20003222:	f013 0f01 	tst.w	r3, #1
20003226:	d1e3      	bne.n	200031f0 <_write+0x8>
20003228:	e7ea      	b.n	20003200 <_write+0x18>
	return len;
}
2000322a:	4610      	mov	r0, r2
2000322c:	bc30      	pop	{r4, r5}
2000322e:	4770      	bx	lr

20003230 <_sbrk>:

void * _sbrk(int32_t incr)
{
20003230:	4603      	mov	r3, r0
	extern char   end; /* Set by linker.  */
	static char * heap_end;
	char *        prev_heap_end;

	if (heap_end == 0) {
20003232:	4a06      	ldr	r2, [pc, #24]	; (2000324c <_sbrk+0x1c>)
20003234:	6812      	ldr	r2, [r2, #0]
20003236:	b122      	cbz	r2, 20003242 <_sbrk+0x12>
		heap_end = & end;
	}

	prev_heap_end = heap_end;
20003238:	4a04      	ldr	r2, [pc, #16]	; (2000324c <_sbrk+0x1c>)
2000323a:	6810      	ldr	r0, [r2, #0]
	heap_end += incr;
2000323c:	4403      	add	r3, r0
2000323e:	6013      	str	r3, [r2, #0]

	return (void *) prev_heap_end;
}
20003240:	4770      	bx	lr
		heap_end = & end;
20003242:	4903      	ldr	r1, [pc, #12]	; (20003250 <_sbrk+0x20>)
20003244:	4a01      	ldr	r2, [pc, #4]	; (2000324c <_sbrk+0x1c>)
20003246:	6011      	str	r1, [r2, #0]
20003248:	e7f6      	b.n	20003238 <_sbrk+0x8>
2000324a:	bf00      	nop
2000324c:	20018464 	.word	0x20018464
20003250:	2001b410 	.word	0x2001b410

20003254 <_close>:

int _close(int32_t file)
{
	errno = ENOSYS;
20003254:	2258      	movs	r2, #88	; 0x58
20003256:	4b02      	ldr	r3, [pc, #8]	; (20003260 <_close+0xc>)
20003258:	601a      	str	r2, [r3, #0]
	return -1;
}
2000325a:	f04f 30ff 	mov.w	r0, #4294967295
2000325e:	4770      	bx	lr
20003260:	2001b40c 	.word	0x2001b40c

20003264 <_fstat>:


int _fstat(int32_t file, struct stat *st)
{
	errno = ENOSYS;
20003264:	2258      	movs	r2, #88	; 0x58
20003266:	4b02      	ldr	r3, [pc, #8]	; (20003270 <_fstat+0xc>)
20003268:	601a      	str	r2, [r3, #0]
	return -1;
}
2000326a:	f04f 30ff 	mov.w	r0, #4294967295
2000326e:	4770      	bx	lr
20003270:	2001b40c 	.word	0x2001b40c

20003274 <_isatty>:

int _isatty(int32_t file)
{
	errno = ENOSYS;
20003274:	2258      	movs	r2, #88	; 0x58
20003276:	4b02      	ldr	r3, [pc, #8]	; (20003280 <_isatty+0xc>)
20003278:	601a      	str	r2, [r3, #0]
	return 0;
}
2000327a:	2000      	movs	r0, #0
2000327c:	4770      	bx	lr
2000327e:	bf00      	nop
20003280:	2001b40c 	.word	0x2001b40c

20003284 <_lseek>:

int _lseek(int32_t file, int32_t ptr, int32_t dir)
{
	errno = ENOSYS;
20003284:	2258      	movs	r2, #88	; 0x58
20003286:	4b02      	ldr	r3, [pc, #8]	; (20003290 <_lseek+0xc>)
20003288:	601a      	str	r2, [r3, #0]
	return -1;
}
2000328a:	f04f 30ff 	mov.w	r0, #4294967295
2000328e:	4770      	bx	lr
20003290:	2001b40c 	.word	0x2001b40c

20003294 <_read>:

int _read(int32_t file, uint8_t *ptr, int32_t len)
{
	errno = ENOSYS;
20003294:	2258      	movs	r2, #88	; 0x58
20003296:	4b02      	ldr	r3, [pc, #8]	; (200032a0 <_read+0xc>)
20003298:	601a      	str	r2, [r3, #0]
	return -1;
}
2000329a:	f04f 30ff 	mov.w	r0, #4294967295
2000329e:	4770      	bx	lr
200032a0:	2001b40c 	.word	0x2001b40c

200032a4 <SystemInit>:
  */
void SystemInit(void)
{
  /* FPU settings ------------------------------------------------------------*/
  #if (__FPU_PRESENT == 1) && (__FPU_USED == 1)
    SCB->CPACR |= ((3UL << 10*2)|(3UL << 11*2));  /* set CP10 and CP11 Full Access */
200032a4:	490f      	ldr	r1, [pc, #60]	; (200032e4 <SystemInit+0x40>)
200032a6:	f8d1 3088 	ldr.w	r3, [r1, #136]	; 0x88
200032aa:	f443 0370 	orr.w	r3, r3, #15728640	; 0xf00000
200032ae:	f8c1 3088 	str.w	r3, [r1, #136]	; 0x88
  #endif
  /* Reset the RCC clock configuration to the default reset state ------------*/
  /* Set HSION bit */
  RCC->CR |= (uint32_t)0x00000001;
200032b2:	4b0d      	ldr	r3, [pc, #52]	; (200032e8 <SystemInit+0x44>)
200032b4:	681a      	ldr	r2, [r3, #0]
200032b6:	f042 0201 	orr.w	r2, r2, #1
200032ba:	601a      	str	r2, [r3, #0]

  /* Reset CFGR register */
  RCC->CFGR = 0x00000000;
200032bc:	2000      	movs	r0, #0
200032be:	6098      	str	r0, [r3, #8]

  /* Reset HSEON, CSSON and PLLON bits */
  RCC->CR &= (uint32_t)0xFEF6FFFF;
200032c0:	681a      	ldr	r2, [r3, #0]
200032c2:	f022 7284 	bic.w	r2, r2, #17301504	; 0x1080000
200032c6:	f422 3280 	bic.w	r2, r2, #65536	; 0x10000
200032ca:	601a      	str	r2, [r3, #0]

  /* Reset PLLCFGR register */
  RCC->PLLCFGR = 0x24003010;
200032cc:	4a07      	ldr	r2, [pc, #28]	; (200032ec <SystemInit+0x48>)
200032ce:	605a      	str	r2, [r3, #4]

  /* Reset HSEBYP bit */
  RCC->CR &= (uint32_t)0xFFFBFFFF;
200032d0:	681a      	ldr	r2, [r3, #0]
200032d2:	f422 2280 	bic.w	r2, r2, #262144	; 0x40000
200032d6:	601a      	str	r2, [r3, #0]

  /* Disable all interrupts */
  RCC->CIR = 0x00000000;
200032d8:	60d8      	str	r0, [r3, #12]
  SystemInit_ExtMemCtl(); 
#endif /* DATA_IN_ExtSRAM || DATA_IN_ExtSDRAM */

  /* Configure the Vector Table location add offset address ------------------*/
#ifdef VECT_TAB_SRAM
  SCB->VTOR = SRAM_BASE | VECT_TAB_OFFSET; /* Vector Table Relocation in Internal SRAM */
200032da:	f04f 5300 	mov.w	r3, #536870912	; 0x20000000
200032de:	608b      	str	r3, [r1, #8]
200032e0:	4770      	bx	lr
200032e2:	bf00      	nop
200032e4:	e000ed00 	.word	0xe000ed00
200032e8:	40023800 	.word	0x40023800
200032ec:	24003010 	.word	0x24003010

200032f0 <Reset_Handler>:

    .section  .text.Reset_Handler
  .weak  Reset_Handler
  .type  Reset_Handler, %function
Reset_Handler:  
  ldr   sp, =_estack     /* set stack pointer */
200032f0:	f8df d034 	ldr.w	sp, [pc, #52]	; 20003328 <LoopFillZerobss+0x14>

/* Copy the data segment initializers from flash to SRAM */  
  movs  r1, #0
200032f4:	2100      	movs	r1, #0
  b  LoopCopyDataInit
200032f6:	e003      	b.n	20003300 <LoopCopyDataInit>

200032f8 <CopyDataInit>:

CopyDataInit:
  ldr  r3, =_sidata
200032f8:	4b0c      	ldr	r3, [pc, #48]	; (2000332c <LoopFillZerobss+0x18>)
  ldr  r3, [r3, r1]
200032fa:	585b      	ldr	r3, [r3, r1]
  str  r3, [r0, r1]
200032fc:	5043      	str	r3, [r0, r1]
  adds  r1, r1, #4
200032fe:	3104      	adds	r1, #4

20003300 <LoopCopyDataInit>:
    
LoopCopyDataInit:
  ldr  r0, =_sdata
20003300:	480b      	ldr	r0, [pc, #44]	; (20003330 <LoopFillZerobss+0x1c>)
  ldr  r3, =_edata
20003302:	4b0c      	ldr	r3, [pc, #48]	; (20003334 <LoopFillZerobss+0x20>)
  adds  r2, r0, r1
20003304:	1842      	adds	r2, r0, r1
  cmp  r2, r3
20003306:	429a      	cmp	r2, r3
  bcc  CopyDataInit
20003308:	d3f6      	bcc.n	200032f8 <CopyDataInit>
  ldr  r2, =_sbss
2000330a:	4a0b      	ldr	r2, [pc, #44]	; (20003338 <LoopFillZerobss+0x24>)
  b  LoopFillZerobss
2000330c:	e002      	b.n	20003314 <LoopFillZerobss>

2000330e <FillZerobss>:
/* Zero fill the bss segment. */  
FillZerobss:
  movs  r3, #0
2000330e:	2300      	movs	r3, #0
  str  r3, [r2], #4
20003310:	f842 3b04 	str.w	r3, [r2], #4

20003314 <LoopFillZerobss>:
    
LoopFillZerobss:
  ldr  r3, = _ebss
20003314:	4b09      	ldr	r3, [pc, #36]	; (2000333c <LoopFillZerobss+0x28>)
  cmp  r2, r3
20003316:	429a      	cmp	r2, r3
  bcc  FillZerobss
20003318:	d3f9      	bcc.n	2000330e <FillZerobss>

/* Call the clock system intitialization function.*/
  bl  SystemInit   
2000331a:	f7ff ffc3 	bl	200032a4 <SystemInit>
/* Call static constructors */
    bl __libc_init_array
2000331e:	f000 f811 	bl	20003344 <__libc_init_array>
/* Call the application's entry point.*/
  bl  main
20003322:	f7ff fe6d 	bl	20003000 <main>
  bx  lr    
20003326:	4770      	bx	lr
  ldr   sp, =_estack     /* set stack pointer */
20003328:	20020000 	.word	0x20020000
  ldr  r3, =_sidata
2000332c:	2000b0ec 	.word	0x2000b0ec
  ldr  r0, =_sdata
20003330:	20018000 	.word	0x20018000
  ldr  r3, =_edata
20003334:	200180d8 	.word	0x200180d8
  ldr  r2, =_sbss
20003338:	200180d8 	.word	0x200180d8
  ldr  r3, = _ebss
2000333c:	2001b410 	.word	0x2001b410

20003340 <ADC_IRQHandler>:
 * @retval None       
*/
    .section  .text.Default_Handler,"ax",%progbits
Default_Handler:
Infinite_Loop:
  b  Infinite_Loop
20003340:	e7fe      	b.n	20003340 <ADC_IRQHandler>
	...

20003344 <__libc_init_array>:
20003344:	b570      	push	{r4, r5, r6, lr}
20003346:	4e0d      	ldr	r6, [pc, #52]	; (2000337c <__libc_init_array+0x38>)
20003348:	4c0d      	ldr	r4, [pc, #52]	; (20003380 <__libc_init_array+0x3c>)
2000334a:	1ba4      	subs	r4, r4, r6
2000334c:	10a4      	asrs	r4, r4, #2
2000334e:	2500      	movs	r5, #0
20003350:	42a5      	cmp	r5, r4
20003352:	d109      	bne.n	20003368 <__libc_init_array+0x24>
20003354:	4e0b      	ldr	r6, [pc, #44]	; (20003384 <__libc_init_array+0x40>)
20003356:	4c0c      	ldr	r4, [pc, #48]	; (20003388 <__libc_init_array+0x44>)
20003358:	f000 ffbe 	bl	200042d8 <_init>
2000335c:	1ba4      	subs	r4, r4, r6
2000335e:	10a4      	asrs	r4, r4, #2
20003360:	2500      	movs	r5, #0
20003362:	42a5      	cmp	r5, r4
20003364:	d105      	bne.n	20003372 <__libc_init_array+0x2e>
20003366:	bd70      	pop	{r4, r5, r6, pc}
20003368:	f856 3025 	ldr.w	r3, [r6, r5, lsl #2]
2000336c:	4798      	blx	r3
2000336e:	3501      	adds	r5, #1
20003370:	e7ee      	b.n	20003350 <__libc_init_array+0xc>
20003372:	f856 3025 	ldr.w	r3, [r6, r5, lsl #2]
20003376:	4798      	blx	r3
20003378:	3501      	adds	r5, #1
2000337a:	e7f2      	b.n	20003362 <__libc_init_array+0x1e>
2000337c:	2000b0e4 	.word	0x2000b0e4
20003380:	2000b0e4 	.word	0x2000b0e4
20003384:	2000b0e4 	.word	0x2000b0e4
20003388:	2000b0e8 	.word	0x2000b0e8

2000338c <iprintf>:
2000338c:	b40f      	push	{r0, r1, r2, r3}
2000338e:	4b0a      	ldr	r3, [pc, #40]	; (200033b8 <iprintf+0x2c>)
20003390:	b513      	push	{r0, r1, r4, lr}
20003392:	681c      	ldr	r4, [r3, #0]
20003394:	b124      	cbz	r4, 200033a0 <iprintf+0x14>
20003396:	69a3      	ldr	r3, [r4, #24]
20003398:	b913      	cbnz	r3, 200033a0 <iprintf+0x14>
2000339a:	4620      	mov	r0, r4
2000339c:	f000 fa5e 	bl	2000385c <__sinit>
200033a0:	ab05      	add	r3, sp, #20
200033a2:	9a04      	ldr	r2, [sp, #16]
200033a4:	68a1      	ldr	r1, [r4, #8]
200033a6:	9301      	str	r3, [sp, #4]
200033a8:	4620      	mov	r0, r4
200033aa:	f000 fc2b 	bl	20003c04 <_vfiprintf_r>
200033ae:	b002      	add	sp, #8
200033b0:	e8bd 4010 	ldmia.w	sp!, {r4, lr}
200033b4:	b004      	add	sp, #16
200033b6:	4770      	bx	lr
200033b8:	20018074 	.word	0x20018074

200033bc <_puts_r>:
200033bc:	b570      	push	{r4, r5, r6, lr}
200033be:	460e      	mov	r6, r1
200033c0:	4605      	mov	r5, r0
200033c2:	b118      	cbz	r0, 200033cc <_puts_r+0x10>
200033c4:	6983      	ldr	r3, [r0, #24]
200033c6:	b90b      	cbnz	r3, 200033cc <_puts_r+0x10>
200033c8:	f000 fa48 	bl	2000385c <__sinit>
200033cc:	69ab      	ldr	r3, [r5, #24]
200033ce:	68ac      	ldr	r4, [r5, #8]
200033d0:	b913      	cbnz	r3, 200033d8 <_puts_r+0x1c>
200033d2:	4628      	mov	r0, r5
200033d4:	f000 fa42 	bl	2000385c <__sinit>
200033d8:	4b23      	ldr	r3, [pc, #140]	; (20003468 <_puts_r+0xac>)
200033da:	429c      	cmp	r4, r3
200033dc:	d117      	bne.n	2000340e <_puts_r+0x52>
200033de:	686c      	ldr	r4, [r5, #4]
200033e0:	89a3      	ldrh	r3, [r4, #12]
200033e2:	071b      	lsls	r3, r3, #28
200033e4:	d51d      	bpl.n	20003422 <_puts_r+0x66>
200033e6:	6923      	ldr	r3, [r4, #16]
200033e8:	b1db      	cbz	r3, 20003422 <_puts_r+0x66>
200033ea:	3e01      	subs	r6, #1
200033ec:	68a3      	ldr	r3, [r4, #8]
200033ee:	f816 1f01 	ldrb.w	r1, [r6, #1]!
200033f2:	3b01      	subs	r3, #1
200033f4:	60a3      	str	r3, [r4, #8]
200033f6:	b9e9      	cbnz	r1, 20003434 <_puts_r+0x78>
200033f8:	2b00      	cmp	r3, #0
200033fa:	da2e      	bge.n	2000345a <_puts_r+0x9e>
200033fc:	4622      	mov	r2, r4
200033fe:	210a      	movs	r1, #10
20003400:	4628      	mov	r0, r5
20003402:	f000 f879 	bl	200034f8 <__swbuf_r>
20003406:	3001      	adds	r0, #1
20003408:	d011      	beq.n	2000342e <_puts_r+0x72>
2000340a:	200a      	movs	r0, #10
2000340c:	bd70      	pop	{r4, r5, r6, pc}
2000340e:	4b17      	ldr	r3, [pc, #92]	; (2000346c <_puts_r+0xb0>)
20003410:	429c      	cmp	r4, r3
20003412:	d101      	bne.n	20003418 <_puts_r+0x5c>
20003414:	68ac      	ldr	r4, [r5, #8]
20003416:	e7e3      	b.n	200033e0 <_puts_r+0x24>
20003418:	4b15      	ldr	r3, [pc, #84]	; (20003470 <_puts_r+0xb4>)
2000341a:	429c      	cmp	r4, r3
2000341c:	bf08      	it	eq
2000341e:	68ec      	ldreq	r4, [r5, #12]
20003420:	e7de      	b.n	200033e0 <_puts_r+0x24>
20003422:	4621      	mov	r1, r4
20003424:	4628      	mov	r0, r5
20003426:	f000 f8b9 	bl	2000359c <__swsetup_r>
2000342a:	2800      	cmp	r0, #0
2000342c:	d0dd      	beq.n	200033ea <_puts_r+0x2e>
2000342e:	f04f 30ff 	mov.w	r0, #4294967295
20003432:	bd70      	pop	{r4, r5, r6, pc}
20003434:	2b00      	cmp	r3, #0
20003436:	da04      	bge.n	20003442 <_puts_r+0x86>
20003438:	69a2      	ldr	r2, [r4, #24]
2000343a:	4293      	cmp	r3, r2
2000343c:	db06      	blt.n	2000344c <_puts_r+0x90>
2000343e:	290a      	cmp	r1, #10
20003440:	d004      	beq.n	2000344c <_puts_r+0x90>
20003442:	6823      	ldr	r3, [r4, #0]
20003444:	1c5a      	adds	r2, r3, #1
20003446:	6022      	str	r2, [r4, #0]
20003448:	7019      	strb	r1, [r3, #0]
2000344a:	e7cf      	b.n	200033ec <_puts_r+0x30>
2000344c:	4622      	mov	r2, r4
2000344e:	4628      	mov	r0, r5
20003450:	f000 f852 	bl	200034f8 <__swbuf_r>
20003454:	3001      	adds	r0, #1
20003456:	d1c9      	bne.n	200033ec <_puts_r+0x30>
20003458:	e7e9      	b.n	2000342e <_puts_r+0x72>
2000345a:	6823      	ldr	r3, [r4, #0]
2000345c:	200a      	movs	r0, #10
2000345e:	1c5a      	adds	r2, r3, #1
20003460:	6022      	str	r2, [r4, #0]
20003462:	7018      	strb	r0, [r3, #0]
20003464:	bd70      	pop	{r4, r5, r6, pc}
20003466:	bf00      	nop
20003468:	2000b068 	.word	0x2000b068
2000346c:	2000b088 	.word	0x2000b088
20003470:	2000b048 	.word	0x2000b048

20003474 <puts>:
20003474:	4b02      	ldr	r3, [pc, #8]	; (20003480 <puts+0xc>)
20003476:	4601      	mov	r1, r0
20003478:	6818      	ldr	r0, [r3, #0]
2000347a:	f7ff bf9f 	b.w	200033bc <_puts_r>
2000347e:	bf00      	nop
20003480:	20018074 	.word	0x20018074

20003484 <random>:
20003484:	4b19      	ldr	r3, [pc, #100]	; (200034ec <random+0x68>)
20003486:	b510      	push	{r4, lr}
20003488:	681c      	ldr	r4, [r3, #0]
2000348a:	6ba3      	ldr	r3, [r4, #56]	; 0x38
2000348c:	b9d3      	cbnz	r3, 200034c4 <random+0x40>
2000348e:	2018      	movs	r0, #24
20003490:	f000 fad2 	bl	20003a38 <malloc>
20003494:	f243 330e 	movw	r3, #13070	; 0x330e
20003498:	63a0      	str	r0, [r4, #56]	; 0x38
2000349a:	8003      	strh	r3, [r0, #0]
2000349c:	f64a 33cd 	movw	r3, #43981	; 0xabcd
200034a0:	8043      	strh	r3, [r0, #2]
200034a2:	f241 2334 	movw	r3, #4660	; 0x1234
200034a6:	8083      	strh	r3, [r0, #4]
200034a8:	f24e 636d 	movw	r3, #58989	; 0xe66d
200034ac:	80c3      	strh	r3, [r0, #6]
200034ae:	f64d 63ec 	movw	r3, #57068	; 0xdeec
200034b2:	8103      	strh	r3, [r0, #8]
200034b4:	2305      	movs	r3, #5
200034b6:	8143      	strh	r3, [r0, #10]
200034b8:	230b      	movs	r3, #11
200034ba:	8183      	strh	r3, [r0, #12]
200034bc:	2201      	movs	r2, #1
200034be:	2300      	movs	r3, #0
200034c0:	e9c0 2304 	strd	r2, r3, [r0, #16]
200034c4:	6ba1      	ldr	r1, [r4, #56]	; 0x38
200034c6:	480a      	ldr	r0, [pc, #40]	; (200034f0 <random+0x6c>)
200034c8:	690a      	ldr	r2, [r1, #16]
200034ca:	694b      	ldr	r3, [r1, #20]
200034cc:	4c09      	ldr	r4, [pc, #36]	; (200034f4 <random+0x70>)
200034ce:	4350      	muls	r0, r2
200034d0:	fb04 0003 	mla	r0, r4, r3, r0
200034d4:	fba2 2304 	umull	r2, r3, r2, r4
200034d8:	3201      	adds	r2, #1
200034da:	4403      	add	r3, r0
200034dc:	f143 0300 	adc.w	r3, r3, #0
200034e0:	e9c1 2304 	strd	r2, r3, [r1, #16]
200034e4:	f023 4000 	bic.w	r0, r3, #2147483648	; 0x80000000
200034e8:	bd10      	pop	{r4, pc}
200034ea:	bf00      	nop
200034ec:	20018074 	.word	0x20018074
200034f0:	5851f42d 	.word	0x5851f42d
200034f4:	4c957f2d 	.word	0x4c957f2d

200034f8 <__swbuf_r>:
200034f8:	b5f8      	push	{r3, r4, r5, r6, r7, lr}
200034fa:	460e      	mov	r6, r1
200034fc:	4614      	mov	r4, r2
200034fe:	4605      	mov	r5, r0
20003500:	b118      	cbz	r0, 2000350a <__swbuf_r+0x12>
20003502:	6983      	ldr	r3, [r0, #24]
20003504:	b90b      	cbnz	r3, 2000350a <__swbuf_r+0x12>
20003506:	f000 f9a9 	bl	2000385c <__sinit>
2000350a:	4b21      	ldr	r3, [pc, #132]	; (20003590 <__swbuf_r+0x98>)
2000350c:	429c      	cmp	r4, r3
2000350e:	d12a      	bne.n	20003566 <__swbuf_r+0x6e>
20003510:	686c      	ldr	r4, [r5, #4]
20003512:	69a3      	ldr	r3, [r4, #24]
20003514:	60a3      	str	r3, [r4, #8]
20003516:	89a3      	ldrh	r3, [r4, #12]
20003518:	071a      	lsls	r2, r3, #28
2000351a:	d52e      	bpl.n	2000357a <__swbuf_r+0x82>
2000351c:	6923      	ldr	r3, [r4, #16]
2000351e:	b363      	cbz	r3, 2000357a <__swbuf_r+0x82>
20003520:	6923      	ldr	r3, [r4, #16]
20003522:	6820      	ldr	r0, [r4, #0]
20003524:	1ac0      	subs	r0, r0, r3
20003526:	6963      	ldr	r3, [r4, #20]
20003528:	b2f6      	uxtb	r6, r6
2000352a:	4298      	cmp	r0, r3
2000352c:	4637      	mov	r7, r6
2000352e:	db04      	blt.n	2000353a <__swbuf_r+0x42>
20003530:	4621      	mov	r1, r4
20003532:	4628      	mov	r0, r5
20003534:	f000 f928 	bl	20003788 <_fflush_r>
20003538:	bb28      	cbnz	r0, 20003586 <__swbuf_r+0x8e>
2000353a:	68a3      	ldr	r3, [r4, #8]
2000353c:	3b01      	subs	r3, #1
2000353e:	60a3      	str	r3, [r4, #8]
20003540:	6823      	ldr	r3, [r4, #0]
20003542:	1c5a      	adds	r2, r3, #1
20003544:	6022      	str	r2, [r4, #0]
20003546:	701e      	strb	r6, [r3, #0]
20003548:	6963      	ldr	r3, [r4, #20]
2000354a:	3001      	adds	r0, #1
2000354c:	4298      	cmp	r0, r3
2000354e:	d004      	beq.n	2000355a <__swbuf_r+0x62>
20003550:	89a3      	ldrh	r3, [r4, #12]
20003552:	07db      	lsls	r3, r3, #31
20003554:	d519      	bpl.n	2000358a <__swbuf_r+0x92>
20003556:	2e0a      	cmp	r6, #10
20003558:	d117      	bne.n	2000358a <__swbuf_r+0x92>
2000355a:	4621      	mov	r1, r4
2000355c:	4628      	mov	r0, r5
2000355e:	f000 f913 	bl	20003788 <_fflush_r>
20003562:	b190      	cbz	r0, 2000358a <__swbuf_r+0x92>
20003564:	e00f      	b.n	20003586 <__swbuf_r+0x8e>
20003566:	4b0b      	ldr	r3, [pc, #44]	; (20003594 <__swbuf_r+0x9c>)
20003568:	429c      	cmp	r4, r3
2000356a:	d101      	bne.n	20003570 <__swbuf_r+0x78>
2000356c:	68ac      	ldr	r4, [r5, #8]
2000356e:	e7d0      	b.n	20003512 <__swbuf_r+0x1a>
20003570:	4b09      	ldr	r3, [pc, #36]	; (20003598 <__swbuf_r+0xa0>)
20003572:	429c      	cmp	r4, r3
20003574:	bf08      	it	eq
20003576:	68ec      	ldreq	r4, [r5, #12]
20003578:	e7cb      	b.n	20003512 <__swbuf_r+0x1a>
2000357a:	4621      	mov	r1, r4
2000357c:	4628      	mov	r0, r5
2000357e:	f000 f80d 	bl	2000359c <__swsetup_r>
20003582:	2800      	cmp	r0, #0
20003584:	d0cc      	beq.n	20003520 <__swbuf_r+0x28>
20003586:	f04f 37ff 	mov.w	r7, #4294967295
2000358a:	4638      	mov	r0, r7
2000358c:	bdf8      	pop	{r3, r4, r5, r6, r7, pc}
2000358e:	bf00      	nop
20003590:	2000b068 	.word	0x2000b068
20003594:	2000b088 	.word	0x2000b088
20003598:	2000b048 	.word	0x2000b048

2000359c <__swsetup_r>:
2000359c:	4b32      	ldr	r3, [pc, #200]	; (20003668 <__swsetup_r+0xcc>)
2000359e:	b570      	push	{r4, r5, r6, lr}
200035a0:	681d      	ldr	r5, [r3, #0]
200035a2:	4606      	mov	r6, r0
200035a4:	460c      	mov	r4, r1
200035a6:	b125      	cbz	r5, 200035b2 <__swsetup_r+0x16>
200035a8:	69ab      	ldr	r3, [r5, #24]
200035aa:	b913      	cbnz	r3, 200035b2 <__swsetup_r+0x16>
200035ac:	4628      	mov	r0, r5
200035ae:	f000 f955 	bl	2000385c <__sinit>
200035b2:	4b2e      	ldr	r3, [pc, #184]	; (2000366c <__swsetup_r+0xd0>)
200035b4:	429c      	cmp	r4, r3
200035b6:	d10f      	bne.n	200035d8 <__swsetup_r+0x3c>
200035b8:	686c      	ldr	r4, [r5, #4]
200035ba:	f9b4 300c 	ldrsh.w	r3, [r4, #12]
200035be:	b29a      	uxth	r2, r3
200035c0:	0715      	lsls	r5, r2, #28
200035c2:	d42c      	bmi.n	2000361e <__swsetup_r+0x82>
200035c4:	06d0      	lsls	r0, r2, #27
200035c6:	d411      	bmi.n	200035ec <__swsetup_r+0x50>
200035c8:	2209      	movs	r2, #9
200035ca:	6032      	str	r2, [r6, #0]
200035cc:	f043 0340 	orr.w	r3, r3, #64	; 0x40
200035d0:	81a3      	strh	r3, [r4, #12]
200035d2:	f04f 30ff 	mov.w	r0, #4294967295
200035d6:	bd70      	pop	{r4, r5, r6, pc}
200035d8:	4b25      	ldr	r3, [pc, #148]	; (20003670 <__swsetup_r+0xd4>)
200035da:	429c      	cmp	r4, r3
200035dc:	d101      	bne.n	200035e2 <__swsetup_r+0x46>
200035de:	68ac      	ldr	r4, [r5, #8]
200035e0:	e7eb      	b.n	200035ba <__swsetup_r+0x1e>
200035e2:	4b24      	ldr	r3, [pc, #144]	; (20003674 <__swsetup_r+0xd8>)
200035e4:	429c      	cmp	r4, r3
200035e6:	bf08      	it	eq
200035e8:	68ec      	ldreq	r4, [r5, #12]
200035ea:	e7e6      	b.n	200035ba <__swsetup_r+0x1e>
200035ec:	0751      	lsls	r1, r2, #29
200035ee:	d512      	bpl.n	20003616 <__swsetup_r+0x7a>
200035f0:	6b61      	ldr	r1, [r4, #52]	; 0x34
200035f2:	b141      	cbz	r1, 20003606 <__swsetup_r+0x6a>
200035f4:	f104 0344 	add.w	r3, r4, #68	; 0x44
200035f8:	4299      	cmp	r1, r3
200035fa:	d002      	beq.n	20003602 <__swsetup_r+0x66>
200035fc:	4630      	mov	r0, r6
200035fe:	f000 fa2b 	bl	20003a58 <_free_r>
20003602:	2300      	movs	r3, #0
20003604:	6363      	str	r3, [r4, #52]	; 0x34
20003606:	89a3      	ldrh	r3, [r4, #12]
20003608:	f023 0324 	bic.w	r3, r3, #36	; 0x24
2000360c:	81a3      	strh	r3, [r4, #12]
2000360e:	2300      	movs	r3, #0
20003610:	6063      	str	r3, [r4, #4]
20003612:	6923      	ldr	r3, [r4, #16]
20003614:	6023      	str	r3, [r4, #0]
20003616:	89a3      	ldrh	r3, [r4, #12]
20003618:	f043 0308 	orr.w	r3, r3, #8
2000361c:	81a3      	strh	r3, [r4, #12]
2000361e:	6923      	ldr	r3, [r4, #16]
20003620:	b94b      	cbnz	r3, 20003636 <__swsetup_r+0x9a>
20003622:	89a3      	ldrh	r3, [r4, #12]
20003624:	f403 7320 	and.w	r3, r3, #640	; 0x280
20003628:	f5b3 7f00 	cmp.w	r3, #512	; 0x200
2000362c:	d003      	beq.n	20003636 <__swsetup_r+0x9a>
2000362e:	4621      	mov	r1, r4
20003630:	4630      	mov	r0, r6
20003632:	f000 f9c1 	bl	200039b8 <__smakebuf_r>
20003636:	89a2      	ldrh	r2, [r4, #12]
20003638:	f012 0301 	ands.w	r3, r2, #1
2000363c:	d00c      	beq.n	20003658 <__swsetup_r+0xbc>
2000363e:	2300      	movs	r3, #0
20003640:	60a3      	str	r3, [r4, #8]
20003642:	6963      	ldr	r3, [r4, #20]
20003644:	425b      	negs	r3, r3
20003646:	61a3      	str	r3, [r4, #24]
20003648:	6923      	ldr	r3, [r4, #16]
2000364a:	b953      	cbnz	r3, 20003662 <__swsetup_r+0xc6>
2000364c:	f9b4 300c 	ldrsh.w	r3, [r4, #12]
20003650:	f013 0080 	ands.w	r0, r3, #128	; 0x80
20003654:	d1ba      	bne.n	200035cc <__swsetup_r+0x30>
20003656:	bd70      	pop	{r4, r5, r6, pc}
20003658:	0792      	lsls	r2, r2, #30
2000365a:	bf58      	it	pl
2000365c:	6963      	ldrpl	r3, [r4, #20]
2000365e:	60a3      	str	r3, [r4, #8]
20003660:	e7f2      	b.n	20003648 <__swsetup_r+0xac>
20003662:	2000      	movs	r0, #0
20003664:	e7f7      	b.n	20003656 <__swsetup_r+0xba>
20003666:	bf00      	nop
20003668:	20018074 	.word	0x20018074
2000366c:	2000b068 	.word	0x2000b068
20003670:	2000b088 	.word	0x2000b088
20003674:	2000b048 	.word	0x2000b048

20003678 <__sflush_r>:
20003678:	898a      	ldrh	r2, [r1, #12]
2000367a:	e92d 41f0 	stmdb	sp!, {r4, r5, r6, r7, r8, lr}
2000367e:	4605      	mov	r5, r0
20003680:	0710      	lsls	r0, r2, #28
20003682:	460c      	mov	r4, r1
20003684:	d45a      	bmi.n	2000373c <__sflush_r+0xc4>
20003686:	684b      	ldr	r3, [r1, #4]
20003688:	2b00      	cmp	r3, #0
2000368a:	dc05      	bgt.n	20003698 <__sflush_r+0x20>
2000368c:	6c0b      	ldr	r3, [r1, #64]	; 0x40
2000368e:	2b00      	cmp	r3, #0
20003690:	dc02      	bgt.n	20003698 <__sflush_r+0x20>
20003692:	2000      	movs	r0, #0
20003694:	e8bd 81f0 	ldmia.w	sp!, {r4, r5, r6, r7, r8, pc}
20003698:	6ae6      	ldr	r6, [r4, #44]	; 0x2c
2000369a:	2e00      	cmp	r6, #0
2000369c:	d0f9      	beq.n	20003692 <__sflush_r+0x1a>
2000369e:	2300      	movs	r3, #0
200036a0:	f412 5280 	ands.w	r2, r2, #4096	; 0x1000
200036a4:	682f      	ldr	r7, [r5, #0]
200036a6:	602b      	str	r3, [r5, #0]
200036a8:	d033      	beq.n	20003712 <__sflush_r+0x9a>
200036aa:	6d60      	ldr	r0, [r4, #84]	; 0x54
200036ac:	89a3      	ldrh	r3, [r4, #12]
200036ae:	075a      	lsls	r2, r3, #29
200036b0:	d505      	bpl.n	200036be <__sflush_r+0x46>
200036b2:	6863      	ldr	r3, [r4, #4]
200036b4:	1ac0      	subs	r0, r0, r3
200036b6:	6b63      	ldr	r3, [r4, #52]	; 0x34
200036b8:	b10b      	cbz	r3, 200036be <__sflush_r+0x46>
200036ba:	6c23      	ldr	r3, [r4, #64]	; 0x40
200036bc:	1ac0      	subs	r0, r0, r3
200036be:	2300      	movs	r3, #0
200036c0:	4602      	mov	r2, r0
200036c2:	6ae6      	ldr	r6, [r4, #44]	; 0x2c
200036c4:	6a21      	ldr	r1, [r4, #32]
200036c6:	4628      	mov	r0, r5
200036c8:	47b0      	blx	r6
200036ca:	1c43      	adds	r3, r0, #1
200036cc:	89a3      	ldrh	r3, [r4, #12]
200036ce:	d106      	bne.n	200036de <__sflush_r+0x66>
200036d0:	6829      	ldr	r1, [r5, #0]
200036d2:	291d      	cmp	r1, #29
200036d4:	d84b      	bhi.n	2000376e <__sflush_r+0xf6>
200036d6:	4a2b      	ldr	r2, [pc, #172]	; (20003784 <__sflush_r+0x10c>)
200036d8:	40ca      	lsrs	r2, r1
200036da:	07d6      	lsls	r6, r2, #31
200036dc:	d547      	bpl.n	2000376e <__sflush_r+0xf6>
200036de:	2200      	movs	r2, #0
200036e0:	6062      	str	r2, [r4, #4]
200036e2:	04d9      	lsls	r1, r3, #19
200036e4:	6922      	ldr	r2, [r4, #16]
200036e6:	6022      	str	r2, [r4, #0]
200036e8:	d504      	bpl.n	200036f4 <__sflush_r+0x7c>
200036ea:	1c42      	adds	r2, r0, #1
200036ec:	d101      	bne.n	200036f2 <__sflush_r+0x7a>
200036ee:	682b      	ldr	r3, [r5, #0]
200036f0:	b903      	cbnz	r3, 200036f4 <__sflush_r+0x7c>
200036f2:	6560      	str	r0, [r4, #84]	; 0x54
200036f4:	6b61      	ldr	r1, [r4, #52]	; 0x34
200036f6:	602f      	str	r7, [r5, #0]
200036f8:	2900      	cmp	r1, #0
200036fa:	d0ca      	beq.n	20003692 <__sflush_r+0x1a>
200036fc:	f104 0344 	add.w	r3, r4, #68	; 0x44
20003700:	4299      	cmp	r1, r3
20003702:	d002      	beq.n	2000370a <__sflush_r+0x92>
20003704:	4628      	mov	r0, r5
20003706:	f000 f9a7 	bl	20003a58 <_free_r>
2000370a:	2000      	movs	r0, #0
2000370c:	6360      	str	r0, [r4, #52]	; 0x34
2000370e:	e8bd 81f0 	ldmia.w	sp!, {r4, r5, r6, r7, r8, pc}
20003712:	6a21      	ldr	r1, [r4, #32]
20003714:	2301      	movs	r3, #1
20003716:	4628      	mov	r0, r5
20003718:	47b0      	blx	r6
2000371a:	1c41      	adds	r1, r0, #1
2000371c:	d1c6      	bne.n	200036ac <__sflush_r+0x34>
2000371e:	682b      	ldr	r3, [r5, #0]
20003720:	2b00      	cmp	r3, #0
20003722:	d0c3      	beq.n	200036ac <__sflush_r+0x34>
20003724:	2b1d      	cmp	r3, #29
20003726:	d001      	beq.n	2000372c <__sflush_r+0xb4>
20003728:	2b16      	cmp	r3, #22
2000372a:	d101      	bne.n	20003730 <__sflush_r+0xb8>
2000372c:	602f      	str	r7, [r5, #0]
2000372e:	e7b0      	b.n	20003692 <__sflush_r+0x1a>
20003730:	89a3      	ldrh	r3, [r4, #12]
20003732:	f043 0340 	orr.w	r3, r3, #64	; 0x40
20003736:	81a3      	strh	r3, [r4, #12]
20003738:	e8bd 81f0 	ldmia.w	sp!, {r4, r5, r6, r7, r8, pc}
2000373c:	690f      	ldr	r7, [r1, #16]
2000373e:	2f00      	cmp	r7, #0
20003740:	d0a7      	beq.n	20003692 <__sflush_r+0x1a>
20003742:	0793      	lsls	r3, r2, #30
20003744:	680e      	ldr	r6, [r1, #0]
20003746:	bf08      	it	eq
20003748:	694b      	ldreq	r3, [r1, #20]
2000374a:	600f      	str	r7, [r1, #0]
2000374c:	bf18      	it	ne
2000374e:	2300      	movne	r3, #0
20003750:	eba6 0807 	sub.w	r8, r6, r7
20003754:	608b      	str	r3, [r1, #8]
20003756:	f1b8 0f00 	cmp.w	r8, #0
2000375a:	dd9a      	ble.n	20003692 <__sflush_r+0x1a>
2000375c:	4643      	mov	r3, r8
2000375e:	463a      	mov	r2, r7
20003760:	6a21      	ldr	r1, [r4, #32]
20003762:	6aa6      	ldr	r6, [r4, #40]	; 0x28
20003764:	4628      	mov	r0, r5
20003766:	47b0      	blx	r6
20003768:	2800      	cmp	r0, #0
2000376a:	dc07      	bgt.n	2000377c <__sflush_r+0x104>
2000376c:	89a3      	ldrh	r3, [r4, #12]
2000376e:	f043 0340 	orr.w	r3, r3, #64	; 0x40
20003772:	81a3      	strh	r3, [r4, #12]
20003774:	f04f 30ff 	mov.w	r0, #4294967295
20003778:	e8bd 81f0 	ldmia.w	sp!, {r4, r5, r6, r7, r8, pc}
2000377c:	4407      	add	r7, r0
2000377e:	eba8 0800 	sub.w	r8, r8, r0
20003782:	e7e8      	b.n	20003756 <__sflush_r+0xde>
20003784:	20400001 	.word	0x20400001

20003788 <_fflush_r>:
20003788:	b538      	push	{r3, r4, r5, lr}
2000378a:	690b      	ldr	r3, [r1, #16]
2000378c:	4605      	mov	r5, r0
2000378e:	460c      	mov	r4, r1
20003790:	b1db      	cbz	r3, 200037ca <_fflush_r+0x42>
20003792:	b118      	cbz	r0, 2000379c <_fflush_r+0x14>
20003794:	6983      	ldr	r3, [r0, #24]
20003796:	b90b      	cbnz	r3, 2000379c <_fflush_r+0x14>
20003798:	f000 f860 	bl	2000385c <__sinit>
2000379c:	4b0c      	ldr	r3, [pc, #48]	; (200037d0 <_fflush_r+0x48>)
2000379e:	429c      	cmp	r4, r3
200037a0:	d109      	bne.n	200037b6 <_fflush_r+0x2e>
200037a2:	686c      	ldr	r4, [r5, #4]
200037a4:	f9b4 300c 	ldrsh.w	r3, [r4, #12]
200037a8:	b17b      	cbz	r3, 200037ca <_fflush_r+0x42>
200037aa:	4621      	mov	r1, r4
200037ac:	4628      	mov	r0, r5
200037ae:	e8bd 4038 	ldmia.w	sp!, {r3, r4, r5, lr}
200037b2:	f7ff bf61 	b.w	20003678 <__sflush_r>
200037b6:	4b07      	ldr	r3, [pc, #28]	; (200037d4 <_fflush_r+0x4c>)
200037b8:	429c      	cmp	r4, r3
200037ba:	d101      	bne.n	200037c0 <_fflush_r+0x38>
200037bc:	68ac      	ldr	r4, [r5, #8]
200037be:	e7f1      	b.n	200037a4 <_fflush_r+0x1c>
200037c0:	4b05      	ldr	r3, [pc, #20]	; (200037d8 <_fflush_r+0x50>)
200037c2:	429c      	cmp	r4, r3
200037c4:	bf08      	it	eq
200037c6:	68ec      	ldreq	r4, [r5, #12]
200037c8:	e7ec      	b.n	200037a4 <_fflush_r+0x1c>
200037ca:	2000      	movs	r0, #0
200037cc:	bd38      	pop	{r3, r4, r5, pc}
200037ce:	bf00      	nop
200037d0:	2000b068 	.word	0x2000b068
200037d4:	2000b088 	.word	0x2000b088
200037d8:	2000b048 	.word	0x2000b048

200037dc <_cleanup_r>:
200037dc:	4901      	ldr	r1, [pc, #4]	; (200037e4 <_cleanup_r+0x8>)
200037de:	f000 b8a9 	b.w	20003934 <_fwalk_reent>
200037e2:	bf00      	nop
200037e4:	20003789 	.word	0x20003789

200037e8 <std.isra.0>:
200037e8:	2300      	movs	r3, #0
200037ea:	b510      	push	{r4, lr}
200037ec:	4604      	mov	r4, r0
200037ee:	6003      	str	r3, [r0, #0]
200037f0:	6043      	str	r3, [r0, #4]
200037f2:	6083      	str	r3, [r0, #8]
200037f4:	8181      	strh	r1, [r0, #12]
200037f6:	6643      	str	r3, [r0, #100]	; 0x64
200037f8:	81c2      	strh	r2, [r0, #14]
200037fa:	6103      	str	r3, [r0, #16]
200037fc:	6143      	str	r3, [r0, #20]
200037fe:	6183      	str	r3, [r0, #24]
20003800:	4619      	mov	r1, r3
20003802:	2208      	movs	r2, #8
20003804:	305c      	adds	r0, #92	; 0x5c
20003806:	f000 f91f 	bl	20003a48 <memset>
2000380a:	4b05      	ldr	r3, [pc, #20]	; (20003820 <std.isra.0+0x38>)
2000380c:	6263      	str	r3, [r4, #36]	; 0x24
2000380e:	4b05      	ldr	r3, [pc, #20]	; (20003824 <std.isra.0+0x3c>)
20003810:	62a3      	str	r3, [r4, #40]	; 0x28
20003812:	4b05      	ldr	r3, [pc, #20]	; (20003828 <std.isra.0+0x40>)
20003814:	62e3      	str	r3, [r4, #44]	; 0x2c
20003816:	4b05      	ldr	r3, [pc, #20]	; (2000382c <std.isra.0+0x44>)
20003818:	6224      	str	r4, [r4, #32]
2000381a:	6323      	str	r3, [r4, #48]	; 0x30
2000381c:	bd10      	pop	{r4, pc}
2000381e:	bf00      	nop
20003820:	2000417d 	.word	0x2000417d
20003824:	2000419f 	.word	0x2000419f
20003828:	200041d7 	.word	0x200041d7
2000382c:	200041fb 	.word	0x200041fb

20003830 <__sfmoreglue>:
20003830:	b570      	push	{r4, r5, r6, lr}
20003832:	1e4a      	subs	r2, r1, #1
20003834:	2568      	movs	r5, #104	; 0x68
20003836:	4355      	muls	r5, r2
20003838:	460e      	mov	r6, r1
2000383a:	f105 0174 	add.w	r1, r5, #116	; 0x74
2000383e:	f000 f959 	bl	20003af4 <_malloc_r>
20003842:	4604      	mov	r4, r0
20003844:	b140      	cbz	r0, 20003858 <__sfmoreglue+0x28>
20003846:	2100      	movs	r1, #0
20003848:	e880 0042 	stmia.w	r0, {r1, r6}
2000384c:	300c      	adds	r0, #12
2000384e:	60a0      	str	r0, [r4, #8]
20003850:	f105 0268 	add.w	r2, r5, #104	; 0x68
20003854:	f000 f8f8 	bl	20003a48 <memset>
20003858:	4620      	mov	r0, r4
2000385a:	bd70      	pop	{r4, r5, r6, pc}

2000385c <__sinit>:
2000385c:	6983      	ldr	r3, [r0, #24]
2000385e:	b510      	push	{r4, lr}
20003860:	4604      	mov	r4, r0
20003862:	bb33      	cbnz	r3, 200038b2 <__sinit+0x56>
20003864:	6483      	str	r3, [r0, #72]	; 0x48
20003866:	64c3      	str	r3, [r0, #76]	; 0x4c
20003868:	6503      	str	r3, [r0, #80]	; 0x50
2000386a:	4b12      	ldr	r3, [pc, #72]	; (200038b4 <__sinit+0x58>)
2000386c:	4a12      	ldr	r2, [pc, #72]	; (200038b8 <__sinit+0x5c>)
2000386e:	681b      	ldr	r3, [r3, #0]
20003870:	6282      	str	r2, [r0, #40]	; 0x28
20003872:	4298      	cmp	r0, r3
20003874:	bf04      	itt	eq
20003876:	2301      	moveq	r3, #1
20003878:	6183      	streq	r3, [r0, #24]
2000387a:	f000 f81f 	bl	200038bc <__sfp>
2000387e:	6060      	str	r0, [r4, #4]
20003880:	4620      	mov	r0, r4
20003882:	f000 f81b 	bl	200038bc <__sfp>
20003886:	60a0      	str	r0, [r4, #8]
20003888:	4620      	mov	r0, r4
2000388a:	f000 f817 	bl	200038bc <__sfp>
2000388e:	2200      	movs	r2, #0
20003890:	60e0      	str	r0, [r4, #12]
20003892:	2104      	movs	r1, #4
20003894:	6860      	ldr	r0, [r4, #4]
20003896:	f7ff ffa7 	bl	200037e8 <std.isra.0>
2000389a:	2201      	movs	r2, #1
2000389c:	2109      	movs	r1, #9
2000389e:	68a0      	ldr	r0, [r4, #8]
200038a0:	f7ff ffa2 	bl	200037e8 <std.isra.0>
200038a4:	2202      	movs	r2, #2
200038a6:	2112      	movs	r1, #18
200038a8:	68e0      	ldr	r0, [r4, #12]
200038aa:	f7ff ff9d 	bl	200037e8 <std.isra.0>
200038ae:	2301      	movs	r3, #1
200038b0:	61a3      	str	r3, [r4, #24]
200038b2:	bd10      	pop	{r4, pc}
200038b4:	2000b044 	.word	0x2000b044
200038b8:	200037dd 	.word	0x200037dd

200038bc <__sfp>:
200038bc:	b5f8      	push	{r3, r4, r5, r6, r7, lr}
200038be:	4b1c      	ldr	r3, [pc, #112]	; (20003930 <__sfp+0x74>)
200038c0:	681e      	ldr	r6, [r3, #0]
200038c2:	69b3      	ldr	r3, [r6, #24]
200038c4:	4607      	mov	r7, r0
200038c6:	b913      	cbnz	r3, 200038ce <__sfp+0x12>
200038c8:	4630      	mov	r0, r6
200038ca:	f7ff ffc7 	bl	2000385c <__sinit>
200038ce:	3648      	adds	r6, #72	; 0x48
200038d0:	68b4      	ldr	r4, [r6, #8]
200038d2:	6873      	ldr	r3, [r6, #4]
200038d4:	3b01      	subs	r3, #1
200038d6:	d503      	bpl.n	200038e0 <__sfp+0x24>
200038d8:	6833      	ldr	r3, [r6, #0]
200038da:	b133      	cbz	r3, 200038ea <__sfp+0x2e>
200038dc:	6836      	ldr	r6, [r6, #0]
200038de:	e7f7      	b.n	200038d0 <__sfp+0x14>
200038e0:	f9b4 500c 	ldrsh.w	r5, [r4, #12]
200038e4:	b16d      	cbz	r5, 20003902 <__sfp+0x46>
200038e6:	3468      	adds	r4, #104	; 0x68
200038e8:	e7f4      	b.n	200038d4 <__sfp+0x18>
200038ea:	2104      	movs	r1, #4
200038ec:	4638      	mov	r0, r7
200038ee:	f7ff ff9f 	bl	20003830 <__sfmoreglue>
200038f2:	6030      	str	r0, [r6, #0]
200038f4:	2800      	cmp	r0, #0
200038f6:	d1f1      	bne.n	200038dc <__sfp+0x20>
200038f8:	230c      	movs	r3, #12
200038fa:	603b      	str	r3, [r7, #0]
200038fc:	4604      	mov	r4, r0
200038fe:	4620      	mov	r0, r4
20003900:	bdf8      	pop	{r3, r4, r5, r6, r7, pc}
20003902:	f64f 73ff 	movw	r3, #65535	; 0xffff
20003906:	81e3      	strh	r3, [r4, #14]
20003908:	2301      	movs	r3, #1
2000390a:	81a3      	strh	r3, [r4, #12]
2000390c:	6665      	str	r5, [r4, #100]	; 0x64
2000390e:	6025      	str	r5, [r4, #0]
20003910:	60a5      	str	r5, [r4, #8]
20003912:	6065      	str	r5, [r4, #4]
20003914:	6125      	str	r5, [r4, #16]
20003916:	6165      	str	r5, [r4, #20]
20003918:	61a5      	str	r5, [r4, #24]
2000391a:	2208      	movs	r2, #8
2000391c:	4629      	mov	r1, r5
2000391e:	f104 005c 	add.w	r0, r4, #92	; 0x5c
20003922:	f000 f891 	bl	20003a48 <memset>
20003926:	6365      	str	r5, [r4, #52]	; 0x34
20003928:	63a5      	str	r5, [r4, #56]	; 0x38
2000392a:	64a5      	str	r5, [r4, #72]	; 0x48
2000392c:	64e5      	str	r5, [r4, #76]	; 0x4c
2000392e:	e7e6      	b.n	200038fe <__sfp+0x42>
20003930:	2000b044 	.word	0x2000b044

20003934 <_fwalk_reent>:
20003934:	e92d 43f8 	stmdb	sp!, {r3, r4, r5, r6, r7, r8, r9, lr}
20003938:	4680      	mov	r8, r0
2000393a:	4689      	mov	r9, r1
2000393c:	f100 0448 	add.w	r4, r0, #72	; 0x48
20003940:	2600      	movs	r6, #0
20003942:	b914      	cbnz	r4, 2000394a <_fwalk_reent+0x16>
20003944:	4630      	mov	r0, r6
20003946:	e8bd 83f8 	ldmia.w	sp!, {r3, r4, r5, r6, r7, r8, r9, pc}
2000394a:	68a5      	ldr	r5, [r4, #8]
2000394c:	6867      	ldr	r7, [r4, #4]
2000394e:	3f01      	subs	r7, #1
20003950:	d501      	bpl.n	20003956 <_fwalk_reent+0x22>
20003952:	6824      	ldr	r4, [r4, #0]
20003954:	e7f5      	b.n	20003942 <_fwalk_reent+0xe>
20003956:	89ab      	ldrh	r3, [r5, #12]
20003958:	2b01      	cmp	r3, #1
2000395a:	d907      	bls.n	2000396c <_fwalk_reent+0x38>
2000395c:	f9b5 300e 	ldrsh.w	r3, [r5, #14]
20003960:	3301      	adds	r3, #1
20003962:	d003      	beq.n	2000396c <_fwalk_reent+0x38>
20003964:	4629      	mov	r1, r5
20003966:	4640      	mov	r0, r8
20003968:	47c8      	blx	r9
2000396a:	4306      	orrs	r6, r0
2000396c:	3568      	adds	r5, #104	; 0x68
2000396e:	e7ee      	b.n	2000394e <_fwalk_reent+0x1a>

20003970 <__swhatbuf_r>:
20003970:	b570      	push	{r4, r5, r6, lr}
20003972:	460e      	mov	r6, r1
20003974:	f9b1 100e 	ldrsh.w	r1, [r1, #14]
20003978:	2900      	cmp	r1, #0
2000397a:	b090      	sub	sp, #64	; 0x40
2000397c:	4614      	mov	r4, r2
2000397e:	461d      	mov	r5, r3
20003980:	da07      	bge.n	20003992 <__swhatbuf_r+0x22>
20003982:	2300      	movs	r3, #0
20003984:	602b      	str	r3, [r5, #0]
20003986:	89b3      	ldrh	r3, [r6, #12]
20003988:	061a      	lsls	r2, r3, #24
2000398a:	d410      	bmi.n	200039ae <__swhatbuf_r+0x3e>
2000398c:	f44f 6380 	mov.w	r3, #1024	; 0x400
20003990:	e00e      	b.n	200039b0 <__swhatbuf_r+0x40>
20003992:	aa01      	add	r2, sp, #4
20003994:	f000 fc58 	bl	20004248 <_fstat_r>
20003998:	2800      	cmp	r0, #0
2000399a:	dbf2      	blt.n	20003982 <__swhatbuf_r+0x12>
2000399c:	9a02      	ldr	r2, [sp, #8]
2000399e:	f402 4270 	and.w	r2, r2, #61440	; 0xf000
200039a2:	f5a2 5300 	sub.w	r3, r2, #8192	; 0x2000
200039a6:	425a      	negs	r2, r3
200039a8:	415a      	adcs	r2, r3
200039aa:	602a      	str	r2, [r5, #0]
200039ac:	e7ee      	b.n	2000398c <__swhatbuf_r+0x1c>
200039ae:	2340      	movs	r3, #64	; 0x40
200039b0:	2000      	movs	r0, #0
200039b2:	6023      	str	r3, [r4, #0]
200039b4:	b010      	add	sp, #64	; 0x40
200039b6:	bd70      	pop	{r4, r5, r6, pc}

200039b8 <__smakebuf_r>:
200039b8:	898b      	ldrh	r3, [r1, #12]
200039ba:	b573      	push	{r0, r1, r4, r5, r6, lr}
200039bc:	079d      	lsls	r5, r3, #30
200039be:	4606      	mov	r6, r0
200039c0:	460c      	mov	r4, r1
200039c2:	d507      	bpl.n	200039d4 <__smakebuf_r+0x1c>
200039c4:	f104 0347 	add.w	r3, r4, #71	; 0x47
200039c8:	6023      	str	r3, [r4, #0]
200039ca:	6123      	str	r3, [r4, #16]
200039cc:	2301      	movs	r3, #1
200039ce:	6163      	str	r3, [r4, #20]
200039d0:	b002      	add	sp, #8
200039d2:	bd70      	pop	{r4, r5, r6, pc}
200039d4:	ab01      	add	r3, sp, #4
200039d6:	466a      	mov	r2, sp
200039d8:	f7ff ffca 	bl	20003970 <__swhatbuf_r>
200039dc:	9900      	ldr	r1, [sp, #0]
200039de:	4605      	mov	r5, r0
200039e0:	4630      	mov	r0, r6
200039e2:	f000 f887 	bl	20003af4 <_malloc_r>
200039e6:	b948      	cbnz	r0, 200039fc <__smakebuf_r+0x44>
200039e8:	f9b4 300c 	ldrsh.w	r3, [r4, #12]
200039ec:	059a      	lsls	r2, r3, #22
200039ee:	d4ef      	bmi.n	200039d0 <__smakebuf_r+0x18>
200039f0:	f023 0303 	bic.w	r3, r3, #3
200039f4:	f043 0302 	orr.w	r3, r3, #2
200039f8:	81a3      	strh	r3, [r4, #12]
200039fa:	e7e3      	b.n	200039c4 <__smakebuf_r+0xc>
200039fc:	4b0d      	ldr	r3, [pc, #52]	; (20003a34 <__smakebuf_r+0x7c>)
200039fe:	62b3      	str	r3, [r6, #40]	; 0x28
20003a00:	89a3      	ldrh	r3, [r4, #12]
20003a02:	6020      	str	r0, [r4, #0]
20003a04:	f043 0380 	orr.w	r3, r3, #128	; 0x80
20003a08:	81a3      	strh	r3, [r4, #12]
20003a0a:	9b00      	ldr	r3, [sp, #0]
20003a0c:	6163      	str	r3, [r4, #20]
20003a0e:	9b01      	ldr	r3, [sp, #4]
20003a10:	6120      	str	r0, [r4, #16]
20003a12:	b15b      	cbz	r3, 20003a2c <__smakebuf_r+0x74>
20003a14:	f9b4 100e 	ldrsh.w	r1, [r4, #14]
20003a18:	4630      	mov	r0, r6
20003a1a:	f000 fc27 	bl	2000426c <_isatty_r>
20003a1e:	b128      	cbz	r0, 20003a2c <__smakebuf_r+0x74>
20003a20:	89a3      	ldrh	r3, [r4, #12]
20003a22:	f023 0303 	bic.w	r3, r3, #3
20003a26:	f043 0301 	orr.w	r3, r3, #1
20003a2a:	81a3      	strh	r3, [r4, #12]
20003a2c:	89a3      	ldrh	r3, [r4, #12]
20003a2e:	431d      	orrs	r5, r3
20003a30:	81a5      	strh	r5, [r4, #12]
20003a32:	e7cd      	b.n	200039d0 <__smakebuf_r+0x18>
20003a34:	200037dd 	.word	0x200037dd

20003a38 <malloc>:
20003a38:	4b02      	ldr	r3, [pc, #8]	; (20003a44 <malloc+0xc>)
20003a3a:	4601      	mov	r1, r0
20003a3c:	6818      	ldr	r0, [r3, #0]
20003a3e:	f000 b859 	b.w	20003af4 <_malloc_r>
20003a42:	bf00      	nop
20003a44:	20018074 	.word	0x20018074

20003a48 <memset>:
20003a48:	4402      	add	r2, r0
20003a4a:	4603      	mov	r3, r0
20003a4c:	4293      	cmp	r3, r2
20003a4e:	d100      	bne.n	20003a52 <memset+0xa>
20003a50:	4770      	bx	lr
20003a52:	f803 1b01 	strb.w	r1, [r3], #1
20003a56:	e7f9      	b.n	20003a4c <memset+0x4>

20003a58 <_free_r>:
20003a58:	b538      	push	{r3, r4, r5, lr}
20003a5a:	4605      	mov	r5, r0
20003a5c:	2900      	cmp	r1, #0
20003a5e:	d045      	beq.n	20003aec <_free_r+0x94>
20003a60:	f851 3c04 	ldr.w	r3, [r1, #-4]
20003a64:	1f0c      	subs	r4, r1, #4
20003a66:	2b00      	cmp	r3, #0
20003a68:	bfb8      	it	lt
20003a6a:	18e4      	addlt	r4, r4, r3
20003a6c:	f000 fc20 	bl	200042b0 <__malloc_lock>
20003a70:	4a1f      	ldr	r2, [pc, #124]	; (20003af0 <_free_r+0x98>)
20003a72:	6813      	ldr	r3, [r2, #0]
20003a74:	4610      	mov	r0, r2
20003a76:	b933      	cbnz	r3, 20003a86 <_free_r+0x2e>
20003a78:	6063      	str	r3, [r4, #4]
20003a7a:	6014      	str	r4, [r2, #0]
20003a7c:	4628      	mov	r0, r5
20003a7e:	e8bd 4038 	ldmia.w	sp!, {r3, r4, r5, lr}
20003a82:	f000 bc16 	b.w	200042b2 <__malloc_unlock>
20003a86:	42a3      	cmp	r3, r4
20003a88:	d90c      	bls.n	20003aa4 <_free_r+0x4c>
20003a8a:	6821      	ldr	r1, [r4, #0]
20003a8c:	1862      	adds	r2, r4, r1
20003a8e:	4293      	cmp	r3, r2
20003a90:	bf04      	itt	eq
20003a92:	681a      	ldreq	r2, [r3, #0]
20003a94:	685b      	ldreq	r3, [r3, #4]
20003a96:	6063      	str	r3, [r4, #4]
20003a98:	bf04      	itt	eq
20003a9a:	1852      	addeq	r2, r2, r1
20003a9c:	6022      	streq	r2, [r4, #0]
20003a9e:	6004      	str	r4, [r0, #0]
20003aa0:	e7ec      	b.n	20003a7c <_free_r+0x24>
20003aa2:	4613      	mov	r3, r2
20003aa4:	685a      	ldr	r2, [r3, #4]
20003aa6:	b10a      	cbz	r2, 20003aac <_free_r+0x54>
20003aa8:	42a2      	cmp	r2, r4
20003aaa:	d9fa      	bls.n	20003aa2 <_free_r+0x4a>
20003aac:	6819      	ldr	r1, [r3, #0]
20003aae:	1858      	adds	r0, r3, r1
20003ab0:	42a0      	cmp	r0, r4
20003ab2:	d10b      	bne.n	20003acc <_free_r+0x74>
20003ab4:	6820      	ldr	r0, [r4, #0]
20003ab6:	4401      	add	r1, r0
20003ab8:	1858      	adds	r0, r3, r1
20003aba:	4282      	cmp	r2, r0
20003abc:	6019      	str	r1, [r3, #0]
20003abe:	d1dd      	bne.n	20003a7c <_free_r+0x24>
20003ac0:	6810      	ldr	r0, [r2, #0]
20003ac2:	6852      	ldr	r2, [r2, #4]
20003ac4:	605a      	str	r2, [r3, #4]
20003ac6:	4401      	add	r1, r0
20003ac8:	6019      	str	r1, [r3, #0]
20003aca:	e7d7      	b.n	20003a7c <_free_r+0x24>
20003acc:	d902      	bls.n	20003ad4 <_free_r+0x7c>
20003ace:	230c      	movs	r3, #12
20003ad0:	602b      	str	r3, [r5, #0]
20003ad2:	e7d3      	b.n	20003a7c <_free_r+0x24>
20003ad4:	6820      	ldr	r0, [r4, #0]
20003ad6:	1821      	adds	r1, r4, r0
20003ad8:	428a      	cmp	r2, r1
20003ada:	bf04      	itt	eq
20003adc:	6811      	ldreq	r1, [r2, #0]
20003ade:	6852      	ldreq	r2, [r2, #4]
20003ae0:	6062      	str	r2, [r4, #4]
20003ae2:	bf04      	itt	eq
20003ae4:	1809      	addeq	r1, r1, r0
20003ae6:	6021      	streq	r1, [r4, #0]
20003ae8:	605c      	str	r4, [r3, #4]
20003aea:	e7c7      	b.n	20003a7c <_free_r+0x24>
20003aec:	bd38      	pop	{r3, r4, r5, pc}
20003aee:	bf00      	nop
20003af0:	20018468 	.word	0x20018468

20003af4 <_malloc_r>:
20003af4:	b570      	push	{r4, r5, r6, lr}
20003af6:	1ccd      	adds	r5, r1, #3
20003af8:	f025 0503 	bic.w	r5, r5, #3
20003afc:	3508      	adds	r5, #8
20003afe:	2d0c      	cmp	r5, #12
20003b00:	bf38      	it	cc
20003b02:	250c      	movcc	r5, #12
20003b04:	2d00      	cmp	r5, #0
20003b06:	4606      	mov	r6, r0
20003b08:	db01      	blt.n	20003b0e <_malloc_r+0x1a>
20003b0a:	42a9      	cmp	r1, r5
20003b0c:	d903      	bls.n	20003b16 <_malloc_r+0x22>
20003b0e:	230c      	movs	r3, #12
20003b10:	6033      	str	r3, [r6, #0]
20003b12:	2000      	movs	r0, #0
20003b14:	bd70      	pop	{r4, r5, r6, pc}
20003b16:	f000 fbcb 	bl	200042b0 <__malloc_lock>
20003b1a:	4a23      	ldr	r2, [pc, #140]	; (20003ba8 <_malloc_r+0xb4>)
20003b1c:	6814      	ldr	r4, [r2, #0]
20003b1e:	4621      	mov	r1, r4
20003b20:	b991      	cbnz	r1, 20003b48 <_malloc_r+0x54>
20003b22:	4c22      	ldr	r4, [pc, #136]	; (20003bac <_malloc_r+0xb8>)
20003b24:	6823      	ldr	r3, [r4, #0]
20003b26:	b91b      	cbnz	r3, 20003b30 <_malloc_r+0x3c>
20003b28:	4630      	mov	r0, r6
20003b2a:	f000 fb17 	bl	2000415c <_sbrk_r>
20003b2e:	6020      	str	r0, [r4, #0]
20003b30:	4629      	mov	r1, r5
20003b32:	4630      	mov	r0, r6
20003b34:	f000 fb12 	bl	2000415c <_sbrk_r>
20003b38:	1c43      	adds	r3, r0, #1
20003b3a:	d126      	bne.n	20003b8a <_malloc_r+0x96>
20003b3c:	230c      	movs	r3, #12
20003b3e:	6033      	str	r3, [r6, #0]
20003b40:	4630      	mov	r0, r6
20003b42:	f000 fbb6 	bl	200042b2 <__malloc_unlock>
20003b46:	e7e4      	b.n	20003b12 <_malloc_r+0x1e>
20003b48:	680b      	ldr	r3, [r1, #0]
20003b4a:	1b5b      	subs	r3, r3, r5
20003b4c:	d41a      	bmi.n	20003b84 <_malloc_r+0x90>
20003b4e:	2b0b      	cmp	r3, #11
20003b50:	d90f      	bls.n	20003b72 <_malloc_r+0x7e>
20003b52:	600b      	str	r3, [r1, #0]
20003b54:	50cd      	str	r5, [r1, r3]
20003b56:	18cc      	adds	r4, r1, r3
20003b58:	4630      	mov	r0, r6
20003b5a:	f000 fbaa 	bl	200042b2 <__malloc_unlock>
20003b5e:	f104 000b 	add.w	r0, r4, #11
20003b62:	1d23      	adds	r3, r4, #4
20003b64:	f020 0007 	bic.w	r0, r0, #7
20003b68:	1ac3      	subs	r3, r0, r3
20003b6a:	d01b      	beq.n	20003ba4 <_malloc_r+0xb0>
20003b6c:	425a      	negs	r2, r3
20003b6e:	50e2      	str	r2, [r4, r3]
20003b70:	bd70      	pop	{r4, r5, r6, pc}
20003b72:	428c      	cmp	r4, r1
20003b74:	bf0d      	iteet	eq
20003b76:	6863      	ldreq	r3, [r4, #4]
20003b78:	684b      	ldrne	r3, [r1, #4]
20003b7a:	6063      	strne	r3, [r4, #4]
20003b7c:	6013      	streq	r3, [r2, #0]
20003b7e:	bf18      	it	ne
20003b80:	460c      	movne	r4, r1
20003b82:	e7e9      	b.n	20003b58 <_malloc_r+0x64>
20003b84:	460c      	mov	r4, r1
20003b86:	6849      	ldr	r1, [r1, #4]
20003b88:	e7ca      	b.n	20003b20 <_malloc_r+0x2c>
20003b8a:	1cc4      	adds	r4, r0, #3
20003b8c:	f024 0403 	bic.w	r4, r4, #3
20003b90:	42a0      	cmp	r0, r4
20003b92:	d005      	beq.n	20003ba0 <_malloc_r+0xac>
20003b94:	1a21      	subs	r1, r4, r0
20003b96:	4630      	mov	r0, r6
20003b98:	f000 fae0 	bl	2000415c <_sbrk_r>
20003b9c:	3001      	adds	r0, #1
20003b9e:	d0cd      	beq.n	20003b3c <_malloc_r+0x48>
20003ba0:	6025      	str	r5, [r4, #0]
20003ba2:	e7d9      	b.n	20003b58 <_malloc_r+0x64>
20003ba4:	bd70      	pop	{r4, r5, r6, pc}
20003ba6:	bf00      	nop
20003ba8:	20018468 	.word	0x20018468
20003bac:	2001846c 	.word	0x2001846c

20003bb0 <__sfputc_r>:
20003bb0:	6893      	ldr	r3, [r2, #8]
20003bb2:	3b01      	subs	r3, #1
20003bb4:	2b00      	cmp	r3, #0
20003bb6:	b410      	push	{r4}
20003bb8:	6093      	str	r3, [r2, #8]
20003bba:	da09      	bge.n	20003bd0 <__sfputc_r+0x20>
20003bbc:	6994      	ldr	r4, [r2, #24]
20003bbe:	42a3      	cmp	r3, r4
20003bc0:	db02      	blt.n	20003bc8 <__sfputc_r+0x18>
20003bc2:	b2cb      	uxtb	r3, r1
20003bc4:	2b0a      	cmp	r3, #10
20003bc6:	d103      	bne.n	20003bd0 <__sfputc_r+0x20>
20003bc8:	f85d 4b04 	ldr.w	r4, [sp], #4
20003bcc:	f7ff bc94 	b.w	200034f8 <__swbuf_r>
20003bd0:	6813      	ldr	r3, [r2, #0]
20003bd2:	1c58      	adds	r0, r3, #1
20003bd4:	6010      	str	r0, [r2, #0]
20003bd6:	7019      	strb	r1, [r3, #0]
20003bd8:	b2c8      	uxtb	r0, r1
20003bda:	f85d 4b04 	ldr.w	r4, [sp], #4
20003bde:	4770      	bx	lr

20003be0 <__sfputs_r>:
20003be0:	b5f8      	push	{r3, r4, r5, r6, r7, lr}
20003be2:	4606      	mov	r6, r0
20003be4:	460f      	mov	r7, r1
20003be6:	4614      	mov	r4, r2
20003be8:	18d5      	adds	r5, r2, r3
20003bea:	42ac      	cmp	r4, r5
20003bec:	d101      	bne.n	20003bf2 <__sfputs_r+0x12>
20003bee:	2000      	movs	r0, #0
20003bf0:	e007      	b.n	20003c02 <__sfputs_r+0x22>
20003bf2:	463a      	mov	r2, r7
20003bf4:	f814 1b01 	ldrb.w	r1, [r4], #1
20003bf8:	4630      	mov	r0, r6
20003bfa:	f7ff ffd9 	bl	20003bb0 <__sfputc_r>
20003bfe:	1c43      	adds	r3, r0, #1
20003c00:	d1f3      	bne.n	20003bea <__sfputs_r+0xa>
20003c02:	bdf8      	pop	{r3, r4, r5, r6, r7, pc}

20003c04 <_vfiprintf_r>:
20003c04:	e92d 4ff0 	stmdb	sp!, {r4, r5, r6, r7, r8, r9, sl, fp, lr}
20003c08:	b09d      	sub	sp, #116	; 0x74
20003c0a:	460c      	mov	r4, r1
20003c0c:	4617      	mov	r7, r2
20003c0e:	9303      	str	r3, [sp, #12]
20003c10:	4606      	mov	r6, r0
20003c12:	b118      	cbz	r0, 20003c1c <_vfiprintf_r+0x18>
20003c14:	6983      	ldr	r3, [r0, #24]
20003c16:	b90b      	cbnz	r3, 20003c1c <_vfiprintf_r+0x18>
20003c18:	f7ff fe20 	bl	2000385c <__sinit>
20003c1c:	4b7c      	ldr	r3, [pc, #496]	; (20003e10 <_vfiprintf_r+0x20c>)
20003c1e:	429c      	cmp	r4, r3
20003c20:	d157      	bne.n	20003cd2 <_vfiprintf_r+0xce>
20003c22:	6874      	ldr	r4, [r6, #4]
20003c24:	89a3      	ldrh	r3, [r4, #12]
20003c26:	0718      	lsls	r0, r3, #28
20003c28:	d55d      	bpl.n	20003ce6 <_vfiprintf_r+0xe2>
20003c2a:	6923      	ldr	r3, [r4, #16]
20003c2c:	2b00      	cmp	r3, #0
20003c2e:	d05a      	beq.n	20003ce6 <_vfiprintf_r+0xe2>
20003c30:	2300      	movs	r3, #0
20003c32:	9309      	str	r3, [sp, #36]	; 0x24
20003c34:	2320      	movs	r3, #32
20003c36:	f88d 3029 	strb.w	r3, [sp, #41]	; 0x29
20003c3a:	2330      	movs	r3, #48	; 0x30
20003c3c:	f88d 302a 	strb.w	r3, [sp, #42]	; 0x2a
20003c40:	f04f 0b01 	mov.w	fp, #1
20003c44:	46b8      	mov	r8, r7
20003c46:	4645      	mov	r5, r8
20003c48:	f815 3b01 	ldrb.w	r3, [r5], #1
20003c4c:	2b00      	cmp	r3, #0
20003c4e:	d155      	bne.n	20003cfc <_vfiprintf_r+0xf8>
20003c50:	ebb8 0a07 	subs.w	sl, r8, r7
20003c54:	d00b      	beq.n	20003c6e <_vfiprintf_r+0x6a>
20003c56:	4653      	mov	r3, sl
20003c58:	463a      	mov	r2, r7
20003c5a:	4621      	mov	r1, r4
20003c5c:	4630      	mov	r0, r6
20003c5e:	f7ff ffbf 	bl	20003be0 <__sfputs_r>
20003c62:	3001      	adds	r0, #1
20003c64:	f000 80c4 	beq.w	20003df0 <_vfiprintf_r+0x1ec>
20003c68:	9b09      	ldr	r3, [sp, #36]	; 0x24
20003c6a:	4453      	add	r3, sl
20003c6c:	9309      	str	r3, [sp, #36]	; 0x24
20003c6e:	f898 3000 	ldrb.w	r3, [r8]
20003c72:	2b00      	cmp	r3, #0
20003c74:	f000 80bc 	beq.w	20003df0 <_vfiprintf_r+0x1ec>
20003c78:	2300      	movs	r3, #0
20003c7a:	f04f 32ff 	mov.w	r2, #4294967295
20003c7e:	9304      	str	r3, [sp, #16]
20003c80:	9307      	str	r3, [sp, #28]
20003c82:	9205      	str	r2, [sp, #20]
20003c84:	9306      	str	r3, [sp, #24]
20003c86:	f88d 3053 	strb.w	r3, [sp, #83]	; 0x53
20003c8a:	931a      	str	r3, [sp, #104]	; 0x68
20003c8c:	2205      	movs	r2, #5
20003c8e:	7829      	ldrb	r1, [r5, #0]
20003c90:	4860      	ldr	r0, [pc, #384]	; (20003e14 <_vfiprintf_r+0x210>)
20003c92:	f7fc fa9d 	bl	200001d0 <memchr>
20003c96:	f105 0801 	add.w	r8, r5, #1
20003c9a:	9b04      	ldr	r3, [sp, #16]
20003c9c:	2800      	cmp	r0, #0
20003c9e:	d131      	bne.n	20003d04 <_vfiprintf_r+0x100>
20003ca0:	06d9      	lsls	r1, r3, #27
20003ca2:	bf44      	itt	mi
20003ca4:	2220      	movmi	r2, #32
20003ca6:	f88d 2053 	strbmi.w	r2, [sp, #83]	; 0x53
20003caa:	071a      	lsls	r2, r3, #28
20003cac:	bf44      	itt	mi
20003cae:	222b      	movmi	r2, #43	; 0x2b
20003cb0:	f88d 2053 	strbmi.w	r2, [sp, #83]	; 0x53
20003cb4:	782a      	ldrb	r2, [r5, #0]
20003cb6:	2a2a      	cmp	r2, #42	; 0x2a
20003cb8:	d02c      	beq.n	20003d14 <_vfiprintf_r+0x110>
20003cba:	9a07      	ldr	r2, [sp, #28]
20003cbc:	2100      	movs	r1, #0
20003cbe:	200a      	movs	r0, #10
20003cc0:	46a8      	mov	r8, r5
20003cc2:	3501      	adds	r5, #1
20003cc4:	f898 3000 	ldrb.w	r3, [r8]
20003cc8:	3b30      	subs	r3, #48	; 0x30
20003cca:	2b09      	cmp	r3, #9
20003ccc:	d96d      	bls.n	20003daa <_vfiprintf_r+0x1a6>
20003cce:	b371      	cbz	r1, 20003d2e <_vfiprintf_r+0x12a>
20003cd0:	e026      	b.n	20003d20 <_vfiprintf_r+0x11c>
20003cd2:	4b51      	ldr	r3, [pc, #324]	; (20003e18 <_vfiprintf_r+0x214>)
20003cd4:	429c      	cmp	r4, r3
20003cd6:	d101      	bne.n	20003cdc <_vfiprintf_r+0xd8>
20003cd8:	68b4      	ldr	r4, [r6, #8]
20003cda:	e7a3      	b.n	20003c24 <_vfiprintf_r+0x20>
20003cdc:	4b4f      	ldr	r3, [pc, #316]	; (20003e1c <_vfiprintf_r+0x218>)
20003cde:	429c      	cmp	r4, r3
20003ce0:	bf08      	it	eq
20003ce2:	68f4      	ldreq	r4, [r6, #12]
20003ce4:	e79e      	b.n	20003c24 <_vfiprintf_r+0x20>
20003ce6:	4621      	mov	r1, r4
20003ce8:	4630      	mov	r0, r6
20003cea:	f7ff fc57 	bl	2000359c <__swsetup_r>
20003cee:	2800      	cmp	r0, #0
20003cf0:	d09e      	beq.n	20003c30 <_vfiprintf_r+0x2c>
20003cf2:	f04f 30ff 	mov.w	r0, #4294967295
20003cf6:	b01d      	add	sp, #116	; 0x74
20003cf8:	e8bd 8ff0 	ldmia.w	sp!, {r4, r5, r6, r7, r8, r9, sl, fp, pc}
20003cfc:	2b25      	cmp	r3, #37	; 0x25
20003cfe:	d0a7      	beq.n	20003c50 <_vfiprintf_r+0x4c>
20003d00:	46a8      	mov	r8, r5
20003d02:	e7a0      	b.n	20003c46 <_vfiprintf_r+0x42>
20003d04:	4a43      	ldr	r2, [pc, #268]	; (20003e14 <_vfiprintf_r+0x210>)
20003d06:	1a80      	subs	r0, r0, r2
20003d08:	fa0b f000 	lsl.w	r0, fp, r0
20003d0c:	4318      	orrs	r0, r3
20003d0e:	9004      	str	r0, [sp, #16]
20003d10:	4645      	mov	r5, r8
20003d12:	e7bb      	b.n	20003c8c <_vfiprintf_r+0x88>
20003d14:	9a03      	ldr	r2, [sp, #12]
20003d16:	1d11      	adds	r1, r2, #4
20003d18:	6812      	ldr	r2, [r2, #0]
20003d1a:	9103      	str	r1, [sp, #12]
20003d1c:	2a00      	cmp	r2, #0
20003d1e:	db01      	blt.n	20003d24 <_vfiprintf_r+0x120>
20003d20:	9207      	str	r2, [sp, #28]
20003d22:	e004      	b.n	20003d2e <_vfiprintf_r+0x12a>
20003d24:	4252      	negs	r2, r2
20003d26:	f043 0302 	orr.w	r3, r3, #2
20003d2a:	9207      	str	r2, [sp, #28]
20003d2c:	9304      	str	r3, [sp, #16]
20003d2e:	f898 3000 	ldrb.w	r3, [r8]
20003d32:	2b2e      	cmp	r3, #46	; 0x2e
20003d34:	d110      	bne.n	20003d58 <_vfiprintf_r+0x154>
20003d36:	f898 3001 	ldrb.w	r3, [r8, #1]
20003d3a:	2b2a      	cmp	r3, #42	; 0x2a
20003d3c:	f108 0101 	add.w	r1, r8, #1
20003d40:	d137      	bne.n	20003db2 <_vfiprintf_r+0x1ae>
20003d42:	9b03      	ldr	r3, [sp, #12]
20003d44:	1d1a      	adds	r2, r3, #4
20003d46:	681b      	ldr	r3, [r3, #0]
20003d48:	9203      	str	r2, [sp, #12]
20003d4a:	2b00      	cmp	r3, #0
20003d4c:	bfb8      	it	lt
20003d4e:	f04f 33ff 	movlt.w	r3, #4294967295
20003d52:	f108 0802 	add.w	r8, r8, #2
20003d56:	9305      	str	r3, [sp, #20]
20003d58:	4d31      	ldr	r5, [pc, #196]	; (20003e20 <_vfiprintf_r+0x21c>)
20003d5a:	f898 1000 	ldrb.w	r1, [r8]
20003d5e:	2203      	movs	r2, #3
20003d60:	4628      	mov	r0, r5
20003d62:	f7fc fa35 	bl	200001d0 <memchr>
20003d66:	b140      	cbz	r0, 20003d7a <_vfiprintf_r+0x176>
20003d68:	2340      	movs	r3, #64	; 0x40
20003d6a:	1b40      	subs	r0, r0, r5
20003d6c:	fa03 f000 	lsl.w	r0, r3, r0
20003d70:	9b04      	ldr	r3, [sp, #16]
20003d72:	4303      	orrs	r3, r0
20003d74:	9304      	str	r3, [sp, #16]
20003d76:	f108 0801 	add.w	r8, r8, #1
20003d7a:	f898 1000 	ldrb.w	r1, [r8]
20003d7e:	4829      	ldr	r0, [pc, #164]	; (20003e24 <_vfiprintf_r+0x220>)
20003d80:	f88d 1028 	strb.w	r1, [sp, #40]	; 0x28
20003d84:	2206      	movs	r2, #6
20003d86:	f108 0701 	add.w	r7, r8, #1
20003d8a:	f7fc fa21 	bl	200001d0 <memchr>
20003d8e:	2800      	cmp	r0, #0
20003d90:	d034      	beq.n	20003dfc <_vfiprintf_r+0x1f8>
20003d92:	4b25      	ldr	r3, [pc, #148]	; (20003e28 <_vfiprintf_r+0x224>)
20003d94:	bb03      	cbnz	r3, 20003dd8 <_vfiprintf_r+0x1d4>
20003d96:	9b03      	ldr	r3, [sp, #12]
20003d98:	3307      	adds	r3, #7
20003d9a:	f023 0307 	bic.w	r3, r3, #7
20003d9e:	3308      	adds	r3, #8
20003da0:	9303      	str	r3, [sp, #12]
20003da2:	9b09      	ldr	r3, [sp, #36]	; 0x24
20003da4:	444b      	add	r3, r9
20003da6:	9309      	str	r3, [sp, #36]	; 0x24
20003da8:	e74c      	b.n	20003c44 <_vfiprintf_r+0x40>
20003daa:	fb00 3202 	mla	r2, r0, r2, r3
20003dae:	2101      	movs	r1, #1
20003db0:	e786      	b.n	20003cc0 <_vfiprintf_r+0xbc>
20003db2:	2300      	movs	r3, #0
20003db4:	9305      	str	r3, [sp, #20]
20003db6:	4618      	mov	r0, r3
20003db8:	250a      	movs	r5, #10
20003dba:	4688      	mov	r8, r1
20003dbc:	3101      	adds	r1, #1
20003dbe:	f898 2000 	ldrb.w	r2, [r8]
20003dc2:	3a30      	subs	r2, #48	; 0x30
20003dc4:	2a09      	cmp	r2, #9
20003dc6:	d903      	bls.n	20003dd0 <_vfiprintf_r+0x1cc>
20003dc8:	2b00      	cmp	r3, #0
20003dca:	d0c5      	beq.n	20003d58 <_vfiprintf_r+0x154>
20003dcc:	9005      	str	r0, [sp, #20]
20003dce:	e7c3      	b.n	20003d58 <_vfiprintf_r+0x154>
20003dd0:	fb05 2000 	mla	r0, r5, r0, r2
20003dd4:	2301      	movs	r3, #1
20003dd6:	e7f0      	b.n	20003dba <_vfiprintf_r+0x1b6>
20003dd8:	ab03      	add	r3, sp, #12
20003dda:	9300      	str	r3, [sp, #0]
20003ddc:	4622      	mov	r2, r4
20003dde:	4b13      	ldr	r3, [pc, #76]	; (20003e2c <_vfiprintf_r+0x228>)
20003de0:	a904      	add	r1, sp, #16
20003de2:	4630      	mov	r0, r6
20003de4:	f3af 8000 	nop.w
20003de8:	f1b0 3fff 	cmp.w	r0, #4294967295
20003dec:	4681      	mov	r9, r0
20003dee:	d1d8      	bne.n	20003da2 <_vfiprintf_r+0x19e>
20003df0:	89a3      	ldrh	r3, [r4, #12]
20003df2:	065b      	lsls	r3, r3, #25
20003df4:	f53f af7d 	bmi.w	20003cf2 <_vfiprintf_r+0xee>
20003df8:	9809      	ldr	r0, [sp, #36]	; 0x24
20003dfa:	e77c      	b.n	20003cf6 <_vfiprintf_r+0xf2>
20003dfc:	ab03      	add	r3, sp, #12
20003dfe:	9300      	str	r3, [sp, #0]
20003e00:	4622      	mov	r2, r4
20003e02:	4b0a      	ldr	r3, [pc, #40]	; (20003e2c <_vfiprintf_r+0x228>)
20003e04:	a904      	add	r1, sp, #16
20003e06:	4630      	mov	r0, r6
20003e08:	f000 f888 	bl	20003f1c <_printf_i>
20003e0c:	e7ec      	b.n	20003de8 <_vfiprintf_r+0x1e4>
20003e0e:	bf00      	nop
20003e10:	2000b068 	.word	0x2000b068
20003e14:	2000b0a8 	.word	0x2000b0a8
20003e18:	2000b088 	.word	0x2000b088
20003e1c:	2000b048 	.word	0x2000b048
20003e20:	2000b0ae 	.word	0x2000b0ae
20003e24:	2000b0b2 	.word	0x2000b0b2
20003e28:	00000000 	.word	0x00000000
20003e2c:	20003be1 	.word	0x20003be1

20003e30 <_printf_common>:
20003e30:	e92d 47f0 	stmdb	sp!, {r4, r5, r6, r7, r8, r9, sl, lr}
20003e34:	4691      	mov	r9, r2
20003e36:	461f      	mov	r7, r3
20003e38:	688a      	ldr	r2, [r1, #8]
20003e3a:	690b      	ldr	r3, [r1, #16]
20003e3c:	f8dd 8020 	ldr.w	r8, [sp, #32]
20003e40:	4293      	cmp	r3, r2
20003e42:	bfb8      	it	lt
20003e44:	4613      	movlt	r3, r2
20003e46:	f8c9 3000 	str.w	r3, [r9]
20003e4a:	f891 2043 	ldrb.w	r2, [r1, #67]	; 0x43
20003e4e:	4606      	mov	r6, r0
20003e50:	460c      	mov	r4, r1
20003e52:	b112      	cbz	r2, 20003e5a <_printf_common+0x2a>
20003e54:	3301      	adds	r3, #1
20003e56:	f8c9 3000 	str.w	r3, [r9]
20003e5a:	6823      	ldr	r3, [r4, #0]
20003e5c:	0699      	lsls	r1, r3, #26
20003e5e:	bf42      	ittt	mi
20003e60:	f8d9 3000 	ldrmi.w	r3, [r9]
20003e64:	3302      	addmi	r3, #2
20003e66:	f8c9 3000 	strmi.w	r3, [r9]
20003e6a:	6825      	ldr	r5, [r4, #0]
20003e6c:	f015 0506 	ands.w	r5, r5, #6
20003e70:	d107      	bne.n	20003e82 <_printf_common+0x52>
20003e72:	f104 0a19 	add.w	sl, r4, #25
20003e76:	68e3      	ldr	r3, [r4, #12]
20003e78:	f8d9 2000 	ldr.w	r2, [r9]
20003e7c:	1a9b      	subs	r3, r3, r2
20003e7e:	429d      	cmp	r5, r3
20003e80:	db29      	blt.n	20003ed6 <_printf_common+0xa6>
20003e82:	f894 3043 	ldrb.w	r3, [r4, #67]	; 0x43
20003e86:	6822      	ldr	r2, [r4, #0]
20003e88:	3300      	adds	r3, #0
20003e8a:	bf18      	it	ne
20003e8c:	2301      	movne	r3, #1
20003e8e:	0692      	lsls	r2, r2, #26
20003e90:	d42e      	bmi.n	20003ef0 <_printf_common+0xc0>
20003e92:	f104 0243 	add.w	r2, r4, #67	; 0x43
20003e96:	4639      	mov	r1, r7
20003e98:	4630      	mov	r0, r6
20003e9a:	47c0      	blx	r8
20003e9c:	3001      	adds	r0, #1
20003e9e:	d021      	beq.n	20003ee4 <_printf_common+0xb4>
20003ea0:	6823      	ldr	r3, [r4, #0]
20003ea2:	68e5      	ldr	r5, [r4, #12]
20003ea4:	f8d9 2000 	ldr.w	r2, [r9]
20003ea8:	f003 0306 	and.w	r3, r3, #6
20003eac:	2b04      	cmp	r3, #4
20003eae:	bf08      	it	eq
20003eb0:	1aad      	subeq	r5, r5, r2
20003eb2:	68a3      	ldr	r3, [r4, #8]
20003eb4:	6922      	ldr	r2, [r4, #16]
20003eb6:	bf0c      	ite	eq
20003eb8:	ea25 75e5 	biceq.w	r5, r5, r5, asr #31
20003ebc:	2500      	movne	r5, #0
20003ebe:	4293      	cmp	r3, r2
20003ec0:	bfc4      	itt	gt
20003ec2:	1a9b      	subgt	r3, r3, r2
20003ec4:	18ed      	addgt	r5, r5, r3
20003ec6:	f04f 0900 	mov.w	r9, #0
20003eca:	341a      	adds	r4, #26
20003ecc:	454d      	cmp	r5, r9
20003ece:	d11b      	bne.n	20003f08 <_printf_common+0xd8>
20003ed0:	2000      	movs	r0, #0
20003ed2:	e8bd 87f0 	ldmia.w	sp!, {r4, r5, r6, r7, r8, r9, sl, pc}
20003ed6:	2301      	movs	r3, #1
20003ed8:	4652      	mov	r2, sl
20003eda:	4639      	mov	r1, r7
20003edc:	4630      	mov	r0, r6
20003ede:	47c0      	blx	r8
20003ee0:	3001      	adds	r0, #1
20003ee2:	d103      	bne.n	20003eec <_printf_common+0xbc>
20003ee4:	f04f 30ff 	mov.w	r0, #4294967295
20003ee8:	e8bd 87f0 	ldmia.w	sp!, {r4, r5, r6, r7, r8, r9, sl, pc}
20003eec:	3501      	adds	r5, #1
20003eee:	e7c2      	b.n	20003e76 <_printf_common+0x46>
20003ef0:	18e1      	adds	r1, r4, r3
20003ef2:	1c5a      	adds	r2, r3, #1
20003ef4:	2030      	movs	r0, #48	; 0x30
20003ef6:	f881 0043 	strb.w	r0, [r1, #67]	; 0x43
20003efa:	4422      	add	r2, r4
20003efc:	f894 1045 	ldrb.w	r1, [r4, #69]	; 0x45
20003f00:	f882 1043 	strb.w	r1, [r2, #67]	; 0x43
20003f04:	3302      	adds	r3, #2
20003f06:	e7c4      	b.n	20003e92 <_printf_common+0x62>
20003f08:	2301      	movs	r3, #1
20003f0a:	4622      	mov	r2, r4
20003f0c:	4639      	mov	r1, r7
20003f0e:	4630      	mov	r0, r6
20003f10:	47c0      	blx	r8
20003f12:	3001      	adds	r0, #1
20003f14:	d0e6      	beq.n	20003ee4 <_printf_common+0xb4>
20003f16:	f109 0901 	add.w	r9, r9, #1
20003f1a:	e7d7      	b.n	20003ecc <_printf_common+0x9c>

20003f1c <_printf_i>:
20003f1c:	e92d 43f0 	stmdb	sp!, {r4, r5, r6, r7, r8, r9, lr}
20003f20:	4617      	mov	r7, r2
20003f22:	7e0a      	ldrb	r2, [r1, #24]
20003f24:	b085      	sub	sp, #20
20003f26:	2a6e      	cmp	r2, #110	; 0x6e
20003f28:	4698      	mov	r8, r3
20003f2a:	4606      	mov	r6, r0
20003f2c:	460c      	mov	r4, r1
20003f2e:	9b0c      	ldr	r3, [sp, #48]	; 0x30
20003f30:	f101 0e43 	add.w	lr, r1, #67	; 0x43
20003f34:	f000 80bc 	beq.w	200040b0 <_printf_i+0x194>
20003f38:	d81a      	bhi.n	20003f70 <_printf_i+0x54>
20003f3a:	2a63      	cmp	r2, #99	; 0x63
20003f3c:	d02e      	beq.n	20003f9c <_printf_i+0x80>
20003f3e:	d80a      	bhi.n	20003f56 <_printf_i+0x3a>
20003f40:	2a00      	cmp	r2, #0
20003f42:	f000 80c8 	beq.w	200040d6 <_printf_i+0x1ba>
20003f46:	2a58      	cmp	r2, #88	; 0x58
20003f48:	f000 808a 	beq.w	20004060 <_printf_i+0x144>
20003f4c:	f104 0542 	add.w	r5, r4, #66	; 0x42
20003f50:	f884 2042 	strb.w	r2, [r4, #66]	; 0x42
20003f54:	e02a      	b.n	20003fac <_printf_i+0x90>
20003f56:	2a64      	cmp	r2, #100	; 0x64
20003f58:	d001      	beq.n	20003f5e <_printf_i+0x42>
20003f5a:	2a69      	cmp	r2, #105	; 0x69
20003f5c:	d1f6      	bne.n	20003f4c <_printf_i+0x30>
20003f5e:	6821      	ldr	r1, [r4, #0]
20003f60:	681a      	ldr	r2, [r3, #0]
20003f62:	f011 0f80 	tst.w	r1, #128	; 0x80
20003f66:	d023      	beq.n	20003fb0 <_printf_i+0x94>
20003f68:	1d11      	adds	r1, r2, #4
20003f6a:	6019      	str	r1, [r3, #0]
20003f6c:	6813      	ldr	r3, [r2, #0]
20003f6e:	e027      	b.n	20003fc0 <_printf_i+0xa4>
20003f70:	2a73      	cmp	r2, #115	; 0x73
20003f72:	f000 80b4 	beq.w	200040de <_printf_i+0x1c2>
20003f76:	d808      	bhi.n	20003f8a <_printf_i+0x6e>
20003f78:	2a6f      	cmp	r2, #111	; 0x6f
20003f7a:	d02a      	beq.n	20003fd2 <_printf_i+0xb6>
20003f7c:	2a70      	cmp	r2, #112	; 0x70
20003f7e:	d1e5      	bne.n	20003f4c <_printf_i+0x30>
20003f80:	680a      	ldr	r2, [r1, #0]
20003f82:	f042 0220 	orr.w	r2, r2, #32
20003f86:	600a      	str	r2, [r1, #0]
20003f88:	e003      	b.n	20003f92 <_printf_i+0x76>
20003f8a:	2a75      	cmp	r2, #117	; 0x75
20003f8c:	d021      	beq.n	20003fd2 <_printf_i+0xb6>
20003f8e:	2a78      	cmp	r2, #120	; 0x78
20003f90:	d1dc      	bne.n	20003f4c <_printf_i+0x30>
20003f92:	2278      	movs	r2, #120	; 0x78
20003f94:	f884 2045 	strb.w	r2, [r4, #69]	; 0x45
20003f98:	496e      	ldr	r1, [pc, #440]	; (20004154 <_printf_i+0x238>)
20003f9a:	e064      	b.n	20004066 <_printf_i+0x14a>
20003f9c:	681a      	ldr	r2, [r3, #0]
20003f9e:	f101 0542 	add.w	r5, r1, #66	; 0x42
20003fa2:	1d11      	adds	r1, r2, #4
20003fa4:	6019      	str	r1, [r3, #0]
20003fa6:	6813      	ldr	r3, [r2, #0]
20003fa8:	f884 3042 	strb.w	r3, [r4, #66]	; 0x42
20003fac:	2301      	movs	r3, #1
20003fae:	e0a3      	b.n	200040f8 <_printf_i+0x1dc>
20003fb0:	f011 0f40 	tst.w	r1, #64	; 0x40
20003fb4:	f102 0104 	add.w	r1, r2, #4
20003fb8:	6019      	str	r1, [r3, #0]
20003fba:	d0d7      	beq.n	20003f6c <_printf_i+0x50>
20003fbc:	f9b2 3000 	ldrsh.w	r3, [r2]
20003fc0:	2b00      	cmp	r3, #0
20003fc2:	da03      	bge.n	20003fcc <_printf_i+0xb0>
20003fc4:	222d      	movs	r2, #45	; 0x2d
20003fc6:	425b      	negs	r3, r3
20003fc8:	f884 2043 	strb.w	r2, [r4, #67]	; 0x43
20003fcc:	4962      	ldr	r1, [pc, #392]	; (20004158 <_printf_i+0x23c>)
20003fce:	220a      	movs	r2, #10
20003fd0:	e017      	b.n	20004002 <_printf_i+0xe6>
20003fd2:	6820      	ldr	r0, [r4, #0]
20003fd4:	6819      	ldr	r1, [r3, #0]
20003fd6:	f010 0f80 	tst.w	r0, #128	; 0x80
20003fda:	d003      	beq.n	20003fe4 <_printf_i+0xc8>
20003fdc:	1d08      	adds	r0, r1, #4
20003fde:	6018      	str	r0, [r3, #0]
20003fe0:	680b      	ldr	r3, [r1, #0]
20003fe2:	e006      	b.n	20003ff2 <_printf_i+0xd6>
20003fe4:	f010 0f40 	tst.w	r0, #64	; 0x40
20003fe8:	f101 0004 	add.w	r0, r1, #4
20003fec:	6018      	str	r0, [r3, #0]
20003fee:	d0f7      	beq.n	20003fe0 <_printf_i+0xc4>
20003ff0:	880b      	ldrh	r3, [r1, #0]
20003ff2:	4959      	ldr	r1, [pc, #356]	; (20004158 <_printf_i+0x23c>)
20003ff4:	2a6f      	cmp	r2, #111	; 0x6f
20003ff6:	bf14      	ite	ne
20003ff8:	220a      	movne	r2, #10
20003ffa:	2208      	moveq	r2, #8
20003ffc:	2000      	movs	r0, #0
20003ffe:	f884 0043 	strb.w	r0, [r4, #67]	; 0x43
20004002:	6865      	ldr	r5, [r4, #4]
20004004:	60a5      	str	r5, [r4, #8]
20004006:	2d00      	cmp	r5, #0
20004008:	f2c0 809c 	blt.w	20004144 <_printf_i+0x228>
2000400c:	6820      	ldr	r0, [r4, #0]
2000400e:	f020 0004 	bic.w	r0, r0, #4
20004012:	6020      	str	r0, [r4, #0]
20004014:	2b00      	cmp	r3, #0
20004016:	d13f      	bne.n	20004098 <_printf_i+0x17c>
20004018:	2d00      	cmp	r5, #0
2000401a:	f040 8095 	bne.w	20004148 <_printf_i+0x22c>
2000401e:	4675      	mov	r5, lr
20004020:	2a08      	cmp	r2, #8
20004022:	d10b      	bne.n	2000403c <_printf_i+0x120>
20004024:	6823      	ldr	r3, [r4, #0]
20004026:	07da      	lsls	r2, r3, #31
20004028:	d508      	bpl.n	2000403c <_printf_i+0x120>
2000402a:	6923      	ldr	r3, [r4, #16]
2000402c:	6862      	ldr	r2, [r4, #4]
2000402e:	429a      	cmp	r2, r3
20004030:	bfde      	ittt	le
20004032:	2330      	movle	r3, #48	; 0x30
20004034:	f805 3c01 	strble.w	r3, [r5, #-1]
20004038:	f105 35ff 	addle.w	r5, r5, #4294967295
2000403c:	ebae 0305 	sub.w	r3, lr, r5
20004040:	6123      	str	r3, [r4, #16]
20004042:	f8cd 8000 	str.w	r8, [sp]
20004046:	463b      	mov	r3, r7
20004048:	aa03      	add	r2, sp, #12
2000404a:	4621      	mov	r1, r4
2000404c:	4630      	mov	r0, r6
2000404e:	f7ff feef 	bl	20003e30 <_printf_common>
20004052:	3001      	adds	r0, #1
20004054:	d155      	bne.n	20004102 <_printf_i+0x1e6>
20004056:	f04f 30ff 	mov.w	r0, #4294967295
2000405a:	b005      	add	sp, #20
2000405c:	e8bd 83f0 	ldmia.w	sp!, {r4, r5, r6, r7, r8, r9, pc}
20004060:	f881 2045 	strb.w	r2, [r1, #69]	; 0x45
20004064:	493c      	ldr	r1, [pc, #240]	; (20004158 <_printf_i+0x23c>)
20004066:	6822      	ldr	r2, [r4, #0]
20004068:	6818      	ldr	r0, [r3, #0]
2000406a:	f012 0f80 	tst.w	r2, #128	; 0x80
2000406e:	f100 0504 	add.w	r5, r0, #4
20004072:	601d      	str	r5, [r3, #0]
20004074:	d001      	beq.n	2000407a <_printf_i+0x15e>
20004076:	6803      	ldr	r3, [r0, #0]
20004078:	e002      	b.n	20004080 <_printf_i+0x164>
2000407a:	0655      	lsls	r5, r2, #25
2000407c:	d5fb      	bpl.n	20004076 <_printf_i+0x15a>
2000407e:	8803      	ldrh	r3, [r0, #0]
20004080:	07d0      	lsls	r0, r2, #31
20004082:	bf44      	itt	mi
20004084:	f042 0220 	orrmi.w	r2, r2, #32
20004088:	6022      	strmi	r2, [r4, #0]
2000408a:	b91b      	cbnz	r3, 20004094 <_printf_i+0x178>
2000408c:	6822      	ldr	r2, [r4, #0]
2000408e:	f022 0220 	bic.w	r2, r2, #32
20004092:	6022      	str	r2, [r4, #0]
20004094:	2210      	movs	r2, #16
20004096:	e7b1      	b.n	20003ffc <_printf_i+0xe0>
20004098:	4675      	mov	r5, lr
2000409a:	fbb3 f0f2 	udiv	r0, r3, r2
2000409e:	fb02 3310 	mls	r3, r2, r0, r3
200040a2:	5ccb      	ldrb	r3, [r1, r3]
200040a4:	f805 3d01 	strb.w	r3, [r5, #-1]!
200040a8:	4603      	mov	r3, r0
200040aa:	2800      	cmp	r0, #0
200040ac:	d1f5      	bne.n	2000409a <_printf_i+0x17e>
200040ae:	e7b7      	b.n	20004020 <_printf_i+0x104>
200040b0:	6808      	ldr	r0, [r1, #0]
200040b2:	681a      	ldr	r2, [r3, #0]
200040b4:	6949      	ldr	r1, [r1, #20]
200040b6:	f010 0f80 	tst.w	r0, #128	; 0x80
200040ba:	d004      	beq.n	200040c6 <_printf_i+0x1aa>
200040bc:	1d10      	adds	r0, r2, #4
200040be:	6018      	str	r0, [r3, #0]
200040c0:	6813      	ldr	r3, [r2, #0]
200040c2:	6019      	str	r1, [r3, #0]
200040c4:	e007      	b.n	200040d6 <_printf_i+0x1ba>
200040c6:	f010 0f40 	tst.w	r0, #64	; 0x40
200040ca:	f102 0004 	add.w	r0, r2, #4
200040ce:	6018      	str	r0, [r3, #0]
200040d0:	6813      	ldr	r3, [r2, #0]
200040d2:	d0f6      	beq.n	200040c2 <_printf_i+0x1a6>
200040d4:	8019      	strh	r1, [r3, #0]
200040d6:	2300      	movs	r3, #0
200040d8:	6123      	str	r3, [r4, #16]
200040da:	4675      	mov	r5, lr
200040dc:	e7b1      	b.n	20004042 <_printf_i+0x126>
200040de:	681a      	ldr	r2, [r3, #0]
200040e0:	1d11      	adds	r1, r2, #4
200040e2:	6019      	str	r1, [r3, #0]
200040e4:	6815      	ldr	r5, [r2, #0]
200040e6:	6862      	ldr	r2, [r4, #4]
200040e8:	2100      	movs	r1, #0
200040ea:	4628      	mov	r0, r5
200040ec:	f7fc f870 	bl	200001d0 <memchr>
200040f0:	b108      	cbz	r0, 200040f6 <_printf_i+0x1da>
200040f2:	1b40      	subs	r0, r0, r5
200040f4:	6060      	str	r0, [r4, #4]
200040f6:	6863      	ldr	r3, [r4, #4]
200040f8:	6123      	str	r3, [r4, #16]
200040fa:	2300      	movs	r3, #0
200040fc:	f884 3043 	strb.w	r3, [r4, #67]	; 0x43
20004100:	e79f      	b.n	20004042 <_printf_i+0x126>
20004102:	6923      	ldr	r3, [r4, #16]
20004104:	462a      	mov	r2, r5
20004106:	4639      	mov	r1, r7
20004108:	4630      	mov	r0, r6
2000410a:	47c0      	blx	r8
2000410c:	3001      	adds	r0, #1
2000410e:	d0a2      	beq.n	20004056 <_printf_i+0x13a>
20004110:	6823      	ldr	r3, [r4, #0]
20004112:	079b      	lsls	r3, r3, #30
20004114:	d507      	bpl.n	20004126 <_printf_i+0x20a>
20004116:	2500      	movs	r5, #0
20004118:	f104 0919 	add.w	r9, r4, #25
2000411c:	68e3      	ldr	r3, [r4, #12]
2000411e:	9a03      	ldr	r2, [sp, #12]
20004120:	1a9b      	subs	r3, r3, r2
20004122:	429d      	cmp	r5, r3
20004124:	db05      	blt.n	20004132 <_printf_i+0x216>
20004126:	68e0      	ldr	r0, [r4, #12]
20004128:	9b03      	ldr	r3, [sp, #12]
2000412a:	4298      	cmp	r0, r3
2000412c:	bfb8      	it	lt
2000412e:	4618      	movlt	r0, r3
20004130:	e793      	b.n	2000405a <_printf_i+0x13e>
20004132:	2301      	movs	r3, #1
20004134:	464a      	mov	r2, r9
20004136:	4639      	mov	r1, r7
20004138:	4630      	mov	r0, r6
2000413a:	47c0      	blx	r8
2000413c:	3001      	adds	r0, #1
2000413e:	d08a      	beq.n	20004056 <_printf_i+0x13a>
20004140:	3501      	adds	r5, #1
20004142:	e7eb      	b.n	2000411c <_printf_i+0x200>
20004144:	2b00      	cmp	r3, #0
20004146:	d1a7      	bne.n	20004098 <_printf_i+0x17c>
20004148:	780b      	ldrb	r3, [r1, #0]
2000414a:	f884 3042 	strb.w	r3, [r4, #66]	; 0x42
2000414e:	f104 0542 	add.w	r5, r4, #66	; 0x42
20004152:	e765      	b.n	20004020 <_printf_i+0x104>
20004154:	2000b0ca 	.word	0x2000b0ca
20004158:	2000b0b9 	.word	0x2000b0b9

2000415c <_sbrk_r>:
2000415c:	b538      	push	{r3, r4, r5, lr}
2000415e:	4c06      	ldr	r4, [pc, #24]	; (20004178 <_sbrk_r+0x1c>)
20004160:	2300      	movs	r3, #0
20004162:	4605      	mov	r5, r0
20004164:	4608      	mov	r0, r1
20004166:	6023      	str	r3, [r4, #0]
20004168:	f7ff f862 	bl	20003230 <_sbrk>
2000416c:	1c43      	adds	r3, r0, #1
2000416e:	d102      	bne.n	20004176 <_sbrk_r+0x1a>
20004170:	6823      	ldr	r3, [r4, #0]
20004172:	b103      	cbz	r3, 20004176 <_sbrk_r+0x1a>
20004174:	602b      	str	r3, [r5, #0]
20004176:	bd38      	pop	{r3, r4, r5, pc}
20004178:	2001b40c 	.word	0x2001b40c

2000417c <__sread>:
2000417c:	b510      	push	{r4, lr}
2000417e:	460c      	mov	r4, r1
20004180:	f9b1 100e 	ldrsh.w	r1, [r1, #14]
20004184:	f000 f896 	bl	200042b4 <_read_r>
20004188:	2800      	cmp	r0, #0
2000418a:	bfab      	itete	ge
2000418c:	6d63      	ldrge	r3, [r4, #84]	; 0x54
2000418e:	89a3      	ldrhlt	r3, [r4, #12]
20004190:	181b      	addge	r3, r3, r0
20004192:	f423 5380 	biclt.w	r3, r3, #4096	; 0x1000
20004196:	bfac      	ite	ge
20004198:	6563      	strge	r3, [r4, #84]	; 0x54
2000419a:	81a3      	strhlt	r3, [r4, #12]
2000419c:	bd10      	pop	{r4, pc}

2000419e <__swrite>:
2000419e:	e92d 41f0 	stmdb	sp!, {r4, r5, r6, r7, r8, lr}
200041a2:	461f      	mov	r7, r3
200041a4:	898b      	ldrh	r3, [r1, #12]
200041a6:	05db      	lsls	r3, r3, #23
200041a8:	4605      	mov	r5, r0
200041aa:	460c      	mov	r4, r1
200041ac:	4616      	mov	r6, r2
200041ae:	d505      	bpl.n	200041bc <__swrite+0x1e>
200041b0:	2302      	movs	r3, #2
200041b2:	2200      	movs	r2, #0
200041b4:	f9b1 100e 	ldrsh.w	r1, [r1, #14]
200041b8:	f000 f868 	bl	2000428c <_lseek_r>
200041bc:	89a3      	ldrh	r3, [r4, #12]
200041be:	f9b4 100e 	ldrsh.w	r1, [r4, #14]
200041c2:	f423 5380 	bic.w	r3, r3, #4096	; 0x1000
200041c6:	81a3      	strh	r3, [r4, #12]
200041c8:	4632      	mov	r2, r6
200041ca:	463b      	mov	r3, r7
200041cc:	4628      	mov	r0, r5
200041ce:	e8bd 41f0 	ldmia.w	sp!, {r4, r5, r6, r7, r8, lr}
200041d2:	f000 b817 	b.w	20004204 <_write_r>

200041d6 <__sseek>:
200041d6:	b510      	push	{r4, lr}
200041d8:	460c      	mov	r4, r1
200041da:	f9b1 100e 	ldrsh.w	r1, [r1, #14]
200041de:	f000 f855 	bl	2000428c <_lseek_r>
200041e2:	1c43      	adds	r3, r0, #1
200041e4:	89a3      	ldrh	r3, [r4, #12]
200041e6:	bf15      	itete	ne
200041e8:	6560      	strne	r0, [r4, #84]	; 0x54
200041ea:	f423 5380 	biceq.w	r3, r3, #4096	; 0x1000
200041ee:	f443 5380 	orrne.w	r3, r3, #4096	; 0x1000
200041f2:	81a3      	strheq	r3, [r4, #12]
200041f4:	bf18      	it	ne
200041f6:	81a3      	strhne	r3, [r4, #12]
200041f8:	bd10      	pop	{r4, pc}

200041fa <__sclose>:
200041fa:	f9b1 100e 	ldrsh.w	r1, [r1, #14]
200041fe:	f000 b813 	b.w	20004228 <_close_r>
	...

20004204 <_write_r>:
20004204:	b538      	push	{r3, r4, r5, lr}
20004206:	4c07      	ldr	r4, [pc, #28]	; (20004224 <_write_r+0x20>)
20004208:	4605      	mov	r5, r0
2000420a:	4608      	mov	r0, r1
2000420c:	4611      	mov	r1, r2
2000420e:	2200      	movs	r2, #0
20004210:	6022      	str	r2, [r4, #0]
20004212:	461a      	mov	r2, r3
20004214:	f7fe ffe8 	bl	200031e8 <_write>
20004218:	1c43      	adds	r3, r0, #1
2000421a:	d102      	bne.n	20004222 <_write_r+0x1e>
2000421c:	6823      	ldr	r3, [r4, #0]
2000421e:	b103      	cbz	r3, 20004222 <_write_r+0x1e>
20004220:	602b      	str	r3, [r5, #0]
20004222:	bd38      	pop	{r3, r4, r5, pc}
20004224:	2001b40c 	.word	0x2001b40c

20004228 <_close_r>:
20004228:	b538      	push	{r3, r4, r5, lr}
2000422a:	4c06      	ldr	r4, [pc, #24]	; (20004244 <_close_r+0x1c>)
2000422c:	2300      	movs	r3, #0
2000422e:	4605      	mov	r5, r0
20004230:	4608      	mov	r0, r1
20004232:	6023      	str	r3, [r4, #0]
20004234:	f7ff f80e 	bl	20003254 <_close>
20004238:	1c43      	adds	r3, r0, #1
2000423a:	d102      	bne.n	20004242 <_close_r+0x1a>
2000423c:	6823      	ldr	r3, [r4, #0]
2000423e:	b103      	cbz	r3, 20004242 <_close_r+0x1a>
20004240:	602b      	str	r3, [r5, #0]
20004242:	bd38      	pop	{r3, r4, r5, pc}
20004244:	2001b40c 	.word	0x2001b40c

20004248 <_fstat_r>:
20004248:	b538      	push	{r3, r4, r5, lr}
2000424a:	4c07      	ldr	r4, [pc, #28]	; (20004268 <_fstat_r+0x20>)
2000424c:	2300      	movs	r3, #0
2000424e:	4605      	mov	r5, r0
20004250:	4608      	mov	r0, r1
20004252:	4611      	mov	r1, r2
20004254:	6023      	str	r3, [r4, #0]
20004256:	f7ff f805 	bl	20003264 <_fstat>
2000425a:	1c43      	adds	r3, r0, #1
2000425c:	d102      	bne.n	20004264 <_fstat_r+0x1c>
2000425e:	6823      	ldr	r3, [r4, #0]
20004260:	b103      	cbz	r3, 20004264 <_fstat_r+0x1c>
20004262:	602b      	str	r3, [r5, #0]
20004264:	bd38      	pop	{r3, r4, r5, pc}
20004266:	bf00      	nop
20004268:	2001b40c 	.word	0x2001b40c

2000426c <_isatty_r>:
2000426c:	b538      	push	{r3, r4, r5, lr}
2000426e:	4c06      	ldr	r4, [pc, #24]	; (20004288 <_isatty_r+0x1c>)
20004270:	2300      	movs	r3, #0
20004272:	4605      	mov	r5, r0
20004274:	4608      	mov	r0, r1
20004276:	6023      	str	r3, [r4, #0]
20004278:	f7fe fffc 	bl	20003274 <_isatty>
2000427c:	1c43      	adds	r3, r0, #1
2000427e:	d102      	bne.n	20004286 <_isatty_r+0x1a>
20004280:	6823      	ldr	r3, [r4, #0]
20004282:	b103      	cbz	r3, 20004286 <_isatty_r+0x1a>
20004284:	602b      	str	r3, [r5, #0]
20004286:	bd38      	pop	{r3, r4, r5, pc}
20004288:	2001b40c 	.word	0x2001b40c

2000428c <_lseek_r>:
2000428c:	b538      	push	{r3, r4, r5, lr}
2000428e:	4c07      	ldr	r4, [pc, #28]	; (200042ac <_lseek_r+0x20>)
20004290:	4605      	mov	r5, r0
20004292:	4608      	mov	r0, r1
20004294:	4611      	mov	r1, r2
20004296:	2200      	movs	r2, #0
20004298:	6022      	str	r2, [r4, #0]
2000429a:	461a      	mov	r2, r3
2000429c:	f7fe fff2 	bl	20003284 <_lseek>
200042a0:	1c43      	adds	r3, r0, #1
200042a2:	d102      	bne.n	200042aa <_lseek_r+0x1e>
200042a4:	6823      	ldr	r3, [r4, #0]
200042a6:	b103      	cbz	r3, 200042aa <_lseek_r+0x1e>
200042a8:	602b      	str	r3, [r5, #0]
200042aa:	bd38      	pop	{r3, r4, r5, pc}
200042ac:	2001b40c 	.word	0x2001b40c

200042b0 <__malloc_lock>:
200042b0:	4770      	bx	lr

200042b2 <__malloc_unlock>:
200042b2:	4770      	bx	lr

200042b4 <_read_r>:
200042b4:	b538      	push	{r3, r4, r5, lr}
200042b6:	4c07      	ldr	r4, [pc, #28]	; (200042d4 <_read_r+0x20>)
200042b8:	4605      	mov	r5, r0
200042ba:	4608      	mov	r0, r1
200042bc:	4611      	mov	r1, r2
200042be:	2200      	movs	r2, #0
200042c0:	6022      	str	r2, [r4, #0]
200042c2:	461a      	mov	r2, r3
200042c4:	f7fe ffe6 	bl	20003294 <_read>
200042c8:	1c43      	adds	r3, r0, #1
200042ca:	d102      	bne.n	200042d2 <_read_r+0x1e>
200042cc:	6823      	ldr	r3, [r4, #0]
200042ce:	b103      	cbz	r3, 200042d2 <_read_r+0x1e>
200042d0:	602b      	str	r3, [r5, #0]
200042d2:	bd38      	pop	{r3, r4, r5, pc}
200042d4:	2001b40c 	.word	0x2001b40c

200042d8 <_init>:
200042d8:	b5f8      	push	{r3, r4, r5, r6, r7, lr}
200042da:	bf00      	nop
200042dc:	bcf8      	pop	{r3, r4, r5, r6, r7}
200042de:	bc08      	pop	{r3}
200042e0:	469e      	mov	lr, r3
200042e2:	4770      	bx	lr

200042e4 <_fini>:
200042e4:	b5f8      	push	{r3, r4, r5, r6, r7, lr}
200042e6:	bf00      	nop
200042e8:	bcf8      	pop	{r3, r4, r5, r6, r7}
200042ea:	bc08      	pop	{r3}
200042ec:	469e      	mov	lr, r3
200042ee:	4770      	bx	lr
