
f407vet_app_rtos_fsmc.elf:     file format elf32-littlearm

Sections:
Idx Name          Size      VMA       LMA       File off  Algn
  0 .isr_vector   00000188  20000000  20000000  00010000  2**0
                  CONTENTS, ALLOC, LOAD, READONLY, DATA
  1 .text         0000621c  20000190  20000190  00010190  2**4
                  CONTENTS, ALLOC, LOAD, READONLY, CODE
  2 .rodata       00006e48  200063b0  200063b0  000163b0  2**3
                  CONTENTS, ALLOC, LOAD, READONLY, DATA
  3 .ARM          00000008  2000d1f8  2000d1f8  0001d1f8  2**2
                  CONTENTS, ALLOC, LOAD, READONLY, DATA
  4 .init_array   00000004  2000d200  2000d200  0001d200  2**2
                  CONTENTS, ALLOC, LOAD, DATA
  5 .fini_array   00000004  2000d204  2000d204  0001d204  2**2
                  CONTENTS, ALLOC, LOAD, DATA
  6 .data         000000e0  20018000  2000d208  00028000  2**2
                  CONTENTS, ALLOC, LOAD, DATA
  7 .ccmram       00000000  10000000  10000000  000280e0  2**0
                  CONTENTS
  8 .bss          00007134  200180e0  200180e0  000280e0  2**3
                  ALLOC
  9 ._user_heap_stack 00000a00  2001f214  2001f214  000280e0  2**0
                  ALLOC
 10 .ARM.attributes 00000030  00000000  00000000  000280e0  2**0
                  CONTENTS, READONLY
 11 .debug_info   000282ec  00000000  00000000  00028110  2**0
                  CONTENTS, READONLY, DEBUGGING
 12 .debug_abbrev 00004c24  00000000  00000000  000503fc  2**0
                  CONTENTS, READONLY, DEBUGGING
 13 .debug_loc    0000f124  00000000  00000000  00055020  2**0
                  CONTENTS, READONLY, DEBUGGING
 14 .debug_aranges 000015b8  00000000  00000000  00064148  2**3
                  CONTENTS, READONLY, DEBUGGING
 15 .debug_ranges 000015a0  00000000  00000000  00065700  2**3
                  CONTENTS, READONLY, DEBUGGING
 16 .debug_line   0000a682  00000000  00000000  00066ca0  2**0
                  CONTENTS, READONLY, DEBUGGING
 17 .debug_str    00006dfe  00000000  00000000  00071322  2**0
                  CONTENTS, READONLY, DEBUGGING
 18 .comment      0000007c  00000000  00000000  00078120  2**0
                  CONTENTS, READONLY
 19 .debug_frame  0000426c  00000000  00000000  0007819c  2**2
                  CONTENTS, READONLY, DEBUGGING

Disassembly of section .text:

20000190 <__do_global_dtors_aux>:
20000190:	b510      	push	{r4, lr}
20000192:	4c05      	ldr	r4, [pc, #20]	; (200001a8 <__do_global_dtors_aux+0x18>)
20000194:	7823      	ldrb	r3, [r4, #0]
20000196:	b933      	cbnz	r3, 200001a6 <__do_global_dtors_aux+0x16>
20000198:	4b04      	ldr	r3, [pc, #16]	; (200001ac <__do_global_dtors_aux+0x1c>)
2000019a:	b113      	cbz	r3, 200001a2 <__do_global_dtors_aux+0x12>
2000019c:	4804      	ldr	r0, [pc, #16]	; (200001b0 <__do_global_dtors_aux+0x20>)
2000019e:	f3af 8000 	nop.w
200001a2:	2301      	movs	r3, #1
200001a4:	7023      	strb	r3, [r4, #0]
200001a6:	bd10      	pop	{r4, pc}
200001a8:	200180e0 	.word	0x200180e0
200001ac:	00000000 	.word	0x00000000
200001b0:	20006394 	.word	0x20006394

200001b4 <frame_dummy>:
200001b4:	b508      	push	{r3, lr}
200001b6:	4b03      	ldr	r3, [pc, #12]	; (200001c4 <frame_dummy+0x10>)
200001b8:	b11b      	cbz	r3, 200001c2 <frame_dummy+0xe>
200001ba:	4903      	ldr	r1, [pc, #12]	; (200001c8 <frame_dummy+0x14>)
200001bc:	4803      	ldr	r0, [pc, #12]	; (200001cc <frame_dummy+0x18>)
200001be:	f3af 8000 	nop.w
200001c2:	bd08      	pop	{r3, pc}
200001c4:	00000000 	.word	0x00000000
200001c8:	200180e4 	.word	0x200180e4
200001cc:	20006394 	.word	0x20006394

200001d0 <memchr>:
200001d0:	f001 01ff 	and.w	r1, r1, #255	; 0xff
200001d4:	2a10      	cmp	r2, #16
200001d6:	db2b      	blt.n	20000230 <memchr+0x60>
200001d8:	f010 0f07 	tst.w	r0, #7
200001dc:	d008      	beq.n	200001f0 <memchr+0x20>
200001de:	f810 3b01 	ldrb.w	r3, [r0], #1
200001e2:	3a01      	subs	r2, #1
200001e4:	428b      	cmp	r3, r1
200001e6:	d02d      	beq.n	20000244 <memchr+0x74>
200001e8:	f010 0f07 	tst.w	r0, #7
200001ec:	b342      	cbz	r2, 20000240 <memchr+0x70>
200001ee:	d1f6      	bne.n	200001de <memchr+0xe>
200001f0:	b4f0      	push	{r4, r5, r6, r7}
200001f2:	ea41 2101 	orr.w	r1, r1, r1, lsl #8
200001f6:	ea41 4101 	orr.w	r1, r1, r1, lsl #16
200001fa:	f022 0407 	bic.w	r4, r2, #7
200001fe:	f07f 0700 	mvns.w	r7, #0
20000202:	2300      	movs	r3, #0
20000204:	e8f0 5602 	ldrd	r5, r6, [r0], #8
20000208:	3c08      	subs	r4, #8
2000020a:	ea85 0501 	eor.w	r5, r5, r1
2000020e:	ea86 0601 	eor.w	r6, r6, r1
20000212:	fa85 f547 	uadd8	r5, r5, r7
20000216:	faa3 f587 	sel	r5, r3, r7
2000021a:	fa86 f647 	uadd8	r6, r6, r7
2000021e:	faa5 f687 	sel	r6, r5, r7
20000222:	b98e      	cbnz	r6, 20000248 <memchr+0x78>
20000224:	d1ee      	bne.n	20000204 <memchr+0x34>
20000226:	bcf0      	pop	{r4, r5, r6, r7}
20000228:	f001 01ff 	and.w	r1, r1, #255	; 0xff
2000022c:	f002 0207 	and.w	r2, r2, #7
20000230:	b132      	cbz	r2, 20000240 <memchr+0x70>
20000232:	f810 3b01 	ldrb.w	r3, [r0], #1
20000236:	3a01      	subs	r2, #1
20000238:	ea83 0301 	eor.w	r3, r3, r1
2000023c:	b113      	cbz	r3, 20000244 <memchr+0x74>
2000023e:	d1f8      	bne.n	20000232 <memchr+0x62>
20000240:	2000      	movs	r0, #0
20000242:	4770      	bx	lr
20000244:	3801      	subs	r0, #1
20000246:	4770      	bx	lr
20000248:	2d00      	cmp	r5, #0
2000024a:	bf06      	itte	eq
2000024c:	4635      	moveq	r5, r6
2000024e:	3803      	subeq	r0, #3
20000250:	3807      	subne	r0, #7
20000252:	f015 0f01 	tst.w	r5, #1
20000256:	d107      	bne.n	20000268 <memchr+0x98>
20000258:	3001      	adds	r0, #1
2000025a:	f415 7f80 	tst.w	r5, #256	; 0x100
2000025e:	bf02      	ittt	eq
20000260:	3001      	addeq	r0, #1
20000262:	f415 3fc0 	tsteq.w	r5, #98304	; 0x18000
20000266:	3001      	addeq	r0, #1
20000268:	bcf0      	pop	{r4, r5, r6, r7}
2000026a:	3801      	subs	r0, #1
2000026c:	4770      	bx	lr
2000026e:	bf00      	nop

20000270 <__aeabi_uldivmod>:
20000270:	b953      	cbnz	r3, 20000288 <__aeabi_uldivmod+0x18>
20000272:	b94a      	cbnz	r2, 20000288 <__aeabi_uldivmod+0x18>
20000274:	2900      	cmp	r1, #0
20000276:	bf08      	it	eq
20000278:	2800      	cmpeq	r0, #0
2000027a:	bf1c      	itt	ne
2000027c:	f04f 31ff 	movne.w	r1, #4294967295
20000280:	f04f 30ff 	movne.w	r0, #4294967295
20000284:	f000 b97a 	b.w	2000057c <__aeabi_idiv0>
20000288:	f1ad 0c08 	sub.w	ip, sp, #8
2000028c:	e96d ce04 	strd	ip, lr, [sp, #-16]!
20000290:	f000 f806 	bl	200002a0 <__udivmoddi4>
20000294:	f8dd e004 	ldr.w	lr, [sp, #4]
20000298:	e9dd 2302 	ldrd	r2, r3, [sp, #8]
2000029c:	b004      	add	sp, #16
2000029e:	4770      	bx	lr

200002a0 <__udivmoddi4>:
200002a0:	e92d 47f0 	stmdb	sp!, {r4, r5, r6, r7, r8, r9, sl, lr}
200002a4:	468c      	mov	ip, r1
200002a6:	460d      	mov	r5, r1
200002a8:	4604      	mov	r4, r0
200002aa:	9e08      	ldr	r6, [sp, #32]
200002ac:	2b00      	cmp	r3, #0
200002ae:	d151      	bne.n	20000354 <__udivmoddi4+0xb4>
200002b0:	428a      	cmp	r2, r1
200002b2:	4617      	mov	r7, r2
200002b4:	d96d      	bls.n	20000392 <__udivmoddi4+0xf2>
200002b6:	fab2 fe82 	clz	lr, r2
200002ba:	f1be 0f00 	cmp.w	lr, #0
200002be:	d00b      	beq.n	200002d8 <__udivmoddi4+0x38>
200002c0:	f1ce 0c20 	rsb	ip, lr, #32
200002c4:	fa01 f50e 	lsl.w	r5, r1, lr
200002c8:	fa20 fc0c 	lsr.w	ip, r0, ip
200002cc:	fa02 f70e 	lsl.w	r7, r2, lr
200002d0:	ea4c 0c05 	orr.w	ip, ip, r5
200002d4:	fa00 f40e 	lsl.w	r4, r0, lr
200002d8:	ea4f 4a17 	mov.w	sl, r7, lsr #16
200002dc:	0c25      	lsrs	r5, r4, #16
200002de:	fbbc f8fa 	udiv	r8, ip, sl
200002e2:	fa1f f987 	uxth.w	r9, r7
200002e6:	fb0a cc18 	mls	ip, sl, r8, ip
200002ea:	ea45 450c 	orr.w	r5, r5, ip, lsl #16
200002ee:	fb08 f309 	mul.w	r3, r8, r9
200002f2:	42ab      	cmp	r3, r5
200002f4:	d90a      	bls.n	2000030c <__udivmoddi4+0x6c>
200002f6:	19ed      	adds	r5, r5, r7
200002f8:	f108 32ff 	add.w	r2, r8, #4294967295
200002fc:	f080 8123 	bcs.w	20000546 <__udivmoddi4+0x2a6>
20000300:	42ab      	cmp	r3, r5
20000302:	f240 8120 	bls.w	20000546 <__udivmoddi4+0x2a6>
20000306:	f1a8 0802 	sub.w	r8, r8, #2
2000030a:	443d      	add	r5, r7
2000030c:	1aed      	subs	r5, r5, r3
2000030e:	b2a4      	uxth	r4, r4
20000310:	fbb5 f0fa 	udiv	r0, r5, sl
20000314:	fb0a 5510 	mls	r5, sl, r0, r5
20000318:	ea44 4405 	orr.w	r4, r4, r5, lsl #16
2000031c:	fb00 f909 	mul.w	r9, r0, r9
20000320:	45a1      	cmp	r9, r4
20000322:	d909      	bls.n	20000338 <__udivmoddi4+0x98>
20000324:	19e4      	adds	r4, r4, r7
20000326:	f100 33ff 	add.w	r3, r0, #4294967295
2000032a:	f080 810a 	bcs.w	20000542 <__udivmoddi4+0x2a2>
2000032e:	45a1      	cmp	r9, r4
20000330:	f240 8107 	bls.w	20000542 <__udivmoddi4+0x2a2>
20000334:	3802      	subs	r0, #2
20000336:	443c      	add	r4, r7
20000338:	eba4 0409 	sub.w	r4, r4, r9
2000033c:	ea40 4008 	orr.w	r0, r0, r8, lsl #16
20000340:	2100      	movs	r1, #0
20000342:	2e00      	cmp	r6, #0
20000344:	d061      	beq.n	2000040a <__udivmoddi4+0x16a>
20000346:	fa24 f40e 	lsr.w	r4, r4, lr
2000034a:	2300      	movs	r3, #0
2000034c:	6034      	str	r4, [r6, #0]
2000034e:	6073      	str	r3, [r6, #4]
20000350:	e8bd 87f0 	ldmia.w	sp!, {r4, r5, r6, r7, r8, r9, sl, pc}
20000354:	428b      	cmp	r3, r1
20000356:	d907      	bls.n	20000368 <__udivmoddi4+0xc8>
20000358:	2e00      	cmp	r6, #0
2000035a:	d054      	beq.n	20000406 <__udivmoddi4+0x166>
2000035c:	2100      	movs	r1, #0
2000035e:	e886 0021 	stmia.w	r6, {r0, r5}
20000362:	4608      	mov	r0, r1
20000364:	e8bd 87f0 	ldmia.w	sp!, {r4, r5, r6, r7, r8, r9, sl, pc}
20000368:	fab3 f183 	clz	r1, r3
2000036c:	2900      	cmp	r1, #0
2000036e:	f040 808e 	bne.w	2000048e <__udivmoddi4+0x1ee>
20000372:	42ab      	cmp	r3, r5
20000374:	d302      	bcc.n	2000037c <__udivmoddi4+0xdc>
20000376:	4282      	cmp	r2, r0
20000378:	f200 80fa 	bhi.w	20000570 <__udivmoddi4+0x2d0>
2000037c:	1a84      	subs	r4, r0, r2
2000037e:	eb65 0503 	sbc.w	r5, r5, r3
20000382:	2001      	movs	r0, #1
20000384:	46ac      	mov	ip, r5
20000386:	2e00      	cmp	r6, #0
20000388:	d03f      	beq.n	2000040a <__udivmoddi4+0x16a>
2000038a:	e886 1010 	stmia.w	r6, {r4, ip}
2000038e:	e8bd 87f0 	ldmia.w	sp!, {r4, r5, r6, r7, r8, r9, sl, pc}
20000392:	b912      	cbnz	r2, 2000039a <__udivmoddi4+0xfa>
20000394:	2701      	movs	r7, #1
20000396:	fbb7 f7f2 	udiv	r7, r7, r2
2000039a:	fab7 fe87 	clz	lr, r7
2000039e:	f1be 0f00 	cmp.w	lr, #0
200003a2:	d134      	bne.n	2000040e <__udivmoddi4+0x16e>
200003a4:	1beb      	subs	r3, r5, r7
200003a6:	0c3a      	lsrs	r2, r7, #16
200003a8:	fa1f fc87 	uxth.w	ip, r7
200003ac:	2101      	movs	r1, #1
200003ae:	fbb3 f8f2 	udiv	r8, r3, r2
200003b2:	0c25      	lsrs	r5, r4, #16
200003b4:	fb02 3318 	mls	r3, r2, r8, r3
200003b8:	ea45 4503 	orr.w	r5, r5, r3, lsl #16
200003bc:	fb0c f308 	mul.w	r3, ip, r8
200003c0:	42ab      	cmp	r3, r5
200003c2:	d907      	bls.n	200003d4 <__udivmoddi4+0x134>
200003c4:	19ed      	adds	r5, r5, r7
200003c6:	f108 30ff 	add.w	r0, r8, #4294967295
200003ca:	d202      	bcs.n	200003d2 <__udivmoddi4+0x132>
200003cc:	42ab      	cmp	r3, r5
200003ce:	f200 80d1 	bhi.w	20000574 <__udivmoddi4+0x2d4>
200003d2:	4680      	mov	r8, r0
200003d4:	1aed      	subs	r5, r5, r3
200003d6:	b2a3      	uxth	r3, r4
200003d8:	fbb5 f0f2 	udiv	r0, r5, r2
200003dc:	fb02 5510 	mls	r5, r2, r0, r5
200003e0:	ea43 4405 	orr.w	r4, r3, r5, lsl #16
200003e4:	fb0c fc00 	mul.w	ip, ip, r0
200003e8:	45a4      	cmp	ip, r4
200003ea:	d907      	bls.n	200003fc <__udivmoddi4+0x15c>
200003ec:	19e4      	adds	r4, r4, r7
200003ee:	f100 33ff 	add.w	r3, r0, #4294967295
200003f2:	d202      	bcs.n	200003fa <__udivmoddi4+0x15a>
200003f4:	45a4      	cmp	ip, r4
200003f6:	f200 80b8 	bhi.w	2000056a <__udivmoddi4+0x2ca>
200003fa:	4618      	mov	r0, r3
200003fc:	eba4 040c 	sub.w	r4, r4, ip
20000400:	ea40 4008 	orr.w	r0, r0, r8, lsl #16
20000404:	e79d      	b.n	20000342 <__udivmoddi4+0xa2>
20000406:	4631      	mov	r1, r6
20000408:	4630      	mov	r0, r6
2000040a:	e8bd 87f0 	ldmia.w	sp!, {r4, r5, r6, r7, r8, r9, sl, pc}
2000040e:	f1ce 0420 	rsb	r4, lr, #32
20000412:	fa05 f30e 	lsl.w	r3, r5, lr
20000416:	fa07 f70e 	lsl.w	r7, r7, lr
2000041a:	fa20 f804 	lsr.w	r8, r0, r4
2000041e:	0c3a      	lsrs	r2, r7, #16
20000420:	fa25 f404 	lsr.w	r4, r5, r4
20000424:	ea48 0803 	orr.w	r8, r8, r3
20000428:	fbb4 f1f2 	udiv	r1, r4, r2
2000042c:	ea4f 4518 	mov.w	r5, r8, lsr #16
20000430:	fb02 4411 	mls	r4, r2, r1, r4
20000434:	fa1f fc87 	uxth.w	ip, r7
20000438:	ea45 4504 	orr.w	r5, r5, r4, lsl #16
2000043c:	fb01 f30c 	mul.w	r3, r1, ip
20000440:	42ab      	cmp	r3, r5
20000442:	fa00 f40e 	lsl.w	r4, r0, lr
20000446:	d909      	bls.n	2000045c <__udivmoddi4+0x1bc>
20000448:	19ed      	adds	r5, r5, r7
2000044a:	f101 30ff 	add.w	r0, r1, #4294967295
2000044e:	f080 808a 	bcs.w	20000566 <__udivmoddi4+0x2c6>
20000452:	42ab      	cmp	r3, r5
20000454:	f240 8087 	bls.w	20000566 <__udivmoddi4+0x2c6>
20000458:	3902      	subs	r1, #2
2000045a:	443d      	add	r5, r7
2000045c:	1aeb      	subs	r3, r5, r3
2000045e:	fa1f f588 	uxth.w	r5, r8
20000462:	fbb3 f0f2 	udiv	r0, r3, r2
20000466:	fb02 3310 	mls	r3, r2, r0, r3
2000046a:	ea45 4503 	orr.w	r5, r5, r3, lsl #16
2000046e:	fb00 f30c 	mul.w	r3, r0, ip
20000472:	42ab      	cmp	r3, r5
20000474:	d907      	bls.n	20000486 <__udivmoddi4+0x1e6>
20000476:	19ed      	adds	r5, r5, r7
20000478:	f100 38ff 	add.w	r8, r0, #4294967295
2000047c:	d26f      	bcs.n	2000055e <__udivmoddi4+0x2be>
2000047e:	42ab      	cmp	r3, r5
20000480:	d96d      	bls.n	2000055e <__udivmoddi4+0x2be>
20000482:	3802      	subs	r0, #2
20000484:	443d      	add	r5, r7
20000486:	1aeb      	subs	r3, r5, r3
20000488:	ea40 4101 	orr.w	r1, r0, r1, lsl #16
2000048c:	e78f      	b.n	200003ae <__udivmoddi4+0x10e>
2000048e:	f1c1 0720 	rsb	r7, r1, #32
20000492:	fa22 f807 	lsr.w	r8, r2, r7
20000496:	408b      	lsls	r3, r1
20000498:	fa05 f401 	lsl.w	r4, r5, r1
2000049c:	ea48 0303 	orr.w	r3, r8, r3
200004a0:	fa20 fe07 	lsr.w	lr, r0, r7
200004a4:	ea4f 4c13 	mov.w	ip, r3, lsr #16
200004a8:	40fd      	lsrs	r5, r7
200004aa:	ea4e 0e04 	orr.w	lr, lr, r4
200004ae:	fbb5 f9fc 	udiv	r9, r5, ip
200004b2:	ea4f 441e 	mov.w	r4, lr, lsr #16
200004b6:	fb0c 5519 	mls	r5, ip, r9, r5
200004ba:	fa1f f883 	uxth.w	r8, r3
200004be:	ea44 4505 	orr.w	r5, r4, r5, lsl #16
200004c2:	fb09 f408 	mul.w	r4, r9, r8
200004c6:	42ac      	cmp	r4, r5
200004c8:	fa02 f201 	lsl.w	r2, r2, r1
200004cc:	fa00 fa01 	lsl.w	sl, r0, r1
200004d0:	d908      	bls.n	200004e4 <__udivmoddi4+0x244>
200004d2:	18ed      	adds	r5, r5, r3
200004d4:	f109 30ff 	add.w	r0, r9, #4294967295
200004d8:	d243      	bcs.n	20000562 <__udivmoddi4+0x2c2>
200004da:	42ac      	cmp	r4, r5
200004dc:	d941      	bls.n	20000562 <__udivmoddi4+0x2c2>
200004de:	f1a9 0902 	sub.w	r9, r9, #2
200004e2:	441d      	add	r5, r3
200004e4:	1b2d      	subs	r5, r5, r4
200004e6:	fa1f fe8e 	uxth.w	lr, lr
200004ea:	fbb5 f0fc 	udiv	r0, r5, ip
200004ee:	fb0c 5510 	mls	r5, ip, r0, r5
200004f2:	ea4e 4405 	orr.w	r4, lr, r5, lsl #16
200004f6:	fb00 f808 	mul.w	r8, r0, r8
200004fa:	45a0      	cmp	r8, r4
200004fc:	d907      	bls.n	2000050e <__udivmoddi4+0x26e>
200004fe:	18e4      	adds	r4, r4, r3
20000500:	f100 35ff 	add.w	r5, r0, #4294967295
20000504:	d229      	bcs.n	2000055a <__udivmoddi4+0x2ba>
20000506:	45a0      	cmp	r8, r4
20000508:	d927      	bls.n	2000055a <__udivmoddi4+0x2ba>
2000050a:	3802      	subs	r0, #2
2000050c:	441c      	add	r4, r3
2000050e:	ea40 4009 	orr.w	r0, r0, r9, lsl #16
20000512:	eba4 0408 	sub.w	r4, r4, r8
20000516:	fba0 8902 	umull	r8, r9, r0, r2
2000051a:	454c      	cmp	r4, r9
2000051c:	46c6      	mov	lr, r8
2000051e:	464d      	mov	r5, r9
20000520:	d315      	bcc.n	2000054e <__udivmoddi4+0x2ae>
20000522:	d012      	beq.n	2000054a <__udivmoddi4+0x2aa>
20000524:	b156      	cbz	r6, 2000053c <__udivmoddi4+0x29c>
20000526:	ebba 030e 	subs.w	r3, sl, lr
2000052a:	eb64 0405 	sbc.w	r4, r4, r5
2000052e:	fa04 f707 	lsl.w	r7, r4, r7
20000532:	40cb      	lsrs	r3, r1
20000534:	431f      	orrs	r7, r3
20000536:	40cc      	lsrs	r4, r1
20000538:	6037      	str	r7, [r6, #0]
2000053a:	6074      	str	r4, [r6, #4]
2000053c:	2100      	movs	r1, #0
2000053e:	e8bd 87f0 	ldmia.w	sp!, {r4, r5, r6, r7, r8, r9, sl, pc}
20000542:	4618      	mov	r0, r3
20000544:	e6f8      	b.n	20000338 <__udivmoddi4+0x98>
20000546:	4690      	mov	r8, r2
20000548:	e6e0      	b.n	2000030c <__udivmoddi4+0x6c>
2000054a:	45c2      	cmp	sl, r8
2000054c:	d2ea      	bcs.n	20000524 <__udivmoddi4+0x284>
2000054e:	ebb8 0e02 	subs.w	lr, r8, r2
20000552:	eb69 0503 	sbc.w	r5, r9, r3
20000556:	3801      	subs	r0, #1
20000558:	e7e4      	b.n	20000524 <__udivmoddi4+0x284>
2000055a:	4628      	mov	r0, r5
2000055c:	e7d7      	b.n	2000050e <__udivmoddi4+0x26e>
2000055e:	4640      	mov	r0, r8
20000560:	e791      	b.n	20000486 <__udivmoddi4+0x1e6>
20000562:	4681      	mov	r9, r0
20000564:	e7be      	b.n	200004e4 <__udivmoddi4+0x244>
20000566:	4601      	mov	r1, r0
20000568:	e778      	b.n	2000045c <__udivmoddi4+0x1bc>
2000056a:	3802      	subs	r0, #2
2000056c:	443c      	add	r4, r7
2000056e:	e745      	b.n	200003fc <__udivmoddi4+0x15c>
20000570:	4608      	mov	r0, r1
20000572:	e708      	b.n	20000386 <__udivmoddi4+0xe6>
20000574:	f1a8 0802 	sub.w	r8, r8, #2
20000578:	443d      	add	r5, r7
2000057a:	e72b      	b.n	200003d4 <__udivmoddi4+0x134>

2000057c <__aeabi_idiv0>:
2000057c:	4770      	bx	lr
2000057e:	bf00      	nop

20000580 <HAL_Init>:
  *         need to ensure that the SysTick time base is always set to 1 millisecond
  *         to have correct HAL operation.
  * @retval HAL status
  */
HAL_StatusTypeDef HAL_Init(void)
{
20000580:	b508      	push	{r3, lr}
  /* Configure Flash prefetch, Instruction cache, Data cache */ 
#if (INSTRUCTION_CACHE_ENABLE != 0U)
  __HAL_FLASH_INSTRUCTION_CACHE_ENABLE();
20000582:	4b0b      	ldr	r3, [pc, #44]	; (200005b0 <HAL_Init+0x30>)
20000584:	681a      	ldr	r2, [r3, #0]
20000586:	f442 7200 	orr.w	r2, r2, #512	; 0x200
2000058a:	601a      	str	r2, [r3, #0]
#endif /* INSTRUCTION_CACHE_ENABLE */

#if (DATA_CACHE_ENABLE != 0U)
  __HAL_FLASH_DATA_CACHE_ENABLE();
2000058c:	681a      	ldr	r2, [r3, #0]
2000058e:	f442 6280 	orr.w	r2, r2, #1024	; 0x400
20000592:	601a      	str	r2, [r3, #0]
#endif /* DATA_CACHE_ENABLE */

#if (PREFETCH_ENABLE != 0U)
  __HAL_FLASH_PREFETCH_BUFFER_ENABLE();
20000594:	681a      	ldr	r2, [r3, #0]
20000596:	f442 7280 	orr.w	r2, r2, #256	; 0x100
2000059a:	601a      	str	r2, [r3, #0]
#endif /* PREFETCH_ENABLE */

  /* Set Interrupt Group Priority */
  HAL_NVIC_SetPriorityGrouping(NVIC_PRIORITYGROUP_4);
2000059c:	2003      	movs	r0, #3
2000059e:	f000 f82f 	bl	20000600 <HAL_NVIC_SetPriorityGrouping>

  /* Use systick as time base source and configure 1ms tick (default clock after Reset is HSI) */
  HAL_InitTick(TICK_INT_PRIORITY);
200005a2:	2000      	movs	r0, #0
200005a4:	f004 fe22 	bl	200051ec <HAL_InitTick>

  /* Init the low level hardware */
  HAL_MspInit();
200005a8:	f004 fdc4 	bl	20005134 <HAL_MspInit>

  /* Return function status */
  return HAL_OK;
}
200005ac:	2000      	movs	r0, #0
200005ae:	bd08      	pop	{r3, pc}
200005b0:	40023c00 	.word	0x40023c00

200005b4 <HAL_IncTick>:
  *      implementations in user file.
  * @retval None
  */
__weak void HAL_IncTick(void)
{
  uwTick += uwTickFreq;
200005b4:	4a03      	ldr	r2, [pc, #12]	; (200005c4 <HAL_IncTick+0x10>)
200005b6:	6811      	ldr	r1, [r2, #0]
200005b8:	4b03      	ldr	r3, [pc, #12]	; (200005c8 <HAL_IncTick+0x14>)
200005ba:	781b      	ldrb	r3, [r3, #0]
200005bc:	440b      	add	r3, r1
200005be:	6013      	str	r3, [r2, #0]
200005c0:	4770      	bx	lr
200005c2:	bf00      	nop
200005c4:	2001c220 	.word	0x2001c220
200005c8:	20018000 	.word	0x20018000

200005cc <HAL_GetTick>:
  *       implementations in user file.
  * @retval tick value
  */
__weak uint32_t HAL_GetTick(void)
{
  return uwTick;
200005cc:	4b01      	ldr	r3, [pc, #4]	; (200005d4 <HAL_GetTick+0x8>)
200005ce:	6818      	ldr	r0, [r3, #0]
}
200005d0:	4770      	bx	lr
200005d2:	bf00      	nop
200005d4:	2001c220 	.word	0x2001c220

200005d8 <HAL_Delay>:
  *       implementations in user file.
  * @param Delay specifies the delay time length, in milliseconds.
  * @retval None
  */
__weak void HAL_Delay(uint32_t Delay)
{
200005d8:	b538      	push	{r3, r4, r5, lr}
200005da:	4604      	mov	r4, r0
  uint32_t tickstart = HAL_GetTick();
200005dc:	f7ff fff6 	bl	200005cc <HAL_GetTick>
200005e0:	4605      	mov	r5, r0
  uint32_t wait = Delay;

  /* Add a freq to guarantee minimum wait */
  if (wait < HAL_MAX_DELAY)
200005e2:	f1b4 3fff 	cmp.w	r4, #4294967295
200005e6:	d002      	beq.n	200005ee <HAL_Delay+0x16>
  {
    wait += (uint32_t)(uwTickFreq);
200005e8:	4b04      	ldr	r3, [pc, #16]	; (200005fc <HAL_Delay+0x24>)
200005ea:	781b      	ldrb	r3, [r3, #0]
200005ec:	441c      	add	r4, r3
  }

  while((HAL_GetTick() - tickstart) < wait)
200005ee:	f7ff ffed 	bl	200005cc <HAL_GetTick>
200005f2:	1b40      	subs	r0, r0, r5
200005f4:	4284      	cmp	r4, r0
200005f6:	d8fa      	bhi.n	200005ee <HAL_Delay+0x16>
  {
  }
}
200005f8:	bd38      	pop	{r3, r4, r5, pc}
200005fa:	bf00      	nop
200005fc:	20018000 	.word	0x20018000

20000600 <HAL_NVIC_SetPriorityGrouping>:
__STATIC_INLINE void NVIC_SetPriorityGrouping(uint32_t PriorityGroup)
{
  uint32_t reg_value;
  uint32_t PriorityGroupTmp = (PriorityGroup & (uint32_t)0x07UL);             /* only values 0..7 are used          */

  reg_value  =  SCB->AIRCR;                                                   /* read old register configuration    */
20000600:	4a07      	ldr	r2, [pc, #28]	; (20000620 <HAL_NVIC_SetPriorityGrouping+0x20>)
20000602:	68d3      	ldr	r3, [r2, #12]
  reg_value &= ~((uint32_t)(SCB_AIRCR_VECTKEY_Msk | SCB_AIRCR_PRIGROUP_Msk)); /* clear bits to change               */
20000604:	f423 63e0 	bic.w	r3, r3, #1792	; 0x700
20000608:	041b      	lsls	r3, r3, #16
2000060a:	0c1b      	lsrs	r3, r3, #16
  reg_value  =  (reg_value                                   |
                ((uint32_t)0x5FAUL << SCB_AIRCR_VECTKEY_Pos) |
                (PriorityGroupTmp << 8U)                      );              /* Insert write key and priorty group */
2000060c:	0200      	lsls	r0, r0, #8
2000060e:	f400 60e0 	and.w	r0, r0, #1792	; 0x700
                ((uint32_t)0x5FAUL << SCB_AIRCR_VECTKEY_Pos) |
20000612:	4318      	orrs	r0, r3
  reg_value  =  (reg_value                                   |
20000614:	f040 60bf 	orr.w	r0, r0, #100139008	; 0x5f80000
20000618:	f440 3000 	orr.w	r0, r0, #131072	; 0x20000
  SCB->AIRCR =  reg_value;
2000061c:	60d0      	str	r0, [r2, #12]
2000061e:	4770      	bx	lr
20000620:	e000ed00 	.word	0xe000ed00

20000624 <HAL_NVIC_SetPriority>:
  *         This parameter can be a value between 0 and 15
  *         A lower priority value indicates a higher priority.          
  * @retval None
  */
void HAL_NVIC_SetPriority(IRQn_Type IRQn, uint32_t PreemptPriority, uint32_t SubPriority)
{ 
20000624:	b430      	push	{r4, r5}
  \details Reads the priority grouping field from the NVIC Interrupt Controller.
  \return                Priority grouping field (SCB->AIRCR [10:8] PRIGROUP field).
 */
__STATIC_INLINE uint32_t NVIC_GetPriorityGrouping(void)
{
  return ((uint32_t)((SCB->AIRCR & SCB_AIRCR_PRIGROUP_Msk) >> SCB_AIRCR_PRIGROUP_Pos));
20000626:	4b16      	ldr	r3, [pc, #88]	; (20000680 <HAL_NVIC_SetPriority+0x5c>)
20000628:	68db      	ldr	r3, [r3, #12]
2000062a:	f3c3 2302 	ubfx	r3, r3, #8, #3
{
  uint32_t PriorityGroupTmp = (PriorityGroup & (uint32_t)0x07UL);   /* only values 0..7 are used          */
  uint32_t PreemptPriorityBits;
  uint32_t SubPriorityBits;

  PreemptPriorityBits = ((7UL - PriorityGroupTmp) > (uint32_t)(__NVIC_PRIO_BITS)) ? (uint32_t)(__NVIC_PRIO_BITS) : (uint32_t)(7UL - PriorityGroupTmp);
2000062e:	f1c3 0407 	rsb	r4, r3, #7
20000632:	2c04      	cmp	r4, #4
20000634:	bf28      	it	cs
20000636:	2404      	movcs	r4, #4
  SubPriorityBits     = ((PriorityGroupTmp + (uint32_t)(__NVIC_PRIO_BITS)) < (uint32_t)7UL) ? (uint32_t)0UL : (uint32_t)((PriorityGroupTmp - 7UL) + (uint32_t)(__NVIC_PRIO_BITS));
20000638:	1d1d      	adds	r5, r3, #4
2000063a:	2d06      	cmp	r5, #6
2000063c:	d917      	bls.n	2000066e <HAL_NVIC_SetPriority+0x4a>
2000063e:	3b03      	subs	r3, #3

  return (
           ((PreemptPriority & (uint32_t)((1UL << (PreemptPriorityBits)) - 1UL)) << SubPriorityBits) |
20000640:	2501      	movs	r5, #1
20000642:	fa05 f404 	lsl.w	r4, r5, r4
20000646:	3c01      	subs	r4, #1
20000648:	4021      	ands	r1, r4
2000064a:	4099      	lsls	r1, r3
           ((SubPriority     & (uint32_t)((1UL << (SubPriorityBits    )) - 1UL)))
2000064c:	fa05 f303 	lsl.w	r3, r5, r3
20000650:	3b01      	subs	r3, #1
20000652:	4013      	ands	r3, r2
           ((PreemptPriority & (uint32_t)((1UL << (PreemptPriorityBits)) - 1UL)) << SubPriorityBits) |
20000654:	4319      	orrs	r1, r3
  if ((int32_t)(IRQn) < 0)
20000656:	2800      	cmp	r0, #0
20000658:	db0b      	blt.n	20000672 <HAL_NVIC_SetPriority+0x4e>
    NVIC->IP[((uint32_t)(int32_t)IRQn)]               = (uint8_t)((priority << (8U - __NVIC_PRIO_BITS)) & (uint32_t)0xFFUL);
2000065a:	0109      	lsls	r1, r1, #4
2000065c:	b2c9      	uxtb	r1, r1
2000065e:	f100 4060 	add.w	r0, r0, #3758096384	; 0xe0000000
20000662:	f500 4061 	add.w	r0, r0, #57600	; 0xe100
20000666:	f880 1300 	strb.w	r1, [r0, #768]	; 0x300
  assert_param(IS_NVIC_PREEMPTION_PRIORITY(PreemptPriority));
  
  prioritygroup = NVIC_GetPriorityGrouping();
  
  NVIC_SetPriority(IRQn, NVIC_EncodePriority(prioritygroup, PreemptPriority, SubPriority));
}
2000066a:	bc30      	pop	{r4, r5}
2000066c:	4770      	bx	lr
  SubPriorityBits     = ((PriorityGroupTmp + (uint32_t)(__NVIC_PRIO_BITS)) < (uint32_t)7UL) ? (uint32_t)0UL : (uint32_t)((PriorityGroupTmp - 7UL) + (uint32_t)(__NVIC_PRIO_BITS));
2000066e:	2300      	movs	r3, #0
20000670:	e7e6      	b.n	20000640 <HAL_NVIC_SetPriority+0x1c>
    SCB->SHP[(((uint32_t)(int32_t)IRQn) & 0xFUL)-4UL] = (uint8_t)((priority << (8U - __NVIC_PRIO_BITS)) & (uint32_t)0xFFUL);
20000672:	f000 000f 	and.w	r0, r0, #15
20000676:	0109      	lsls	r1, r1, #4
20000678:	b2c9      	uxtb	r1, r1
2000067a:	4b02      	ldr	r3, [pc, #8]	; (20000684 <HAL_NVIC_SetPriority+0x60>)
2000067c:	5419      	strb	r1, [r3, r0]
2000067e:	e7f4      	b.n	2000066a <HAL_NVIC_SetPriority+0x46>
20000680:	e000ed00 	.word	0xe000ed00
20000684:	e000ed14 	.word	0xe000ed14

20000688 <HAL_NVIC_EnableIRQ>:
  NVIC->ISER[(((uint32_t)(int32_t)IRQn) >> 5UL)] = (uint32_t)(1UL << (((uint32_t)(int32_t)IRQn) & 0x1FUL));
20000688:	0942      	lsrs	r2, r0, #5
2000068a:	f000 001f 	and.w	r0, r0, #31
2000068e:	2301      	movs	r3, #1
20000690:	fa03 f000 	lsl.w	r0, r3, r0
20000694:	4b01      	ldr	r3, [pc, #4]	; (2000069c <HAL_NVIC_EnableIRQ+0x14>)
20000696:	f843 0022 	str.w	r0, [r3, r2, lsl #2]
2000069a:	4770      	bx	lr
2000069c:	e000e100 	.word	0xe000e100

200006a0 <HAL_SYSTICK_Config>:
           function <b>SysTick_Config</b> is not included. In this case, the file <b><i>device</i>.h</b>
           must contain a vendor-specific implementation of this function.
 */
__STATIC_INLINE uint32_t SysTick_Config(uint32_t ticks)
{
  if ((ticks - 1UL) > SysTick_LOAD_RELOAD_Msk)
200006a0:	3801      	subs	r0, #1
200006a2:	f1b0 7f80 	cmp.w	r0, #16777216	; 0x1000000
200006a6:	d20a      	bcs.n	200006be <HAL_SYSTICK_Config+0x1e>
  {
    return (1UL);                                                   /* Reload value impossible */
  }

  SysTick->LOAD  = (uint32_t)(ticks - 1UL);                         /* set reload register */
200006a8:	4b06      	ldr	r3, [pc, #24]	; (200006c4 <HAL_SYSTICK_Config+0x24>)
200006aa:	6058      	str	r0, [r3, #4]
    SCB->SHP[(((uint32_t)(int32_t)IRQn) & 0xFUL)-4UL] = (uint8_t)((priority << (8U - __NVIC_PRIO_BITS)) & (uint32_t)0xFFUL);
200006ac:	21f0      	movs	r1, #240	; 0xf0
200006ae:	4a06      	ldr	r2, [pc, #24]	; (200006c8 <HAL_SYSTICK_Config+0x28>)
200006b0:	f882 1023 	strb.w	r1, [r2, #35]	; 0x23
  NVIC_SetPriority (SysTick_IRQn, (1UL << __NVIC_PRIO_BITS) - 1UL); /* set Priority for Systick Interrupt */
  SysTick->VAL   = 0UL;                                             /* Load the SysTick Counter Value */
200006b4:	2000      	movs	r0, #0
200006b6:	6098      	str	r0, [r3, #8]
  SysTick->CTRL  = SysTick_CTRL_CLKSOURCE_Msk |
200006b8:	2207      	movs	r2, #7
200006ba:	601a      	str	r2, [r3, #0]
200006bc:	4770      	bx	lr
    return (1UL);                                                   /* Reload value impossible */
200006be:	2001      	movs	r0, #1
  *                  - 1  Function failed.
  */
uint32_t HAL_SYSTICK_Config(uint32_t TicksNumb)
{
   return SysTick_Config(TicksNumb);
}
200006c0:	4770      	bx	lr
200006c2:	bf00      	nop
200006c4:	e000e010 	.word	0xe000e010
200006c8:	e000ed00 	.word	0xe000ed00

200006cc <HAL_SYSTICK_CLKSourceConfig>:
  */
void HAL_SYSTICK_CLKSourceConfig(uint32_t CLKSource)
{
  /* Check the parameters */
  assert_param(IS_SYSTICK_CLK_SOURCE(CLKSource));
  if (CLKSource == SYSTICK_CLKSOURCE_HCLK)
200006cc:	2804      	cmp	r0, #4
200006ce:	d005      	beq.n	200006dc <HAL_SYSTICK_CLKSourceConfig+0x10>
  {
    SysTick->CTRL |= SYSTICK_CLKSOURCE_HCLK;
  }
  else
  {
    SysTick->CTRL &= ~SYSTICK_CLKSOURCE_HCLK;
200006d0:	4a05      	ldr	r2, [pc, #20]	; (200006e8 <HAL_SYSTICK_CLKSourceConfig+0x1c>)
200006d2:	6813      	ldr	r3, [r2, #0]
200006d4:	f023 0304 	bic.w	r3, r3, #4
200006d8:	6013      	str	r3, [r2, #0]
200006da:	4770      	bx	lr
    SysTick->CTRL |= SYSTICK_CLKSOURCE_HCLK;
200006dc:	4a02      	ldr	r2, [pc, #8]	; (200006e8 <HAL_SYSTICK_CLKSourceConfig+0x1c>)
200006de:	6813      	ldr	r3, [r2, #0]
200006e0:	f043 0304 	orr.w	r3, r3, #4
200006e4:	6013      	str	r3, [r2, #0]
200006e6:	4770      	bx	lr
200006e8:	e000e010 	.word	0xe000e010

200006ec <HAL_GPIO_Init>:
  * @param  GPIO_Init pointer to a GPIO_InitTypeDef structure that contains
  *         the configuration information for the specified GPIO peripheral.
  * @retval None
  */
void HAL_GPIO_Init(GPIO_TypeDef  *GPIOx, GPIO_InitTypeDef *GPIO_Init)
{
200006ec:	b5f0      	push	{r4, r5, r6, r7, lr}
200006ee:	b083      	sub	sp, #12
  assert_param(IS_GPIO_PIN(GPIO_Init->Pin));
  assert_param(IS_GPIO_MODE(GPIO_Init->Mode));
  assert_param(IS_GPIO_PULL(GPIO_Init->Pull));

  /* Configure the port pins */
  for(position = 0U; position < GPIO_NUMBER; position++)
200006f0:	2400      	movs	r4, #0
200006f2:	e04b      	b.n	2000078c <HAL_GPIO_Init+0xa0>
      if((GPIO_Init->Mode == GPIO_MODE_AF_PP) || (GPIO_Init->Mode == GPIO_MODE_AF_OD))
      {
        /* Check the Alternate function parameter */
        assert_param(IS_GPIO_AF(GPIO_Init->Alternate));
        /* Configure Alternate function mapped with the current IO */
        temp = GPIOx->AFR[position >> 3U];
200006f4:	ea4f 0ed4 	mov.w	lr, r4, lsr #3
200006f8:	f10e 0e08 	add.w	lr, lr, #8
200006fc:	f850 202e 	ldr.w	r2, [r0, lr, lsl #2]
        temp &= ~(0xFU << ((uint32_t)(position & 0x07U) * 4U)) ;
20000700:	f004 0607 	and.w	r6, r4, #7
20000704:	00b6      	lsls	r6, r6, #2
20000706:	270f      	movs	r7, #15
20000708:	40b7      	lsls	r7, r6
2000070a:	ea22 0207 	bic.w	r2, r2, r7
        temp |= ((uint32_t)(GPIO_Init->Alternate) << (((uint32_t)position & 0x07U) * 4U));
2000070e:	690f      	ldr	r7, [r1, #16]
20000710:	fa07 f606 	lsl.w	r6, r7, r6
20000714:	4332      	orrs	r2, r6
        GPIOx->AFR[position >> 3U] = temp;
20000716:	f840 202e 	str.w	r2, [r0, lr, lsl #2]
2000071a:	e046      	b.n	200007aa <HAL_GPIO_Init+0xbe>
        /* Enable SYSCFG Clock */
        __HAL_RCC_SYSCFG_CLK_ENABLE();

        temp = SYSCFG->EXTICR[position >> 2U];
        temp &= ~(0x0FU << (4U * (position & 0x03U)));
        temp |= ((uint32_t)(GPIO_GET_INDEX(GPIOx)) << (4U * (position & 0x03U)));
2000071c:	2607      	movs	r6, #7
2000071e:	e000      	b.n	20000722 <HAL_GPIO_Init+0x36>
20000720:	2600      	movs	r6, #0
20000722:	fa06 f60e 	lsl.w	r6, r6, lr
20000726:	4332      	orrs	r2, r6
        SYSCFG->EXTICR[position >> 2U] = temp;
20000728:	3302      	adds	r3, #2
2000072a:	4e5e      	ldr	r6, [pc, #376]	; (200008a4 <HAL_GPIO_Init+0x1b8>)
2000072c:	f846 2023 	str.w	r2, [r6, r3, lsl #2]

        /* Clear EXTI line configuration */
        temp = EXTI->IMR;
20000730:	4b5d      	ldr	r3, [pc, #372]	; (200008a8 <HAL_GPIO_Init+0x1bc>)
20000732:	681a      	ldr	r2, [r3, #0]
        temp &= ~((uint32_t)iocurrent);
20000734:	43eb      	mvns	r3, r5
20000736:	ea02 0603 	and.w	r6, r2, r3
        if((GPIO_Init->Mode & GPIO_MODE_IT) == GPIO_MODE_IT)
2000073a:	684f      	ldr	r7, [r1, #4]
2000073c:	f417 3f80 	tst.w	r7, #65536	; 0x10000
20000740:	d001      	beq.n	20000746 <HAL_GPIO_Init+0x5a>
        {
          temp |= iocurrent;
20000742:	ea45 0602 	orr.w	r6, r5, r2
        }
        EXTI->IMR = temp;
20000746:	4a58      	ldr	r2, [pc, #352]	; (200008a8 <HAL_GPIO_Init+0x1bc>)
20000748:	6016      	str	r6, [r2, #0]

        temp = EXTI->EMR;
2000074a:	6852      	ldr	r2, [r2, #4]
        temp &= ~((uint32_t)iocurrent);
2000074c:	ea03 0602 	and.w	r6, r3, r2
        if((GPIO_Init->Mode & GPIO_MODE_EVT) == GPIO_MODE_EVT)
20000750:	684f      	ldr	r7, [r1, #4]
20000752:	f417 3f00 	tst.w	r7, #131072	; 0x20000
20000756:	d001      	beq.n	2000075c <HAL_GPIO_Init+0x70>
        {
          temp |= iocurrent;
20000758:	ea45 0602 	orr.w	r6, r5, r2
        }
        EXTI->EMR = temp;
2000075c:	4a52      	ldr	r2, [pc, #328]	; (200008a8 <HAL_GPIO_Init+0x1bc>)
2000075e:	6056      	str	r6, [r2, #4]

        /* Clear Rising Falling edge configuration */
        temp = EXTI->RTSR;
20000760:	6892      	ldr	r2, [r2, #8]
        temp &= ~((uint32_t)iocurrent);
20000762:	ea03 0602 	and.w	r6, r3, r2
        if((GPIO_Init->Mode & RISING_EDGE) == RISING_EDGE)
20000766:	684f      	ldr	r7, [r1, #4]
20000768:	f417 1f80 	tst.w	r7, #1048576	; 0x100000
2000076c:	d001      	beq.n	20000772 <HAL_GPIO_Init+0x86>
        {
          temp |= iocurrent;
2000076e:	ea45 0602 	orr.w	r6, r5, r2
        }
        EXTI->RTSR = temp;
20000772:	4a4d      	ldr	r2, [pc, #308]	; (200008a8 <HAL_GPIO_Init+0x1bc>)
20000774:	6096      	str	r6, [r2, #8]

        temp = EXTI->FTSR;
20000776:	68d2      	ldr	r2, [r2, #12]
        temp &= ~((uint32_t)iocurrent);
20000778:	4013      	ands	r3, r2
        if((GPIO_Init->Mode & FALLING_EDGE) == FALLING_EDGE)
2000077a:	684e      	ldr	r6, [r1, #4]
2000077c:	f416 1f00 	tst.w	r6, #2097152	; 0x200000
20000780:	d001      	beq.n	20000786 <HAL_GPIO_Init+0x9a>
        {
          temp |= iocurrent;
20000782:	ea45 0302 	orr.w	r3, r5, r2
        }
        EXTI->FTSR = temp;
20000786:	4a48      	ldr	r2, [pc, #288]	; (200008a8 <HAL_GPIO_Init+0x1bc>)
20000788:	60d3      	str	r3, [r2, #12]
  for(position = 0U; position < GPIO_NUMBER; position++)
2000078a:	3401      	adds	r4, #1
2000078c:	2c0f      	cmp	r4, #15
2000078e:	f200 8086 	bhi.w	2000089e <HAL_GPIO_Init+0x1b2>
    ioposition = 0x01U << position;
20000792:	2301      	movs	r3, #1
20000794:	40a3      	lsls	r3, r4
    iocurrent = (uint32_t)(GPIO_Init->Pin) & ioposition;
20000796:	680a      	ldr	r2, [r1, #0]
20000798:	ea03 0502 	and.w	r5, r3, r2
    if(iocurrent == ioposition)
2000079c:	42ab      	cmp	r3, r5
2000079e:	d1f4      	bne.n	2000078a <HAL_GPIO_Init+0x9e>
      if((GPIO_Init->Mode == GPIO_MODE_AF_PP) || (GPIO_Init->Mode == GPIO_MODE_AF_OD))
200007a0:	684a      	ldr	r2, [r1, #4]
200007a2:	2a02      	cmp	r2, #2
200007a4:	d0a6      	beq.n	200006f4 <HAL_GPIO_Init+0x8>
200007a6:	2a12      	cmp	r2, #18
200007a8:	d0a4      	beq.n	200006f4 <HAL_GPIO_Init+0x8>
      temp = GPIOx->MODER;
200007aa:	6806      	ldr	r6, [r0, #0]
      temp &= ~(GPIO_MODER_MODER0 << (position * 2U));
200007ac:	ea4f 0e44 	mov.w	lr, r4, lsl #1
200007b0:	2203      	movs	r2, #3
200007b2:	fa02 f20e 	lsl.w	r2, r2, lr
200007b6:	43d2      	mvns	r2, r2
200007b8:	4016      	ands	r6, r2
      temp |= ((GPIO_Init->Mode & GPIO_MODE) << (position * 2U));
200007ba:	684f      	ldr	r7, [r1, #4]
200007bc:	f007 0703 	and.w	r7, r7, #3
200007c0:	fa07 f70e 	lsl.w	r7, r7, lr
200007c4:	433e      	orrs	r6, r7
      GPIOx->MODER = temp;
200007c6:	6006      	str	r6, [r0, #0]
      if((GPIO_Init->Mode == GPIO_MODE_OUTPUT_PP) || (GPIO_Init->Mode == GPIO_MODE_AF_PP) ||
200007c8:	684e      	ldr	r6, [r1, #4]
200007ca:	1e77      	subs	r7, r6, #1
200007cc:	2f01      	cmp	r7, #1
200007ce:	d903      	bls.n	200007d8 <HAL_GPIO_Init+0xec>
200007d0:	2e11      	cmp	r6, #17
200007d2:	d001      	beq.n	200007d8 <HAL_GPIO_Init+0xec>
         (GPIO_Init->Mode == GPIO_MODE_OUTPUT_OD) || (GPIO_Init->Mode == GPIO_MODE_AF_OD))
200007d4:	2e12      	cmp	r6, #18
200007d6:	d10f      	bne.n	200007f8 <HAL_GPIO_Init+0x10c>
        temp = GPIOx->OSPEEDR; 
200007d8:	6886      	ldr	r6, [r0, #8]
        temp &= ~(GPIO_OSPEEDER_OSPEEDR0 << (position * 2U));
200007da:	4016      	ands	r6, r2
        temp |= (GPIO_Init->Speed << (position * 2U));
200007dc:	68cf      	ldr	r7, [r1, #12]
200007de:	fa07 f70e 	lsl.w	r7, r7, lr
200007e2:	433e      	orrs	r6, r7
        GPIOx->OSPEEDR = temp;
200007e4:	6086      	str	r6, [r0, #8]
        temp = GPIOx->OTYPER;
200007e6:	6846      	ldr	r6, [r0, #4]
        temp &= ~(GPIO_OTYPER_OT_0 << position) ;
200007e8:	ea26 0303 	bic.w	r3, r6, r3
        temp |= (((GPIO_Init->Mode & GPIO_OUTPUT_TYPE) >> 4U) << position);
200007ec:	684e      	ldr	r6, [r1, #4]
200007ee:	f3c6 1600 	ubfx	r6, r6, #4, #1
200007f2:	40a6      	lsls	r6, r4
200007f4:	4333      	orrs	r3, r6
        GPIOx->OTYPER = temp;
200007f6:	6043      	str	r3, [r0, #4]
      temp = GPIOx->PUPDR;
200007f8:	68c3      	ldr	r3, [r0, #12]
      temp &= ~(GPIO_PUPDR_PUPDR0 << (position * 2U));
200007fa:	401a      	ands	r2, r3
      temp |= ((GPIO_Init->Pull) << (position * 2U));
200007fc:	688b      	ldr	r3, [r1, #8]
200007fe:	fa03 f30e 	lsl.w	r3, r3, lr
20000802:	431a      	orrs	r2, r3
      GPIOx->PUPDR = temp;
20000804:	60c2      	str	r2, [r0, #12]
      if((GPIO_Init->Mode & EXTI_MODE) == EXTI_MODE)
20000806:	684b      	ldr	r3, [r1, #4]
20000808:	f013 5f80 	tst.w	r3, #268435456	; 0x10000000
2000080c:	d0bd      	beq.n	2000078a <HAL_GPIO_Init+0x9e>
        __HAL_RCC_SYSCFG_CLK_ENABLE();
2000080e:	2300      	movs	r3, #0
20000810:	9301      	str	r3, [sp, #4]
20000812:	4b26      	ldr	r3, [pc, #152]	; (200008ac <HAL_GPIO_Init+0x1c0>)
20000814:	6c5a      	ldr	r2, [r3, #68]	; 0x44
20000816:	f442 4280 	orr.w	r2, r2, #16384	; 0x4000
2000081a:	645a      	str	r2, [r3, #68]	; 0x44
2000081c:	6c5b      	ldr	r3, [r3, #68]	; 0x44
2000081e:	f403 4380 	and.w	r3, r3, #16384	; 0x4000
20000822:	9301      	str	r3, [sp, #4]
20000824:	9b01      	ldr	r3, [sp, #4]
        temp = SYSCFG->EXTICR[position >> 2U];
20000826:	08a3      	lsrs	r3, r4, #2
20000828:	1c9e      	adds	r6, r3, #2
2000082a:	4a1e      	ldr	r2, [pc, #120]	; (200008a4 <HAL_GPIO_Init+0x1b8>)
2000082c:	f852 2026 	ldr.w	r2, [r2, r6, lsl #2]
        temp &= ~(0x0FU << (4U * (position & 0x03U)));
20000830:	f004 0603 	and.w	r6, r4, #3
20000834:	ea4f 0e86 	mov.w	lr, r6, lsl #2
20000838:	260f      	movs	r6, #15
2000083a:	fa06 f60e 	lsl.w	r6, r6, lr
2000083e:	ea22 0206 	bic.w	r2, r2, r6
        temp |= ((uint32_t)(GPIO_GET_INDEX(GPIOx)) << (4U * (position & 0x03U)));
20000842:	4f1b      	ldr	r7, [pc, #108]	; (200008b0 <HAL_GPIO_Init+0x1c4>)
20000844:	42b8      	cmp	r0, r7
20000846:	f43f af6b 	beq.w	20000720 <HAL_GPIO_Init+0x34>
2000084a:	4e1a      	ldr	r6, [pc, #104]	; (200008b4 <HAL_GPIO_Init+0x1c8>)
2000084c:	42b0      	cmp	r0, r6
2000084e:	d01a      	beq.n	20000886 <HAL_GPIO_Init+0x19a>
20000850:	f506 6680 	add.w	r6, r6, #1024	; 0x400
20000854:	42b0      	cmp	r0, r6
20000856:	d018      	beq.n	2000088a <HAL_GPIO_Init+0x19e>
20000858:	f506 6680 	add.w	r6, r6, #1024	; 0x400
2000085c:	42b0      	cmp	r0, r6
2000085e:	d016      	beq.n	2000088e <HAL_GPIO_Init+0x1a2>
20000860:	f506 6680 	add.w	r6, r6, #1024	; 0x400
20000864:	42b0      	cmp	r0, r6
20000866:	d014      	beq.n	20000892 <HAL_GPIO_Init+0x1a6>
20000868:	f506 6680 	add.w	r6, r6, #1024	; 0x400
2000086c:	42b0      	cmp	r0, r6
2000086e:	d012      	beq.n	20000896 <HAL_GPIO_Init+0x1aa>
20000870:	f506 6680 	add.w	r6, r6, #1024	; 0x400
20000874:	42b0      	cmp	r0, r6
20000876:	d010      	beq.n	2000089a <HAL_GPIO_Init+0x1ae>
20000878:	f506 6680 	add.w	r6, r6, #1024	; 0x400
2000087c:	42b0      	cmp	r0, r6
2000087e:	f43f af4d 	beq.w	2000071c <HAL_GPIO_Init+0x30>
20000882:	2608      	movs	r6, #8
20000884:	e74d      	b.n	20000722 <HAL_GPIO_Init+0x36>
20000886:	2601      	movs	r6, #1
20000888:	e74b      	b.n	20000722 <HAL_GPIO_Init+0x36>
2000088a:	2602      	movs	r6, #2
2000088c:	e749      	b.n	20000722 <HAL_GPIO_Init+0x36>
2000088e:	2603      	movs	r6, #3
20000890:	e747      	b.n	20000722 <HAL_GPIO_Init+0x36>
20000892:	2604      	movs	r6, #4
20000894:	e745      	b.n	20000722 <HAL_GPIO_Init+0x36>
20000896:	2605      	movs	r6, #5
20000898:	e743      	b.n	20000722 <HAL_GPIO_Init+0x36>
2000089a:	2606      	movs	r6, #6
2000089c:	e741      	b.n	20000722 <HAL_GPIO_Init+0x36>
      }
    }
  }
}
2000089e:	b003      	add	sp, #12
200008a0:	bdf0      	pop	{r4, r5, r6, r7, pc}
200008a2:	bf00      	nop
200008a4:	40013800 	.word	0x40013800
200008a8:	40013c00 	.word	0x40013c00
200008ac:	40023800 	.word	0x40023800
200008b0:	40020000 	.word	0x40020000
200008b4:	40020400 	.word	0x40020400

200008b8 <HAL_RCC_OscConfig>:
__weak HAL_StatusTypeDef HAL_RCC_OscConfig(RCC_OscInitTypeDef  *RCC_OscInitStruct)
{
  uint32_t tickstart;

  /* Check Null pointer */
  if(RCC_OscInitStruct == NULL)
200008b8:	2800      	cmp	r0, #0
200008ba:	f000 81bb 	beq.w	20000c34 <HAL_RCC_OscConfig+0x37c>
{
200008be:	b570      	push	{r4, r5, r6, lr}
200008c0:	b082      	sub	sp, #8
200008c2:	4604      	mov	r4, r0
  }

  /* Check the parameters */
  assert_param(IS_RCC_OSCILLATORTYPE(RCC_OscInitStruct->OscillatorType));
  /*------------------------------- HSE Configuration ------------------------*/
  if(((RCC_OscInitStruct->OscillatorType) & RCC_OSCILLATORTYPE_HSE) == RCC_OSCILLATORTYPE_HSE)
200008c4:	6803      	ldr	r3, [r0, #0]
200008c6:	f013 0f01 	tst.w	r3, #1
200008ca:	d03b      	beq.n	20000944 <HAL_RCC_OscConfig+0x8c>
  {
    /* Check the parameters */
    assert_param(IS_RCC_HSE(RCC_OscInitStruct->HSEState));
    /* When the HSE is used as system clock or clock source for PLL in these cases HSE will not disabled */
    if((__HAL_RCC_GET_SYSCLK_SOURCE() == RCC_CFGR_SWS_HSE) ||\
200008cc:	4ba7      	ldr	r3, [pc, #668]	; (20000b6c <HAL_RCC_OscConfig+0x2b4>)
200008ce:	689b      	ldr	r3, [r3, #8]
200008d0:	f003 030c 	and.w	r3, r3, #12
200008d4:	2b04      	cmp	r3, #4
200008d6:	d02c      	beq.n	20000932 <HAL_RCC_OscConfig+0x7a>
      ((__HAL_RCC_GET_SYSCLK_SOURCE() == RCC_CFGR_SWS_PLL) && ((RCC->PLLCFGR & RCC_PLLCFGR_PLLSRC) == RCC_PLLCFGR_PLLSRC_HSE)))
200008d8:	4ba4      	ldr	r3, [pc, #656]	; (20000b6c <HAL_RCC_OscConfig+0x2b4>)
200008da:	689b      	ldr	r3, [r3, #8]
200008dc:	f003 030c 	and.w	r3, r3, #12
    if((__HAL_RCC_GET_SYSCLK_SOURCE() == RCC_CFGR_SWS_HSE) ||\
200008e0:	2b08      	cmp	r3, #8
200008e2:	d021      	beq.n	20000928 <HAL_RCC_OscConfig+0x70>
      }
    }
    else
    {
      /* Set the new HSE configuration ---------------------------------------*/
      __HAL_RCC_HSE_CONFIG(RCC_OscInitStruct->HSEState);
200008e4:	6863      	ldr	r3, [r4, #4]
200008e6:	f5b3 3f80 	cmp.w	r3, #65536	; 0x10000
200008ea:	d04f      	beq.n	2000098c <HAL_RCC_OscConfig+0xd4>
200008ec:	f5b3 2fa0 	cmp.w	r3, #327680	; 0x50000
200008f0:	d052      	beq.n	20000998 <HAL_RCC_OscConfig+0xe0>
200008f2:	4b9e      	ldr	r3, [pc, #632]	; (20000b6c <HAL_RCC_OscConfig+0x2b4>)
200008f4:	681a      	ldr	r2, [r3, #0]
200008f6:	f422 3280 	bic.w	r2, r2, #65536	; 0x10000
200008fa:	601a      	str	r2, [r3, #0]
200008fc:	681a      	ldr	r2, [r3, #0]
200008fe:	f422 2280 	bic.w	r2, r2, #262144	; 0x40000
20000902:	601a      	str	r2, [r3, #0]

      /* Check the HSE State */
      if((RCC_OscInitStruct->HSEState) != RCC_HSE_OFF)
20000904:	6863      	ldr	r3, [r4, #4]
20000906:	2b00      	cmp	r3, #0
20000908:	d050      	beq.n	200009ac <HAL_RCC_OscConfig+0xf4>
      {
        /* Get Start Tick */
        tickstart = HAL_GetTick();
2000090a:	f7ff fe5f 	bl	200005cc <HAL_GetTick>
2000090e:	4605      	mov	r5, r0

        /* Wait till HSE is ready */
        while(__HAL_RCC_GET_FLAG(RCC_FLAG_HSERDY) == RESET)
20000910:	4b96      	ldr	r3, [pc, #600]	; (20000b6c <HAL_RCC_OscConfig+0x2b4>)
20000912:	681b      	ldr	r3, [r3, #0]
20000914:	f413 3f00 	tst.w	r3, #131072	; 0x20000
20000918:	d114      	bne.n	20000944 <HAL_RCC_OscConfig+0x8c>
        {
          if((HAL_GetTick() - tickstart ) > HSE_TIMEOUT_VALUE)
2000091a:	f7ff fe57 	bl	200005cc <HAL_GetTick>
2000091e:	1b40      	subs	r0, r0, r5
20000920:	2864      	cmp	r0, #100	; 0x64
20000922:	d9f5      	bls.n	20000910 <HAL_RCC_OscConfig+0x58>
          {
            return HAL_TIMEOUT;
20000924:	2003      	movs	r0, #3
20000926:	e18a      	b.n	20000c3e <HAL_RCC_OscConfig+0x386>
      ((__HAL_RCC_GET_SYSCLK_SOURCE() == RCC_CFGR_SWS_PLL) && ((RCC->PLLCFGR & RCC_PLLCFGR_PLLSRC) == RCC_PLLCFGR_PLLSRC_HSE)))
20000928:	4b90      	ldr	r3, [pc, #576]	; (20000b6c <HAL_RCC_OscConfig+0x2b4>)
2000092a:	685b      	ldr	r3, [r3, #4]
2000092c:	f413 0f80 	tst.w	r3, #4194304	; 0x400000
20000930:	d0d8      	beq.n	200008e4 <HAL_RCC_OscConfig+0x2c>
      if((__HAL_RCC_GET_FLAG(RCC_FLAG_HSERDY) != RESET) && (RCC_OscInitStruct->HSEState == RCC_HSE_OFF))
20000932:	4b8e      	ldr	r3, [pc, #568]	; (20000b6c <HAL_RCC_OscConfig+0x2b4>)
20000934:	681b      	ldr	r3, [r3, #0]
20000936:	f413 3f00 	tst.w	r3, #131072	; 0x20000
2000093a:	d003      	beq.n	20000944 <HAL_RCC_OscConfig+0x8c>
2000093c:	6863      	ldr	r3, [r4, #4]
2000093e:	2b00      	cmp	r3, #0
20000940:	f000 817a 	beq.w	20000c38 <HAL_RCC_OscConfig+0x380>
        }
      }
    }
  }
  /*----------------------------- HSI Configuration --------------------------*/
  if(((RCC_OscInitStruct->OscillatorType) & RCC_OSCILLATORTYPE_HSI) == RCC_OSCILLATORTYPE_HSI)
20000944:	6823      	ldr	r3, [r4, #0]
20000946:	f013 0f02 	tst.w	r3, #2
2000094a:	d055      	beq.n	200009f8 <HAL_RCC_OscConfig+0x140>
    /* Check the parameters */
    assert_param(IS_RCC_HSI(RCC_OscInitStruct->HSIState));
    assert_param(IS_RCC_CALIBRATION_VALUE(RCC_OscInitStruct->HSICalibrationValue));

    /* Check if HSI is used as system clock or as PLL source when PLL is selected as system clock */
    if((__HAL_RCC_GET_SYSCLK_SOURCE() == RCC_CFGR_SWS_HSI) ||\
2000094c:	4b87      	ldr	r3, [pc, #540]	; (20000b6c <HAL_RCC_OscConfig+0x2b4>)
2000094e:	689b      	ldr	r3, [r3, #8]
20000950:	f013 0f0c 	tst.w	r3, #12
20000954:	d03e      	beq.n	200009d4 <HAL_RCC_OscConfig+0x11c>
      ((__HAL_RCC_GET_SYSCLK_SOURCE() == RCC_CFGR_SWS_PLL) && ((RCC->PLLCFGR & RCC_PLLCFGR_PLLSRC) == RCC_PLLCFGR_PLLSRC_HSI)))
20000956:	4b85      	ldr	r3, [pc, #532]	; (20000b6c <HAL_RCC_OscConfig+0x2b4>)
20000958:	689b      	ldr	r3, [r3, #8]
2000095a:	f003 030c 	and.w	r3, r3, #12
    if((__HAL_RCC_GET_SYSCLK_SOURCE() == RCC_CFGR_SWS_HSI) ||\
2000095e:	2b08      	cmp	r3, #8
20000960:	d033      	beq.n	200009ca <HAL_RCC_OscConfig+0x112>
      }
    }
    else
    {
      /* Check the HSI State */
      if((RCC_OscInitStruct->HSIState)!= RCC_HSI_OFF)
20000962:	68e3      	ldr	r3, [r4, #12]
20000964:	2b00      	cmp	r3, #0
20000966:	d068      	beq.n	20000a3a <HAL_RCC_OscConfig+0x182>
      {
        /* Enable the Internal High Speed oscillator (HSI). */
        __HAL_RCC_HSI_ENABLE();
20000968:	2201      	movs	r2, #1
2000096a:	4b81      	ldr	r3, [pc, #516]	; (20000b70 <HAL_RCC_OscConfig+0x2b8>)
2000096c:	601a      	str	r2, [r3, #0]

        /* Get Start Tick*/
        tickstart = HAL_GetTick();
2000096e:	f7ff fe2d 	bl	200005cc <HAL_GetTick>
20000972:	4605      	mov	r5, r0

        /* Wait till HSI is ready */
        while(__HAL_RCC_GET_FLAG(RCC_FLAG_HSIRDY) == RESET)
20000974:	4b7d      	ldr	r3, [pc, #500]	; (20000b6c <HAL_RCC_OscConfig+0x2b4>)
20000976:	681b      	ldr	r3, [r3, #0]
20000978:	f013 0f02 	tst.w	r3, #2
2000097c:	d154      	bne.n	20000a28 <HAL_RCC_OscConfig+0x170>
        {
          if((HAL_GetTick() - tickstart ) > HSI_TIMEOUT_VALUE)
2000097e:	f7ff fe25 	bl	200005cc <HAL_GetTick>
20000982:	1b40      	subs	r0, r0, r5
20000984:	2802      	cmp	r0, #2
20000986:	d9f5      	bls.n	20000974 <HAL_RCC_OscConfig+0xbc>
          {
            return HAL_TIMEOUT;
20000988:	2003      	movs	r0, #3
2000098a:	e158      	b.n	20000c3e <HAL_RCC_OscConfig+0x386>
      __HAL_RCC_HSE_CONFIG(RCC_OscInitStruct->HSEState);
2000098c:	4a77      	ldr	r2, [pc, #476]	; (20000b6c <HAL_RCC_OscConfig+0x2b4>)
2000098e:	6813      	ldr	r3, [r2, #0]
20000990:	f443 3380 	orr.w	r3, r3, #65536	; 0x10000
20000994:	6013      	str	r3, [r2, #0]
20000996:	e7b5      	b.n	20000904 <HAL_RCC_OscConfig+0x4c>
20000998:	4b74      	ldr	r3, [pc, #464]	; (20000b6c <HAL_RCC_OscConfig+0x2b4>)
2000099a:	681a      	ldr	r2, [r3, #0]
2000099c:	f442 2280 	orr.w	r2, r2, #262144	; 0x40000
200009a0:	601a      	str	r2, [r3, #0]
200009a2:	681a      	ldr	r2, [r3, #0]
200009a4:	f442 3280 	orr.w	r2, r2, #65536	; 0x10000
200009a8:	601a      	str	r2, [r3, #0]
200009aa:	e7ab      	b.n	20000904 <HAL_RCC_OscConfig+0x4c>
        tickstart = HAL_GetTick();
200009ac:	f7ff fe0e 	bl	200005cc <HAL_GetTick>
200009b0:	4605      	mov	r5, r0
        while(__HAL_RCC_GET_FLAG(RCC_FLAG_HSERDY) != RESET)
200009b2:	4b6e      	ldr	r3, [pc, #440]	; (20000b6c <HAL_RCC_OscConfig+0x2b4>)
200009b4:	681b      	ldr	r3, [r3, #0]
200009b6:	f413 3f00 	tst.w	r3, #131072	; 0x20000
200009ba:	d0c3      	beq.n	20000944 <HAL_RCC_OscConfig+0x8c>
          if((HAL_GetTick() - tickstart ) > HSE_TIMEOUT_VALUE)
200009bc:	f7ff fe06 	bl	200005cc <HAL_GetTick>
200009c0:	1b40      	subs	r0, r0, r5
200009c2:	2864      	cmp	r0, #100	; 0x64
200009c4:	d9f5      	bls.n	200009b2 <HAL_RCC_OscConfig+0xfa>
            return HAL_TIMEOUT;
200009c6:	2003      	movs	r0, #3
200009c8:	e139      	b.n	20000c3e <HAL_RCC_OscConfig+0x386>
      ((__HAL_RCC_GET_SYSCLK_SOURCE() == RCC_CFGR_SWS_PLL) && ((RCC->PLLCFGR & RCC_PLLCFGR_PLLSRC) == RCC_PLLCFGR_PLLSRC_HSI)))
200009ca:	4b68      	ldr	r3, [pc, #416]	; (20000b6c <HAL_RCC_OscConfig+0x2b4>)
200009cc:	685b      	ldr	r3, [r3, #4]
200009ce:	f413 0f80 	tst.w	r3, #4194304	; 0x400000
200009d2:	d1c6      	bne.n	20000962 <HAL_RCC_OscConfig+0xaa>
      if((__HAL_RCC_GET_FLAG(RCC_FLAG_HSIRDY) != RESET) && (RCC_OscInitStruct->HSIState != RCC_HSI_ON))
200009d4:	4b65      	ldr	r3, [pc, #404]	; (20000b6c <HAL_RCC_OscConfig+0x2b4>)
200009d6:	681b      	ldr	r3, [r3, #0]
200009d8:	f013 0f02 	tst.w	r3, #2
200009dc:	d004      	beq.n	200009e8 <HAL_RCC_OscConfig+0x130>
200009de:	68e3      	ldr	r3, [r4, #12]
200009e0:	2b01      	cmp	r3, #1
200009e2:	d001      	beq.n	200009e8 <HAL_RCC_OscConfig+0x130>
        return HAL_ERROR;
200009e4:	2001      	movs	r0, #1
200009e6:	e12a      	b.n	20000c3e <HAL_RCC_OscConfig+0x386>
        __HAL_RCC_HSI_CALIBRATIONVALUE_ADJUST(RCC_OscInitStruct->HSICalibrationValue);
200009e8:	4a60      	ldr	r2, [pc, #384]	; (20000b6c <HAL_RCC_OscConfig+0x2b4>)
200009ea:	6813      	ldr	r3, [r2, #0]
200009ec:	f023 03f8 	bic.w	r3, r3, #248	; 0xf8
200009f0:	6921      	ldr	r1, [r4, #16]
200009f2:	ea43 03c1 	orr.w	r3, r3, r1, lsl #3
200009f6:	6013      	str	r3, [r2, #0]
        }
      }
    }
  }
  /*------------------------------ LSI Configuration -------------------------*/
  if(((RCC_OscInitStruct->OscillatorType) & RCC_OSCILLATORTYPE_LSI) == RCC_OSCILLATORTYPE_LSI)
200009f8:	6823      	ldr	r3, [r4, #0]
200009fa:	f013 0f08 	tst.w	r3, #8
200009fe:	d040      	beq.n	20000a82 <HAL_RCC_OscConfig+0x1ca>
  {
    /* Check the parameters */
    assert_param(IS_RCC_LSI(RCC_OscInitStruct->LSIState));

    /* Check the LSI State */
    if((RCC_OscInitStruct->LSIState)!= RCC_LSI_OFF)
20000a00:	6963      	ldr	r3, [r4, #20]
20000a02:	b363      	cbz	r3, 20000a5e <HAL_RCC_OscConfig+0x1a6>
    {
      /* Enable the Internal Low Speed oscillator (LSI). */
      __HAL_RCC_LSI_ENABLE();
20000a04:	2201      	movs	r2, #1
20000a06:	4b5b      	ldr	r3, [pc, #364]	; (20000b74 <HAL_RCC_OscConfig+0x2bc>)
20000a08:	601a      	str	r2, [r3, #0]

      /* Get Start Tick*/
      tickstart = HAL_GetTick();
20000a0a:	f7ff fddf 	bl	200005cc <HAL_GetTick>
20000a0e:	4605      	mov	r5, r0

      /* Wait till LSI is ready */
      while(__HAL_RCC_GET_FLAG(RCC_FLAG_LSIRDY) == RESET)
20000a10:	4b56      	ldr	r3, [pc, #344]	; (20000b6c <HAL_RCC_OscConfig+0x2b4>)
20000a12:	6f5b      	ldr	r3, [r3, #116]	; 0x74
20000a14:	f013 0f02 	tst.w	r3, #2
20000a18:	d133      	bne.n	20000a82 <HAL_RCC_OscConfig+0x1ca>
      {
        if((HAL_GetTick() - tickstart ) > LSI_TIMEOUT_VALUE)
20000a1a:	f7ff fdd7 	bl	200005cc <HAL_GetTick>
20000a1e:	1b40      	subs	r0, r0, r5
20000a20:	2802      	cmp	r0, #2
20000a22:	d9f5      	bls.n	20000a10 <HAL_RCC_OscConfig+0x158>
        {
          return HAL_TIMEOUT;
20000a24:	2003      	movs	r0, #3
20000a26:	e10a      	b.n	20000c3e <HAL_RCC_OscConfig+0x386>
        __HAL_RCC_HSI_CALIBRATIONVALUE_ADJUST(RCC_OscInitStruct->HSICalibrationValue);
20000a28:	4a50      	ldr	r2, [pc, #320]	; (20000b6c <HAL_RCC_OscConfig+0x2b4>)
20000a2a:	6813      	ldr	r3, [r2, #0]
20000a2c:	f023 03f8 	bic.w	r3, r3, #248	; 0xf8
20000a30:	6921      	ldr	r1, [r4, #16]
20000a32:	ea43 03c1 	orr.w	r3, r3, r1, lsl #3
20000a36:	6013      	str	r3, [r2, #0]
20000a38:	e7de      	b.n	200009f8 <HAL_RCC_OscConfig+0x140>
        __HAL_RCC_HSI_DISABLE();
20000a3a:	2200      	movs	r2, #0
20000a3c:	4b4c      	ldr	r3, [pc, #304]	; (20000b70 <HAL_RCC_OscConfig+0x2b8>)
20000a3e:	601a      	str	r2, [r3, #0]
        tickstart = HAL_GetTick();
20000a40:	f7ff fdc4 	bl	200005cc <HAL_GetTick>
20000a44:	4605      	mov	r5, r0
        while(__HAL_RCC_GET_FLAG(RCC_FLAG_HSIRDY) != RESET)
20000a46:	4b49      	ldr	r3, [pc, #292]	; (20000b6c <HAL_RCC_OscConfig+0x2b4>)
20000a48:	681b      	ldr	r3, [r3, #0]
20000a4a:	f013 0f02 	tst.w	r3, #2
20000a4e:	d0d3      	beq.n	200009f8 <HAL_RCC_OscConfig+0x140>
          if((HAL_GetTick() - tickstart ) > HSI_TIMEOUT_VALUE)
20000a50:	f7ff fdbc 	bl	200005cc <HAL_GetTick>
20000a54:	1b40      	subs	r0, r0, r5
20000a56:	2802      	cmp	r0, #2
20000a58:	d9f5      	bls.n	20000a46 <HAL_RCC_OscConfig+0x18e>
            return HAL_TIMEOUT;
20000a5a:	2003      	movs	r0, #3
20000a5c:	e0ef      	b.n	20000c3e <HAL_RCC_OscConfig+0x386>
      }
    }
    else
    {
      /* Disable the Internal Low Speed oscillator (LSI). */
      __HAL_RCC_LSI_DISABLE();
20000a5e:	2200      	movs	r2, #0
20000a60:	4b44      	ldr	r3, [pc, #272]	; (20000b74 <HAL_RCC_OscConfig+0x2bc>)
20000a62:	601a      	str	r2, [r3, #0]

      /* Get Start Tick */
      tickstart = HAL_GetTick();
20000a64:	f7ff fdb2 	bl	200005cc <HAL_GetTick>
20000a68:	4605      	mov	r5, r0

      /* Wait till LSI is ready */
      while(__HAL_RCC_GET_FLAG(RCC_FLAG_LSIRDY) != RESET)
20000a6a:	4b40      	ldr	r3, [pc, #256]	; (20000b6c <HAL_RCC_OscConfig+0x2b4>)
20000a6c:	6f5b      	ldr	r3, [r3, #116]	; 0x74
20000a6e:	f013 0f02 	tst.w	r3, #2
20000a72:	d006      	beq.n	20000a82 <HAL_RCC_OscConfig+0x1ca>
      {
        if((HAL_GetTick() - tickstart ) > LSI_TIMEOUT_VALUE)
20000a74:	f7ff fdaa 	bl	200005cc <HAL_GetTick>
20000a78:	1b40      	subs	r0, r0, r5
20000a7a:	2802      	cmp	r0, #2
20000a7c:	d9f5      	bls.n	20000a6a <HAL_RCC_OscConfig+0x1b2>
        {
          return HAL_TIMEOUT;
20000a7e:	2003      	movs	r0, #3
20000a80:	e0dd      	b.n	20000c3e <HAL_RCC_OscConfig+0x386>
        }
      }
    }
  }
  /*------------------------------ LSE Configuration -------------------------*/
  if(((RCC_OscInitStruct->OscillatorType) & RCC_OSCILLATORTYPE_LSE) == RCC_OSCILLATORTYPE_LSE)
20000a82:	6823      	ldr	r3, [r4, #0]
20000a84:	f013 0f04 	tst.w	r3, #4
20000a88:	d079      	beq.n	20000b7e <HAL_RCC_OscConfig+0x2c6>
    /* Check the parameters */
    assert_param(IS_RCC_LSE(RCC_OscInitStruct->LSEState));

    /* Update LSE configuration in Backup Domain control register    */
    /* Requires to enable write access to Backup Domain of necessary */
    if(__HAL_RCC_PWR_IS_CLK_DISABLED())
20000a8a:	4b38      	ldr	r3, [pc, #224]	; (20000b6c <HAL_RCC_OscConfig+0x2b4>)
20000a8c:	6c1b      	ldr	r3, [r3, #64]	; 0x40
20000a8e:	f013 5f80 	tst.w	r3, #268435456	; 0x10000000
20000a92:	d133      	bne.n	20000afc <HAL_RCC_OscConfig+0x244>
    {
      __HAL_RCC_PWR_CLK_ENABLE();
20000a94:	2300      	movs	r3, #0
20000a96:	9301      	str	r3, [sp, #4]
20000a98:	4b34      	ldr	r3, [pc, #208]	; (20000b6c <HAL_RCC_OscConfig+0x2b4>)
20000a9a:	6c1a      	ldr	r2, [r3, #64]	; 0x40
20000a9c:	f042 5280 	orr.w	r2, r2, #268435456	; 0x10000000
20000aa0:	641a      	str	r2, [r3, #64]	; 0x40
20000aa2:	6c1b      	ldr	r3, [r3, #64]	; 0x40
20000aa4:	f003 5380 	and.w	r3, r3, #268435456	; 0x10000000
20000aa8:	9301      	str	r3, [sp, #4]
20000aaa:	9b01      	ldr	r3, [sp, #4]
      pwrclkchanged = SET;
20000aac:	2501      	movs	r5, #1
    }

    if(HAL_IS_BIT_CLR(PWR->CR, PWR_CR_DBP))
20000aae:	4b32      	ldr	r3, [pc, #200]	; (20000b78 <HAL_RCC_OscConfig+0x2c0>)
20000ab0:	681b      	ldr	r3, [r3, #0]
20000ab2:	f413 7f80 	tst.w	r3, #256	; 0x100
20000ab6:	d023      	beq.n	20000b00 <HAL_RCC_OscConfig+0x248>
        }
      }
    }

    /* Set the new LSE configuration -----------------------------------------*/
    __HAL_RCC_LSE_CONFIG(RCC_OscInitStruct->LSEState);
20000ab8:	68a3      	ldr	r3, [r4, #8]
20000aba:	2b01      	cmp	r3, #1
20000abc:	d034      	beq.n	20000b28 <HAL_RCC_OscConfig+0x270>
20000abe:	2b05      	cmp	r3, #5
20000ac0:	d038      	beq.n	20000b34 <HAL_RCC_OscConfig+0x27c>
20000ac2:	4b2a      	ldr	r3, [pc, #168]	; (20000b6c <HAL_RCC_OscConfig+0x2b4>)
20000ac4:	6f1a      	ldr	r2, [r3, #112]	; 0x70
20000ac6:	f022 0201 	bic.w	r2, r2, #1
20000aca:	671a      	str	r2, [r3, #112]	; 0x70
20000acc:	6f1a      	ldr	r2, [r3, #112]	; 0x70
20000ace:	f022 0204 	bic.w	r2, r2, #4
20000ad2:	671a      	str	r2, [r3, #112]	; 0x70
    /* Check the LSE State */
    if((RCC_OscInitStruct->LSEState) != RCC_LSE_OFF)
20000ad4:	68a3      	ldr	r3, [r4, #8]
20000ad6:	2b00      	cmp	r3, #0
20000ad8:	d036      	beq.n	20000b48 <HAL_RCC_OscConfig+0x290>
    {
      /* Get Start Tick*/
      tickstart = HAL_GetTick();
20000ada:	f7ff fd77 	bl	200005cc <HAL_GetTick>
20000ade:	4606      	mov	r6, r0

      /* Wait till LSE is ready */
      while(__HAL_RCC_GET_FLAG(RCC_FLAG_LSERDY) == RESET)
20000ae0:	4b22      	ldr	r3, [pc, #136]	; (20000b6c <HAL_RCC_OscConfig+0x2b4>)
20000ae2:	6f1b      	ldr	r3, [r3, #112]	; 0x70
20000ae4:	f013 0f02 	tst.w	r3, #2
20000ae8:	d148      	bne.n	20000b7c <HAL_RCC_OscConfig+0x2c4>
      {
        if((HAL_GetTick() - tickstart ) > RCC_LSE_TIMEOUT_VALUE)
20000aea:	f7ff fd6f 	bl	200005cc <HAL_GetTick>
20000aee:	1b80      	subs	r0, r0, r6
20000af0:	f241 3388 	movw	r3, #5000	; 0x1388
20000af4:	4298      	cmp	r0, r3
20000af6:	d9f3      	bls.n	20000ae0 <HAL_RCC_OscConfig+0x228>
        {
          return HAL_TIMEOUT;
20000af8:	2003      	movs	r0, #3
20000afa:	e0a0      	b.n	20000c3e <HAL_RCC_OscConfig+0x386>
    FlagStatus       pwrclkchanged = RESET;
20000afc:	2500      	movs	r5, #0
20000afe:	e7d6      	b.n	20000aae <HAL_RCC_OscConfig+0x1f6>
      SET_BIT(PWR->CR, PWR_CR_DBP);
20000b00:	4a1d      	ldr	r2, [pc, #116]	; (20000b78 <HAL_RCC_OscConfig+0x2c0>)
20000b02:	6813      	ldr	r3, [r2, #0]
20000b04:	f443 7380 	orr.w	r3, r3, #256	; 0x100
20000b08:	6013      	str	r3, [r2, #0]
      tickstart = HAL_GetTick();
20000b0a:	f7ff fd5f 	bl	200005cc <HAL_GetTick>
20000b0e:	4606      	mov	r6, r0
      while(HAL_IS_BIT_CLR(PWR->CR, PWR_CR_DBP))
20000b10:	4b19      	ldr	r3, [pc, #100]	; (20000b78 <HAL_RCC_OscConfig+0x2c0>)
20000b12:	681b      	ldr	r3, [r3, #0]
20000b14:	f413 7f80 	tst.w	r3, #256	; 0x100
20000b18:	d1ce      	bne.n	20000ab8 <HAL_RCC_OscConfig+0x200>
        if((HAL_GetTick() - tickstart) > RCC_DBP_TIMEOUT_VALUE)
20000b1a:	f7ff fd57 	bl	200005cc <HAL_GetTick>
20000b1e:	1b80      	subs	r0, r0, r6
20000b20:	2802      	cmp	r0, #2
20000b22:	d9f5      	bls.n	20000b10 <HAL_RCC_OscConfig+0x258>
          return HAL_TIMEOUT;
20000b24:	2003      	movs	r0, #3
20000b26:	e08a      	b.n	20000c3e <HAL_RCC_OscConfig+0x386>
    __HAL_RCC_LSE_CONFIG(RCC_OscInitStruct->LSEState);
20000b28:	4a10      	ldr	r2, [pc, #64]	; (20000b6c <HAL_RCC_OscConfig+0x2b4>)
20000b2a:	6f13      	ldr	r3, [r2, #112]	; 0x70
20000b2c:	f043 0301 	orr.w	r3, r3, #1
20000b30:	6713      	str	r3, [r2, #112]	; 0x70
20000b32:	e7cf      	b.n	20000ad4 <HAL_RCC_OscConfig+0x21c>
20000b34:	4b0d      	ldr	r3, [pc, #52]	; (20000b6c <HAL_RCC_OscConfig+0x2b4>)
20000b36:	6f1a      	ldr	r2, [r3, #112]	; 0x70
20000b38:	f042 0204 	orr.w	r2, r2, #4
20000b3c:	671a      	str	r2, [r3, #112]	; 0x70
20000b3e:	6f1a      	ldr	r2, [r3, #112]	; 0x70
20000b40:	f042 0201 	orr.w	r2, r2, #1
20000b44:	671a      	str	r2, [r3, #112]	; 0x70
20000b46:	e7c5      	b.n	20000ad4 <HAL_RCC_OscConfig+0x21c>
      }
    }
    else
    {
      /* Get Start Tick */
      tickstart = HAL_GetTick();
20000b48:	f7ff fd40 	bl	200005cc <HAL_GetTick>
20000b4c:	4606      	mov	r6, r0

      /* Wait till LSE is ready */
      while(__HAL_RCC_GET_FLAG(RCC_FLAG_LSERDY) != RESET)
20000b4e:	4b07      	ldr	r3, [pc, #28]	; (20000b6c <HAL_RCC_OscConfig+0x2b4>)
20000b50:	6f1b      	ldr	r3, [r3, #112]	; 0x70
20000b52:	f013 0f02 	tst.w	r3, #2
20000b56:	d011      	beq.n	20000b7c <HAL_RCC_OscConfig+0x2c4>
      {
        if((HAL_GetTick() - tickstart ) > RCC_LSE_TIMEOUT_VALUE)
20000b58:	f7ff fd38 	bl	200005cc <HAL_GetTick>
20000b5c:	1b80      	subs	r0, r0, r6
20000b5e:	f241 3388 	movw	r3, #5000	; 0x1388
20000b62:	4298      	cmp	r0, r3
20000b64:	d9f3      	bls.n	20000b4e <HAL_RCC_OscConfig+0x296>
        {
          return HAL_TIMEOUT;
20000b66:	2003      	movs	r0, #3
20000b68:	e069      	b.n	20000c3e <HAL_RCC_OscConfig+0x386>
20000b6a:	bf00      	nop
20000b6c:	40023800 	.word	0x40023800
20000b70:	42470000 	.word	0x42470000
20000b74:	42470e80 	.word	0x42470e80
20000b78:	40007000 	.word	0x40007000
        }
      }
    }

    /* Restore clock configuration if changed */
    if(pwrclkchanged == SET)
20000b7c:	b9e5      	cbnz	r5, 20000bb8 <HAL_RCC_OscConfig+0x300>
    }
  }
  /*-------------------------------- PLL Configuration -----------------------*/
  /* Check the parameters */
  assert_param(IS_RCC_PLL(RCC_OscInitStruct->PLL.PLLState));
  if ((RCC_OscInitStruct->PLL.PLLState) != RCC_PLL_NONE)
20000b7e:	69a3      	ldr	r3, [r4, #24]
20000b80:	2b00      	cmp	r3, #0
20000b82:	d05b      	beq.n	20000c3c <HAL_RCC_OscConfig+0x384>
  {
    /* Check if the PLL is used as system clock or not */
    if(__HAL_RCC_GET_SYSCLK_SOURCE() != RCC_CFGR_SWS_PLL)
20000b84:	4a30      	ldr	r2, [pc, #192]	; (20000c48 <HAL_RCC_OscConfig+0x390>)
20000b86:	6892      	ldr	r2, [r2, #8]
20000b88:	f002 020c 	and.w	r2, r2, #12
20000b8c:	2a08      	cmp	r2, #8
20000b8e:	d058      	beq.n	20000c42 <HAL_RCC_OscConfig+0x38a>
    {
      if((RCC_OscInitStruct->PLL.PLLState) == RCC_PLL_ON)
20000b90:	2b02      	cmp	r3, #2
20000b92:	d017      	beq.n	20000bc4 <HAL_RCC_OscConfig+0x30c>
        }
      }
      else
      {
        /* Disable the main PLL. */
        __HAL_RCC_PLL_DISABLE();
20000b94:	2200      	movs	r2, #0
20000b96:	4b2d      	ldr	r3, [pc, #180]	; (20000c4c <HAL_RCC_OscConfig+0x394>)
20000b98:	601a      	str	r2, [r3, #0]

        /* Get Start Tick */
        tickstart = HAL_GetTick();
20000b9a:	f7ff fd17 	bl	200005cc <HAL_GetTick>
20000b9e:	4604      	mov	r4, r0

        /* Wait till PLL is ready */
        while(__HAL_RCC_GET_FLAG(RCC_FLAG_PLLRDY) != RESET)
20000ba0:	4b29      	ldr	r3, [pc, #164]	; (20000c48 <HAL_RCC_OscConfig+0x390>)
20000ba2:	681b      	ldr	r3, [r3, #0]
20000ba4:	f013 7f00 	tst.w	r3, #33554432	; 0x2000000
20000ba8:	d042      	beq.n	20000c30 <HAL_RCC_OscConfig+0x378>
        {
          if((HAL_GetTick() - tickstart ) > PLL_TIMEOUT_VALUE)
20000baa:	f7ff fd0f 	bl	200005cc <HAL_GetTick>
20000bae:	1b00      	subs	r0, r0, r4
20000bb0:	2802      	cmp	r0, #2
20000bb2:	d9f5      	bls.n	20000ba0 <HAL_RCC_OscConfig+0x2e8>
          {
            return HAL_TIMEOUT;
20000bb4:	2003      	movs	r0, #3
20000bb6:	e042      	b.n	20000c3e <HAL_RCC_OscConfig+0x386>
      __HAL_RCC_PWR_CLK_DISABLE();
20000bb8:	4a23      	ldr	r2, [pc, #140]	; (20000c48 <HAL_RCC_OscConfig+0x390>)
20000bba:	6c13      	ldr	r3, [r2, #64]	; 0x40
20000bbc:	f023 5380 	bic.w	r3, r3, #268435456	; 0x10000000
20000bc0:	6413      	str	r3, [r2, #64]	; 0x40
20000bc2:	e7dc      	b.n	20000b7e <HAL_RCC_OscConfig+0x2c6>
        __HAL_RCC_PLL_DISABLE();
20000bc4:	2200      	movs	r2, #0
20000bc6:	4b21      	ldr	r3, [pc, #132]	; (20000c4c <HAL_RCC_OscConfig+0x394>)
20000bc8:	601a      	str	r2, [r3, #0]
        tickstart = HAL_GetTick();
20000bca:	f7ff fcff 	bl	200005cc <HAL_GetTick>
20000bce:	4605      	mov	r5, r0
        while(__HAL_RCC_GET_FLAG(RCC_FLAG_PLLRDY) != RESET)
20000bd0:	4b1d      	ldr	r3, [pc, #116]	; (20000c48 <HAL_RCC_OscConfig+0x390>)
20000bd2:	681b      	ldr	r3, [r3, #0]
20000bd4:	f013 7f00 	tst.w	r3, #33554432	; 0x2000000
20000bd8:	d006      	beq.n	20000be8 <HAL_RCC_OscConfig+0x330>
          if((HAL_GetTick() - tickstart ) > PLL_TIMEOUT_VALUE)
20000bda:	f7ff fcf7 	bl	200005cc <HAL_GetTick>
20000bde:	1b40      	subs	r0, r0, r5
20000be0:	2802      	cmp	r0, #2
20000be2:	d9f5      	bls.n	20000bd0 <HAL_RCC_OscConfig+0x318>
            return HAL_TIMEOUT;
20000be4:	2003      	movs	r0, #3
20000be6:	e02a      	b.n	20000c3e <HAL_RCC_OscConfig+0x386>
        WRITE_REG(RCC->PLLCFGR, (RCC_OscInitStruct->PLL.PLLSource                                            | \
20000be8:	69e3      	ldr	r3, [r4, #28]
20000bea:	6a22      	ldr	r2, [r4, #32]
20000bec:	4313      	orrs	r3, r2
20000bee:	6a62      	ldr	r2, [r4, #36]	; 0x24
20000bf0:	ea43 1382 	orr.w	r3, r3, r2, lsl #6
20000bf4:	6aa2      	ldr	r2, [r4, #40]	; 0x28
20000bf6:	0852      	lsrs	r2, r2, #1
20000bf8:	3a01      	subs	r2, #1
20000bfa:	ea43 4302 	orr.w	r3, r3, r2, lsl #16
20000bfe:	6ae2      	ldr	r2, [r4, #44]	; 0x2c
20000c00:	ea43 6302 	orr.w	r3, r3, r2, lsl #24
20000c04:	4a10      	ldr	r2, [pc, #64]	; (20000c48 <HAL_RCC_OscConfig+0x390>)
20000c06:	6053      	str	r3, [r2, #4]
        __HAL_RCC_PLL_ENABLE();
20000c08:	2201      	movs	r2, #1
20000c0a:	4b10      	ldr	r3, [pc, #64]	; (20000c4c <HAL_RCC_OscConfig+0x394>)
20000c0c:	601a      	str	r2, [r3, #0]
        tickstart = HAL_GetTick();
20000c0e:	f7ff fcdd 	bl	200005cc <HAL_GetTick>
20000c12:	4604      	mov	r4, r0
        while(__HAL_RCC_GET_FLAG(RCC_FLAG_PLLRDY) == RESET)
20000c14:	4b0c      	ldr	r3, [pc, #48]	; (20000c48 <HAL_RCC_OscConfig+0x390>)
20000c16:	681b      	ldr	r3, [r3, #0]
20000c18:	f013 7f00 	tst.w	r3, #33554432	; 0x2000000
20000c1c:	d106      	bne.n	20000c2c <HAL_RCC_OscConfig+0x374>
          if((HAL_GetTick() - tickstart ) > PLL_TIMEOUT_VALUE)
20000c1e:	f7ff fcd5 	bl	200005cc <HAL_GetTick>
20000c22:	1b00      	subs	r0, r0, r4
20000c24:	2802      	cmp	r0, #2
20000c26:	d9f5      	bls.n	20000c14 <HAL_RCC_OscConfig+0x35c>
            return HAL_TIMEOUT;
20000c28:	2003      	movs	r0, #3
20000c2a:	e008      	b.n	20000c3e <HAL_RCC_OscConfig+0x386>
    else
    {
      return HAL_ERROR;
    }
  }
  return HAL_OK;
20000c2c:	2000      	movs	r0, #0
20000c2e:	e006      	b.n	20000c3e <HAL_RCC_OscConfig+0x386>
20000c30:	2000      	movs	r0, #0
20000c32:	e004      	b.n	20000c3e <HAL_RCC_OscConfig+0x386>
    return HAL_ERROR;
20000c34:	2001      	movs	r0, #1
20000c36:	4770      	bx	lr
        return HAL_ERROR;
20000c38:	2001      	movs	r0, #1
20000c3a:	e000      	b.n	20000c3e <HAL_RCC_OscConfig+0x386>
  return HAL_OK;
20000c3c:	2000      	movs	r0, #0
}
20000c3e:	b002      	add	sp, #8
20000c40:	bd70      	pop	{r4, r5, r6, pc}
      return HAL_ERROR;
20000c42:	2001      	movs	r0, #1
20000c44:	e7fb      	b.n	20000c3e <HAL_RCC_OscConfig+0x386>
20000c46:	bf00      	nop
20000c48:	40023800 	.word	0x40023800
20000c4c:	42470060 	.word	0x42470060

20000c50 <HAL_RCC_GetSysClockFreq>:
  *
  *
  * @retval SYSCLK frequency
  */
__weak uint32_t HAL_RCC_GetSysClockFreq(void)
{
20000c50:	b5f8      	push	{r3, r4, r5, r6, r7, lr}
  uint32_t pllm = 0U, pllvco = 0U, pllp = 0U;
  uint32_t sysclockfreq = 0U;

  /* Get SYSCLK source -------------------------------------------------------*/
  switch (RCC->CFGR & RCC_CFGR_SWS)
20000c52:	4b31      	ldr	r3, [pc, #196]	; (20000d18 <HAL_RCC_GetSysClockFreq+0xc8>)
20000c54:	689b      	ldr	r3, [r3, #8]
20000c56:	f003 030c 	and.w	r3, r3, #12
20000c5a:	2b04      	cmp	r3, #4
20000c5c:	d059      	beq.n	20000d12 <HAL_RCC_GetSysClockFreq+0xc2>
20000c5e:	2b08      	cmp	r3, #8
20000c60:	d001      	beq.n	20000c66 <HAL_RCC_GetSysClockFreq+0x16>
  {
    case RCC_CFGR_SWS_HSI:  /* HSI used as system clock source */
    {
      sysclockfreq = HSI_VALUE;
20000c62:	482e      	ldr	r0, [pc, #184]	; (20000d1c <HAL_RCC_GetSysClockFreq+0xcc>)
20000c64:	bdf8      	pop	{r3, r4, r5, r6, r7, pc}
    }
    case RCC_CFGR_SWS_PLL:  /* PLL used as system clock  source */
    {
      /* PLL_VCO = (HSE_VALUE or HSI_VALUE / PLLM) * PLLN
      SYSCLK = PLL_VCO / PLLP */
      pllm = RCC->PLLCFGR & RCC_PLLCFGR_PLLM;
20000c66:	4b2c      	ldr	r3, [pc, #176]	; (20000d18 <HAL_RCC_GetSysClockFreq+0xc8>)
20000c68:	685a      	ldr	r2, [r3, #4]
20000c6a:	f002 023f 	and.w	r2, r2, #63	; 0x3f
      if(__HAL_RCC_GET_PLL_OSCSOURCE() != RCC_PLLSOURCE_HSI)
20000c6e:	685b      	ldr	r3, [r3, #4]
20000c70:	f413 0f80 	tst.w	r3, #4194304	; 0x400000
20000c74:	d02a      	beq.n	20000ccc <HAL_RCC_GetSysClockFreq+0x7c>
      {
        /* HSE used as PLL clock source */
        pllvco = (uint32_t) ((((uint64_t) HSE_VALUE * ((uint64_t) ((RCC->PLLCFGR & RCC_PLLCFGR_PLLN) >> RCC_PLLCFGR_PLLN_Pos)))) / (uint64_t)pllm);
20000c76:	4b28      	ldr	r3, [pc, #160]	; (20000d18 <HAL_RCC_GetSysClockFreq+0xc8>)
20000c78:	685b      	ldr	r3, [r3, #4]
20000c7a:	f3c3 1388 	ubfx	r3, r3, #6, #9
20000c7e:	461e      	mov	r6, r3
20000c80:	2700      	movs	r7, #0
20000c82:	015c      	lsls	r4, r3, #5
20000c84:	2500      	movs	r5, #0
20000c86:	1ae4      	subs	r4, r4, r3
20000c88:	eb65 0507 	sbc.w	r5, r5, r7
20000c8c:	01a9      	lsls	r1, r5, #6
20000c8e:	ea41 6194 	orr.w	r1, r1, r4, lsr #26
20000c92:	01a0      	lsls	r0, r4, #6
20000c94:	1b00      	subs	r0, r0, r4
20000c96:	eb61 0105 	sbc.w	r1, r1, r5
20000c9a:	00cb      	lsls	r3, r1, #3
20000c9c:	ea43 7350 	orr.w	r3, r3, r0, lsr #29
20000ca0:	00c4      	lsls	r4, r0, #3
20000ca2:	19a0      	adds	r0, r4, r6
20000ca4:	eb43 0107 	adc.w	r1, r3, r7
20000ca8:	024b      	lsls	r3, r1, #9
20000caa:	ea43 53d0 	orr.w	r3, r3, r0, lsr #23
20000cae:	0244      	lsls	r4, r0, #9
20000cb0:	4620      	mov	r0, r4
20000cb2:	4619      	mov	r1, r3
20000cb4:	2300      	movs	r3, #0
20000cb6:	f7ff fadb 	bl	20000270 <__aeabi_uldivmod>
      else
      {
        /* HSI used as PLL clock source */
        pllvco = (uint32_t) ((((uint64_t) HSI_VALUE * ((uint64_t) ((RCC->PLLCFGR & RCC_PLLCFGR_PLLN) >> RCC_PLLCFGR_PLLN_Pos)))) / (uint64_t)pllm);
      }
      pllp = ((((RCC->PLLCFGR & RCC_PLLCFGR_PLLP) >> RCC_PLLCFGR_PLLP_Pos) + 1U) *2U);
20000cba:	4b17      	ldr	r3, [pc, #92]	; (20000d18 <HAL_RCC_GetSysClockFreq+0xc8>)
20000cbc:	685b      	ldr	r3, [r3, #4]
20000cbe:	f3c3 4301 	ubfx	r3, r3, #16, #2
20000cc2:	3301      	adds	r3, #1
20000cc4:	005b      	lsls	r3, r3, #1

      sysclockfreq = pllvco/pllp;
20000cc6:	fbb0 f0f3 	udiv	r0, r0, r3
      break;
20000cca:	bdf8      	pop	{r3, r4, r5, r6, r7, pc}
        pllvco = (uint32_t) ((((uint64_t) HSI_VALUE * ((uint64_t) ((RCC->PLLCFGR & RCC_PLLCFGR_PLLN) >> RCC_PLLCFGR_PLLN_Pos)))) / (uint64_t)pllm);
20000ccc:	4b12      	ldr	r3, [pc, #72]	; (20000d18 <HAL_RCC_GetSysClockFreq+0xc8>)
20000cce:	685b      	ldr	r3, [r3, #4]
20000cd0:	f3c3 1388 	ubfx	r3, r3, #6, #9
20000cd4:	461e      	mov	r6, r3
20000cd6:	2700      	movs	r7, #0
20000cd8:	015c      	lsls	r4, r3, #5
20000cda:	2500      	movs	r5, #0
20000cdc:	1ae4      	subs	r4, r4, r3
20000cde:	eb65 0507 	sbc.w	r5, r5, r7
20000ce2:	01a9      	lsls	r1, r5, #6
20000ce4:	ea41 6194 	orr.w	r1, r1, r4, lsr #26
20000ce8:	01a0      	lsls	r0, r4, #6
20000cea:	1b00      	subs	r0, r0, r4
20000cec:	eb61 0105 	sbc.w	r1, r1, r5
20000cf0:	00cb      	lsls	r3, r1, #3
20000cf2:	ea43 7350 	orr.w	r3, r3, r0, lsr #29
20000cf6:	00c4      	lsls	r4, r0, #3
20000cf8:	19a0      	adds	r0, r4, r6
20000cfa:	eb43 0107 	adc.w	r1, r3, r7
20000cfe:	028b      	lsls	r3, r1, #10
20000d00:	ea43 5390 	orr.w	r3, r3, r0, lsr #22
20000d04:	0284      	lsls	r4, r0, #10
20000d06:	4620      	mov	r0, r4
20000d08:	4619      	mov	r1, r3
20000d0a:	2300      	movs	r3, #0
20000d0c:	f7ff fab0 	bl	20000270 <__aeabi_uldivmod>
20000d10:	e7d3      	b.n	20000cba <HAL_RCC_GetSysClockFreq+0x6a>
      sysclockfreq = HSE_VALUE;
20000d12:	4803      	ldr	r0, [pc, #12]	; (20000d20 <HAL_RCC_GetSysClockFreq+0xd0>)
      sysclockfreq = HSI_VALUE;
      break;
    }
  }
  return sysclockfreq;
}
20000d14:	bdf8      	pop	{r3, r4, r5, r6, r7, pc}
20000d16:	bf00      	nop
20000d18:	40023800 	.word	0x40023800
20000d1c:	00f42400 	.word	0x00f42400
20000d20:	007a1200 	.word	0x007a1200

20000d24 <HAL_RCC_ClockConfig>:
  if(RCC_ClkInitStruct == NULL)
20000d24:	2800      	cmp	r0, #0
20000d26:	f000 809d 	beq.w	20000e64 <HAL_RCC_ClockConfig+0x140>
{
20000d2a:	b570      	push	{r4, r5, r6, lr}
20000d2c:	4604      	mov	r4, r0
  if(FLatency > __HAL_FLASH_GET_LATENCY())
20000d2e:	4b4f      	ldr	r3, [pc, #316]	; (20000e6c <HAL_RCC_ClockConfig+0x148>)
20000d30:	681b      	ldr	r3, [r3, #0]
20000d32:	f003 030f 	and.w	r3, r3, #15
20000d36:	428b      	cmp	r3, r1
20000d38:	d209      	bcs.n	20000d4e <HAL_RCC_ClockConfig+0x2a>
    __HAL_FLASH_SET_LATENCY(FLatency);
20000d3a:	b2cb      	uxtb	r3, r1
20000d3c:	4a4b      	ldr	r2, [pc, #300]	; (20000e6c <HAL_RCC_ClockConfig+0x148>)
20000d3e:	7013      	strb	r3, [r2, #0]
    if(__HAL_FLASH_GET_LATENCY() != FLatency)
20000d40:	6813      	ldr	r3, [r2, #0]
20000d42:	f003 030f 	and.w	r3, r3, #15
20000d46:	4299      	cmp	r1, r3
20000d48:	d001      	beq.n	20000d4e <HAL_RCC_ClockConfig+0x2a>
      return HAL_ERROR;
20000d4a:	2001      	movs	r0, #1
20000d4c:	bd70      	pop	{r4, r5, r6, pc}
  if(((RCC_ClkInitStruct->ClockType) & RCC_CLOCKTYPE_HCLK) == RCC_CLOCKTYPE_HCLK)
20000d4e:	6823      	ldr	r3, [r4, #0]
20000d50:	f013 0f02 	tst.w	r3, #2
20000d54:	d017      	beq.n	20000d86 <HAL_RCC_ClockConfig+0x62>
    if(((RCC_ClkInitStruct->ClockType) & RCC_CLOCKTYPE_PCLK1) == RCC_CLOCKTYPE_PCLK1)
20000d56:	f013 0f04 	tst.w	r3, #4
20000d5a:	d004      	beq.n	20000d66 <HAL_RCC_ClockConfig+0x42>
      MODIFY_REG(RCC->CFGR, RCC_CFGR_PPRE1, RCC_HCLK_DIV16);
20000d5c:	4a44      	ldr	r2, [pc, #272]	; (20000e70 <HAL_RCC_ClockConfig+0x14c>)
20000d5e:	6893      	ldr	r3, [r2, #8]
20000d60:	f443 53e0 	orr.w	r3, r3, #7168	; 0x1c00
20000d64:	6093      	str	r3, [r2, #8]
    if(((RCC_ClkInitStruct->ClockType) & RCC_CLOCKTYPE_PCLK2) == RCC_CLOCKTYPE_PCLK2)
20000d66:	6823      	ldr	r3, [r4, #0]
20000d68:	f013 0f08 	tst.w	r3, #8
20000d6c:	d004      	beq.n	20000d78 <HAL_RCC_ClockConfig+0x54>
      MODIFY_REG(RCC->CFGR, RCC_CFGR_PPRE2, (RCC_HCLK_DIV16 << 3));
20000d6e:	4a40      	ldr	r2, [pc, #256]	; (20000e70 <HAL_RCC_ClockConfig+0x14c>)
20000d70:	6893      	ldr	r3, [r2, #8]
20000d72:	f443 4360 	orr.w	r3, r3, #57344	; 0xe000
20000d76:	6093      	str	r3, [r2, #8]
    MODIFY_REG(RCC->CFGR, RCC_CFGR_HPRE, RCC_ClkInitStruct->AHBCLKDivider);
20000d78:	4a3d      	ldr	r2, [pc, #244]	; (20000e70 <HAL_RCC_ClockConfig+0x14c>)
20000d7a:	6893      	ldr	r3, [r2, #8]
20000d7c:	f023 03f0 	bic.w	r3, r3, #240	; 0xf0
20000d80:	68a0      	ldr	r0, [r4, #8]
20000d82:	4303      	orrs	r3, r0
20000d84:	6093      	str	r3, [r2, #8]
20000d86:	460d      	mov	r5, r1
  if(((RCC_ClkInitStruct->ClockType) & RCC_CLOCKTYPE_SYSCLK) == RCC_CLOCKTYPE_SYSCLK)
20000d88:	6823      	ldr	r3, [r4, #0]
20000d8a:	f013 0f01 	tst.w	r3, #1
20000d8e:	d032      	beq.n	20000df6 <HAL_RCC_ClockConfig+0xd2>
    if(RCC_ClkInitStruct->SYSCLKSource == RCC_SYSCLKSOURCE_HSE)
20000d90:	6863      	ldr	r3, [r4, #4]
20000d92:	2b01      	cmp	r3, #1
20000d94:	d021      	beq.n	20000dda <HAL_RCC_ClockConfig+0xb6>
    else if((RCC_ClkInitStruct->SYSCLKSource == RCC_SYSCLKSOURCE_PLLCLK)   ||
20000d96:	1e9a      	subs	r2, r3, #2
20000d98:	2a01      	cmp	r2, #1
20000d9a:	d925      	bls.n	20000de8 <HAL_RCC_ClockConfig+0xc4>
      if(__HAL_RCC_GET_FLAG(RCC_FLAG_HSIRDY) == RESET)
20000d9c:	4a34      	ldr	r2, [pc, #208]	; (20000e70 <HAL_RCC_ClockConfig+0x14c>)
20000d9e:	6812      	ldr	r2, [r2, #0]
20000da0:	f012 0f02 	tst.w	r2, #2
20000da4:	d060      	beq.n	20000e68 <HAL_RCC_ClockConfig+0x144>
    __HAL_RCC_SYSCLK_CONFIG(RCC_ClkInitStruct->SYSCLKSource);
20000da6:	4932      	ldr	r1, [pc, #200]	; (20000e70 <HAL_RCC_ClockConfig+0x14c>)
20000da8:	688a      	ldr	r2, [r1, #8]
20000daa:	f022 0203 	bic.w	r2, r2, #3
20000dae:	4313      	orrs	r3, r2
20000db0:	608b      	str	r3, [r1, #8]
    tickstart = HAL_GetTick();
20000db2:	f7ff fc0b 	bl	200005cc <HAL_GetTick>
20000db6:	4606      	mov	r6, r0
    while (__HAL_RCC_GET_SYSCLK_SOURCE() != (RCC_ClkInitStruct->SYSCLKSource << RCC_CFGR_SWS_Pos))
20000db8:	4b2d      	ldr	r3, [pc, #180]	; (20000e70 <HAL_RCC_ClockConfig+0x14c>)
20000dba:	689b      	ldr	r3, [r3, #8]
20000dbc:	f003 030c 	and.w	r3, r3, #12
20000dc0:	6862      	ldr	r2, [r4, #4]
20000dc2:	ebb3 0f82 	cmp.w	r3, r2, lsl #2
20000dc6:	d016      	beq.n	20000df6 <HAL_RCC_ClockConfig+0xd2>
      if ((HAL_GetTick() - tickstart) > CLOCKSWITCH_TIMEOUT_VALUE)
20000dc8:	f7ff fc00 	bl	200005cc <HAL_GetTick>
20000dcc:	1b80      	subs	r0, r0, r6
20000dce:	f241 3388 	movw	r3, #5000	; 0x1388
20000dd2:	4298      	cmp	r0, r3
20000dd4:	d9f0      	bls.n	20000db8 <HAL_RCC_ClockConfig+0x94>
        return HAL_TIMEOUT;
20000dd6:	2003      	movs	r0, #3
20000dd8:	bd70      	pop	{r4, r5, r6, pc}
      if(__HAL_RCC_GET_FLAG(RCC_FLAG_HSERDY) == RESET)
20000dda:	4a25      	ldr	r2, [pc, #148]	; (20000e70 <HAL_RCC_ClockConfig+0x14c>)
20000ddc:	6812      	ldr	r2, [r2, #0]
20000dde:	f412 3f00 	tst.w	r2, #131072	; 0x20000
20000de2:	d1e0      	bne.n	20000da6 <HAL_RCC_ClockConfig+0x82>
        return HAL_ERROR;
20000de4:	2001      	movs	r0, #1
20000de6:	bd70      	pop	{r4, r5, r6, pc}
      if(__HAL_RCC_GET_FLAG(RCC_FLAG_PLLRDY) == RESET)
20000de8:	4a21      	ldr	r2, [pc, #132]	; (20000e70 <HAL_RCC_ClockConfig+0x14c>)
20000dea:	6812      	ldr	r2, [r2, #0]
20000dec:	f012 7f00 	tst.w	r2, #33554432	; 0x2000000
20000df0:	d1d9      	bne.n	20000da6 <HAL_RCC_ClockConfig+0x82>
        return HAL_ERROR;
20000df2:	2001      	movs	r0, #1
20000df4:	bd70      	pop	{r4, r5, r6, pc}
  if(FLatency < __HAL_FLASH_GET_LATENCY())
20000df6:	4b1d      	ldr	r3, [pc, #116]	; (20000e6c <HAL_RCC_ClockConfig+0x148>)
20000df8:	681b      	ldr	r3, [r3, #0]
20000dfa:	f003 030f 	and.w	r3, r3, #15
20000dfe:	429d      	cmp	r5, r3
20000e00:	d209      	bcs.n	20000e16 <HAL_RCC_ClockConfig+0xf2>
    __HAL_FLASH_SET_LATENCY(FLatency);
20000e02:	b2ea      	uxtb	r2, r5
20000e04:	4b19      	ldr	r3, [pc, #100]	; (20000e6c <HAL_RCC_ClockConfig+0x148>)
20000e06:	701a      	strb	r2, [r3, #0]
    if(__HAL_FLASH_GET_LATENCY() != FLatency)
20000e08:	681b      	ldr	r3, [r3, #0]
20000e0a:	f003 030f 	and.w	r3, r3, #15
20000e0e:	429d      	cmp	r5, r3
20000e10:	d001      	beq.n	20000e16 <HAL_RCC_ClockConfig+0xf2>
      return HAL_ERROR;
20000e12:	2001      	movs	r0, #1
}
20000e14:	bd70      	pop	{r4, r5, r6, pc}
  if(((RCC_ClkInitStruct->ClockType) & RCC_CLOCKTYPE_PCLK1) == RCC_CLOCKTYPE_PCLK1)
20000e16:	6823      	ldr	r3, [r4, #0]
20000e18:	f013 0f04 	tst.w	r3, #4
20000e1c:	d006      	beq.n	20000e2c <HAL_RCC_ClockConfig+0x108>
    MODIFY_REG(RCC->CFGR, RCC_CFGR_PPRE1, RCC_ClkInitStruct->APB1CLKDivider);
20000e1e:	4a14      	ldr	r2, [pc, #80]	; (20000e70 <HAL_RCC_ClockConfig+0x14c>)
20000e20:	6893      	ldr	r3, [r2, #8]
20000e22:	f423 53e0 	bic.w	r3, r3, #7168	; 0x1c00
20000e26:	68e1      	ldr	r1, [r4, #12]
20000e28:	430b      	orrs	r3, r1
20000e2a:	6093      	str	r3, [r2, #8]
  if(((RCC_ClkInitStruct->ClockType) & RCC_CLOCKTYPE_PCLK2) == RCC_CLOCKTYPE_PCLK2)
20000e2c:	6823      	ldr	r3, [r4, #0]
20000e2e:	f013 0f08 	tst.w	r3, #8
20000e32:	d007      	beq.n	20000e44 <HAL_RCC_ClockConfig+0x120>
    MODIFY_REG(RCC->CFGR, RCC_CFGR_PPRE2, ((RCC_ClkInitStruct->APB2CLKDivider) << 3U));
20000e34:	4a0e      	ldr	r2, [pc, #56]	; (20000e70 <HAL_RCC_ClockConfig+0x14c>)
20000e36:	6893      	ldr	r3, [r2, #8]
20000e38:	f423 4360 	bic.w	r3, r3, #57344	; 0xe000
20000e3c:	6921      	ldr	r1, [r4, #16]
20000e3e:	ea43 03c1 	orr.w	r3, r3, r1, lsl #3
20000e42:	6093      	str	r3, [r2, #8]
  SystemCoreClock = HAL_RCC_GetSysClockFreq() >> AHBPrescTable[(RCC->CFGR & RCC_CFGR_HPRE)>> RCC_CFGR_HPRE_Pos];
20000e44:	f7ff ff04 	bl	20000c50 <HAL_RCC_GetSysClockFreq>
20000e48:	4b09      	ldr	r3, [pc, #36]	; (20000e70 <HAL_RCC_ClockConfig+0x14c>)
20000e4a:	689b      	ldr	r3, [r3, #8]
20000e4c:	f3c3 1303 	ubfx	r3, r3, #4, #4
20000e50:	4a08      	ldr	r2, [pc, #32]	; (20000e74 <HAL_RCC_ClockConfig+0x150>)
20000e52:	5cd3      	ldrb	r3, [r2, r3]
20000e54:	40d8      	lsrs	r0, r3
20000e56:	4b08      	ldr	r3, [pc, #32]	; (20000e78 <HAL_RCC_ClockConfig+0x154>)
20000e58:	6018      	str	r0, [r3, #0]
  HAL_InitTick (TICK_INT_PRIORITY);
20000e5a:	2000      	movs	r0, #0
20000e5c:	f004 f9c6 	bl	200051ec <HAL_InitTick>
  return HAL_OK;
20000e60:	2000      	movs	r0, #0
20000e62:	bd70      	pop	{r4, r5, r6, pc}
    return HAL_ERROR;
20000e64:	2001      	movs	r0, #1
20000e66:	4770      	bx	lr
        return HAL_ERROR;
20000e68:	2001      	movs	r0, #1
20000e6a:	bd70      	pop	{r4, r5, r6, pc}
20000e6c:	40023c00 	.word	0x40023c00
20000e70:	40023800 	.word	0x40023800
20000e74:	2000d148 	.word	0x2000d148
20000e78:	20018078 	.word	0x20018078

20000e7c <HAL_RCC_GetHCLKFreq>:
  * @retval HCLK frequency
  */
uint32_t HAL_RCC_GetHCLKFreq(void)
{
  return SystemCoreClock;
}
20000e7c:	4b01      	ldr	r3, [pc, #4]	; (20000e84 <HAL_RCC_GetHCLKFreq+0x8>)
20000e7e:	6818      	ldr	r0, [r3, #0]
20000e80:	4770      	bx	lr
20000e82:	bf00      	nop
20000e84:	20018078 	.word	0x20018078

20000e88 <HAL_RCC_GetPCLK1Freq>:
  * @note   Each time PCLK1 changes, this function must be called to update the
  *         right PCLK1 value. Otherwise, any configuration based on this function will be incorrect.
  * @retval PCLK1 frequency
  */
uint32_t HAL_RCC_GetPCLK1Freq(void)
{
20000e88:	b508      	push	{r3, lr}
  /* Get HCLK source and Compute PCLK1 frequency ---------------------------*/
  return (HAL_RCC_GetHCLKFreq() >> APBPrescTable[(RCC->CFGR & RCC_CFGR_PPRE1)>> RCC_CFGR_PPRE1_Pos]);
20000e8a:	f7ff fff7 	bl	20000e7c <HAL_RCC_GetHCLKFreq>
20000e8e:	4b04      	ldr	r3, [pc, #16]	; (20000ea0 <HAL_RCC_GetPCLK1Freq+0x18>)
20000e90:	689b      	ldr	r3, [r3, #8]
20000e92:	f3c3 2382 	ubfx	r3, r3, #10, #3
20000e96:	4a03      	ldr	r2, [pc, #12]	; (20000ea4 <HAL_RCC_GetPCLK1Freq+0x1c>)
20000e98:	5cd3      	ldrb	r3, [r2, r3]
}
20000e9a:	40d8      	lsrs	r0, r3
20000e9c:	bd08      	pop	{r3, pc}
20000e9e:	bf00      	nop
20000ea0:	40023800 	.word	0x40023800
20000ea4:	2000d158 	.word	0x2000d158

20000ea8 <HAL_RCC_GetClockConfig>:
  * @retval None
  */
void HAL_RCC_GetClockConfig(RCC_ClkInitTypeDef  *RCC_ClkInitStruct, uint32_t *pFLatency)
{
  /* Set all possible values for the Clock type parameter --------------------*/
  RCC_ClkInitStruct->ClockType = RCC_CLOCKTYPE_SYSCLK | RCC_CLOCKTYPE_HCLK | RCC_CLOCKTYPE_PCLK1 | RCC_CLOCKTYPE_PCLK2;
20000ea8:	230f      	movs	r3, #15
20000eaa:	6003      	str	r3, [r0, #0]

  /* Get the SYSCLK configuration --------------------------------------------*/
  RCC_ClkInitStruct->SYSCLKSource = (uint32_t)(RCC->CFGR & RCC_CFGR_SW);
20000eac:	4b0b      	ldr	r3, [pc, #44]	; (20000edc <HAL_RCC_GetClockConfig+0x34>)
20000eae:	689a      	ldr	r2, [r3, #8]
20000eb0:	f002 0203 	and.w	r2, r2, #3
20000eb4:	6042      	str	r2, [r0, #4]

  /* Get the HCLK configuration ----------------------------------------------*/
  RCC_ClkInitStruct->AHBCLKDivider = (uint32_t)(RCC->CFGR & RCC_CFGR_HPRE);
20000eb6:	689a      	ldr	r2, [r3, #8]
20000eb8:	f002 02f0 	and.w	r2, r2, #240	; 0xf0
20000ebc:	6082      	str	r2, [r0, #8]

  /* Get the APB1 configuration ----------------------------------------------*/
  RCC_ClkInitStruct->APB1CLKDivider = (uint32_t)(RCC->CFGR & RCC_CFGR_PPRE1);
20000ebe:	689a      	ldr	r2, [r3, #8]
20000ec0:	f402 52e0 	and.w	r2, r2, #7168	; 0x1c00
20000ec4:	60c2      	str	r2, [r0, #12]

  /* Get the APB2 configuration ----------------------------------------------*/
  RCC_ClkInitStruct->APB2CLKDivider = (uint32_t)((RCC->CFGR & RCC_CFGR_PPRE2) >> 3U);
20000ec6:	689b      	ldr	r3, [r3, #8]
20000ec8:	08db      	lsrs	r3, r3, #3
20000eca:	f403 53e0 	and.w	r3, r3, #7168	; 0x1c00
20000ece:	6103      	str	r3, [r0, #16]

  /* Get the Flash Wait State (Latency) configuration ------------------------*/
  *pFLatency = (uint32_t)(FLASH->ACR & FLASH_ACR_LATENCY);
20000ed0:	4b03      	ldr	r3, [pc, #12]	; (20000ee0 <HAL_RCC_GetClockConfig+0x38>)
20000ed2:	681b      	ldr	r3, [r3, #0]
20000ed4:	f003 030f 	and.w	r3, r3, #15
20000ed8:	600b      	str	r3, [r1, #0]
20000eda:	4770      	bx	lr
20000edc:	40023800 	.word	0x40023800
20000ee0:	40023c00 	.word	0x40023c00

20000ee4 <HAL_RCCEx_PeriphCLKConfig>:
  *        domain (RTC and RCC_BDCR register expect BKPSRAM) will be reset
  *
  * @retval HAL status
  */
HAL_StatusTypeDef HAL_RCCEx_PeriphCLKConfig(RCC_PeriphCLKInitTypeDef  *PeriphClkInit)
{
20000ee4:	b530      	push	{r4, r5, lr}
20000ee6:	b083      	sub	sp, #12
20000ee8:	4605      	mov	r5, r0

  /* Check the parameters */
  assert_param(IS_RCC_PERIPHCLOCK(PeriphClkInit->PeriphClockSelection));

  /*---------------------------- I2S configuration ---------------------------*/
  if((((PeriphClkInit->PeriphClockSelection) & RCC_PERIPHCLK_I2S) == RCC_PERIPHCLK_I2S) ||
20000eea:	6803      	ldr	r3, [r0, #0]
20000eec:	f013 0f05 	tst.w	r3, #5
20000ef0:	d106      	bne.n	20000f00 <HAL_RCCEx_PeriphCLKConfig+0x1c>
      }
    }
  }

  /*---------------------------- RTC configuration ---------------------------*/
  if(((PeriphClkInit->PeriphClockSelection) & RCC_PERIPHCLK_RTC) == (RCC_PERIPHCLK_RTC))
20000ef2:	682b      	ldr	r3, [r5, #0]
20000ef4:	f013 0f02 	tst.w	r3, #2
20000ef8:	d12e      	bne.n	20000f58 <HAL_RCCEx_PeriphCLKConfig+0x74>
  if(((PeriphClkInit->PeriphClockSelection) & RCC_PERIPHCLK_TIM) == (RCC_PERIPHCLK_TIM))
  {
    __HAL_RCC_TIMCLKPRESCALER(PeriphClkInit->TIMPresSelection);
  }
#endif /* STM32F401xC || STM32F401xE || STM32F411xE */
  return HAL_OK;
20000efa:	2000      	movs	r0, #0
}
20000efc:	b003      	add	sp, #12
20000efe:	bd30      	pop	{r4, r5, pc}
    __HAL_RCC_PLLI2S_DISABLE();
20000f00:	2200      	movs	r2, #0
20000f02:	4b49      	ldr	r3, [pc, #292]	; (20001028 <HAL_RCCEx_PeriphCLKConfig+0x144>)
20000f04:	601a      	str	r2, [r3, #0]
    tickstart = HAL_GetTick();
20000f06:	f7ff fb61 	bl	200005cc <HAL_GetTick>
20000f0a:	4604      	mov	r4, r0
    while(__HAL_RCC_GET_FLAG(RCC_FLAG_PLLI2SRDY)  != RESET)
20000f0c:	4b47      	ldr	r3, [pc, #284]	; (2000102c <HAL_RCCEx_PeriphCLKConfig+0x148>)
20000f0e:	681b      	ldr	r3, [r3, #0]
20000f10:	f013 6f00 	tst.w	r3, #134217728	; 0x8000000
20000f14:	d006      	beq.n	20000f24 <HAL_RCCEx_PeriphCLKConfig+0x40>
      if((HAL_GetTick() - tickstart ) > PLLI2S_TIMEOUT_VALUE)
20000f16:	f7ff fb59 	bl	200005cc <HAL_GetTick>
20000f1a:	1b00      	subs	r0, r0, r4
20000f1c:	2802      	cmp	r0, #2
20000f1e:	d9f5      	bls.n	20000f0c <HAL_RCCEx_PeriphCLKConfig+0x28>
        return HAL_TIMEOUT;
20000f20:	2003      	movs	r0, #3
20000f22:	e7eb      	b.n	20000efc <HAL_RCCEx_PeriphCLKConfig+0x18>
    __HAL_RCC_PLLI2S_CONFIG(PeriphClkInit->PLLI2S.PLLI2SN , PeriphClkInit->PLLI2S.PLLI2SR);
20000f24:	686a      	ldr	r2, [r5, #4]
20000f26:	68ab      	ldr	r3, [r5, #8]
20000f28:	071b      	lsls	r3, r3, #28
20000f2a:	ea43 1382 	orr.w	r3, r3, r2, lsl #6
20000f2e:	4a3f      	ldr	r2, [pc, #252]	; (2000102c <HAL_RCCEx_PeriphCLKConfig+0x148>)
20000f30:	f8c2 3084 	str.w	r3, [r2, #132]	; 0x84
    __HAL_RCC_PLLI2S_ENABLE();
20000f34:	2201      	movs	r2, #1
20000f36:	4b3c      	ldr	r3, [pc, #240]	; (20001028 <HAL_RCCEx_PeriphCLKConfig+0x144>)
20000f38:	601a      	str	r2, [r3, #0]
    tickstart = HAL_GetTick();
20000f3a:	f7ff fb47 	bl	200005cc <HAL_GetTick>
20000f3e:	4604      	mov	r4, r0
    while(__HAL_RCC_GET_FLAG(RCC_FLAG_PLLI2SRDY)  == RESET)
20000f40:	4b3a      	ldr	r3, [pc, #232]	; (2000102c <HAL_RCCEx_PeriphCLKConfig+0x148>)
20000f42:	681b      	ldr	r3, [r3, #0]
20000f44:	f013 6f00 	tst.w	r3, #134217728	; 0x8000000
20000f48:	d1d3      	bne.n	20000ef2 <HAL_RCCEx_PeriphCLKConfig+0xe>
      if((HAL_GetTick() - tickstart ) > PLLI2S_TIMEOUT_VALUE)
20000f4a:	f7ff fb3f 	bl	200005cc <HAL_GetTick>
20000f4e:	1b00      	subs	r0, r0, r4
20000f50:	2802      	cmp	r0, #2
20000f52:	d9f5      	bls.n	20000f40 <HAL_RCCEx_PeriphCLKConfig+0x5c>
        return HAL_TIMEOUT;
20000f54:	2003      	movs	r0, #3
20000f56:	e7d1      	b.n	20000efc <HAL_RCCEx_PeriphCLKConfig+0x18>
    __HAL_RCC_PWR_CLK_ENABLE();
20000f58:	2300      	movs	r3, #0
20000f5a:	9301      	str	r3, [sp, #4]
20000f5c:	4b33      	ldr	r3, [pc, #204]	; (2000102c <HAL_RCCEx_PeriphCLKConfig+0x148>)
20000f5e:	6c1a      	ldr	r2, [r3, #64]	; 0x40
20000f60:	f042 5280 	orr.w	r2, r2, #268435456	; 0x10000000
20000f64:	641a      	str	r2, [r3, #64]	; 0x40
20000f66:	6c1b      	ldr	r3, [r3, #64]	; 0x40
20000f68:	f003 5380 	and.w	r3, r3, #268435456	; 0x10000000
20000f6c:	9301      	str	r3, [sp, #4]
20000f6e:	9b01      	ldr	r3, [sp, #4]
    PWR->CR |= PWR_CR_DBP;
20000f70:	4a2f      	ldr	r2, [pc, #188]	; (20001030 <HAL_RCCEx_PeriphCLKConfig+0x14c>)
20000f72:	6813      	ldr	r3, [r2, #0]
20000f74:	f443 7380 	orr.w	r3, r3, #256	; 0x100
20000f78:	6013      	str	r3, [r2, #0]
    tickstart = HAL_GetTick();
20000f7a:	f7ff fb27 	bl	200005cc <HAL_GetTick>
20000f7e:	4604      	mov	r4, r0
    while((PWR->CR & PWR_CR_DBP) == RESET)
20000f80:	4b2b      	ldr	r3, [pc, #172]	; (20001030 <HAL_RCCEx_PeriphCLKConfig+0x14c>)
20000f82:	681b      	ldr	r3, [r3, #0]
20000f84:	f413 7f80 	tst.w	r3, #256	; 0x100
20000f88:	d106      	bne.n	20000f98 <HAL_RCCEx_PeriphCLKConfig+0xb4>
      if((HAL_GetTick() - tickstart ) > RCC_DBP_TIMEOUT_VALUE)
20000f8a:	f7ff fb1f 	bl	200005cc <HAL_GetTick>
20000f8e:	1b00      	subs	r0, r0, r4
20000f90:	2802      	cmp	r0, #2
20000f92:	d9f5      	bls.n	20000f80 <HAL_RCCEx_PeriphCLKConfig+0x9c>
        return HAL_TIMEOUT;
20000f94:	2003      	movs	r0, #3
20000f96:	e7b1      	b.n	20000efc <HAL_RCCEx_PeriphCLKConfig+0x18>
    tmpreg1 = (RCC->BDCR & RCC_BDCR_RTCSEL);
20000f98:	4b24      	ldr	r3, [pc, #144]	; (2000102c <HAL_RCCEx_PeriphCLKConfig+0x148>)
20000f9a:	6f1b      	ldr	r3, [r3, #112]	; 0x70
    if((tmpreg1 != 0x00000000U) && ((tmpreg1) != (PeriphClkInit->RTCClockSelection & RCC_BDCR_RTCSEL)))
20000f9c:	f413 7340 	ands.w	r3, r3, #768	; 0x300
20000fa0:	d012      	beq.n	20000fc8 <HAL_RCCEx_PeriphCLKConfig+0xe4>
20000fa2:	68ea      	ldr	r2, [r5, #12]
20000fa4:	f402 7240 	and.w	r2, r2, #768	; 0x300
20000fa8:	4293      	cmp	r3, r2
20000faa:	d00d      	beq.n	20000fc8 <HAL_RCCEx_PeriphCLKConfig+0xe4>
      tmpreg1 = (RCC->BDCR & ~(RCC_BDCR_RTCSEL));
20000fac:	4b1f      	ldr	r3, [pc, #124]	; (2000102c <HAL_RCCEx_PeriphCLKConfig+0x148>)
20000fae:	6f1a      	ldr	r2, [r3, #112]	; 0x70
20000fb0:	f422 7240 	bic.w	r2, r2, #768	; 0x300
      __HAL_RCC_BACKUPRESET_FORCE();
20000fb4:	491f      	ldr	r1, [pc, #124]	; (20001034 <HAL_RCCEx_PeriphCLKConfig+0x150>)
20000fb6:	2001      	movs	r0, #1
20000fb8:	6008      	str	r0, [r1, #0]
      __HAL_RCC_BACKUPRESET_RELEASE();
20000fba:	2000      	movs	r0, #0
20000fbc:	6008      	str	r0, [r1, #0]
      RCC->BDCR = tmpreg1;
20000fbe:	671a      	str	r2, [r3, #112]	; 0x70
      if(HAL_IS_BIT_SET(RCC->BDCR, RCC_BDCR_LSEON))
20000fc0:	6f1b      	ldr	r3, [r3, #112]	; 0x70
20000fc2:	f013 0f01 	tst.w	r3, #1
20000fc6:	d113      	bne.n	20000ff0 <HAL_RCCEx_PeriphCLKConfig+0x10c>
    __HAL_RCC_RTC_CONFIG(PeriphClkInit->RTCClockSelection);
20000fc8:	68eb      	ldr	r3, [r5, #12]
20000fca:	f403 7240 	and.w	r2, r3, #768	; 0x300
20000fce:	f5b2 7f40 	cmp.w	r2, #768	; 0x300
20000fd2:	d01e      	beq.n	20001012 <HAL_RCCEx_PeriphCLKConfig+0x12e>
20000fd4:	4a15      	ldr	r2, [pc, #84]	; (2000102c <HAL_RCCEx_PeriphCLKConfig+0x148>)
20000fd6:	6893      	ldr	r3, [r2, #8]
20000fd8:	f423 13f8 	bic.w	r3, r3, #2031616	; 0x1f0000
20000fdc:	6093      	str	r3, [r2, #8]
20000fde:	4913      	ldr	r1, [pc, #76]	; (2000102c <HAL_RCCEx_PeriphCLKConfig+0x148>)
20000fe0:	6f0b      	ldr	r3, [r1, #112]	; 0x70
20000fe2:	68ea      	ldr	r2, [r5, #12]
20000fe4:	f3c2 020b 	ubfx	r2, r2, #0, #12
20000fe8:	4313      	orrs	r3, r2
20000fea:	670b      	str	r3, [r1, #112]	; 0x70
  return HAL_OK;
20000fec:	2000      	movs	r0, #0
20000fee:	e785      	b.n	20000efc <HAL_RCCEx_PeriphCLKConfig+0x18>
        tickstart = HAL_GetTick();
20000ff0:	f7ff faec 	bl	200005cc <HAL_GetTick>
20000ff4:	4604      	mov	r4, r0
        while(__HAL_RCC_GET_FLAG(RCC_FLAG_LSERDY) == RESET)
20000ff6:	4b0d      	ldr	r3, [pc, #52]	; (2000102c <HAL_RCCEx_PeriphCLKConfig+0x148>)
20000ff8:	6f1b      	ldr	r3, [r3, #112]	; 0x70
20000ffa:	f013 0f02 	tst.w	r3, #2
20000ffe:	d1e3      	bne.n	20000fc8 <HAL_RCCEx_PeriphCLKConfig+0xe4>
          if((HAL_GetTick() - tickstart ) > RCC_LSE_TIMEOUT_VALUE)
20001000:	f7ff fae4 	bl	200005cc <HAL_GetTick>
20001004:	1b00      	subs	r0, r0, r4
20001006:	f241 3388 	movw	r3, #5000	; 0x1388
2000100a:	4298      	cmp	r0, r3
2000100c:	d9f3      	bls.n	20000ff6 <HAL_RCCEx_PeriphCLKConfig+0x112>
            return HAL_TIMEOUT;
2000100e:	2003      	movs	r0, #3
20001010:	e774      	b.n	20000efc <HAL_RCCEx_PeriphCLKConfig+0x18>
    __HAL_RCC_RTC_CONFIG(PeriphClkInit->RTCClockSelection);
20001012:	4906      	ldr	r1, [pc, #24]	; (2000102c <HAL_RCCEx_PeriphCLKConfig+0x148>)
20001014:	688a      	ldr	r2, [r1, #8]
20001016:	f422 12f8 	bic.w	r2, r2, #2031616	; 0x1f0000
2000101a:	f023 4370 	bic.w	r3, r3, #4026531840	; 0xf0000000
2000101e:	f423 7340 	bic.w	r3, r3, #768	; 0x300
20001022:	4313      	orrs	r3, r2
20001024:	608b      	str	r3, [r1, #8]
20001026:	e7da      	b.n	20000fde <HAL_RCCEx_PeriphCLKConfig+0xfa>
20001028:	42470068 	.word	0x42470068
2000102c:	40023800 	.word	0x40023800
20001030:	40007000 	.word	0x40007000
20001034:	42470e40 	.word	0x42470e40

20001038 <HAL_RTC_WaitForSynchro>:
  * @param  hrtc pointer to a RTC_HandleTypeDef structure that contains
  *                the configuration information for RTC.
  * @retval HAL status
  */
HAL_StatusTypeDef HAL_RTC_WaitForSynchro(RTC_HandleTypeDef* hrtc)
{
20001038:	b538      	push	{r3, r4, r5, lr}
2000103a:	4604      	mov	r4, r0
  uint32_t tickstart = 0U;

  /* Clear RSF flag */
  hrtc->Instance->ISR &= (uint32_t)RTC_RSF_MASK;
2000103c:	6802      	ldr	r2, [r0, #0]
2000103e:	68d3      	ldr	r3, [r2, #12]
20001040:	f023 03a0 	bic.w	r3, r3, #160	; 0xa0
20001044:	60d3      	str	r3, [r2, #12]

    /* Get tick */
    tickstart = HAL_GetTick();
20001046:	f7ff fac1 	bl	200005cc <HAL_GetTick>
2000104a:	4605      	mov	r5, r0

  /* Wait the registers to be synchronised */
  while((hrtc->Instance->ISR & RTC_ISR_RSF) == (uint32_t)RESET)
2000104c:	6823      	ldr	r3, [r4, #0]
2000104e:	68db      	ldr	r3, [r3, #12]
20001050:	f013 0f20 	tst.w	r3, #32
20001054:	d107      	bne.n	20001066 <HAL_RTC_WaitForSynchro+0x2e>
  {
    if((HAL_GetTick() - tickstart ) > RTC_TIMEOUT_VALUE)
20001056:	f7ff fab9 	bl	200005cc <HAL_GetTick>
2000105a:	1b40      	subs	r0, r0, r5
2000105c:	f5b0 7f7a 	cmp.w	r0, #1000	; 0x3e8
20001060:	d9f4      	bls.n	2000104c <HAL_RTC_WaitForSynchro+0x14>
    {       
      return HAL_TIMEOUT;
20001062:	2003      	movs	r0, #3
    } 
  }

  return HAL_OK;
}
20001064:	bd38      	pop	{r3, r4, r5, pc}
  return HAL_OK;
20001066:	2000      	movs	r0, #0
20001068:	bd38      	pop	{r3, r4, r5, pc}

2000106a <RTC_EnterInitMode>:
  * @param  hrtc pointer to a RTC_HandleTypeDef structure that contains
  *                the configuration information for RTC.
  * @retval HAL status
  */
HAL_StatusTypeDef RTC_EnterInitMode(RTC_HandleTypeDef* hrtc)
{
2000106a:	b538      	push	{r3, r4, r5, lr}
  uint32_t tickstart = 0U; 
  
  /* Check if the Initialization mode is set */
  if((hrtc->Instance->ISR & RTC_ISR_INITF) == (uint32_t)RESET)
2000106c:	6803      	ldr	r3, [r0, #0]
2000106e:	68da      	ldr	r2, [r3, #12]
20001070:	f012 0f40 	tst.w	r2, #64	; 0x40
20001074:	d001      	beq.n	2000107a <RTC_EnterInitMode+0x10>
        return HAL_TIMEOUT;
      } 
    }
  }
  
  return HAL_OK;  
20001076:	2000      	movs	r0, #0
20001078:	bd38      	pop	{r3, r4, r5, pc}
2000107a:	4604      	mov	r4, r0
    hrtc->Instance->ISR = (uint32_t)RTC_INIT_MASK;
2000107c:	f04f 32ff 	mov.w	r2, #4294967295
20001080:	60da      	str	r2, [r3, #12]
    tickstart = HAL_GetTick();
20001082:	f7ff faa3 	bl	200005cc <HAL_GetTick>
20001086:	4605      	mov	r5, r0
    while((hrtc->Instance->ISR & RTC_ISR_INITF) == (uint32_t)RESET)
20001088:	6823      	ldr	r3, [r4, #0]
2000108a:	68db      	ldr	r3, [r3, #12]
2000108c:	f013 0f40 	tst.w	r3, #64	; 0x40
20001090:	d107      	bne.n	200010a2 <RTC_EnterInitMode+0x38>
      if((HAL_GetTick() - tickstart ) > RTC_TIMEOUT_VALUE)
20001092:	f7ff fa9b 	bl	200005cc <HAL_GetTick>
20001096:	1b40      	subs	r0, r0, r5
20001098:	f5b0 7f7a 	cmp.w	r0, #1000	; 0x3e8
2000109c:	d9f4      	bls.n	20001088 <RTC_EnterInitMode+0x1e>
        return HAL_TIMEOUT;
2000109e:	2003      	movs	r0, #3
}
200010a0:	bd38      	pop	{r3, r4, r5, pc}
  return HAL_OK;  
200010a2:	2000      	movs	r0, #0
200010a4:	bd38      	pop	{r3, r4, r5, pc}

200010a6 <HAL_RTC_Init>:
{
200010a6:	b538      	push	{r3, r4, r5, lr}
  if(hrtc == NULL)
200010a8:	2800      	cmp	r0, #0
200010aa:	d05c      	beq.n	20001166 <HAL_RTC_Init+0xc0>
200010ac:	4604      	mov	r4, r0
  if(hrtc->State == HAL_RTC_STATE_RESET)
200010ae:	7f43      	ldrb	r3, [r0, #29]
200010b0:	2b00      	cmp	r3, #0
200010b2:	d041      	beq.n	20001138 <HAL_RTC_Init+0x92>
  hrtc->State = HAL_RTC_STATE_BUSY;  
200010b4:	2302      	movs	r3, #2
200010b6:	7763      	strb	r3, [r4, #29]
  __HAL_RTC_WRITEPROTECTION_DISABLE(hrtc);
200010b8:	6823      	ldr	r3, [r4, #0]
200010ba:	22ca      	movs	r2, #202	; 0xca
200010bc:	625a      	str	r2, [r3, #36]	; 0x24
200010be:	6823      	ldr	r3, [r4, #0]
200010c0:	2253      	movs	r2, #83	; 0x53
200010c2:	625a      	str	r2, [r3, #36]	; 0x24
  if(RTC_EnterInitMode(hrtc) != HAL_OK)
200010c4:	4620      	mov	r0, r4
200010c6:	f7ff ffd0 	bl	2000106a <RTC_EnterInitMode>
200010ca:	4605      	mov	r5, r0
200010cc:	2800      	cmp	r0, #0
200010ce:	d137      	bne.n	20001140 <HAL_RTC_Init+0x9a>
    hrtc->Instance->CR &= ((uint32_t)~(RTC_CR_FMT | RTC_CR_OSEL | RTC_CR_POL));
200010d0:	6822      	ldr	r2, [r4, #0]
200010d2:	6893      	ldr	r3, [r2, #8]
200010d4:	f423 03e0 	bic.w	r3, r3, #7340032	; 0x700000
200010d8:	f023 0340 	bic.w	r3, r3, #64	; 0x40
200010dc:	6093      	str	r3, [r2, #8]
    hrtc->Instance->CR |= (uint32_t)(hrtc->Init.HourFormat | hrtc->Init.OutPut | hrtc->Init.OutPutPolarity);
200010de:	6821      	ldr	r1, [r4, #0]
200010e0:	688a      	ldr	r2, [r1, #8]
200010e2:	6863      	ldr	r3, [r4, #4]
200010e4:	6920      	ldr	r0, [r4, #16]
200010e6:	4303      	orrs	r3, r0
200010e8:	6960      	ldr	r0, [r4, #20]
200010ea:	4303      	orrs	r3, r0
200010ec:	4313      	orrs	r3, r2
200010ee:	608b      	str	r3, [r1, #8]
    hrtc->Instance->PRER = (uint32_t)(hrtc->Init.SynchPrediv);
200010f0:	6823      	ldr	r3, [r4, #0]
200010f2:	68e2      	ldr	r2, [r4, #12]
200010f4:	611a      	str	r2, [r3, #16]
    hrtc->Instance->PRER |= (uint32_t)(hrtc->Init.AsynchPrediv << 16U);
200010f6:	6822      	ldr	r2, [r4, #0]
200010f8:	6913      	ldr	r3, [r2, #16]
200010fa:	68a1      	ldr	r1, [r4, #8]
200010fc:	ea43 4301 	orr.w	r3, r3, r1, lsl #16
20001100:	6113      	str	r3, [r2, #16]
    hrtc->Instance->ISR &= (uint32_t)~RTC_ISR_INIT; 
20001102:	6822      	ldr	r2, [r4, #0]
20001104:	68d3      	ldr	r3, [r2, #12]
20001106:	f023 0380 	bic.w	r3, r3, #128	; 0x80
2000110a:	60d3      	str	r3, [r2, #12]
    if((hrtc->Instance->CR & RTC_CR_BYPSHAD) == RESET)
2000110c:	6823      	ldr	r3, [r4, #0]
2000110e:	689b      	ldr	r3, [r3, #8]
20001110:	f013 0f20 	tst.w	r3, #32
20001114:	d01b      	beq.n	2000114e <HAL_RTC_Init+0xa8>
    hrtc->Instance->TAFCR &= (uint32_t)~RTC_TAFCR_ALARMOUTTYPE;
20001116:	6822      	ldr	r2, [r4, #0]
20001118:	6c13      	ldr	r3, [r2, #64]	; 0x40
2000111a:	f423 2380 	bic.w	r3, r3, #262144	; 0x40000
2000111e:	6413      	str	r3, [r2, #64]	; 0x40
    hrtc->Instance->TAFCR |= (uint32_t)(hrtc->Init.OutPutType); 
20001120:	6822      	ldr	r2, [r4, #0]
20001122:	6c13      	ldr	r3, [r2, #64]	; 0x40
20001124:	69a1      	ldr	r1, [r4, #24]
20001126:	430b      	orrs	r3, r1
20001128:	6413      	str	r3, [r2, #64]	; 0x40
    __HAL_RTC_WRITEPROTECTION_ENABLE(hrtc); 
2000112a:	6823      	ldr	r3, [r4, #0]
2000112c:	22ff      	movs	r2, #255	; 0xff
2000112e:	625a      	str	r2, [r3, #36]	; 0x24
    hrtc->State = HAL_RTC_STATE_READY;
20001130:	2301      	movs	r3, #1
20001132:	7763      	strb	r3, [r4, #29]
}
20001134:	4628      	mov	r0, r5
20001136:	bd38      	pop	{r3, r4, r5, pc}
    hrtc->Lock = HAL_UNLOCKED;
20001138:	7703      	strb	r3, [r0, #28]
    HAL_RTC_MspInit(hrtc);
2000113a:	f004 f845 	bl	200051c8 <HAL_RTC_MspInit>
2000113e:	e7b9      	b.n	200010b4 <HAL_RTC_Init+0xe>
    __HAL_RTC_WRITEPROTECTION_ENABLE(hrtc); 
20001140:	6823      	ldr	r3, [r4, #0]
20001142:	22ff      	movs	r2, #255	; 0xff
20001144:	625a      	str	r2, [r3, #36]	; 0x24
    hrtc->State = HAL_RTC_STATE_ERROR;
20001146:	2304      	movs	r3, #4
20001148:	7763      	strb	r3, [r4, #29]
    return HAL_ERROR;
2000114a:	2501      	movs	r5, #1
2000114c:	e7f2      	b.n	20001134 <HAL_RTC_Init+0x8e>
      if(HAL_RTC_WaitForSynchro(hrtc) != HAL_OK)
2000114e:	4620      	mov	r0, r4
20001150:	f7ff ff72 	bl	20001038 <HAL_RTC_WaitForSynchro>
20001154:	2800      	cmp	r0, #0
20001156:	d0de      	beq.n	20001116 <HAL_RTC_Init+0x70>
        __HAL_RTC_WRITEPROTECTION_ENABLE(hrtc);
20001158:	6823      	ldr	r3, [r4, #0]
2000115a:	22ff      	movs	r2, #255	; 0xff
2000115c:	625a      	str	r2, [r3, #36]	; 0x24
        hrtc->State = HAL_RTC_STATE_ERROR;
2000115e:	2304      	movs	r3, #4
20001160:	7763      	strb	r3, [r4, #29]
        return HAL_ERROR;
20001162:	2501      	movs	r5, #1
20001164:	e7e6      	b.n	20001134 <HAL_RTC_Init+0x8e>
     return HAL_ERROR;
20001166:	2501      	movs	r5, #1
20001168:	e7e4      	b.n	20001134 <HAL_RTC_Init+0x8e>

2000116a <HAL_SRAM_Init>:
  * @retval HAL status
  */
HAL_StatusTypeDef HAL_SRAM_Init(SRAM_HandleTypeDef *hsram, FMC_NORSRAM_TimingTypeDef *Timing, FMC_NORSRAM_TimingTypeDef *ExtTiming)
{ 
  /* Check the SRAM handle parameter */
  if(hsram == NULL)
2000116a:	b328      	cbz	r0, 200011b8 <HAL_SRAM_Init+0x4e>
{ 
2000116c:	b570      	push	{r4, r5, r6, lr}
2000116e:	4604      	mov	r4, r0
20001170:	4615      	mov	r5, r2
20001172:	460e      	mov	r6, r1
  {
     return HAL_ERROR;
  }
  
  if(hsram->State == HAL_SRAM_STATE_RESET)
20001174:	f890 3049 	ldrb.w	r3, [r0, #73]	; 0x49
20001178:	b1cb      	cbz	r3, 200011ae <HAL_SRAM_Init+0x44>
    /* Initialize the low level hardware (MSP) */
    HAL_SRAM_MspInit(hsram);
  }
  
  /* Initialize SRAM control Interface */
  FMC_NORSRAM_Init(hsram->Instance, &(hsram->Init));
2000117a:	f104 0108 	add.w	r1, r4, #8
2000117e:	6820      	ldr	r0, [r4, #0]
20001180:	f000 f994 	bl	200014ac <FSMC_NORSRAM_Init>

  /* Initialize SRAM timing Interface */
  FMC_NORSRAM_Timing_Init(hsram->Instance, Timing, hsram->Init.NSBank); 
20001184:	68a2      	ldr	r2, [r4, #8]
20001186:	4631      	mov	r1, r6
20001188:	6820      	ldr	r0, [r4, #0]
2000118a:	f000 f9bb 	bl	20001504 <FSMC_NORSRAM_Timing_Init>

  /* Initialize SRAM extended mode timing Interface */
  FMC_NORSRAM_Extended_Timing_Init(hsram->Extended, ExtTiming, hsram->Init.NSBank,  hsram->Init.ExtendedMode);  
2000118e:	6b23      	ldr	r3, [r4, #48]	; 0x30
20001190:	68a2      	ldr	r2, [r4, #8]
20001192:	4629      	mov	r1, r5
20001194:	6860      	ldr	r0, [r4, #4]
20001196:	f000 f9d5 	bl	20001544 <FSMC_NORSRAM_Extended_Timing_Init>
  
  /* Enable the NORSRAM device */
  __FMC_NORSRAM_ENABLE(hsram->Instance, hsram->Init.NSBank); 
2000119a:	6822      	ldr	r2, [r4, #0]
2000119c:	68a1      	ldr	r1, [r4, #8]
2000119e:	f852 3021 	ldr.w	r3, [r2, r1, lsl #2]
200011a2:	f043 0301 	orr.w	r3, r3, #1
200011a6:	f842 3021 	str.w	r3, [r2, r1, lsl #2]
  
  return HAL_OK;
200011aa:	2000      	movs	r0, #0
200011ac:	bd70      	pop	{r4, r5, r6, pc}
    hsram->Lock = HAL_UNLOCKED;
200011ae:	f880 3048 	strb.w	r3, [r0, #72]	; 0x48
    HAL_SRAM_MspInit(hsram);
200011b2:	f004 f817 	bl	200051e4 <HAL_SRAM_MspInit>
200011b6:	e7e0      	b.n	2000117a <HAL_SRAM_Init+0x10>
     return HAL_ERROR;
200011b8:	2001      	movs	r0, #1
200011ba:	4770      	bx	lr

200011bc <HAL_TIM_Base_MspInit>:
  * @param  htim pointer to a TIM_HandleTypeDef structure that contains
  *                the configuration information for TIM module.
  * @retval None
  */
__weak void HAL_TIM_Base_MspInit(TIM_HandleTypeDef *htim)
{
200011bc:	4770      	bx	lr

200011be <HAL_TIM_Base_Start_IT>:
{
  /* Check the parameters */
  assert_param(IS_TIM_INSTANCE(htim->Instance));
  
  /* Enable the TIM Update interrupt */
  __HAL_TIM_ENABLE_IT(htim, TIM_IT_UPDATE);
200011be:	6802      	ldr	r2, [r0, #0]
200011c0:	68d3      	ldr	r3, [r2, #12]
200011c2:	f043 0301 	orr.w	r3, r3, #1
200011c6:	60d3      	str	r3, [r2, #12]
      
  /* Enable the Peripheral */
  __HAL_TIM_ENABLE(htim);
200011c8:	6802      	ldr	r2, [r0, #0]
200011ca:	6813      	ldr	r3, [r2, #0]
200011cc:	f043 0301 	orr.w	r3, r3, #1
200011d0:	6013      	str	r3, [r2, #0]
      
  /* Return function status */
  return HAL_OK;
}
200011d2:	2000      	movs	r0, #0
200011d4:	4770      	bx	lr

200011d6 <HAL_TIM_OC_DelayElapsedCallback>:
  * @param  htim pointer to a TIM_HandleTypeDef structure that contains
  *                the configuration information for TIM module.
  * @retval None
  */
__weak void HAL_TIM_OC_DelayElapsedCallback(TIM_HandleTypeDef *htim)
{
200011d6:	4770      	bx	lr

200011d8 <HAL_TIM_IC_CaptureCallback>:
  * @param  htim pointer to a TIM_HandleTypeDef structure that contains
  *                the configuration information for TIM module.
  * @retval None
  */
__weak void HAL_TIM_IC_CaptureCallback(TIM_HandleTypeDef *htim)
{
200011d8:	4770      	bx	lr

200011da <HAL_TIM_PWM_PulseFinishedCallback>:
  * @param  htim pointer to a TIM_HandleTypeDef structure that contains
  *                the configuration information for TIM module.
  * @retval None
  */
__weak void HAL_TIM_PWM_PulseFinishedCallback(TIM_HandleTypeDef *htim)
{
200011da:	4770      	bx	lr

200011dc <HAL_TIM_TriggerCallback>:
  * @param  htim pointer to a TIM_HandleTypeDef structure that contains
  *                the configuration information for TIM module.
  * @retval None
  */
__weak void HAL_TIM_TriggerCallback(TIM_HandleTypeDef *htim)
{
200011dc:	4770      	bx	lr

200011de <HAL_TIM_IRQHandler>:
{
200011de:	b510      	push	{r4, lr}
200011e0:	4604      	mov	r4, r0
  if(__HAL_TIM_GET_FLAG(htim, TIM_FLAG_CC1) != RESET)
200011e2:	6803      	ldr	r3, [r0, #0]
200011e4:	691a      	ldr	r2, [r3, #16]
200011e6:	f012 0f02 	tst.w	r2, #2
200011ea:	d011      	beq.n	20001210 <HAL_TIM_IRQHandler+0x32>
    if(__HAL_TIM_GET_IT_SOURCE(htim, TIM_IT_CC1) !=RESET)
200011ec:	68da      	ldr	r2, [r3, #12]
200011ee:	f012 0f02 	tst.w	r2, #2
200011f2:	d00d      	beq.n	20001210 <HAL_TIM_IRQHandler+0x32>
        __HAL_TIM_CLEAR_IT(htim, TIM_IT_CC1);
200011f4:	f06f 0202 	mvn.w	r2, #2
200011f8:	611a      	str	r2, [r3, #16]
        htim->Channel = HAL_TIM_ACTIVE_CHANNEL_1;
200011fa:	2301      	movs	r3, #1
200011fc:	7603      	strb	r3, [r0, #24]
        if((htim->Instance->CCMR1 & TIM_CCMR1_CC1S) != 0x00U)
200011fe:	6803      	ldr	r3, [r0, #0]
20001200:	699b      	ldr	r3, [r3, #24]
20001202:	f013 0f03 	tst.w	r3, #3
20001206:	d070      	beq.n	200012ea <HAL_TIM_IRQHandler+0x10c>
          HAL_TIM_IC_CaptureCallback(htim);
20001208:	f7ff ffe6 	bl	200011d8 <HAL_TIM_IC_CaptureCallback>
        htim->Channel = HAL_TIM_ACTIVE_CHANNEL_CLEARED;
2000120c:	2300      	movs	r3, #0
2000120e:	7623      	strb	r3, [r4, #24]
  if(__HAL_TIM_GET_FLAG(htim, TIM_FLAG_CC2) != RESET)
20001210:	6823      	ldr	r3, [r4, #0]
20001212:	691a      	ldr	r2, [r3, #16]
20001214:	f012 0f04 	tst.w	r2, #4
20001218:	d012      	beq.n	20001240 <HAL_TIM_IRQHandler+0x62>
    if(__HAL_TIM_GET_IT_SOURCE(htim, TIM_IT_CC2) !=RESET)
2000121a:	68da      	ldr	r2, [r3, #12]
2000121c:	f012 0f04 	tst.w	r2, #4
20001220:	d00e      	beq.n	20001240 <HAL_TIM_IRQHandler+0x62>
      __HAL_TIM_CLEAR_IT(htim, TIM_IT_CC2);
20001222:	f06f 0204 	mvn.w	r2, #4
20001226:	611a      	str	r2, [r3, #16]
      htim->Channel = HAL_TIM_ACTIVE_CHANNEL_2;
20001228:	2302      	movs	r3, #2
2000122a:	7623      	strb	r3, [r4, #24]
      if((htim->Instance->CCMR1 & TIM_CCMR1_CC2S) != 0x00U)
2000122c:	6823      	ldr	r3, [r4, #0]
2000122e:	699b      	ldr	r3, [r3, #24]
20001230:	f413 7f40 	tst.w	r3, #768	; 0x300
20001234:	d05f      	beq.n	200012f6 <HAL_TIM_IRQHandler+0x118>
        HAL_TIM_IC_CaptureCallback(htim);
20001236:	4620      	mov	r0, r4
20001238:	f7ff ffce 	bl	200011d8 <HAL_TIM_IC_CaptureCallback>
      htim->Channel = HAL_TIM_ACTIVE_CHANNEL_CLEARED;
2000123c:	2300      	movs	r3, #0
2000123e:	7623      	strb	r3, [r4, #24]
  if(__HAL_TIM_GET_FLAG(htim, TIM_FLAG_CC3) != RESET)
20001240:	6823      	ldr	r3, [r4, #0]
20001242:	691a      	ldr	r2, [r3, #16]
20001244:	f012 0f08 	tst.w	r2, #8
20001248:	d012      	beq.n	20001270 <HAL_TIM_IRQHandler+0x92>
    if(__HAL_TIM_GET_IT_SOURCE(htim, TIM_IT_CC3) !=RESET)
2000124a:	68da      	ldr	r2, [r3, #12]
2000124c:	f012 0f08 	tst.w	r2, #8
20001250:	d00e      	beq.n	20001270 <HAL_TIM_IRQHandler+0x92>
      __HAL_TIM_CLEAR_IT(htim, TIM_IT_CC3);
20001252:	f06f 0208 	mvn.w	r2, #8
20001256:	611a      	str	r2, [r3, #16]
      htim->Channel = HAL_TIM_ACTIVE_CHANNEL_3;
20001258:	2304      	movs	r3, #4
2000125a:	7623      	strb	r3, [r4, #24]
      if((htim->Instance->CCMR2 & TIM_CCMR2_CC3S) != 0x00U)
2000125c:	6823      	ldr	r3, [r4, #0]
2000125e:	69db      	ldr	r3, [r3, #28]
20001260:	f013 0f03 	tst.w	r3, #3
20001264:	d04e      	beq.n	20001304 <HAL_TIM_IRQHandler+0x126>
        HAL_TIM_IC_CaptureCallback(htim);
20001266:	4620      	mov	r0, r4
20001268:	f7ff ffb6 	bl	200011d8 <HAL_TIM_IC_CaptureCallback>
      htim->Channel = HAL_TIM_ACTIVE_CHANNEL_CLEARED;
2000126c:	2300      	movs	r3, #0
2000126e:	7623      	strb	r3, [r4, #24]
  if(__HAL_TIM_GET_FLAG(htim, TIM_FLAG_CC4) != RESET)
20001270:	6823      	ldr	r3, [r4, #0]
20001272:	691a      	ldr	r2, [r3, #16]
20001274:	f012 0f10 	tst.w	r2, #16
20001278:	d012      	beq.n	200012a0 <HAL_TIM_IRQHandler+0xc2>
    if(__HAL_TIM_GET_IT_SOURCE(htim, TIM_IT_CC4) !=RESET)
2000127a:	68da      	ldr	r2, [r3, #12]
2000127c:	f012 0f10 	tst.w	r2, #16
20001280:	d00e      	beq.n	200012a0 <HAL_TIM_IRQHandler+0xc2>
      __HAL_TIM_CLEAR_IT(htim, TIM_IT_CC4);
20001282:	f06f 0210 	mvn.w	r2, #16
20001286:	611a      	str	r2, [r3, #16]
      htim->Channel = HAL_TIM_ACTIVE_CHANNEL_4;
20001288:	2308      	movs	r3, #8
2000128a:	7623      	strb	r3, [r4, #24]
      if((htim->Instance->CCMR2 & TIM_CCMR2_CC4S) != 0x00U)
2000128c:	6823      	ldr	r3, [r4, #0]
2000128e:	69db      	ldr	r3, [r3, #28]
20001290:	f413 7f40 	tst.w	r3, #768	; 0x300
20001294:	d03d      	beq.n	20001312 <HAL_TIM_IRQHandler+0x134>
        HAL_TIM_IC_CaptureCallback(htim);
20001296:	4620      	mov	r0, r4
20001298:	f7ff ff9e 	bl	200011d8 <HAL_TIM_IC_CaptureCallback>
      htim->Channel = HAL_TIM_ACTIVE_CHANNEL_CLEARED;
2000129c:	2300      	movs	r3, #0
2000129e:	7623      	strb	r3, [r4, #24]
  if(__HAL_TIM_GET_FLAG(htim, TIM_FLAG_UPDATE) != RESET)
200012a0:	6823      	ldr	r3, [r4, #0]
200012a2:	691a      	ldr	r2, [r3, #16]
200012a4:	f012 0f01 	tst.w	r2, #1
200012a8:	d003      	beq.n	200012b2 <HAL_TIM_IRQHandler+0xd4>
    if(__HAL_TIM_GET_IT_SOURCE(htim, TIM_IT_UPDATE) !=RESET)
200012aa:	68da      	ldr	r2, [r3, #12]
200012ac:	f012 0f01 	tst.w	r2, #1
200012b0:	d136      	bne.n	20001320 <HAL_TIM_IRQHandler+0x142>
  if(__HAL_TIM_GET_FLAG(htim, TIM_FLAG_BREAK) != RESET)
200012b2:	6823      	ldr	r3, [r4, #0]
200012b4:	691a      	ldr	r2, [r3, #16]
200012b6:	f012 0f80 	tst.w	r2, #128	; 0x80
200012ba:	d003      	beq.n	200012c4 <HAL_TIM_IRQHandler+0xe6>
    if(__HAL_TIM_GET_IT_SOURCE(htim, TIM_IT_BREAK) !=RESET)
200012bc:	68da      	ldr	r2, [r3, #12]
200012be:	f012 0f80 	tst.w	r2, #128	; 0x80
200012c2:	d134      	bne.n	2000132e <HAL_TIM_IRQHandler+0x150>
  if(__HAL_TIM_GET_FLAG(htim, TIM_FLAG_TRIGGER) != RESET)
200012c4:	6823      	ldr	r3, [r4, #0]
200012c6:	691a      	ldr	r2, [r3, #16]
200012c8:	f012 0f40 	tst.w	r2, #64	; 0x40
200012cc:	d003      	beq.n	200012d6 <HAL_TIM_IRQHandler+0xf8>
    if(__HAL_TIM_GET_IT_SOURCE(htim, TIM_IT_TRIGGER) !=RESET)
200012ce:	68da      	ldr	r2, [r3, #12]
200012d0:	f012 0f40 	tst.w	r2, #64	; 0x40
200012d4:	d132      	bne.n	2000133c <HAL_TIM_IRQHandler+0x15e>
  if(__HAL_TIM_GET_FLAG(htim, TIM_FLAG_COM) != RESET)
200012d6:	6823      	ldr	r3, [r4, #0]
200012d8:	691a      	ldr	r2, [r3, #16]
200012da:	f012 0f20 	tst.w	r2, #32
200012de:	d003      	beq.n	200012e8 <HAL_TIM_IRQHandler+0x10a>
    if(__HAL_TIM_GET_IT_SOURCE(htim, TIM_IT_COM) !=RESET)
200012e0:	68da      	ldr	r2, [r3, #12]
200012e2:	f012 0f20 	tst.w	r2, #32
200012e6:	d130      	bne.n	2000134a <HAL_TIM_IRQHandler+0x16c>
200012e8:	bd10      	pop	{r4, pc}
          HAL_TIM_OC_DelayElapsedCallback(htim);
200012ea:	f7ff ff74 	bl	200011d6 <HAL_TIM_OC_DelayElapsedCallback>
          HAL_TIM_PWM_PulseFinishedCallback(htim);
200012ee:	4620      	mov	r0, r4
200012f0:	f7ff ff73 	bl	200011da <HAL_TIM_PWM_PulseFinishedCallback>
200012f4:	e78a      	b.n	2000120c <HAL_TIM_IRQHandler+0x2e>
        HAL_TIM_OC_DelayElapsedCallback(htim);
200012f6:	4620      	mov	r0, r4
200012f8:	f7ff ff6d 	bl	200011d6 <HAL_TIM_OC_DelayElapsedCallback>
        HAL_TIM_PWM_PulseFinishedCallback(htim);
200012fc:	4620      	mov	r0, r4
200012fe:	f7ff ff6c 	bl	200011da <HAL_TIM_PWM_PulseFinishedCallback>
20001302:	e79b      	b.n	2000123c <HAL_TIM_IRQHandler+0x5e>
        HAL_TIM_OC_DelayElapsedCallback(htim);
20001304:	4620      	mov	r0, r4
20001306:	f7ff ff66 	bl	200011d6 <HAL_TIM_OC_DelayElapsedCallback>
        HAL_TIM_PWM_PulseFinishedCallback(htim); 
2000130a:	4620      	mov	r0, r4
2000130c:	f7ff ff65 	bl	200011da <HAL_TIM_PWM_PulseFinishedCallback>
20001310:	e7ac      	b.n	2000126c <HAL_TIM_IRQHandler+0x8e>
        HAL_TIM_OC_DelayElapsedCallback(htim);
20001312:	4620      	mov	r0, r4
20001314:	f7ff ff5f 	bl	200011d6 <HAL_TIM_OC_DelayElapsedCallback>
        HAL_TIM_PWM_PulseFinishedCallback(htim);
20001318:	4620      	mov	r0, r4
2000131a:	f7ff ff5e 	bl	200011da <HAL_TIM_PWM_PulseFinishedCallback>
2000131e:	e7bd      	b.n	2000129c <HAL_TIM_IRQHandler+0xbe>
      __HAL_TIM_CLEAR_IT(htim, TIM_IT_UPDATE);
20001320:	f06f 0201 	mvn.w	r2, #1
20001324:	611a      	str	r2, [r3, #16]
      HAL_TIM_PeriodElapsedCallback(htim);
20001326:	4620      	mov	r0, r4
20001328:	f003 fdb0 	bl	20004e8c <HAL_TIM_PeriodElapsedCallback>
2000132c:	e7c1      	b.n	200012b2 <HAL_TIM_IRQHandler+0xd4>
      __HAL_TIM_CLEAR_IT(htim, TIM_IT_BREAK);
2000132e:	f06f 0280 	mvn.w	r2, #128	; 0x80
20001332:	611a      	str	r2, [r3, #16]
      HAL_TIMEx_BreakCallback(htim);
20001334:	4620      	mov	r0, r4
20001336:	f000 f8b7 	bl	200014a8 <HAL_TIMEx_BreakCallback>
2000133a:	e7c3      	b.n	200012c4 <HAL_TIM_IRQHandler+0xe6>
      __HAL_TIM_CLEAR_IT(htim, TIM_IT_TRIGGER);
2000133c:	f06f 0240 	mvn.w	r2, #64	; 0x40
20001340:	611a      	str	r2, [r3, #16]
      HAL_TIM_TriggerCallback(htim);
20001342:	4620      	mov	r0, r4
20001344:	f7ff ff4a 	bl	200011dc <HAL_TIM_TriggerCallback>
20001348:	e7c5      	b.n	200012d6 <HAL_TIM_IRQHandler+0xf8>
      __HAL_TIM_CLEAR_IT(htim, TIM_FLAG_COM);
2000134a:	f06f 0220 	mvn.w	r2, #32
2000134e:	611a      	str	r2, [r3, #16]
      HAL_TIMEx_CommutationCallback(htim);
20001350:	4620      	mov	r0, r4
20001352:	f000 f8a8 	bl	200014a6 <HAL_TIMEx_CommutationCallback>
}
20001356:	e7c7      	b.n	200012e8 <HAL_TIM_IRQHandler+0x10a>

20001358 <TIM_Base_SetConfig>:
  * @retval None
  */
void TIM_Base_SetConfig(TIM_TypeDef *TIMx, TIM_Base_InitTypeDef *Structure)
{
  uint32_t tmpcr1 = 0U;
  tmpcr1 = TIMx->CR1;
20001358:	6803      	ldr	r3, [r0, #0]
  
  /* Set TIM Time Base Unit parameters ---------------------------------------*/
  if(IS_TIM_CC3_INSTANCE(TIMx) != RESET)   
2000135a:	4a45      	ldr	r2, [pc, #276]	; (20001470 <TIM_Base_SetConfig+0x118>)
2000135c:	4290      	cmp	r0, r2
2000135e:	d04a      	beq.n	200013f6 <TIM_Base_SetConfig+0x9e>
20001360:	f1b0 4f80 	cmp.w	r0, #1073741824	; 0x40000000
20001364:	d049      	beq.n	200013fa <TIM_Base_SetConfig+0xa2>
20001366:	f5a2 427c 	sub.w	r2, r2, #64512	; 0xfc00
2000136a:	4290      	cmp	r0, r2
2000136c:	d047      	beq.n	200013fe <TIM_Base_SetConfig+0xa6>
2000136e:	f502 6280 	add.w	r2, r2, #1024	; 0x400
20001372:	4290      	cmp	r0, r2
20001374:	d045      	beq.n	20001402 <TIM_Base_SetConfig+0xaa>
20001376:	f502 6280 	add.w	r2, r2, #1024	; 0x400
2000137a:	4290      	cmp	r0, r2
2000137c:	d043      	beq.n	20001406 <TIM_Base_SetConfig+0xae>
2000137e:	f502 4278 	add.w	r2, r2, #63488	; 0xf800
20001382:	4290      	cmp	r0, r2
20001384:	d035      	beq.n	200013f2 <TIM_Base_SetConfig+0x9a>
20001386:	2200      	movs	r2, #0
20001388:	b11a      	cbz	r2, 20001392 <TIM_Base_SetConfig+0x3a>
  {
    /* Select the Counter Mode */
    tmpcr1 &= ~(TIM_CR1_DIR | TIM_CR1_CMS);
2000138a:	f023 0370 	bic.w	r3, r3, #112	; 0x70
    tmpcr1 |= Structure->CounterMode;
2000138e:	684a      	ldr	r2, [r1, #4]
20001390:	4313      	orrs	r3, r2
  }
 
  if(IS_TIM_CC1_INSTANCE(TIMx) != RESET)  
20001392:	4a37      	ldr	r2, [pc, #220]	; (20001470 <TIM_Base_SetConfig+0x118>)
20001394:	4290      	cmp	r0, r2
20001396:	d03a      	beq.n	2000140e <TIM_Base_SetConfig+0xb6>
20001398:	f1b0 4f80 	cmp.w	r0, #1073741824	; 0x40000000
2000139c:	d050      	beq.n	20001440 <TIM_Base_SetConfig+0xe8>
2000139e:	f5a2 427c 	sub.w	r2, r2, #64512	; 0xfc00
200013a2:	4290      	cmp	r0, r2
200013a4:	d04e      	beq.n	20001444 <TIM_Base_SetConfig+0xec>
200013a6:	f502 6280 	add.w	r2, r2, #1024	; 0x400
200013aa:	4290      	cmp	r0, r2
200013ac:	d04c      	beq.n	20001448 <TIM_Base_SetConfig+0xf0>
200013ae:	f502 6280 	add.w	r2, r2, #1024	; 0x400
200013b2:	4290      	cmp	r0, r2
200013b4:	d04a      	beq.n	2000144c <TIM_Base_SetConfig+0xf4>
200013b6:	f502 4278 	add.w	r2, r2, #63488	; 0xf800
200013ba:	4290      	cmp	r0, r2
200013bc:	d048      	beq.n	20001450 <TIM_Base_SetConfig+0xf8>
200013be:	f502 5270 	add.w	r2, r2, #15360	; 0x3c00
200013c2:	4290      	cmp	r0, r2
200013c4:	d046      	beq.n	20001454 <TIM_Base_SetConfig+0xfc>
200013c6:	f502 6280 	add.w	r2, r2, #1024	; 0x400
200013ca:	4290      	cmp	r0, r2
200013cc:	d044      	beq.n	20001458 <TIM_Base_SetConfig+0x100>
200013ce:	f502 6280 	add.w	r2, r2, #1024	; 0x400
200013d2:	4290      	cmp	r0, r2
200013d4:	d042      	beq.n	2000145c <TIM_Base_SetConfig+0x104>
200013d6:	f5a2 3298 	sub.w	r2, r2, #77824	; 0x13000
200013da:	4290      	cmp	r0, r2
200013dc:	d040      	beq.n	20001460 <TIM_Base_SetConfig+0x108>
200013de:	f502 6280 	add.w	r2, r2, #1024	; 0x400
200013e2:	4290      	cmp	r0, r2
200013e4:	d03e      	beq.n	20001464 <TIM_Base_SetConfig+0x10c>
200013e6:	f502 6280 	add.w	r2, r2, #1024	; 0x400
200013ea:	4290      	cmp	r0, r2
200013ec:	d00d      	beq.n	2000140a <TIM_Base_SetConfig+0xb2>
200013ee:	2200      	movs	r2, #0
200013f0:	e00e      	b.n	20001410 <TIM_Base_SetConfig+0xb8>
  if(IS_TIM_CC3_INSTANCE(TIMx) != RESET)   
200013f2:	2201      	movs	r2, #1
200013f4:	e7c8      	b.n	20001388 <TIM_Base_SetConfig+0x30>
200013f6:	2201      	movs	r2, #1
200013f8:	e7c6      	b.n	20001388 <TIM_Base_SetConfig+0x30>
200013fa:	2201      	movs	r2, #1
200013fc:	e7c4      	b.n	20001388 <TIM_Base_SetConfig+0x30>
200013fe:	2201      	movs	r2, #1
20001400:	e7c2      	b.n	20001388 <TIM_Base_SetConfig+0x30>
20001402:	2201      	movs	r2, #1
20001404:	e7c0      	b.n	20001388 <TIM_Base_SetConfig+0x30>
20001406:	2201      	movs	r2, #1
20001408:	e7be      	b.n	20001388 <TIM_Base_SetConfig+0x30>
  if(IS_TIM_CC1_INSTANCE(TIMx) != RESET)  
2000140a:	2201      	movs	r2, #1
2000140c:	e000      	b.n	20001410 <TIM_Base_SetConfig+0xb8>
2000140e:	2201      	movs	r2, #1
20001410:	b11a      	cbz	r2, 2000141a <TIM_Base_SetConfig+0xc2>
  {
    /* Set the clock division */
    tmpcr1 &= ~TIM_CR1_CKD;
20001412:	f423 7340 	bic.w	r3, r3, #768	; 0x300
    tmpcr1 |= (uint32_t)Structure->ClockDivision;
20001416:	68ca      	ldr	r2, [r1, #12]
20001418:	4313      	orrs	r3, r2
  }

  TIMx->CR1 = tmpcr1;
2000141a:	6003      	str	r3, [r0, #0]

  /* Set the Auto-reload value */
  TIMx->ARR = (uint32_t)Structure->Period ;
2000141c:	688b      	ldr	r3, [r1, #8]
2000141e:	62c3      	str	r3, [r0, #44]	; 0x2c
 
  /* Set the Prescaler value */
  TIMx->PSC = (uint32_t)Structure->Prescaler;
20001420:	680b      	ldr	r3, [r1, #0]
20001422:	6283      	str	r3, [r0, #40]	; 0x28
    
  if(IS_TIM_ADVANCED_INSTANCE(TIMx) != RESET)  
20001424:	4b12      	ldr	r3, [pc, #72]	; (20001470 <TIM_Base_SetConfig+0x118>)
20001426:	4298      	cmp	r0, r3
20001428:	d020      	beq.n	2000146c <TIM_Base_SetConfig+0x114>
2000142a:	f503 6380 	add.w	r3, r3, #1024	; 0x400
2000142e:	4298      	cmp	r0, r3
20001430:	d01a      	beq.n	20001468 <TIM_Base_SetConfig+0x110>
20001432:	2300      	movs	r3, #0
20001434:	b10b      	cbz	r3, 2000143a <TIM_Base_SetConfig+0xe2>
  {
    /* Set the Repetition Counter value */
    TIMx->RCR = Structure->RepetitionCounter;
20001436:	690b      	ldr	r3, [r1, #16]
20001438:	6303      	str	r3, [r0, #48]	; 0x30
  }

  /* Generate an update event to reload the Prescaler 
     and the repetition counter(only for TIM1 and TIM8) value immediately */
  TIMx->EGR = TIM_EGR_UG;
2000143a:	2301      	movs	r3, #1
2000143c:	6143      	str	r3, [r0, #20]
2000143e:	4770      	bx	lr
  if(IS_TIM_CC1_INSTANCE(TIMx) != RESET)  
20001440:	2201      	movs	r2, #1
20001442:	e7e5      	b.n	20001410 <TIM_Base_SetConfig+0xb8>
20001444:	2201      	movs	r2, #1
20001446:	e7e3      	b.n	20001410 <TIM_Base_SetConfig+0xb8>
20001448:	2201      	movs	r2, #1
2000144a:	e7e1      	b.n	20001410 <TIM_Base_SetConfig+0xb8>
2000144c:	2201      	movs	r2, #1
2000144e:	e7df      	b.n	20001410 <TIM_Base_SetConfig+0xb8>
20001450:	2201      	movs	r2, #1
20001452:	e7dd      	b.n	20001410 <TIM_Base_SetConfig+0xb8>
20001454:	2201      	movs	r2, #1
20001456:	e7db      	b.n	20001410 <TIM_Base_SetConfig+0xb8>
20001458:	2201      	movs	r2, #1
2000145a:	e7d9      	b.n	20001410 <TIM_Base_SetConfig+0xb8>
2000145c:	2201      	movs	r2, #1
2000145e:	e7d7      	b.n	20001410 <TIM_Base_SetConfig+0xb8>
20001460:	2201      	movs	r2, #1
20001462:	e7d5      	b.n	20001410 <TIM_Base_SetConfig+0xb8>
20001464:	2201      	movs	r2, #1
20001466:	e7d3      	b.n	20001410 <TIM_Base_SetConfig+0xb8>
  if(IS_TIM_ADVANCED_INSTANCE(TIMx) != RESET)  
20001468:	2301      	movs	r3, #1
2000146a:	e7e3      	b.n	20001434 <TIM_Base_SetConfig+0xdc>
2000146c:	2301      	movs	r3, #1
2000146e:	e7e1      	b.n	20001434 <TIM_Base_SetConfig+0xdc>
20001470:	40010000 	.word	0x40010000

20001474 <HAL_TIM_Base_Init>:
  if(htim == NULL)
20001474:	b1a8      	cbz	r0, 200014a2 <HAL_TIM_Base_Init+0x2e>
{ 
20001476:	b510      	push	{r4, lr}
20001478:	4604      	mov	r4, r0
  if(htim->State == HAL_TIM_STATE_RESET)
2000147a:	f890 3039 	ldrb.w	r3, [r0, #57]	; 0x39
2000147e:	b15b      	cbz	r3, 20001498 <HAL_TIM_Base_Init+0x24>
  htim->State= HAL_TIM_STATE_BUSY;
20001480:	2302      	movs	r3, #2
20001482:	f884 3039 	strb.w	r3, [r4, #57]	; 0x39
  TIM_Base_SetConfig(htim->Instance, &htim->Init); 
20001486:	1d21      	adds	r1, r4, #4
20001488:	6820      	ldr	r0, [r4, #0]
2000148a:	f7ff ff65 	bl	20001358 <TIM_Base_SetConfig>
  htim->State= HAL_TIM_STATE_READY;
2000148e:	2301      	movs	r3, #1
20001490:	f884 3039 	strb.w	r3, [r4, #57]	; 0x39
  return HAL_OK;
20001494:	2000      	movs	r0, #0
20001496:	bd10      	pop	{r4, pc}
    htim->Lock = HAL_UNLOCKED;
20001498:	f880 3038 	strb.w	r3, [r0, #56]	; 0x38
    HAL_TIM_Base_MspInit(htim);
2000149c:	f7ff fe8e 	bl	200011bc <HAL_TIM_Base_MspInit>
200014a0:	e7ee      	b.n	20001480 <HAL_TIM_Base_Init+0xc>
    return HAL_ERROR;
200014a2:	2001      	movs	r0, #1
200014a4:	4770      	bx	lr

200014a6 <HAL_TIMEx_CommutationCallback>:
  * @param  htim pointer to a TIM_HandleTypeDef structure that contains
  *                the configuration information for TIM module.
  * @retval None
  */
__weak void HAL_TIMEx_CommutationCallback(TIM_HandleTypeDef *htim)
{
200014a6:	4770      	bx	lr

200014a8 <HAL_TIMEx_BreakCallback>:
  * @param  htim pointer to a TIM_HandleTypeDef structure that contains
  *                the configuration information for TIM module.
  * @retval None
  */
__weak void HAL_TIMEx_BreakCallback(TIM_HandleTypeDef *htim)
{
200014a8:	4770      	bx	lr
	...

200014ac <FSMC_NORSRAM_Init>:
  * @param  Device Pointer to NORSRAM device instance
  * @param  Init Pointer to NORSRAM Initialization structure   
  * @retval HAL status
  */
HAL_StatusTypeDef  FSMC_NORSRAM_Init(FSMC_NORSRAM_TypeDef *Device, FSMC_NORSRAM_InitTypeDef* Init)
{ 
200014ac:	b470      	push	{r4, r5, r6}
  assert_param(IS_FSMC_WRITE_FIFO(Init->WriteFifo));
  assert_param(IS_FSMC_CONTINOUS_CLOCK(Init->ContinuousClock));
#endif /* STM32F412Zx || STM32F412Vx || STM32F413xx || STM32F423xx */
  
  /* Get the BTCR register value */
  tmpr = Device->BTCR[Init->NSBank];
200014ae:	680c      	ldr	r4, [r1, #0]
200014b0:	f850 3024 	ldr.w	r3, [r0, r4, lsl #2]

#if defined(STM32F405xx) || defined(STM32F415xx) || defined(STM32F407xx) || defined(STM32F417xx)
  /* Clear MBKEN, MUXEN, MTYP, MWID, FACCEN, BURSTEN, WAITPOL, WRAPMOD, WAITCFG, WREN,
           WAITEN, EXTMOD, ASYNCWAIT, CPSIZE and CBURSTRW bits */
  tmpr &= ((uint32_t)~(FSMC_BCR1_MBKEN     | FSMC_BCR1_MUXEN    | FSMC_BCR1_MTYP     | \
200014b4:	4a12      	ldr	r2, [pc, #72]	; (20001500 <FSMC_NORSRAM_Init+0x54>)
200014b6:	401a      	ands	r2, r3
                       FSMC_BCR1_MWID      | FSMC_BCR1_FACCEN   | FSMC_BCR1_BURSTEN  | \
                       FSMC_BCR1_WAITPOL   | FSMC_BCR1_WRAPMOD  | FSMC_BCR1_WAITCFG  | \
                       FSMC_BCR1_WREN      | FSMC_BCR1_WAITEN   | FSMC_BCR1_EXTMOD   | \
                       FSMC_BCR1_ASYNCWAIT | FSMC_BCR1_CPSIZE   | FSMC_BCR1_CBURSTRW));
  /* Set NORSRAM device control parameters */
  tmpr |= (uint32_t)(Init->DataAddressMux       |\
200014b8:	684b      	ldr	r3, [r1, #4]
                     Init->MemoryType           |\
200014ba:	688d      	ldr	r5, [r1, #8]
  tmpr |= (uint32_t)(Init->DataAddressMux       |\
200014bc:	432b      	orrs	r3, r5
                     Init->MemoryDataWidth      |\
200014be:	68ce      	ldr	r6, [r1, #12]
                     Init->MemoryType           |\
200014c0:	4333      	orrs	r3, r6
                     Init->BurstAccessMode      |\
200014c2:	690e      	ldr	r6, [r1, #16]
                     Init->MemoryDataWidth      |\
200014c4:	4333      	orrs	r3, r6
                     Init->WaitSignalPolarity   |\
200014c6:	694e      	ldr	r6, [r1, #20]
                     Init->BurstAccessMode      |\
200014c8:	4333      	orrs	r3, r6
                     Init->WrapMode             |\
200014ca:	698e      	ldr	r6, [r1, #24]
                     Init->WaitSignalPolarity   |\
200014cc:	4333      	orrs	r3, r6
                     Init->WaitSignalActive     |\
200014ce:	69ce      	ldr	r6, [r1, #28]
                     Init->WrapMode             |\
200014d0:	4333      	orrs	r3, r6
                     Init->WriteOperation       |\
200014d2:	6a0e      	ldr	r6, [r1, #32]
                     Init->WaitSignalActive     |\
200014d4:	4333      	orrs	r3, r6
                     Init->WaitSignal           |\
200014d6:	6a4e      	ldr	r6, [r1, #36]	; 0x24
                     Init->WriteOperation       |\
200014d8:	4333      	orrs	r3, r6
                     Init->ExtendedMode         |\
200014da:	6a8e      	ldr	r6, [r1, #40]	; 0x28
                     Init->WaitSignal           |\
200014dc:	4333      	orrs	r3, r6
                     Init->AsynchronousWait     |\
200014de:	6ace      	ldr	r6, [r1, #44]	; 0x2c
                     Init->ExtendedMode         |\
200014e0:	4333      	orrs	r3, r6
                     Init->PageSize             |\
200014e2:	6bce      	ldr	r6, [r1, #60]	; 0x3c
                     Init->AsynchronousWait     |\
200014e4:	4333      	orrs	r3, r6
                     Init->WriteBurst
200014e6:	6b09      	ldr	r1, [r1, #48]	; 0x30
                     Init->PageSize             |\
200014e8:	430b      	orrs	r3, r1
  tmpr |= (uint32_t)(Init->DataAddressMux       |\
200014ea:	4313      	orrs	r3, r2
                     Init->ContinuousClock      |\
                     Init->PageSize             |\
                     Init->WriteFifo);
#endif /* STM32F405xx || STM32F415xx || STM32F407xx || STM32F417xx */ 
            
  if(Init->MemoryType == FSMC_MEMORY_TYPE_NOR)
200014ec:	2d08      	cmp	r5, #8
200014ee:	d004      	beq.n	200014fa <FSMC_NORSRAM_Init+0x4e>
  {
    tmpr |= (uint32_t)FSMC_NORSRAM_FLASH_ACCESS_ENABLE;
  }

  Device->BTCR[Init->NSBank] = tmpr;
200014f0:	f840 3024 	str.w	r3, [r0, r4, lsl #2]
    Device->BTCR[FSMC_NORSRAM_BANK1] |= (uint32_t)(Init->WriteFifo);
  }
#endif /* STM32F412Zx || STM32F412Vx || STM32F412Rx || STM32F413xx || STM32F423xx */

  return HAL_OK;
}
200014f4:	2000      	movs	r0, #0
200014f6:	bc70      	pop	{r4, r5, r6}
200014f8:	4770      	bx	lr
    tmpr |= (uint32_t)FSMC_NORSRAM_FLASH_ACCESS_ENABLE;
200014fa:	f043 0340 	orr.w	r3, r3, #64	; 0x40
200014fe:	e7f7      	b.n	200014f0 <FSMC_NORSRAM_Init+0x44>
20001500:	fff00080 	.word	0xfff00080

20001504 <FSMC_NORSRAM_Timing_Init>:
  * @param  Timing Pointer to NORSRAM Timing structure
  * @param  Bank NORSRAM bank number  
  * @retval HAL status
  */
HAL_StatusTypeDef FSMC_NORSRAM_Timing_Init(FSMC_NORSRAM_TypeDef *Device, FSMC_NORSRAM_TimingTypeDef *Timing, uint32_t Bank)
{
20001504:	b430      	push	{r4, r5}
  assert_param(IS_FSMC_DATA_LATENCY(Timing->DataLatency));
  assert_param(IS_FSMC_ACCESS_MODE(Timing->AccessMode));
  assert_param(IS_FSMC_NORSRAM_BANK(Bank));
  
  /* Get the BTCR register value */
  tmpr = Device->BTCR[Bank + 1U];
20001506:	3201      	adds	r2, #1
20001508:	f850 4022 	ldr.w	r4, [r0, r2, lsl #2]

  /* Clear ADDSET, ADDHLD, DATAST, BUSTURN, CLKDIV, DATLAT and ACCMOD bits */
  tmpr &= ((uint32_t)~(FSMC_BTR1_ADDSET  | FSMC_BTR1_ADDHLD | FSMC_BTR1_DATAST | \
2000150c:	f004 4440 	and.w	r4, r4, #3221225472	; 0xc0000000
                       FSMC_BTR1_BUSTURN | FSMC_BTR1_CLKDIV | FSMC_BTR1_DATLAT | \
                       FSMC_BTR1_ACCMOD));
  
  /* Set FSMC_NORSRAM device timing parameters */  
  tmpr |= (uint32_t)(Timing->AddressSetupTime                  |\
20001510:	680b      	ldr	r3, [r1, #0]
                    ((Timing->AddressHoldTime) << 4U)          |\
20001512:	684d      	ldr	r5, [r1, #4]
  tmpr |= (uint32_t)(Timing->AddressSetupTime                  |\
20001514:	ea43 1305 	orr.w	r3, r3, r5, lsl #4
                    ((Timing->DataSetupTime) << 8U)            |\
20001518:	688d      	ldr	r5, [r1, #8]
                    ((Timing->AddressHoldTime) << 4U)          |\
2000151a:	ea43 2305 	orr.w	r3, r3, r5, lsl #8
                    ((Timing->BusTurnAroundDuration) << 16U)   |\
2000151e:	68cd      	ldr	r5, [r1, #12]
                    ((Timing->DataSetupTime) << 8U)            |\
20001520:	ea43 4305 	orr.w	r3, r3, r5, lsl #16
                    (((Timing->CLKDivision)-1U) << 20U)        |\
20001524:	690d      	ldr	r5, [r1, #16]
20001526:	3d01      	subs	r5, #1
                    ((Timing->BusTurnAroundDuration) << 16U)   |\
20001528:	ea43 5305 	orr.w	r3, r3, r5, lsl #20
                    (((Timing->DataLatency)-2U) << 24U)        |\
2000152c:	694d      	ldr	r5, [r1, #20]
2000152e:	3d02      	subs	r5, #2
                    (((Timing->CLKDivision)-1U) << 20U)        |\
20001530:	ea43 6305 	orr.w	r3, r3, r5, lsl #24
                    (Timing->AccessMode));
20001534:	6989      	ldr	r1, [r1, #24]
  tmpr |= (uint32_t)(Timing->AddressSetupTime                  |\
20001536:	430b      	orrs	r3, r1
20001538:	4323      	orrs	r3, r4
  
  Device->BTCR[Bank + 1] = tmpr; 
2000153a:	f840 3022 	str.w	r3, [r0, r2, lsl #2]
    Device->BTCR[FSMC_NORSRAM_BANK1 + 1U] = tmpr;
  }
#endif /* STM32F412Zx || STM32F412Vx || STM32F412Rx || STM32F413xx || STM32F423xx */

  return HAL_OK;
}
2000153e:	2000      	movs	r0, #0
20001540:	bc30      	pop	{r4, r5}
20001542:	4770      	bx	lr

20001544 <FSMC_NORSRAM_Extended_Timing_Init>:
  
  /* Check the parameters */
  assert_param(IS_FSMC_EXTENDED_MODE(ExtendedMode));

  /* Set NORSRAM device timing register for write configuration, if extended mode is used */
  if(ExtendedMode == FSMC_EXTENDED_MODE_ENABLE)
20001544:	f5b3 4f80 	cmp.w	r3, #16384	; 0x4000
20001548:	d005      	beq.n	20001556 <FSMC_NORSRAM_Extended_Timing_Init+0x12>
    
    Device->BWTR[Bank] = tmpr;
  }
  else                                        
  {
    Device->BWTR[Bank] = 0x0FFFFFFFU;
2000154a:	f06f 4370 	mvn.w	r3, #4026531840	; 0xf0000000
2000154e:	f840 3022 	str.w	r3, [r0, r2, lsl #2]
  }   
  
  return HAL_OK;  
}
20001552:	2000      	movs	r0, #0
20001554:	4770      	bx	lr
{
20001556:	b430      	push	{r4, r5}
    tmpr = Device->BWTR[Bank];
20001558:	f850 3022 	ldr.w	r3, [r0, r2, lsl #2]
    tmpr &= ((uint32_t)~(FSMC_BWTR1_ADDSET  | FSMC_BWTR1_ADDHLD | FSMC_BWTR1_DATAST | \
2000155c:	4c09      	ldr	r4, [pc, #36]	; (20001584 <FSMC_NORSRAM_Extended_Timing_Init+0x40>)
2000155e:	401c      	ands	r4, r3
    tmpr |= (uint32_t)(Timing->AddressSetupTime                  |\
20001560:	680b      	ldr	r3, [r1, #0]
                      ((Timing->AddressHoldTime) << 4U)          |\
20001562:	684d      	ldr	r5, [r1, #4]
    tmpr |= (uint32_t)(Timing->AddressSetupTime                  |\
20001564:	ea43 1305 	orr.w	r3, r3, r5, lsl #4
                      ((Timing->DataSetupTime) << 8U)            |\
20001568:	688d      	ldr	r5, [r1, #8]
                      ((Timing->AddressHoldTime) << 4U)          |\
2000156a:	ea43 2305 	orr.w	r3, r3, r5, lsl #8
                      ((Timing->BusTurnAroundDuration) << 16U)   |\
2000156e:	68cd      	ldr	r5, [r1, #12]
                      ((Timing->DataSetupTime) << 8U)            |\
20001570:	ea43 4305 	orr.w	r3, r3, r5, lsl #16
                      (Timing->AccessMode));
20001574:	6989      	ldr	r1, [r1, #24]
                      ((Timing->BusTurnAroundDuration) << 16U)   |\
20001576:	430b      	orrs	r3, r1
    tmpr |= (uint32_t)(Timing->AddressSetupTime                  |\
20001578:	4323      	orrs	r3, r4
    Device->BWTR[Bank] = tmpr;
2000157a:	f840 3022 	str.w	r3, [r0, r2, lsl #2]
}
2000157e:	2000      	movs	r0, #0
20001580:	bc30      	pop	{r4, r5}
20001582:	4770      	bx	lr
20001584:	cff00000 	.word	0xcff00000

20001588 <makeFreeRtosPriority>:
/* Convert from CMSIS type osPriority to FreeRTOS priority number */
static unsigned portBASE_TYPE makeFreeRtosPriority (osPriority priority)
{
  unsigned portBASE_TYPE fpriority = tskIDLE_PRIORITY;
  
  if (priority != osPriorityError) {
20001588:	2884      	cmp	r0, #132	; 0x84
2000158a:	d001      	beq.n	20001590 <makeFreeRtosPriority+0x8>
    fpriority += (priority - osPriorityIdle);
2000158c:	3003      	adds	r0, #3
2000158e:	4770      	bx	lr
  unsigned portBASE_TYPE fpriority = tskIDLE_PRIORITY;
20001590:	2000      	movs	r0, #0
  }
  
  return fpriority;
}
20001592:	4770      	bx	lr

20001594 <inHandlerMode>:
 */
__attribute__( ( always_inline ) ) __STATIC_INLINE uint32_t __get_IPSR(void)
{
  uint32_t result;

  __ASM volatile ("MRS %0, ipsr" : "=r" (result) );
20001594:	f3ef 8005 	mrs	r0, IPSR

/* Determine whether we are in thread mode or handler mode. */
static int inHandlerMode (void)
{
  return __get_IPSR() != 0;
}
20001598:	3000      	adds	r0, #0
2000159a:	bf18      	it	ne
2000159c:	2001      	movne	r0, #1
2000159e:	4770      	bx	lr

200015a0 <osKernelStart>:
* @param  argument      pointer that is passed to the thread function as start argument.
* @retval status code that indicates the execution status of the function
* @note   MUST REMAIN UNCHANGED: \b osKernelStart shall be consistent in every CMSIS-RTOS.
*/
osStatus osKernelStart (void)
{
200015a0:	b508      	push	{r3, lr}
  vTaskStartScheduler();
200015a2:	f001 f997 	bl	200028d4 <vTaskStartScheduler>
  
  return osOK;
}
200015a6:	2000      	movs	r0, #0
200015a8:	bd08      	pop	{r3, pc}

200015aa <osKernelSysTick>:
* @param  None
* @retval None
* @note   MUST REMAIN UNCHANGED: \b osKernelSysTick shall be consistent in every CMSIS-RTOS.
*/
uint32_t osKernelSysTick(void)
{
200015aa:	b508      	push	{r3, lr}
  if (inHandlerMode()) {
200015ac:	f7ff fff2 	bl	20001594 <inHandlerMode>
200015b0:	b910      	cbnz	r0, 200015b8 <osKernelSysTick+0xe>
    return xTaskGetTickCountFromISR();
  }
  else {
    return xTaskGetTickCount();
200015b2:	f001 f9d9 	bl	20002968 <xTaskGetTickCount>
  }
}
200015b6:	bd08      	pop	{r3, pc}
    return xTaskGetTickCountFromISR();
200015b8:	f001 f9dc 	bl	20002974 <xTaskGetTickCountFromISR>
200015bc:	bd08      	pop	{r3, pc}

200015be <osThreadCreate>:
* @param  argument      pointer that is passed to the thread function as start argument.
* @retval thread ID for reference by other functions or NULL in case of error.
* @note   MUST REMAIN UNCHANGED: \b osThreadCreate shall be consistent in every CMSIS-RTOS.
*/
osThreadId osThreadCreate (const osThreadDef_t *thread_def, void *argument)
{
200015be:	b5f0      	push	{r4, r5, r6, r7, lr}
200015c0:	b085      	sub	sp, #20
200015c2:	460f      	mov	r7, r1

    handle = xTaskCreateStatic((TaskFunction_t)thread_def->pthread,(const portCHAR *)thread_def->name,
              thread_def->stacksize, argument, makeFreeRtosPriority(thread_def->tpriority),
              thread_def->buffer, thread_def->controlblock);
#else
  if (xTaskCreate((TaskFunction_t)thread_def->pthread,(const portCHAR *)thread_def->name,
200015c4:	6844      	ldr	r4, [r0, #4]
200015c6:	6805      	ldr	r5, [r0, #0]
                   thread_def->stacksize, argument, makeFreeRtosPriority(thread_def->tpriority),
200015c8:	6906      	ldr	r6, [r0, #16]
  if (xTaskCreate((TaskFunction_t)thread_def->pthread,(const portCHAR *)thread_def->name,
200015ca:	f9b0 0008 	ldrsh.w	r0, [r0, #8]
200015ce:	f7ff ffdb 	bl	20001588 <makeFreeRtosPriority>
200015d2:	ab03      	add	r3, sp, #12
200015d4:	9301      	str	r3, [sp, #4]
200015d6:	9000      	str	r0, [sp, #0]
200015d8:	463b      	mov	r3, r7
200015da:	b2b2      	uxth	r2, r6
200015dc:	4629      	mov	r1, r5
200015de:	4620      	mov	r0, r4
200015e0:	f001 f946 	bl	20002870 <xTaskCreate>
200015e4:	2801      	cmp	r0, #1
200015e6:	d102      	bne.n	200015ee <osThreadCreate+0x30>
                   &handle) != pdPASS)  {
    return NULL;
  }     
#endif
  
  return handle;
200015e8:	9803      	ldr	r0, [sp, #12]
}
200015ea:	b005      	add	sp, #20
200015ec:	bdf0      	pop	{r4, r5, r6, r7, pc}
    return NULL;
200015ee:	2000      	movs	r0, #0
200015f0:	e7fb      	b.n	200015ea <osThreadCreate+0x2c>

200015f2 <osDelay>:
* @brief   Wait for Timeout (Time Delay)
* @param   millisec      time delay value
* @retval  status code that indicates the execution status of the function.
*/
osStatus osDelay (uint32_t millisec)
{
200015f2:	b508      	push	{r3, lr}
#if INCLUDE_vTaskDelay
  TickType_t ticks = millisec / portTICK_PERIOD_MS;
  
  vTaskDelay(ticks ? ticks : 1);          /* Minimum delay = 1 tick */
200015f4:	4603      	mov	r3, r0
200015f6:	b900      	cbnz	r0, 200015fa <osDelay+0x8>
200015f8:	2301      	movs	r3, #1
200015fa:	4618      	mov	r0, r3
200015fc:	f001 fad0 	bl	20002ba0 <vTaskDelay>
#else
  (void) millisec;
  
  return osErrorResource;
#endif
}
20001600:	2000      	movs	r0, #0
20001602:	bd08      	pop	{r3, pc}

20001604 <osTimerCreate>:
* @param  argument      argument to the timer call back function.
* @retval  timer ID for reference by other functions or NULL in case of error.
* @note   MUST REMAIN UNCHANGED: \b osTimerCreate shall be consistent in every CMSIS-RTOS.
*/
osTimerId osTimerCreate (const osTimerDef_t *timer_def, os_timer_type type, void *argument)
{
20001604:	b500      	push	{lr}
20001606:	b083      	sub	sp, #12
20001608:	4613      	mov	r3, r2
                      (type == osTimerPeriodic) ? pdTRUE : pdFALSE,
                      (void *) argument,
                      (TaskFunction_t)timer_def->ptimer,
                      (StaticTimer_t *)timer_def->controlblock);  
#else
  return xTimerCreate((const char *)"",
2000160a:	2901      	cmp	r1, #1
2000160c:	d009      	beq.n	20001622 <osTimerCreate+0x1e>
2000160e:	2200      	movs	r2, #0
                      1, // period should be filled when starting the Timer using osTimerStart
                      (type == osTimerPeriodic) ? pdTRUE : pdFALSE,
                      (void *) argument,
                      (TaskFunction_t)timer_def->ptimer);
20001610:	6801      	ldr	r1, [r0, #0]
  return xTimerCreate((const char *)"",
20001612:	9100      	str	r1, [sp, #0]
20001614:	2101      	movs	r1, #1
20001616:	4804      	ldr	r0, [pc, #16]	; (20001628 <osTimerCreate+0x24>)
20001618:	f001 fdc6 	bl	200031a8 <xTimerCreate>
#endif

#else 
	return NULL;
#endif
}
2000161c:	b003      	add	sp, #12
2000161e:	f85d fb04 	ldr.w	pc, [sp], #4
  return xTimerCreate((const char *)"",
20001622:	2201      	movs	r2, #1
20001624:	e7f4      	b.n	20001610 <osTimerCreate+0xc>
20001626:	bf00      	nop
20001628:	20006490 	.word	0x20006490

2000162c <osTimerStart>:
* @param  millisec      time delay value of the timer.
* @retval  status code that indicates the execution status of the function
* @note   MUST REMAIN UNCHANGED: \b osTimerStart shall be consistent in every CMSIS-RTOS.
*/
osStatus osTimerStart (osTimerId timer_id, uint32_t millisec)
{
2000162c:	b530      	push	{r4, r5, lr}
2000162e:	b085      	sub	sp, #20
20001630:	4605      	mov	r5, r0
  osStatus result = osOK;
#if (configUSE_TIMERS == 1)  
  portBASE_TYPE taskWoken = pdFALSE;
20001632:	2300      	movs	r3, #0
20001634:	9303      	str	r3, [sp, #12]
  TickType_t ticks = millisec / portTICK_PERIOD_MS;

  if (ticks == 0)
20001636:	460c      	mov	r4, r1
20001638:	b901      	cbnz	r1, 2000163c <osTimerStart+0x10>
    ticks = 1;
2000163a:	2401      	movs	r4, #1
    
  if (inHandlerMode()) 
2000163c:	f7ff ffaa 	bl	20001594 <inHandlerMode>
20001640:	b1c0      	cbz	r0, 20001674 <osTimerStart+0x48>
  {
    if (xTimerChangePeriodFromISR(timer_id, ticks, &taskWoken) != pdPASS)
20001642:	2300      	movs	r3, #0
20001644:	9300      	str	r3, [sp, #0]
20001646:	ab03      	add	r3, sp, #12
20001648:	4622      	mov	r2, r4
2000164a:	2109      	movs	r1, #9
2000164c:	4628      	mov	r0, r5
2000164e:	f001 fdc5 	bl	200031dc <xTimerGenericCommand>
20001652:	2801      	cmp	r0, #1
20001654:	d002      	beq.n	2000165c <osTimerStart+0x30>
    {
      result = osErrorOS;
20001656:	20ff      	movs	r0, #255	; 0xff

#else 
  result = osErrorOS;
#endif
  return result;
}
20001658:	b005      	add	sp, #20
2000165a:	bd30      	pop	{r4, r5, pc}
      portEND_SWITCHING_ISR(taskWoken);     
2000165c:	9b03      	ldr	r3, [sp, #12]
2000165e:	b1b3      	cbz	r3, 2000168e <osTimerStart+0x62>
20001660:	f04f 5280 	mov.w	r2, #268435456	; 0x10000000
20001664:	4b0b      	ldr	r3, [pc, #44]	; (20001694 <osTimerStart+0x68>)
20001666:	601a      	str	r2, [r3, #0]
20001668:	f3bf 8f4f 	dsb	sy
2000166c:	f3bf 8f6f 	isb	sy
  osStatus result = osOK;
20001670:	2000      	movs	r0, #0
20001672:	e7f1      	b.n	20001658 <osTimerStart+0x2c>
    if (xTimerChangePeriod(timer_id, ticks, 0) != pdPASS)
20001674:	2300      	movs	r3, #0
20001676:	9300      	str	r3, [sp, #0]
20001678:	4622      	mov	r2, r4
2000167a:	2104      	movs	r1, #4
2000167c:	4628      	mov	r0, r5
2000167e:	f001 fdad 	bl	200031dc <xTimerGenericCommand>
20001682:	2801      	cmp	r0, #1
20001684:	d001      	beq.n	2000168a <osTimerStart+0x5e>
      result = osErrorOS;
20001686:	20ff      	movs	r0, #255	; 0xff
  return result;
20001688:	e7e6      	b.n	20001658 <osTimerStart+0x2c>
  osStatus result = osOK;
2000168a:	2000      	movs	r0, #0
2000168c:	e7e4      	b.n	20001658 <osTimerStart+0x2c>
2000168e:	2000      	movs	r0, #0
20001690:	e7e2      	b.n	20001658 <osTimerStart+0x2c>
20001692:	bf00      	nop
20001694:	e000ed04 	.word	0xe000ed04

20001698 <osMutexCreate>:
* @param  mutex_def     mutex definition referenced with \ref osMutex.
* @retval  mutex ID for reference by other functions or NULL in case of error.
* @note   MUST REMAIN UNCHANGED: \b osMutexCreate shall be consistent in every CMSIS-RTOS.
*/
osMutexId osMutexCreate (const osMutexDef_t *mutex_def)
{
20001698:	b508      	push	{r3, lr}
    return xSemaphoreCreateMutex(); 
  }
#elif ( configSUPPORT_STATIC_ALLOCATION == 1 )
  return xSemaphoreCreateMutexStatic( mutex_def->controlblock );
#else  
    return xSemaphoreCreateMutex(); 
2000169a:	2001      	movs	r0, #1
2000169c:	f000 fd66 	bl	2000216c <xQueueCreateMutex>
#endif
#else
  return NULL;
#endif
}
200016a0:	bd08      	pop	{r3, pc}

200016a2 <osSemaphoreCreate>:
* @param count         number of available resources.
* @retval  semaphore ID for reference by other functions or NULL in case of error.
* @note   MUST REMAIN UNCHANGED: \b osSemaphoreCreate shall be consistent in every CMSIS-RTOS.
*/
osSemaphoreId osSemaphoreCreate (const osSemaphoreDef_t *semaphore_def, int32_t count)
{ 
200016a2:	b510      	push	{r4, lr}
#endif    
  }
#else  // configSUPPORT_STATIC_ALLOCATION == 0  && configSUPPORT_DYNAMIC_ALLOCATION == 1
  osSemaphoreId sema;
 
  if (count == 1) {
200016a4:	2901      	cmp	r1, #1
200016a6:	d10d      	bne.n	200016c4 <osSemaphoreCreate+0x22>
    vSemaphoreCreateBinary(sema);
200016a8:	2203      	movs	r2, #3
200016aa:	2100      	movs	r1, #0
200016ac:	2001      	movs	r0, #1
200016ae:	f000 fc69 	bl	20001f84 <xQueueGenericCreate>
200016b2:	4604      	mov	r4, r0
200016b4:	b120      	cbz	r0, 200016c0 <osSemaphoreCreate+0x1e>
200016b6:	2300      	movs	r3, #0
200016b8:	461a      	mov	r2, r3
200016ba:	4619      	mov	r1, r3
200016bc:	f000 fc86 	bl	20001fcc <xQueueGenericSend>
#else
    return NULL;
#endif
  }
#endif
}
200016c0:	4620      	mov	r0, r4
200016c2:	bd10      	pop	{r4, pc}
    return NULL;
200016c4:	2400      	movs	r4, #0
200016c6:	e7fb      	b.n	200016c0 <osSemaphoreCreate+0x1e>

200016c8 <osSemaphoreWait>:
* @param  millisec      timeout value or 0 in case of no time-out.
* @retval  number of available tokens, or -1 in case of incorrect parameters.
* @note   MUST REMAIN UNCHANGED: \b osSemaphoreWait shall be consistent in every CMSIS-RTOS.
*/
int32_t osSemaphoreWait (osSemaphoreId semaphore_id, uint32_t millisec)
{
200016c8:	b530      	push	{r4, r5, lr}
200016ca:	b083      	sub	sp, #12
  TickType_t ticks;
  portBASE_TYPE taskWoken = pdFALSE;  
200016cc:	2300      	movs	r3, #0
200016ce:	9301      	str	r3, [sp, #4]
  
  
  if (semaphore_id == NULL) {
200016d0:	b360      	cbz	r0, 2000172c <osSemaphoreWait+0x64>
200016d2:	460c      	mov	r4, r1
200016d4:	4605      	mov	r5, r0
    return osErrorParameter;
  }
  
  ticks = 0;
  if (millisec == osWaitForever) {
200016d6:	f1b1 3fff 	cmp.w	r1, #4294967295
200016da:	d00d      	beq.n	200016f8 <osSemaphoreWait+0x30>
    ticks = portMAX_DELAY;
  }
  else if (millisec != 0) {
200016dc:	b901      	cbnz	r1, 200016e0 <osSemaphoreWait+0x18>
  ticks = 0;
200016de:	461c      	mov	r4, r3
    if (ticks == 0) {
      ticks = 1;
    }
  }
  
  if (inHandlerMode()) {
200016e0:	f7ff ff58 	bl	20001594 <inHandlerMode>
200016e4:	b1b8      	cbz	r0, 20001716 <osSemaphoreWait+0x4e>
    if (xSemaphoreTakeFromISR(semaphore_id, &taskWoken) != pdTRUE) {
200016e6:	aa01      	add	r2, sp, #4
200016e8:	2100      	movs	r1, #0
200016ea:	4628      	mov	r0, r5
200016ec:	f000 feee 	bl	200024cc <xQueueReceiveFromISR>
200016f0:	2801      	cmp	r0, #1
200016f2:	d004      	beq.n	200016fe <osSemaphoreWait+0x36>
      return osErrorOS;
200016f4:	20ff      	movs	r0, #255	; 0xff
200016f6:	e017      	b.n	20001728 <osSemaphoreWait+0x60>
    ticks = portMAX_DELAY;
200016f8:	f04f 34ff 	mov.w	r4, #4294967295
200016fc:	e7f0      	b.n	200016e0 <osSemaphoreWait+0x18>
    }
	portEND_SWITCHING_ISR(taskWoken);
200016fe:	9b01      	ldr	r3, [sp, #4]
20001700:	b1b3      	cbz	r3, 20001730 <osSemaphoreWait+0x68>
20001702:	f04f 5280 	mov.w	r2, #268435456	; 0x10000000
20001706:	4b0c      	ldr	r3, [pc, #48]	; (20001738 <osSemaphoreWait+0x70>)
20001708:	601a      	str	r2, [r3, #0]
2000170a:	f3bf 8f4f 	dsb	sy
2000170e:	f3bf 8f6f 	isb	sy
  }  
  else if (xSemaphoreTake(semaphore_id, ticks) != pdTRUE) {
    return osErrorOS;
  }
  
  return osOK;
20001712:	2000      	movs	r0, #0
20001714:	e008      	b.n	20001728 <osSemaphoreWait+0x60>
  else if (xSemaphoreTake(semaphore_id, ticks) != pdTRUE) {
20001716:	2300      	movs	r3, #0
20001718:	4622      	mov	r2, r4
2000171a:	4619      	mov	r1, r3
2000171c:	4628      	mov	r0, r5
2000171e:	f000 fdfd 	bl	2000231c <xQueueGenericReceive>
20001722:	2801      	cmp	r0, #1
20001724:	d006      	beq.n	20001734 <osSemaphoreWait+0x6c>
    return osErrorOS;
20001726:	20ff      	movs	r0, #255	; 0xff
}
20001728:	b003      	add	sp, #12
2000172a:	bd30      	pop	{r4, r5, pc}
    return osErrorParameter;
2000172c:	2080      	movs	r0, #128	; 0x80
2000172e:	e7fb      	b.n	20001728 <osSemaphoreWait+0x60>
  return osOK;
20001730:	2000      	movs	r0, #0
20001732:	e7f9      	b.n	20001728 <osSemaphoreWait+0x60>
20001734:	2000      	movs	r0, #0
20001736:	e7f7      	b.n	20001728 <osSemaphoreWait+0x60>
20001738:	e000ed04 	.word	0xe000ed04

2000173c <osSemaphoreRelease>:
* @param  semaphore_id  semaphore object referenced with \ref osSemaphore.
* @retval  status code that indicates the execution status of the function.
* @note   MUST REMAIN UNCHANGED: \b osSemaphoreRelease shall be consistent in every CMSIS-RTOS.
*/
osStatus osSemaphoreRelease (osSemaphoreId semaphore_id)
{
2000173c:	b510      	push	{r4, lr}
2000173e:	b082      	sub	sp, #8
20001740:	4604      	mov	r4, r0
  osStatus result = osOK;
  portBASE_TYPE taskWoken = pdFALSE;
20001742:	2300      	movs	r3, #0
20001744:	9301      	str	r3, [sp, #4]
  
  
  if (inHandlerMode()) {
20001746:	f7ff ff25 	bl	20001594 <inHandlerMode>
2000174a:	b1a0      	cbz	r0, 20001776 <osSemaphoreRelease+0x3a>
    if (xSemaphoreGiveFromISR(semaphore_id, &taskWoken) != pdTRUE) {
2000174c:	a901      	add	r1, sp, #4
2000174e:	4620      	mov	r0, r4
20001750:	f000 fd86 	bl	20002260 <xQueueGiveFromISR>
20001754:	2801      	cmp	r0, #1
20001756:	d002      	beq.n	2000175e <osSemaphoreRelease+0x22>
      return osErrorOS;
20001758:	20ff      	movs	r0, #255	; 0xff
      result = osErrorOS;
    }
  }
  
  return result;
}
2000175a:	b002      	add	sp, #8
2000175c:	bd10      	pop	{r4, pc}
    portEND_SWITCHING_ISR(taskWoken);
2000175e:	9b01      	ldr	r3, [sp, #4]
20001760:	b1ab      	cbz	r3, 2000178e <osSemaphoreRelease+0x52>
20001762:	f04f 5280 	mov.w	r2, #268435456	; 0x10000000
20001766:	4b0b      	ldr	r3, [pc, #44]	; (20001794 <osSemaphoreRelease+0x58>)
20001768:	601a      	str	r2, [r3, #0]
2000176a:	f3bf 8f4f 	dsb	sy
2000176e:	f3bf 8f6f 	isb	sy
  osStatus result = osOK;
20001772:	2000      	movs	r0, #0
20001774:	e7f1      	b.n	2000175a <osSemaphoreRelease+0x1e>
    if (xSemaphoreGive(semaphore_id) != pdTRUE) {
20001776:	2300      	movs	r3, #0
20001778:	461a      	mov	r2, r3
2000177a:	4619      	mov	r1, r3
2000177c:	4620      	mov	r0, r4
2000177e:	f000 fc25 	bl	20001fcc <xQueueGenericSend>
20001782:	2801      	cmp	r0, #1
20001784:	d001      	beq.n	2000178a <osSemaphoreRelease+0x4e>
      result = osErrorOS;
20001786:	20ff      	movs	r0, #255	; 0xff
20001788:	e7e7      	b.n	2000175a <osSemaphoreRelease+0x1e>
  osStatus result = osOK;
2000178a:	2000      	movs	r0, #0
2000178c:	e7e5      	b.n	2000175a <osSemaphoreRelease+0x1e>
2000178e:	2000      	movs	r0, #0
20001790:	e7e3      	b.n	2000175a <osSemaphoreRelease+0x1e>
20001792:	bf00      	nop
20001794:	e000ed04 	.word	0xe000ed04

20001798 <osSystickHandler>:
* @brief  Handles the tick increment
* @param  none.
* @retval none.
*/
void osSystickHandler(void)
{
20001798:	b508      	push	{r3, lr}

#if (INCLUDE_xTaskGetSchedulerState  == 1 )
  if (xTaskGetSchedulerState() != taskSCHEDULER_NOT_STARTED)
2000179a:	f001 fb8f 	bl	20002ebc <xTaskGetSchedulerState>
2000179e:	2801      	cmp	r0, #1
200017a0:	d001      	beq.n	200017a6 <osSystickHandler+0xe>
  {
#endif  /* INCLUDE_xTaskGetSchedulerState */  
    xPortSysTickHandler();
200017a2:	f000 f917 	bl	200019d4 <xPortSysTickHandler>
200017a6:	bd08      	pop	{r3, pc}

200017a8 <vListInitialise>:
void vListInitialise( List_t * const pxList )
{
	/* The list structure contains a list item which is used to mark the
	end of the list.  To initialise the list the list end is inserted
	as the only list entry. */
	pxList->pxIndex = ( ListItem_t * ) &( pxList->xListEnd );			/*lint !e826 !e740 The mini list structure is used as the list end to save RAM.  This is checked and valid. */
200017a8:	f100 0308 	add.w	r3, r0, #8
200017ac:	6043      	str	r3, [r0, #4]

	/* The list end value is the highest possible value in the list to
	ensure it remains at the end of the list. */
	pxList->xListEnd.xItemValue = portMAX_DELAY;
200017ae:	f04f 32ff 	mov.w	r2, #4294967295
200017b2:	6082      	str	r2, [r0, #8]

	/* The list end next and previous pointers point to itself so we know
	when the list is empty. */
	pxList->xListEnd.pxNext = ( ListItem_t * ) &( pxList->xListEnd );	/*lint !e826 !e740 The mini list structure is used as the list end to save RAM.  This is checked and valid. */
200017b4:	60c3      	str	r3, [r0, #12]
	pxList->xListEnd.pxPrevious = ( ListItem_t * ) &( pxList->xListEnd );/*lint !e826 !e740 The mini list structure is used as the list end to save RAM.  This is checked and valid. */
200017b6:	6103      	str	r3, [r0, #16]

	pxList->uxNumberOfItems = ( UBaseType_t ) 0U;
200017b8:	2300      	movs	r3, #0
200017ba:	6003      	str	r3, [r0, #0]
200017bc:	4770      	bx	lr

200017be <vListInitialiseItem>:
/*-----------------------------------------------------------*/

void vListInitialiseItem( ListItem_t * const pxItem )
{
	/* Make sure the list item is not recorded as being on a list. */
	pxItem->pvContainer = NULL;
200017be:	2300      	movs	r3, #0
200017c0:	6103      	str	r3, [r0, #16]
200017c2:	4770      	bx	lr

200017c4 <vListInsertEnd>:
}
/*-----------------------------------------------------------*/

void vListInsertEnd( List_t * const pxList, ListItem_t * const pxNewListItem )
{
ListItem_t * const pxIndex = pxList->pxIndex;
200017c4:	6843      	ldr	r3, [r0, #4]
	listTEST_LIST_ITEM_INTEGRITY( pxNewListItem );

	/* Insert a new list item into pxList, but rather than sort the list,
	makes the new list item the last item to be removed by a call to
	listGET_OWNER_OF_NEXT_ENTRY(). */
	pxNewListItem->pxNext = pxIndex;
200017c6:	604b      	str	r3, [r1, #4]
	pxNewListItem->pxPrevious = pxIndex->pxPrevious;
200017c8:	689a      	ldr	r2, [r3, #8]
200017ca:	608a      	str	r2, [r1, #8]

	/* Only used during decision coverage testing. */
	mtCOVERAGE_TEST_DELAY();

	pxIndex->pxPrevious->pxNext = pxNewListItem;
200017cc:	689a      	ldr	r2, [r3, #8]
200017ce:	6051      	str	r1, [r2, #4]
	pxIndex->pxPrevious = pxNewListItem;
200017d0:	6099      	str	r1, [r3, #8]

	/* Remember which list the item is in. */
	pxNewListItem->pvContainer = ( void * ) pxList;
200017d2:	6108      	str	r0, [r1, #16]

	( pxList->uxNumberOfItems )++;
200017d4:	6803      	ldr	r3, [r0, #0]
200017d6:	3301      	adds	r3, #1
200017d8:	6003      	str	r3, [r0, #0]
200017da:	4770      	bx	lr

200017dc <vListInsert>:
}
/*-----------------------------------------------------------*/

void vListInsert( List_t * const pxList, ListItem_t * const pxNewListItem )
{
200017dc:	b430      	push	{r4, r5}
ListItem_t *pxIterator;
const TickType_t xValueOfInsertion = pxNewListItem->xItemValue;
200017de:	680d      	ldr	r5, [r1, #0]
	new list item should be placed after it.  This ensures that TCB's which are
	stored in ready lists (all of which have the same xItemValue value) get a
	share of the CPU.  However, if the xItemValue is the same as the back marker
	the iteration loop below will not end.  Therefore the value is checked
	first, and the algorithm slightly modified if necessary. */
	if( xValueOfInsertion == portMAX_DELAY )
200017e0:	f1b5 3fff 	cmp.w	r5, #4294967295
200017e4:	d002      	beq.n	200017ec <vListInsert+0x10>
			4) Using a queue or semaphore before it has been initialised or
			   before the scheduler has been started (are interrupts firing
			   before vTaskStartScheduler() has been called?).
		**********************************************************************/

		for( pxIterator = ( ListItem_t * ) &( pxList->xListEnd ); pxIterator->pxNext->xItemValue <= xValueOfInsertion; pxIterator = pxIterator->pxNext ) /*lint !e826 !e740 The mini list structure is used as the list end to save RAM.  This is checked and valid. */
200017e6:	f100 0208 	add.w	r2, r0, #8
200017ea:	e002      	b.n	200017f2 <vListInsert+0x16>
		pxIterator = pxList->xListEnd.pxPrevious;
200017ec:	6902      	ldr	r2, [r0, #16]
200017ee:	e004      	b.n	200017fa <vListInsert+0x1e>
		for( pxIterator = ( ListItem_t * ) &( pxList->xListEnd ); pxIterator->pxNext->xItemValue <= xValueOfInsertion; pxIterator = pxIterator->pxNext ) /*lint !e826 !e740 The mini list structure is used as the list end to save RAM.  This is checked and valid. */
200017f0:	461a      	mov	r2, r3
200017f2:	6853      	ldr	r3, [r2, #4]
200017f4:	681c      	ldr	r4, [r3, #0]
200017f6:	42a5      	cmp	r5, r4
200017f8:	d2fa      	bcs.n	200017f0 <vListInsert+0x14>
			/* There is nothing to do here, just iterating to the wanted
			insertion position. */
		}
	}

	pxNewListItem->pxNext = pxIterator->pxNext;
200017fa:	6853      	ldr	r3, [r2, #4]
200017fc:	604b      	str	r3, [r1, #4]
	pxNewListItem->pxNext->pxPrevious = pxNewListItem;
200017fe:	6099      	str	r1, [r3, #8]
	pxNewListItem->pxPrevious = pxIterator;
20001800:	608a      	str	r2, [r1, #8]
	pxIterator->pxNext = pxNewListItem;
20001802:	6051      	str	r1, [r2, #4]

	/* Remember which list the item is in.  This allows fast removal of the
	item later. */
	pxNewListItem->pvContainer = ( void * ) pxList;
20001804:	6108      	str	r0, [r1, #16]

	( pxList->uxNumberOfItems )++;
20001806:	6803      	ldr	r3, [r0, #0]
20001808:	3301      	adds	r3, #1
2000180a:	6003      	str	r3, [r0, #0]
}
2000180c:	bc30      	pop	{r4, r5}
2000180e:	4770      	bx	lr

20001810 <uxListRemove>:

UBaseType_t uxListRemove( ListItem_t * const pxItemToRemove )
{
/* The list item knows which list it is in.  Obtain the list from the list
item. */
List_t * const pxList = ( List_t * ) pxItemToRemove->pvContainer;
20001810:	6903      	ldr	r3, [r0, #16]

	pxItemToRemove->pxNext->pxPrevious = pxItemToRemove->pxPrevious;
20001812:	6842      	ldr	r2, [r0, #4]
20001814:	6881      	ldr	r1, [r0, #8]
20001816:	6091      	str	r1, [r2, #8]
	pxItemToRemove->pxPrevious->pxNext = pxItemToRemove->pxNext;
20001818:	6882      	ldr	r2, [r0, #8]
2000181a:	6841      	ldr	r1, [r0, #4]
2000181c:	6051      	str	r1, [r2, #4]

	/* Only used during decision coverage testing. */
	mtCOVERAGE_TEST_DELAY();

	/* Make sure the index is left pointing to a valid item. */
	if( pxList->pxIndex == pxItemToRemove )
2000181e:	685a      	ldr	r2, [r3, #4]
20001820:	4290      	cmp	r0, r2
20001822:	d005      	beq.n	20001830 <uxListRemove+0x20>
	else
	{
		mtCOVERAGE_TEST_MARKER();
	}

	pxItemToRemove->pvContainer = NULL;
20001824:	2200      	movs	r2, #0
20001826:	6102      	str	r2, [r0, #16]
	( pxList->uxNumberOfItems )--;
20001828:	6818      	ldr	r0, [r3, #0]
2000182a:	3801      	subs	r0, #1
2000182c:	6018      	str	r0, [r3, #0]

	return pxList->uxNumberOfItems;
}
2000182e:	4770      	bx	lr
		pxList->pxIndex = pxItemToRemove->pxPrevious;
20001830:	6882      	ldr	r2, [r0, #8]
20001832:	605a      	str	r2, [r3, #4]
20001834:	e7f6      	b.n	20001824 <uxListRemove+0x14>
	...

20001838 <prvTaskExitError>:
	its caller as there is nothing to return to.  If a task wants to exit it
	should instead call vTaskDelete( NULL ).

	Artificially force an assert() to be triggered if configASSERT() is
	defined, then stop here so application writers can catch the error. */
	configASSERT( uxCriticalNesting == ~0UL );
20001838:	4b0b      	ldr	r3, [pc, #44]	; (20001868 <prvTaskExitError+0x30>)
2000183a:	681b      	ldr	r3, [r3, #0]
2000183c:	f1b3 3fff 	cmp.w	r3, #4294967295
20001840:	d008      	beq.n	20001854 <prvTaskExitError+0x1c>

portFORCE_INLINE static void vPortRaiseBASEPRI( void )
{
uint32_t ulNewBASEPRI;

	__asm volatile
20001842:	f04f 0350 	mov.w	r3, #80	; 0x50
20001846:	f383 8811 	msr	BASEPRI, r3
2000184a:	f3bf 8f6f 	isb	sy
2000184e:	f3bf 8f4f 	dsb	sy
20001852:	e7fe      	b.n	20001852 <prvTaskExitError+0x1a>
20001854:	f04f 0350 	mov.w	r3, #80	; 0x50
20001858:	f383 8811 	msr	BASEPRI, r3
2000185c:	f3bf 8f6f 	isb	sy
20001860:	f3bf 8f4f 	dsb	sy
20001864:	e7fe      	b.n	20001864 <prvTaskExitError+0x2c>
20001866:	bf00      	nop
20001868:	20018004 	.word	0x20018004

2000186c <prvPortStartFirstTask>:
}
/*-----------------------------------------------------------*/

static void prvPortStartFirstTask( void )
{
	__asm volatile(
2000186c:	4806      	ldr	r0, [pc, #24]	; (20001888 <prvPortStartFirstTask+0x1c>)
2000186e:	6800      	ldr	r0, [r0, #0]
20001870:	6800      	ldr	r0, [r0, #0]
20001872:	f380 8808 	msr	MSP, r0
20001876:	b662      	cpsie	i
20001878:	b661      	cpsie	f
2000187a:	f3bf 8f4f 	dsb	sy
2000187e:	f3bf 8f6f 	isb	sy
20001882:	df00      	svc	0
20001884:	bf00      	nop
20001886:	0000      	.short	0x0000
20001888:	e000ed08 	.word	0xe000ed08

2000188c <vPortEnableVFP>:
/*-----------------------------------------------------------*/

/* This is a naked function. */
static void vPortEnableVFP( void )
{
	__asm volatile
2000188c:	f8df 000c 	ldr.w	r0, [pc, #12]	; 2000189c <vPortEnableVFP+0x10>
20001890:	6801      	ldr	r1, [r0, #0]
20001892:	f441 0170 	orr.w	r1, r1, #15728640	; 0xf00000
20001896:	6001      	str	r1, [r0, #0]
20001898:	4770      	bx	lr
2000189a:	0000      	.short	0x0000
2000189c:	e000ed88 	.word	0xe000ed88

200018a0 <pxPortInitialiseStack>:
	*pxTopOfStack = portINITIAL_XPSR;	/* xPSR */
200018a0:	f04f 7380 	mov.w	r3, #16777216	; 0x1000000
200018a4:	f840 3c04 	str.w	r3, [r0, #-4]
	*pxTopOfStack = ( ( StackType_t ) pxCode ) & portSTART_ADDRESS_MASK;	/* PC */
200018a8:	f021 0101 	bic.w	r1, r1, #1
200018ac:	f840 1c08 	str.w	r1, [r0, #-8]
	*pxTopOfStack = ( StackType_t ) portTASK_RETURN_ADDRESS;	/* LR */
200018b0:	4b05      	ldr	r3, [pc, #20]	; (200018c8 <pxPortInitialiseStack+0x28>)
200018b2:	f840 3c0c 	str.w	r3, [r0, #-12]
	*pxTopOfStack = ( StackType_t ) pvParameters;	/* R0 */
200018b6:	f840 2c20 	str.w	r2, [r0, #-32]
	*pxTopOfStack = portINITIAL_EXEC_RETURN;
200018ba:	f06f 0302 	mvn.w	r3, #2
200018be:	f840 3c24 	str.w	r3, [r0, #-36]
}
200018c2:	3844      	subs	r0, #68	; 0x44
200018c4:	4770      	bx	lr
200018c6:	bf00      	nop
200018c8:	20001839 	.word	0x20001839
200018cc:	00000000 	.word	0x00000000

200018d0 <SVC_Handler>:
	__asm volatile (
200018d0:	4b07      	ldr	r3, [pc, #28]	; (200018f0 <pxCurrentTCBConst2>)
200018d2:	6819      	ldr	r1, [r3, #0]
200018d4:	6808      	ldr	r0, [r1, #0]
200018d6:	e8b0 4ff0 	ldmia.w	r0!, {r4, r5, r6, r7, r8, r9, sl, fp, lr}
200018da:	f380 8809 	msr	PSP, r0
200018de:	f3bf 8f6f 	isb	sy
200018e2:	f04f 0000 	mov.w	r0, #0
200018e6:	f380 8811 	msr	BASEPRI, r0
200018ea:	4770      	bx	lr
200018ec:	f3af 8000 	nop.w

200018f0 <pxCurrentTCBConst2>:
200018f0:	2001bd1c 	.word	0x2001bd1c

200018f4 <vPortEnterCritical>:
200018f4:	f04f 0350 	mov.w	r3, #80	; 0x50
200018f8:	f383 8811 	msr	BASEPRI, r3
200018fc:	f3bf 8f6f 	isb	sy
20001900:	f3bf 8f4f 	dsb	sy
	uxCriticalNesting++;
20001904:	4a0a      	ldr	r2, [pc, #40]	; (20001930 <vPortEnterCritical+0x3c>)
20001906:	6813      	ldr	r3, [r2, #0]
20001908:	3301      	adds	r3, #1
2000190a:	6013      	str	r3, [r2, #0]
	if( uxCriticalNesting == 1 )
2000190c:	2b01      	cmp	r3, #1
2000190e:	d10d      	bne.n	2000192c <vPortEnterCritical+0x38>
		configASSERT( ( portNVIC_INT_CTRL_REG & portVECTACTIVE_MASK ) == 0 );
20001910:	4b08      	ldr	r3, [pc, #32]	; (20001934 <vPortEnterCritical+0x40>)
20001912:	681b      	ldr	r3, [r3, #0]
20001914:	f013 0fff 	tst.w	r3, #255	; 0xff
20001918:	d008      	beq.n	2000192c <vPortEnterCritical+0x38>
2000191a:	f04f 0350 	mov.w	r3, #80	; 0x50
2000191e:	f383 8811 	msr	BASEPRI, r3
20001922:	f3bf 8f6f 	isb	sy
20001926:	f3bf 8f4f 	dsb	sy
2000192a:	e7fe      	b.n	2000192a <vPortEnterCritical+0x36>
2000192c:	4770      	bx	lr
2000192e:	bf00      	nop
20001930:	20018004 	.word	0x20018004
20001934:	e000ed04 	.word	0xe000ed04

20001938 <vPortExitCritical>:
	configASSERT( uxCriticalNesting );
20001938:	4b09      	ldr	r3, [pc, #36]	; (20001960 <vPortExitCritical+0x28>)
2000193a:	681b      	ldr	r3, [r3, #0]
2000193c:	b943      	cbnz	r3, 20001950 <vPortExitCritical+0x18>
2000193e:	f04f 0350 	mov.w	r3, #80	; 0x50
20001942:	f383 8811 	msr	BASEPRI, r3
20001946:	f3bf 8f6f 	isb	sy
2000194a:	f3bf 8f4f 	dsb	sy
2000194e:	e7fe      	b.n	2000194e <vPortExitCritical+0x16>
	uxCriticalNesting--;
20001950:	3b01      	subs	r3, #1
20001952:	4a03      	ldr	r2, [pc, #12]	; (20001960 <vPortExitCritical+0x28>)
20001954:	6013      	str	r3, [r2, #0]
	if( uxCriticalNesting == 0 )
20001956:	b90b      	cbnz	r3, 2000195c <vPortExitCritical+0x24>
}
/*-----------------------------------------------------------*/

portFORCE_INLINE static void vPortSetBASEPRI( uint32_t ulNewMaskValue )
{
	__asm volatile
20001958:	f383 8811 	msr	BASEPRI, r3
2000195c:	4770      	bx	lr
2000195e:	bf00      	nop
20001960:	20018004 	.word	0x20018004
	...

20001970 <PendSV_Handler>:
	__asm volatile
20001970:	f3ef 8009 	mrs	r0, PSP
20001974:	f3bf 8f6f 	isb	sy
20001978:	4b15      	ldr	r3, [pc, #84]	; (200019d0 <pxCurrentTCBConst>)
2000197a:	681a      	ldr	r2, [r3, #0]
2000197c:	f01e 0f10 	tst.w	lr, #16
20001980:	bf08      	it	eq
20001982:	ed20 8a10 	vstmdbeq	r0!, {s16-s31}
20001986:	e920 4ff0 	stmdb	r0!, {r4, r5, r6, r7, r8, r9, sl, fp, lr}
2000198a:	6010      	str	r0, [r2, #0]
2000198c:	f84d 3d04 	str.w	r3, [sp, #-4]!
20001990:	f04f 0050 	mov.w	r0, #80	; 0x50
20001994:	f380 8811 	msr	BASEPRI, r0
20001998:	f3bf 8f4f 	dsb	sy
2000199c:	f3bf 8f6f 	isb	sy
200019a0:	f001 f968 	bl	20002c74 <vTaskSwitchContext>
200019a4:	f04f 0000 	mov.w	r0, #0
200019a8:	f380 8811 	msr	BASEPRI, r0
200019ac:	bc08      	pop	{r3}
200019ae:	6819      	ldr	r1, [r3, #0]
200019b0:	6808      	ldr	r0, [r1, #0]
200019b2:	e8b0 4ff0 	ldmia.w	r0!, {r4, r5, r6, r7, r8, r9, sl, fp, lr}
200019b6:	f01e 0f10 	tst.w	lr, #16
200019ba:	bf08      	it	eq
200019bc:	ecb0 8a10 	vldmiaeq	r0!, {s16-s31}
200019c0:	f380 8809 	msr	PSP, r0
200019c4:	f3bf 8f6f 	isb	sy
200019c8:	4770      	bx	lr
200019ca:	bf00      	nop
200019cc:	f3af 8000 	nop.w

200019d0 <pxCurrentTCBConst>:
200019d0:	2001bd1c 	.word	0x2001bd1c

200019d4 <xPortSysTickHandler>:
{
200019d4:	b508      	push	{r3, lr}
	__asm volatile
200019d6:	f04f 0350 	mov.w	r3, #80	; 0x50
200019da:	f383 8811 	msr	BASEPRI, r3
200019de:	f3bf 8f6f 	isb	sy
200019e2:	f3bf 8f4f 	dsb	sy
		if( xTaskIncrementTick() != pdFALSE )
200019e6:	f000 ffcd 	bl	20002984 <xTaskIncrementTick>
200019ea:	b118      	cbz	r0, 200019f4 <xPortSysTickHandler+0x20>
			portNVIC_INT_CTRL_REG = portNVIC_PENDSVSET_BIT;
200019ec:	f04f 5280 	mov.w	r2, #268435456	; 0x10000000
200019f0:	4b02      	ldr	r3, [pc, #8]	; (200019fc <xPortSysTickHandler+0x28>)
200019f2:	601a      	str	r2, [r3, #0]
	__asm volatile
200019f4:	2300      	movs	r3, #0
200019f6:	f383 8811 	msr	BASEPRI, r3
200019fa:	bd08      	pop	{r3, pc}
200019fc:	e000ed04 	.word	0xe000ed04

20001a00 <vPortSetupTimerInterrupt>:
	portNVIC_SYSTICK_LOAD_REG = ( configSYSTICK_CLOCK_HZ / configTICK_RATE_HZ ) - 1UL;
20001a00:	4b06      	ldr	r3, [pc, #24]	; (20001a1c <vPortSetupTimerInterrupt+0x1c>)
20001a02:	681b      	ldr	r3, [r3, #0]
20001a04:	4a06      	ldr	r2, [pc, #24]	; (20001a20 <vPortSetupTimerInterrupt+0x20>)
20001a06:	fba2 2303 	umull	r2, r3, r2, r3
20001a0a:	099b      	lsrs	r3, r3, #6
20001a0c:	3b01      	subs	r3, #1
20001a0e:	4a05      	ldr	r2, [pc, #20]	; (20001a24 <vPortSetupTimerInterrupt+0x24>)
20001a10:	6013      	str	r3, [r2, #0]
	portNVIC_SYSTICK_CTRL_REG = ( portNVIC_SYSTICK_CLK_BIT | portNVIC_SYSTICK_INT_BIT | portNVIC_SYSTICK_ENABLE_BIT );
20001a12:	2207      	movs	r2, #7
20001a14:	4b04      	ldr	r3, [pc, #16]	; (20001a28 <vPortSetupTimerInterrupt+0x28>)
20001a16:	601a      	str	r2, [r3, #0]
20001a18:	4770      	bx	lr
20001a1a:	bf00      	nop
20001a1c:	20018078 	.word	0x20018078
20001a20:	10624dd3 	.word	0x10624dd3
20001a24:	e000e014 	.word	0xe000e014
20001a28:	e000e010 	.word	0xe000e010

20001a2c <xPortStartScheduler>:
	configASSERT( portCPUID != portCORTEX_M7_r0p1_ID );
20001a2c:	4b31      	ldr	r3, [pc, #196]	; (20001af4 <xPortStartScheduler+0xc8>)
20001a2e:	681a      	ldr	r2, [r3, #0]
20001a30:	4b31      	ldr	r3, [pc, #196]	; (20001af8 <xPortStartScheduler+0xcc>)
20001a32:	429a      	cmp	r2, r3
20001a34:	d01a      	beq.n	20001a6c <xPortStartScheduler+0x40>
	configASSERT( portCPUID != portCORTEX_M7_r0p0_ID );
20001a36:	4b2f      	ldr	r3, [pc, #188]	; (20001af4 <xPortStartScheduler+0xc8>)
20001a38:	681a      	ldr	r2, [r3, #0]
20001a3a:	4b30      	ldr	r3, [pc, #192]	; (20001afc <xPortStartScheduler+0xd0>)
20001a3c:	429a      	cmp	r2, r3
20001a3e:	d01e      	beq.n	20001a7e <xPortStartScheduler+0x52>
{
20001a40:	b500      	push	{lr}
20001a42:	b083      	sub	sp, #12
		ulOriginalPriority = *pucFirstUserPriorityRegister;
20001a44:	4b2e      	ldr	r3, [pc, #184]	; (20001b00 <xPortStartScheduler+0xd4>)
20001a46:	781a      	ldrb	r2, [r3, #0]
20001a48:	b2d2      	uxtb	r2, r2
20001a4a:	9201      	str	r2, [sp, #4]
		*pucFirstUserPriorityRegister = portMAX_8_BIT_VALUE;
20001a4c:	22ff      	movs	r2, #255	; 0xff
20001a4e:	701a      	strb	r2, [r3, #0]
		ucMaxPriorityValue = *pucFirstUserPriorityRegister;
20001a50:	781b      	ldrb	r3, [r3, #0]
20001a52:	b2db      	uxtb	r3, r3
20001a54:	f88d 3003 	strb.w	r3, [sp, #3]
		ucMaxSysCallPriority = configMAX_SYSCALL_INTERRUPT_PRIORITY & ucMaxPriorityValue;
20001a58:	f89d 3003 	ldrb.w	r3, [sp, #3]
20001a5c:	f003 0350 	and.w	r3, r3, #80	; 0x50
20001a60:	4a28      	ldr	r2, [pc, #160]	; (20001b04 <xPortStartScheduler+0xd8>)
20001a62:	7013      	strb	r3, [r2, #0]
		ulMaxPRIGROUPValue = portMAX_PRIGROUP_BITS;
20001a64:	2207      	movs	r2, #7
20001a66:	4b28      	ldr	r3, [pc, #160]	; (20001b08 <xPortStartScheduler+0xdc>)
20001a68:	601a      	str	r2, [r3, #0]
		while( ( ucMaxPriorityValue & portTOP_BIT_OF_BYTE ) == portTOP_BIT_OF_BYTE )
20001a6a:	e01b      	b.n	20001aa4 <xPortStartScheduler+0x78>
	__asm volatile
20001a6c:	f04f 0350 	mov.w	r3, #80	; 0x50
20001a70:	f383 8811 	msr	BASEPRI, r3
20001a74:	f3bf 8f6f 	isb	sy
20001a78:	f3bf 8f4f 	dsb	sy
20001a7c:	e7fe      	b.n	20001a7c <xPortStartScheduler+0x50>
20001a7e:	f04f 0350 	mov.w	r3, #80	; 0x50
20001a82:	f383 8811 	msr	BASEPRI, r3
20001a86:	f3bf 8f6f 	isb	sy
20001a8a:	f3bf 8f4f 	dsb	sy
20001a8e:	e7fe      	b.n	20001a8e <xPortStartScheduler+0x62>
			ulMaxPRIGROUPValue--;
20001a90:	4a1d      	ldr	r2, [pc, #116]	; (20001b08 <xPortStartScheduler+0xdc>)
20001a92:	6813      	ldr	r3, [r2, #0]
20001a94:	3b01      	subs	r3, #1
20001a96:	6013      	str	r3, [r2, #0]
			ucMaxPriorityValue <<= ( uint8_t ) 0x01;
20001a98:	f89d 3003 	ldrb.w	r3, [sp, #3]
20001a9c:	005b      	lsls	r3, r3, #1
20001a9e:	b2db      	uxtb	r3, r3
20001aa0:	f88d 3003 	strb.w	r3, [sp, #3]
		while( ( ucMaxPriorityValue & portTOP_BIT_OF_BYTE ) == portTOP_BIT_OF_BYTE )
20001aa4:	f89d 3003 	ldrb.w	r3, [sp, #3]
20001aa8:	f013 0f80 	tst.w	r3, #128	; 0x80
20001aac:	d1f0      	bne.n	20001a90 <xPortStartScheduler+0x64>
		ulMaxPRIGROUPValue <<= portPRIGROUP_SHIFT;
20001aae:	4a16      	ldr	r2, [pc, #88]	; (20001b08 <xPortStartScheduler+0xdc>)
20001ab0:	6813      	ldr	r3, [r2, #0]
20001ab2:	021b      	lsls	r3, r3, #8
		ulMaxPRIGROUPValue &= portPRIORITY_GROUP_MASK;
20001ab4:	f403 63e0 	and.w	r3, r3, #1792	; 0x700
20001ab8:	6013      	str	r3, [r2, #0]
		*pucFirstUserPriorityRegister = ulOriginalPriority;
20001aba:	9b01      	ldr	r3, [sp, #4]
20001abc:	b2db      	uxtb	r3, r3
20001abe:	4a10      	ldr	r2, [pc, #64]	; (20001b00 <xPortStartScheduler+0xd4>)
20001ac0:	7013      	strb	r3, [r2, #0]
	portNVIC_SYSPRI2_REG |= portNVIC_PENDSV_PRI;
20001ac2:	4b12      	ldr	r3, [pc, #72]	; (20001b0c <xPortStartScheduler+0xe0>)
20001ac4:	681a      	ldr	r2, [r3, #0]
20001ac6:	f442 0270 	orr.w	r2, r2, #15728640	; 0xf00000
20001aca:	601a      	str	r2, [r3, #0]
	portNVIC_SYSPRI2_REG |= portNVIC_SYSTICK_PRI;
20001acc:	681a      	ldr	r2, [r3, #0]
20001ace:	f042 4270 	orr.w	r2, r2, #4026531840	; 0xf0000000
20001ad2:	601a      	str	r2, [r3, #0]
	vPortSetupTimerInterrupt();
20001ad4:	f7ff ff94 	bl	20001a00 <vPortSetupTimerInterrupt>
	uxCriticalNesting = 0;
20001ad8:	2200      	movs	r2, #0
20001ada:	4b0d      	ldr	r3, [pc, #52]	; (20001b10 <xPortStartScheduler+0xe4>)
20001adc:	601a      	str	r2, [r3, #0]
	vPortEnableVFP();
20001ade:	f7ff fed5 	bl	2000188c <vPortEnableVFP>
	*( portFPCCR ) |= portASPEN_AND_LSPEN_BITS;
20001ae2:	4a0c      	ldr	r2, [pc, #48]	; (20001b14 <xPortStartScheduler+0xe8>)
20001ae4:	6813      	ldr	r3, [r2, #0]
20001ae6:	f043 4340 	orr.w	r3, r3, #3221225472	; 0xc0000000
20001aea:	6013      	str	r3, [r2, #0]
	prvPortStartFirstTask();
20001aec:	f7ff febe 	bl	2000186c <prvPortStartFirstTask>
	prvTaskExitError();
20001af0:	f7ff fea2 	bl	20001838 <prvTaskExitError>
20001af4:	e000ed00 	.word	0xe000ed00
20001af8:	410fc271 	.word	0x410fc271
20001afc:	410fc270 	.word	0x410fc270
20001b00:	e000e400 	.word	0xe000e400
20001b04:	200180fc 	.word	0x200180fc
20001b08:	20018100 	.word	0x20018100
20001b0c:	e000ed20 	.word	0xe000ed20
20001b10:	20018004 	.word	0x20018004
20001b14:	e000ef34 	.word	0xe000ef34

20001b18 <vPortValidateInterruptPriority>:
	{
	uint32_t ulCurrentInterrupt;
	uint8_t ucCurrentPriority;

		/* Obtain the number of the currently executing interrupt. */
		__asm volatile( "mrs %0, ipsr" : "=r"( ulCurrentInterrupt ) );
20001b18:	f3ef 8305 	mrs	r3, IPSR

		/* Is the interrupt number a user defined interrupt? */
		if( ulCurrentInterrupt >= portFIRST_USER_INTERRUPT_NUMBER )
20001b1c:	2b0f      	cmp	r3, #15
20001b1e:	d90f      	bls.n	20001b40 <vPortValidateInterruptPriority+0x28>
		{
			/* Look up the interrupt's priority. */
			ucCurrentPriority = pcInterruptPriorityRegisters[ ulCurrentInterrupt ];
20001b20:	4a10      	ldr	r2, [pc, #64]	; (20001b64 <vPortValidateInterruptPriority+0x4c>)
20001b22:	5c9b      	ldrb	r3, [r3, r2]
20001b24:	b2db      	uxtb	r3, r3
			interrupt entry is as fast and simple as possible.

			The following links provide detailed information:
			http://www.freertos.org/RTOS-Cortex-M3-M4.html
			http://www.freertos.org/FAQHelp.html */
			configASSERT( ucCurrentPriority >= ucMaxSysCallPriority );
20001b26:	4a10      	ldr	r2, [pc, #64]	; (20001b68 <vPortValidateInterruptPriority+0x50>)
20001b28:	7812      	ldrb	r2, [r2, #0]
20001b2a:	4293      	cmp	r3, r2
20001b2c:	d208      	bcs.n	20001b40 <vPortValidateInterruptPriority+0x28>
20001b2e:	f04f 0350 	mov.w	r3, #80	; 0x50
20001b32:	f383 8811 	msr	BASEPRI, r3
20001b36:	f3bf 8f6f 	isb	sy
20001b3a:	f3bf 8f4f 	dsb	sy
20001b3e:	e7fe      	b.n	20001b3e <vPortValidateInterruptPriority+0x26>
		configuration then the correct setting can be achieved on all Cortex-M
		devices by calling NVIC_SetPriorityGrouping( 0 ); before starting the
		scheduler.  Note however that some vendor specific peripheral libraries
		assume a non-zero priority group setting, in which cases using a value
		of zero will result in unpredicable behaviour. */
		configASSERT( ( portAIRCR_REG & portPRIORITY_GROUP_MASK ) <= ulMaxPRIGROUPValue );
20001b40:	4b0a      	ldr	r3, [pc, #40]	; (20001b6c <vPortValidateInterruptPriority+0x54>)
20001b42:	681b      	ldr	r3, [r3, #0]
20001b44:	f403 63e0 	and.w	r3, r3, #1792	; 0x700
20001b48:	4a09      	ldr	r2, [pc, #36]	; (20001b70 <vPortValidateInterruptPriority+0x58>)
20001b4a:	6812      	ldr	r2, [r2, #0]
20001b4c:	4293      	cmp	r3, r2
20001b4e:	d908      	bls.n	20001b62 <vPortValidateInterruptPriority+0x4a>
20001b50:	f04f 0350 	mov.w	r3, #80	; 0x50
20001b54:	f383 8811 	msr	BASEPRI, r3
20001b58:	f3bf 8f6f 	isb	sy
20001b5c:	f3bf 8f4f 	dsb	sy
20001b60:	e7fe      	b.n	20001b60 <vPortValidateInterruptPriority+0x48>
20001b62:	4770      	bx	lr
20001b64:	e000e3f0 	.word	0xe000e3f0
20001b68:	200180fc 	.word	0x200180fc
20001b6c:	e000ed0c 	.word	0xe000ed0c
20001b70:	20018100 	.word	0x20018100

20001b74 <prvHeapInit>:
uint8_t *pucAlignedHeap;
size_t uxAddress;
size_t xTotalHeapSize = configTOTAL_HEAP_SIZE;

	/* Ensure the heap starts on a correctly aligned boundary. */
	uxAddress = ( size_t ) ucHeap;
20001b74:	4a12      	ldr	r2, [pc, #72]	; (20001bc0 <prvHeapInit+0x4c>)

	if( ( uxAddress & portBYTE_ALIGNMENT_MASK ) != 0 )
20001b76:	f012 0f07 	tst.w	r2, #7
20001b7a:	d01e      	beq.n	20001bba <prvHeapInit+0x46>
	{
		uxAddress += ( portBYTE_ALIGNMENT - 1 );
20001b7c:	1dd1      	adds	r1, r2, #7
		uxAddress &= ~( ( size_t ) portBYTE_ALIGNMENT_MASK );
20001b7e:	f021 0107 	bic.w	r1, r1, #7
		xTotalHeapSize -= uxAddress - ( size_t ) ucHeap;
20001b82:	f5c1 5370 	rsb	r3, r1, #15360	; 0x3c00
20001b86:	4413      	add	r3, r2
		uxAddress &= ~( ( size_t ) portBYTE_ALIGNMENT_MASK );
20001b88:	460a      	mov	r2, r1

	pucAlignedHeap = ( uint8_t * ) uxAddress;

	/* xStart is used to hold a pointer to the first item in the list of free
	blocks.  The void cast is used to prevent compiler warnings. */
	xStart.pxNextFreeBlock = ( void * ) pucAlignedHeap;
20001b8a:	480e      	ldr	r0, [pc, #56]	; (20001bc4 <prvHeapInit+0x50>)
20001b8c:	6002      	str	r2, [r0, #0]
	xStart.xBlockSize = ( size_t ) 0;
20001b8e:	2100      	movs	r1, #0
20001b90:	6041      	str	r1, [r0, #4]

	/* pxEnd is used to mark the end of the list of free blocks and is inserted
	at the end of the heap space. */
	uxAddress = ( ( size_t ) pucAlignedHeap ) + xTotalHeapSize;
20001b92:	4413      	add	r3, r2
	uxAddress -= xHeapStructSize;
20001b94:	3b08      	subs	r3, #8
	uxAddress &= ~( ( size_t ) portBYTE_ALIGNMENT_MASK );
20001b96:	f023 0307 	bic.w	r3, r3, #7
	pxEnd = ( void * ) uxAddress;
20001b9a:	480b      	ldr	r0, [pc, #44]	; (20001bc8 <prvHeapInit+0x54>)
20001b9c:	6003      	str	r3, [r0, #0]
	pxEnd->xBlockSize = 0;
20001b9e:	6059      	str	r1, [r3, #4]
	pxEnd->pxNextFreeBlock = NULL;
20001ba0:	6019      	str	r1, [r3, #0]

	/* To start with there is a single free block that is sized to take up the
	entire heap space, minus the space taken by pxEnd. */
	pxFirstFreeBlock = ( void * ) pucAlignedHeap;
	pxFirstFreeBlock->xBlockSize = uxAddress - ( size_t ) pxFirstFreeBlock;
20001ba2:	1a99      	subs	r1, r3, r2
20001ba4:	6051      	str	r1, [r2, #4]
	pxFirstFreeBlock->pxNextFreeBlock = pxEnd;
20001ba6:	6013      	str	r3, [r2, #0]

	/* Only one block exists - and it covers the entire usable heap space. */
	xMinimumEverFreeBytesRemaining = pxFirstFreeBlock->xBlockSize;
20001ba8:	4b08      	ldr	r3, [pc, #32]	; (20001bcc <prvHeapInit+0x58>)
20001baa:	6019      	str	r1, [r3, #0]
	xFreeBytesRemaining = pxFirstFreeBlock->xBlockSize;
20001bac:	4b08      	ldr	r3, [pc, #32]	; (20001bd0 <prvHeapInit+0x5c>)
20001bae:	6019      	str	r1, [r3, #0]

	/* Work out the position of the top bit in a size_t variable. */
	xBlockAllocatedBit = ( ( size_t ) 1 ) << ( ( sizeof( size_t ) * heapBITS_PER_BYTE ) - 1 );
20001bb0:	f04f 4200 	mov.w	r2, #2147483648	; 0x80000000
20001bb4:	4b07      	ldr	r3, [pc, #28]	; (20001bd4 <prvHeapInit+0x60>)
20001bb6:	601a      	str	r2, [r3, #0]
20001bb8:	4770      	bx	lr
size_t xTotalHeapSize = configTOTAL_HEAP_SIZE;
20001bba:	f44f 5370 	mov.w	r3, #15360	; 0x3c00
20001bbe:	e7e4      	b.n	20001b8a <prvHeapInit+0x16>
20001bc0:	20018108 	.word	0x20018108
20001bc4:	2001bd14 	.word	0x2001bd14
20001bc8:	20018104 	.word	0x20018104
20001bcc:	2001bd10 	.word	0x2001bd10
20001bd0:	2001bd0c 	.word	0x2001bd0c
20001bd4:	2001bd08 	.word	0x2001bd08

20001bd8 <prvInsertBlockIntoFreeList>:
}
/*-----------------------------------------------------------*/

static void prvInsertBlockIntoFreeList( BlockLink_t *pxBlockToInsert )
{
20001bd8:	b410      	push	{r4}
BlockLink_t *pxIterator;
uint8_t *puc;

	/* Iterate through the list until a block is found that has a higher address
	than the block being inserted. */
	for( pxIterator = &xStart; pxIterator->pxNextFreeBlock < pxBlockToInsert; pxIterator = pxIterator->pxNextFreeBlock )
20001bda:	4b13      	ldr	r3, [pc, #76]	; (20001c28 <prvInsertBlockIntoFreeList+0x50>)
20001bdc:	681a      	ldr	r2, [r3, #0]
20001bde:	4282      	cmp	r2, r0
20001be0:	d31b      	bcc.n	20001c1a <prvInsertBlockIntoFreeList+0x42>
	}

	/* Do the block being inserted, and the block it is being inserted after
	make a contiguous block of memory? */
	puc = ( uint8_t * ) pxIterator;
	if( ( puc + pxIterator->xBlockSize ) == ( uint8_t * ) pxBlockToInsert )
20001be2:	6859      	ldr	r1, [r3, #4]
20001be4:	185c      	adds	r4, r3, r1
20001be6:	42a0      	cmp	r0, r4
20001be8:	d103      	bne.n	20001bf2 <prvInsertBlockIntoFreeList+0x1a>
	{
		pxIterator->xBlockSize += pxBlockToInsert->xBlockSize;
20001bea:	6840      	ldr	r0, [r0, #4]
20001bec:	4401      	add	r1, r0
20001bee:	6059      	str	r1, [r3, #4]
		pxBlockToInsert = pxIterator;
20001bf0:	4618      	mov	r0, r3
	}

	/* Do the block being inserted, and the block it is being inserted before
	make a contiguous block of memory? */
	puc = ( uint8_t * ) pxBlockToInsert;
	if( ( puc + pxBlockToInsert->xBlockSize ) == ( uint8_t * ) pxIterator->pxNextFreeBlock )
20001bf2:	6841      	ldr	r1, [r0, #4]
20001bf4:	1844      	adds	r4, r0, r1
20001bf6:	42a2      	cmp	r2, r4
20001bf8:	d113      	bne.n	20001c22 <prvInsertBlockIntoFreeList+0x4a>
	{
		if( pxIterator->pxNextFreeBlock != pxEnd )
20001bfa:	4c0c      	ldr	r4, [pc, #48]	; (20001c2c <prvInsertBlockIntoFreeList+0x54>)
20001bfc:	6824      	ldr	r4, [r4, #0]
20001bfe:	42a2      	cmp	r2, r4
20001c00:	d00d      	beq.n	20001c1e <prvInsertBlockIntoFreeList+0x46>
		{
			/* Form one big block from the two blocks. */
			pxBlockToInsert->xBlockSize += pxIterator->pxNextFreeBlock->xBlockSize;
20001c02:	6852      	ldr	r2, [r2, #4]
20001c04:	4411      	add	r1, r2
20001c06:	6041      	str	r1, [r0, #4]
			pxBlockToInsert->pxNextFreeBlock = pxIterator->pxNextFreeBlock->pxNextFreeBlock;
20001c08:	681a      	ldr	r2, [r3, #0]
20001c0a:	6812      	ldr	r2, [r2, #0]
20001c0c:	6002      	str	r2, [r0, #0]

	/* If the block being inserted plugged a gab, so was merged with the block
	before and the block after, then it's pxNextFreeBlock pointer will have
	already been set, and should not be set here as that would make it point
	to itself. */
	if( pxIterator != pxBlockToInsert )
20001c0e:	4298      	cmp	r0, r3
20001c10:	d000      	beq.n	20001c14 <prvInsertBlockIntoFreeList+0x3c>
	{
		pxIterator->pxNextFreeBlock = pxBlockToInsert;
20001c12:	6018      	str	r0, [r3, #0]
	}
	else
	{
		mtCOVERAGE_TEST_MARKER();
	}
}
20001c14:	f85d 4b04 	ldr.w	r4, [sp], #4
20001c18:	4770      	bx	lr
	for( pxIterator = &xStart; pxIterator->pxNextFreeBlock < pxBlockToInsert; pxIterator = pxIterator->pxNextFreeBlock )
20001c1a:	4613      	mov	r3, r2
20001c1c:	e7de      	b.n	20001bdc <prvInsertBlockIntoFreeList+0x4>
			pxBlockToInsert->pxNextFreeBlock = pxEnd;
20001c1e:	6004      	str	r4, [r0, #0]
20001c20:	e7f5      	b.n	20001c0e <prvInsertBlockIntoFreeList+0x36>
		pxBlockToInsert->pxNextFreeBlock = pxIterator->pxNextFreeBlock;
20001c22:	6002      	str	r2, [r0, #0]
20001c24:	e7f3      	b.n	20001c0e <prvInsertBlockIntoFreeList+0x36>
20001c26:	bf00      	nop
20001c28:	2001bd14 	.word	0x2001bd14
20001c2c:	20018104 	.word	0x20018104

20001c30 <pvPortMalloc>:
{
20001c30:	b570      	push	{r4, r5, r6, lr}
20001c32:	4604      	mov	r4, r0
	vTaskSuspendAll();
20001c34:	f000 fe90 	bl	20002958 <vTaskSuspendAll>
		if( pxEnd == NULL )
20001c38:	4b3a      	ldr	r3, [pc, #232]	; (20001d24 <pvPortMalloc+0xf4>)
20001c3a:	681b      	ldr	r3, [r3, #0]
20001c3c:	b1bb      	cbz	r3, 20001c6e <pvPortMalloc+0x3e>
		if( ( xWantedSize & xBlockAllocatedBit ) == 0 )
20001c3e:	4b3a      	ldr	r3, [pc, #232]	; (20001d28 <pvPortMalloc+0xf8>)
20001c40:	681b      	ldr	r3, [r3, #0]
20001c42:	421c      	tst	r4, r3
20001c44:	d163      	bne.n	20001d0e <pvPortMalloc+0xde>
			if( xWantedSize > 0 )
20001c46:	b1ac      	cbz	r4, 20001c74 <pvPortMalloc+0x44>
				xWantedSize += xHeapStructSize;
20001c48:	3408      	adds	r4, #8
				if( ( xWantedSize & portBYTE_ALIGNMENT_MASK ) != 0x00 )
20001c4a:	f014 0f07 	tst.w	r4, #7
20001c4e:	d011      	beq.n	20001c74 <pvPortMalloc+0x44>
					xWantedSize += ( portBYTE_ALIGNMENT - ( xWantedSize & portBYTE_ALIGNMENT_MASK ) );
20001c50:	f024 0407 	bic.w	r4, r4, #7
20001c54:	3408      	adds	r4, #8
					configASSERT( ( xWantedSize & portBYTE_ALIGNMENT_MASK ) == 0 );
20001c56:	f004 0307 	and.w	r3, r4, #7
20001c5a:	b15b      	cbz	r3, 20001c74 <pvPortMalloc+0x44>
20001c5c:	f04f 0350 	mov.w	r3, #80	; 0x50
20001c60:	f383 8811 	msr	BASEPRI, r3
20001c64:	f3bf 8f6f 	isb	sy
20001c68:	f3bf 8f4f 	dsb	sy
20001c6c:	e7fe      	b.n	20001c6c <pvPortMalloc+0x3c>
			prvHeapInit();
20001c6e:	f7ff ff81 	bl	20001b74 <prvHeapInit>
20001c72:	e7e4      	b.n	20001c3e <pvPortMalloc+0xe>
			if( ( xWantedSize > 0 ) && ( xWantedSize <= xFreeBytesRemaining ) )
20001c74:	2c00      	cmp	r4, #0
20001c76:	d04c      	beq.n	20001d12 <pvPortMalloc+0xe2>
20001c78:	4b2c      	ldr	r3, [pc, #176]	; (20001d2c <pvPortMalloc+0xfc>)
20001c7a:	681b      	ldr	r3, [r3, #0]
20001c7c:	429c      	cmp	r4, r3
20001c7e:	d84a      	bhi.n	20001d16 <pvPortMalloc+0xe6>
				pxBlock = xStart.pxNextFreeBlock;
20001c80:	4b2b      	ldr	r3, [pc, #172]	; (20001d30 <pvPortMalloc+0x100>)
20001c82:	681d      	ldr	r5, [r3, #0]
				while( ( pxBlock->xBlockSize < xWantedSize ) && ( pxBlock->pxNextFreeBlock != NULL ) )
20001c84:	e001      	b.n	20001c8a <pvPortMalloc+0x5a>
					pxPreviousBlock = pxBlock;
20001c86:	462b      	mov	r3, r5
					pxBlock = pxBlock->pxNextFreeBlock;
20001c88:	4615      	mov	r5, r2
				while( ( pxBlock->xBlockSize < xWantedSize ) && ( pxBlock->pxNextFreeBlock != NULL ) )
20001c8a:	686a      	ldr	r2, [r5, #4]
20001c8c:	4294      	cmp	r4, r2
20001c8e:	d902      	bls.n	20001c96 <pvPortMalloc+0x66>
20001c90:	682a      	ldr	r2, [r5, #0]
20001c92:	2a00      	cmp	r2, #0
20001c94:	d1f7      	bne.n	20001c86 <pvPortMalloc+0x56>
				if( pxBlock != pxEnd )
20001c96:	4a23      	ldr	r2, [pc, #140]	; (20001d24 <pvPortMalloc+0xf4>)
20001c98:	6812      	ldr	r2, [r2, #0]
20001c9a:	4295      	cmp	r5, r2
20001c9c:	d03d      	beq.n	20001d1a <pvPortMalloc+0xea>
					pvReturn = ( void * ) ( ( ( uint8_t * ) pxPreviousBlock->pxNextFreeBlock ) + xHeapStructSize );
20001c9e:	681e      	ldr	r6, [r3, #0]
20001ca0:	3608      	adds	r6, #8
					pxPreviousBlock->pxNextFreeBlock = pxBlock->pxNextFreeBlock;
20001ca2:	682a      	ldr	r2, [r5, #0]
20001ca4:	601a      	str	r2, [r3, #0]
					if( ( pxBlock->xBlockSize - xWantedSize ) > heapMINIMUM_BLOCK_SIZE )
20001ca6:	686b      	ldr	r3, [r5, #4]
20001ca8:	1b1b      	subs	r3, r3, r4
20001caa:	2b10      	cmp	r3, #16
20001cac:	d910      	bls.n	20001cd0 <pvPortMalloc+0xa0>
						pxNewBlockLink = ( void * ) ( ( ( uint8_t * ) pxBlock ) + xWantedSize );
20001cae:	1928      	adds	r0, r5, r4
						configASSERT( ( ( ( size_t ) pxNewBlockLink ) & portBYTE_ALIGNMENT_MASK ) == 0 );
20001cb0:	f010 0f07 	tst.w	r0, #7
20001cb4:	d008      	beq.n	20001cc8 <pvPortMalloc+0x98>
20001cb6:	f04f 0350 	mov.w	r3, #80	; 0x50
20001cba:	f383 8811 	msr	BASEPRI, r3
20001cbe:	f3bf 8f6f 	isb	sy
20001cc2:	f3bf 8f4f 	dsb	sy
20001cc6:	e7fe      	b.n	20001cc6 <pvPortMalloc+0x96>
						pxNewBlockLink->xBlockSize = pxBlock->xBlockSize - xWantedSize;
20001cc8:	6043      	str	r3, [r0, #4]
						pxBlock->xBlockSize = xWantedSize;
20001cca:	606c      	str	r4, [r5, #4]
						prvInsertBlockIntoFreeList( pxNewBlockLink );
20001ccc:	f7ff ff84 	bl	20001bd8 <prvInsertBlockIntoFreeList>
					xFreeBytesRemaining -= pxBlock->xBlockSize;
20001cd0:	686a      	ldr	r2, [r5, #4]
20001cd2:	4916      	ldr	r1, [pc, #88]	; (20001d2c <pvPortMalloc+0xfc>)
20001cd4:	680b      	ldr	r3, [r1, #0]
20001cd6:	1a9b      	subs	r3, r3, r2
20001cd8:	600b      	str	r3, [r1, #0]
					if( xFreeBytesRemaining < xMinimumEverFreeBytesRemaining )
20001cda:	4916      	ldr	r1, [pc, #88]	; (20001d34 <pvPortMalloc+0x104>)
20001cdc:	6809      	ldr	r1, [r1, #0]
20001cde:	428b      	cmp	r3, r1
20001ce0:	d201      	bcs.n	20001ce6 <pvPortMalloc+0xb6>
						xMinimumEverFreeBytesRemaining = xFreeBytesRemaining;
20001ce2:	4914      	ldr	r1, [pc, #80]	; (20001d34 <pvPortMalloc+0x104>)
20001ce4:	600b      	str	r3, [r1, #0]
					pxBlock->xBlockSize |= xBlockAllocatedBit;
20001ce6:	4b10      	ldr	r3, [pc, #64]	; (20001d28 <pvPortMalloc+0xf8>)
20001ce8:	681b      	ldr	r3, [r3, #0]
20001cea:	4313      	orrs	r3, r2
20001cec:	606b      	str	r3, [r5, #4]
					pxBlock->pxNextFreeBlock = NULL;
20001cee:	2300      	movs	r3, #0
20001cf0:	602b      	str	r3, [r5, #0]
	( void ) xTaskResumeAll();
20001cf2:	f000 fed7 	bl	20002aa4 <xTaskResumeAll>
	configASSERT( ( ( ( size_t ) pvReturn ) & ( size_t ) portBYTE_ALIGNMENT_MASK ) == 0 );
20001cf6:	f016 0f07 	tst.w	r6, #7
20001cfa:	d010      	beq.n	20001d1e <pvPortMalloc+0xee>
20001cfc:	f04f 0350 	mov.w	r3, #80	; 0x50
20001d00:	f383 8811 	msr	BASEPRI, r3
20001d04:	f3bf 8f6f 	isb	sy
20001d08:	f3bf 8f4f 	dsb	sy
20001d0c:	e7fe      	b.n	20001d0c <pvPortMalloc+0xdc>
void *pvReturn = NULL;
20001d0e:	2600      	movs	r6, #0
20001d10:	e7ef      	b.n	20001cf2 <pvPortMalloc+0xc2>
20001d12:	2600      	movs	r6, #0
20001d14:	e7ed      	b.n	20001cf2 <pvPortMalloc+0xc2>
20001d16:	2600      	movs	r6, #0
20001d18:	e7eb      	b.n	20001cf2 <pvPortMalloc+0xc2>
20001d1a:	2600      	movs	r6, #0
20001d1c:	e7e9      	b.n	20001cf2 <pvPortMalloc+0xc2>
}
20001d1e:	4630      	mov	r0, r6
20001d20:	bd70      	pop	{r4, r5, r6, pc}
20001d22:	bf00      	nop
20001d24:	20018104 	.word	0x20018104
20001d28:	2001bd08 	.word	0x2001bd08
20001d2c:	2001bd0c 	.word	0x2001bd0c
20001d30:	2001bd14 	.word	0x2001bd14
20001d34:	2001bd10 	.word	0x2001bd10

20001d38 <vPortFree>:
	if( pv != NULL )
20001d38:	b380      	cbz	r0, 20001d9c <vPortFree+0x64>
{
20001d3a:	b538      	push	{r3, r4, r5, lr}
20001d3c:	4604      	mov	r4, r0
		puc -= xHeapStructSize;
20001d3e:	f1a0 0508 	sub.w	r5, r0, #8
		configASSERT( ( pxLink->xBlockSize & xBlockAllocatedBit ) != 0 );
20001d42:	f850 2c04 	ldr.w	r2, [r0, #-4]
20001d46:	4916      	ldr	r1, [pc, #88]	; (20001da0 <vPortFree+0x68>)
20001d48:	6809      	ldr	r1, [r1, #0]
20001d4a:	420a      	tst	r2, r1
20001d4c:	d108      	bne.n	20001d60 <vPortFree+0x28>
20001d4e:	f04f 0350 	mov.w	r3, #80	; 0x50
20001d52:	f383 8811 	msr	BASEPRI, r3
20001d56:	f3bf 8f6f 	isb	sy
20001d5a:	f3bf 8f4f 	dsb	sy
20001d5e:	e7fe      	b.n	20001d5e <vPortFree+0x26>
		configASSERT( pxLink->pxNextFreeBlock == NULL );
20001d60:	f850 0c08 	ldr.w	r0, [r0, #-8]
20001d64:	b140      	cbz	r0, 20001d78 <vPortFree+0x40>
20001d66:	f04f 0350 	mov.w	r3, #80	; 0x50
20001d6a:	f383 8811 	msr	BASEPRI, r3
20001d6e:	f3bf 8f6f 	isb	sy
20001d72:	f3bf 8f4f 	dsb	sy
20001d76:	e7fe      	b.n	20001d76 <vPortFree+0x3e>
				pxLink->xBlockSize &= ~xBlockAllocatedBit;
20001d78:	ea22 0201 	bic.w	r2, r2, r1
20001d7c:	f844 2c04 	str.w	r2, [r4, #-4]
				vTaskSuspendAll();
20001d80:	f000 fdea 	bl	20002958 <vTaskSuspendAll>
					xFreeBytesRemaining += pxLink->xBlockSize;
20001d84:	f854 1c04 	ldr.w	r1, [r4, #-4]
20001d88:	4a06      	ldr	r2, [pc, #24]	; (20001da4 <vPortFree+0x6c>)
20001d8a:	6813      	ldr	r3, [r2, #0]
20001d8c:	440b      	add	r3, r1
20001d8e:	6013      	str	r3, [r2, #0]
					prvInsertBlockIntoFreeList( ( ( BlockLink_t * ) pxLink ) );
20001d90:	4628      	mov	r0, r5
20001d92:	f7ff ff21 	bl	20001bd8 <prvInsertBlockIntoFreeList>
				( void ) xTaskResumeAll();
20001d96:	f000 fe85 	bl	20002aa4 <xTaskResumeAll>
20001d9a:	bd38      	pop	{r3, r4, r5, pc}
20001d9c:	4770      	bx	lr
20001d9e:	bf00      	nop
20001da0:	2001bd08 	.word	0x2001bd08
20001da4:	2001bd0c 	.word	0x2001bd0c

20001da8 <prvIsQueueFull>:
	return xReturn;
} /*lint !e818 xQueue could not be pointer to const because it is a typedef. */
/*-----------------------------------------------------------*/

static BaseType_t prvIsQueueFull( const Queue_t *pxQueue )
{
20001da8:	b510      	push	{r4, lr}
20001daa:	4604      	mov	r4, r0
BaseType_t xReturn;

	taskENTER_CRITICAL();
20001dac:	f7ff fda2 	bl	200018f4 <vPortEnterCritical>
	{
		if( pxQueue->uxMessagesWaiting == pxQueue->uxLength )
20001db0:	6ba2      	ldr	r2, [r4, #56]	; 0x38
20001db2:	6be3      	ldr	r3, [r4, #60]	; 0x3c
20001db4:	429a      	cmp	r2, r3
20001db6:	d004      	beq.n	20001dc2 <prvIsQueueFull+0x1a>
		{
			xReturn = pdTRUE;
		}
		else
		{
			xReturn = pdFALSE;
20001db8:	2400      	movs	r4, #0
		}
	}
	taskEXIT_CRITICAL();
20001dba:	f7ff fdbd 	bl	20001938 <vPortExitCritical>

	return xReturn;
}
20001dbe:	4620      	mov	r0, r4
20001dc0:	bd10      	pop	{r4, pc}
			xReturn = pdTRUE;
20001dc2:	2401      	movs	r4, #1
20001dc4:	e7f9      	b.n	20001dba <prvIsQueueFull+0x12>

20001dc6 <prvIsQueueEmpty>:
{
20001dc6:	b510      	push	{r4, lr}
20001dc8:	4604      	mov	r4, r0
	taskENTER_CRITICAL();
20001dca:	f7ff fd93 	bl	200018f4 <vPortEnterCritical>
		if( pxQueue->uxMessagesWaiting == ( UBaseType_t )  0 )
20001dce:	6ba3      	ldr	r3, [r4, #56]	; 0x38
20001dd0:	b123      	cbz	r3, 20001ddc <prvIsQueueEmpty+0x16>
			xReturn = pdFALSE;
20001dd2:	2400      	movs	r4, #0
	taskEXIT_CRITICAL();
20001dd4:	f7ff fdb0 	bl	20001938 <vPortExitCritical>
}
20001dd8:	4620      	mov	r0, r4
20001dda:	bd10      	pop	{r4, pc}
			xReturn = pdTRUE;
20001ddc:	2401      	movs	r4, #1
20001dde:	e7f9      	b.n	20001dd4 <prvIsQueueEmpty+0xe>

20001de0 <prvCopyDataToQueue>:
{
20001de0:	b570      	push	{r4, r5, r6, lr}
20001de2:	4604      	mov	r4, r0
20001de4:	4616      	mov	r6, r2
	uxMessagesWaiting = pxQueue->uxMessagesWaiting;
20001de6:	6b85      	ldr	r5, [r0, #56]	; 0x38
	if( pxQueue->uxItemSize == ( UBaseType_t ) 0 )
20001de8:	6c02      	ldr	r2, [r0, #64]	; 0x40
20001dea:	b94a      	cbnz	r2, 20001e00 <prvCopyDataToQueue+0x20>
			if( pxQueue->uxQueueType == queueQUEUE_IS_MUTEX )
20001dec:	6803      	ldr	r3, [r0, #0]
20001dee:	bb53      	cbnz	r3, 20001e46 <prvCopyDataToQueue+0x66>
				xReturn = xTaskPriorityDisinherit( ( void * ) pxQueue->pxMutexHolder );
20001df0:	6840      	ldr	r0, [r0, #4]
20001df2:	f001 f8c5 	bl	20002f80 <xTaskPriorityDisinherit>
				pxQueue->pxMutexHolder = NULL;
20001df6:	2300      	movs	r3, #0
20001df8:	6063      	str	r3, [r4, #4]
	pxQueue->uxMessagesWaiting = uxMessagesWaiting + 1;
20001dfa:	3501      	adds	r5, #1
20001dfc:	63a5      	str	r5, [r4, #56]	; 0x38
}
20001dfe:	bd70      	pop	{r4, r5, r6, pc}
	else if( xPosition == queueSEND_TO_BACK )
20001e00:	b96e      	cbnz	r6, 20001e1e <prvCopyDataToQueue+0x3e>
		( void ) memcpy( ( void * ) pxQueue->pcWriteTo, pvItemToQueue, ( size_t ) pxQueue->uxItemSize ); /*lint !e961 !e418 MISRA exception as the casts are only redundant for some ports, plus previous logic ensures a null pointer can only be passed to memcpy() if the copy size is 0. */
20001e02:	6880      	ldr	r0, [r0, #8]
20001e04:	f003 fb14 	bl	20005430 <memcpy>
		pxQueue->pcWriteTo += pxQueue->uxItemSize;
20001e08:	6c22      	ldr	r2, [r4, #64]	; 0x40
20001e0a:	68a3      	ldr	r3, [r4, #8]
20001e0c:	4413      	add	r3, r2
20001e0e:	60a3      	str	r3, [r4, #8]
		if( pxQueue->pcWriteTo >= pxQueue->pcTail ) /*lint !e946 MISRA exception justified as comparison of pointers is the cleanest solution. */
20001e10:	6862      	ldr	r2, [r4, #4]
20001e12:	4293      	cmp	r3, r2
20001e14:	d319      	bcc.n	20001e4a <prvCopyDataToQueue+0x6a>
			pxQueue->pcWriteTo = pxQueue->pcHead;
20001e16:	6823      	ldr	r3, [r4, #0]
20001e18:	60a3      	str	r3, [r4, #8]
BaseType_t xReturn = pdFALSE;
20001e1a:	2000      	movs	r0, #0
20001e1c:	e7ed      	b.n	20001dfa <prvCopyDataToQueue+0x1a>
		( void ) memcpy( ( void * ) pxQueue->u.pcReadFrom, pvItemToQueue, ( size_t ) pxQueue->uxItemSize ); /*lint !e961 MISRA exception as the casts are only redundant for some ports. */
20001e1e:	68c0      	ldr	r0, [r0, #12]
20001e20:	f003 fb06 	bl	20005430 <memcpy>
		pxQueue->u.pcReadFrom -= pxQueue->uxItemSize;
20001e24:	6c23      	ldr	r3, [r4, #64]	; 0x40
20001e26:	425b      	negs	r3, r3
20001e28:	68e2      	ldr	r2, [r4, #12]
20001e2a:	441a      	add	r2, r3
20001e2c:	60e2      	str	r2, [r4, #12]
		if( pxQueue->u.pcReadFrom < pxQueue->pcHead ) /*lint !e946 MISRA exception justified as comparison of pointers is the cleanest solution. */
20001e2e:	6821      	ldr	r1, [r4, #0]
20001e30:	428a      	cmp	r2, r1
20001e32:	d202      	bcs.n	20001e3a <prvCopyDataToQueue+0x5a>
			pxQueue->u.pcReadFrom = ( pxQueue->pcTail - pxQueue->uxItemSize );
20001e34:	6862      	ldr	r2, [r4, #4]
20001e36:	4413      	add	r3, r2
20001e38:	60e3      	str	r3, [r4, #12]
		if( xPosition == queueOVERWRITE )
20001e3a:	2e02      	cmp	r6, #2
20001e3c:	d107      	bne.n	20001e4e <prvCopyDataToQueue+0x6e>
			if( uxMessagesWaiting > ( UBaseType_t ) 0 )
20001e3e:	b145      	cbz	r5, 20001e52 <prvCopyDataToQueue+0x72>
				--uxMessagesWaiting;
20001e40:	3d01      	subs	r5, #1
BaseType_t xReturn = pdFALSE;
20001e42:	2000      	movs	r0, #0
20001e44:	e7d9      	b.n	20001dfa <prvCopyDataToQueue+0x1a>
20001e46:	2000      	movs	r0, #0
20001e48:	e7d7      	b.n	20001dfa <prvCopyDataToQueue+0x1a>
20001e4a:	2000      	movs	r0, #0
20001e4c:	e7d5      	b.n	20001dfa <prvCopyDataToQueue+0x1a>
20001e4e:	2000      	movs	r0, #0
20001e50:	e7d3      	b.n	20001dfa <prvCopyDataToQueue+0x1a>
20001e52:	2000      	movs	r0, #0
20001e54:	e7d1      	b.n	20001dfa <prvCopyDataToQueue+0x1a>

20001e56 <prvCopyDataFromQueue>:
	if( pxQueue->uxItemSize != ( UBaseType_t ) 0 )
20001e56:	6c02      	ldr	r2, [r0, #64]	; 0x40
20001e58:	b172      	cbz	r2, 20001e78 <prvCopyDataFromQueue+0x22>
{
20001e5a:	b510      	push	{r4, lr}
20001e5c:	4603      	mov	r3, r0
		pxQueue->u.pcReadFrom += pxQueue->uxItemSize;
20001e5e:	68c4      	ldr	r4, [r0, #12]
20001e60:	4414      	add	r4, r2
20001e62:	60c4      	str	r4, [r0, #12]
		if( pxQueue->u.pcReadFrom >= pxQueue->pcTail ) /*lint !e946 MISRA exception justified as use of the relational operator is the cleanest solutions. */
20001e64:	6840      	ldr	r0, [r0, #4]
20001e66:	4284      	cmp	r4, r0
20001e68:	d301      	bcc.n	20001e6e <prvCopyDataFromQueue+0x18>
			pxQueue->u.pcReadFrom = pxQueue->pcHead;
20001e6a:	6818      	ldr	r0, [r3, #0]
20001e6c:	60d8      	str	r0, [r3, #12]
20001e6e:	4608      	mov	r0, r1
		( void ) memcpy( ( void * ) pvBuffer, ( void * ) pxQueue->u.pcReadFrom, ( size_t ) pxQueue->uxItemSize ); /*lint !e961 !e418 MISRA exception as the casts are only redundant for some ports.  Also previous logic ensures a null pointer can only be passed to memcpy() when the count is 0. */
20001e70:	68d9      	ldr	r1, [r3, #12]
20001e72:	f003 fadd 	bl	20005430 <memcpy>
20001e76:	bd10      	pop	{r4, pc}
20001e78:	4770      	bx	lr

20001e7a <prvUnlockQueue>:
{
20001e7a:	b538      	push	{r3, r4, r5, lr}
20001e7c:	4605      	mov	r5, r0
	taskENTER_CRITICAL();
20001e7e:	f7ff fd39 	bl	200018f4 <vPortEnterCritical>
		int8_t cTxLock = pxQueue->cTxLock;
20001e82:	f895 4045 	ldrb.w	r4, [r5, #69]	; 0x45
20001e86:	b264      	sxtb	r4, r4
		while( cTxLock > queueLOCKED_UNMODIFIED )
20001e88:	e001      	b.n	20001e8e <prvUnlockQueue+0x14>
			--cTxLock;
20001e8a:	3c01      	subs	r4, #1
20001e8c:	b264      	sxtb	r4, r4
		while( cTxLock > queueLOCKED_UNMODIFIED )
20001e8e:	2c00      	cmp	r4, #0
20001e90:	dd0a      	ble.n	20001ea8 <prvUnlockQueue+0x2e>
				if( listLIST_IS_EMPTY( &( pxQueue->xTasksWaitingToReceive ) ) == pdFALSE )
20001e92:	6a6b      	ldr	r3, [r5, #36]	; 0x24
20001e94:	b143      	cbz	r3, 20001ea8 <prvUnlockQueue+0x2e>
					if( xTaskRemoveFromEventList( &( pxQueue->xTasksWaitingToReceive ) ) != pdFALSE )
20001e96:	f105 0024 	add.w	r0, r5, #36	; 0x24
20001e9a:	f000 ff6d 	bl	20002d78 <xTaskRemoveFromEventList>
20001e9e:	2800      	cmp	r0, #0
20001ea0:	d0f3      	beq.n	20001e8a <prvUnlockQueue+0x10>
						vTaskMissedYield();
20001ea2:	f001 f805 	bl	20002eb0 <vTaskMissedYield>
20001ea6:	e7f0      	b.n	20001e8a <prvUnlockQueue+0x10>
		pxQueue->cTxLock = queueUNLOCKED;
20001ea8:	23ff      	movs	r3, #255	; 0xff
20001eaa:	f885 3045 	strb.w	r3, [r5, #69]	; 0x45
	taskEXIT_CRITICAL();
20001eae:	f7ff fd43 	bl	20001938 <vPortExitCritical>
	taskENTER_CRITICAL();
20001eb2:	f7ff fd1f 	bl	200018f4 <vPortEnterCritical>
		int8_t cRxLock = pxQueue->cRxLock;
20001eb6:	f895 4044 	ldrb.w	r4, [r5, #68]	; 0x44
20001eba:	b264      	sxtb	r4, r4
		while( cRxLock > queueLOCKED_UNMODIFIED )
20001ebc:	e001      	b.n	20001ec2 <prvUnlockQueue+0x48>
				--cRxLock;
20001ebe:	3c01      	subs	r4, #1
20001ec0:	b264      	sxtb	r4, r4
		while( cRxLock > queueLOCKED_UNMODIFIED )
20001ec2:	2c00      	cmp	r4, #0
20001ec4:	dd0a      	ble.n	20001edc <prvUnlockQueue+0x62>
			if( listLIST_IS_EMPTY( &( pxQueue->xTasksWaitingToSend ) ) == pdFALSE )
20001ec6:	692b      	ldr	r3, [r5, #16]
20001ec8:	b143      	cbz	r3, 20001edc <prvUnlockQueue+0x62>
				if( xTaskRemoveFromEventList( &( pxQueue->xTasksWaitingToSend ) ) != pdFALSE )
20001eca:	f105 0010 	add.w	r0, r5, #16
20001ece:	f000 ff53 	bl	20002d78 <xTaskRemoveFromEventList>
20001ed2:	2800      	cmp	r0, #0
20001ed4:	d0f3      	beq.n	20001ebe <prvUnlockQueue+0x44>
					vTaskMissedYield();
20001ed6:	f000 ffeb 	bl	20002eb0 <vTaskMissedYield>
20001eda:	e7f0      	b.n	20001ebe <prvUnlockQueue+0x44>
		pxQueue->cRxLock = queueUNLOCKED;
20001edc:	23ff      	movs	r3, #255	; 0xff
20001ede:	f885 3044 	strb.w	r3, [r5, #68]	; 0x44
	taskEXIT_CRITICAL();
20001ee2:	f7ff fd29 	bl	20001938 <vPortExitCritical>
20001ee6:	bd38      	pop	{r3, r4, r5, pc}

20001ee8 <xQueueGenericReset>:
{
20001ee8:	b538      	push	{r3, r4, r5, lr}
	configASSERT( pxQueue );
20001eea:	b330      	cbz	r0, 20001f3a <xQueueGenericReset+0x52>
20001eec:	4604      	mov	r4, r0
20001eee:	460d      	mov	r5, r1
	taskENTER_CRITICAL();
20001ef0:	f7ff fd00 	bl	200018f4 <vPortEnterCritical>
		pxQueue->pcTail = pxQueue->pcHead + ( pxQueue->uxLength * pxQueue->uxItemSize );
20001ef4:	6821      	ldr	r1, [r4, #0]
20001ef6:	6be2      	ldr	r2, [r4, #60]	; 0x3c
20001ef8:	6c23      	ldr	r3, [r4, #64]	; 0x40
20001efa:	fb03 1002 	mla	r0, r3, r2, r1
20001efe:	6060      	str	r0, [r4, #4]
		pxQueue->uxMessagesWaiting = ( UBaseType_t ) 0U;
20001f00:	2000      	movs	r0, #0
20001f02:	63a0      	str	r0, [r4, #56]	; 0x38
		pxQueue->pcWriteTo = pxQueue->pcHead;
20001f04:	60a1      	str	r1, [r4, #8]
		pxQueue->u.pcReadFrom = pxQueue->pcHead + ( ( pxQueue->uxLength - ( UBaseType_t ) 1U ) * pxQueue->uxItemSize );
20001f06:	3a01      	subs	r2, #1
20001f08:	fb02 1303 	mla	r3, r2, r3, r1
20001f0c:	60e3      	str	r3, [r4, #12]
		pxQueue->cRxLock = queueUNLOCKED;
20001f0e:	23ff      	movs	r3, #255	; 0xff
20001f10:	f884 3044 	strb.w	r3, [r4, #68]	; 0x44
		pxQueue->cTxLock = queueUNLOCKED;
20001f14:	f884 3045 	strb.w	r3, [r4, #69]	; 0x45
		if( xNewQueue == pdFALSE )
20001f18:	b9c5      	cbnz	r5, 20001f4c <xQueueGenericReset+0x64>
			if( listLIST_IS_EMPTY( &( pxQueue->xTasksWaitingToSend ) ) == pdFALSE )
20001f1a:	6923      	ldr	r3, [r4, #16]
20001f1c:	b1f3      	cbz	r3, 20001f5c <xQueueGenericReset+0x74>
				if( xTaskRemoveFromEventList( &( pxQueue->xTasksWaitingToSend ) ) != pdFALSE )
20001f1e:	f104 0010 	add.w	r0, r4, #16
20001f22:	f000 ff29 	bl	20002d78 <xTaskRemoveFromEventList>
20001f26:	b1c8      	cbz	r0, 20001f5c <xQueueGenericReset+0x74>
					queueYIELD_IF_USING_PREEMPTION();
20001f28:	f04f 5280 	mov.w	r2, #268435456	; 0x10000000
20001f2c:	4b0d      	ldr	r3, [pc, #52]	; (20001f64 <xQueueGenericReset+0x7c>)
20001f2e:	601a      	str	r2, [r3, #0]
20001f30:	f3bf 8f4f 	dsb	sy
20001f34:	f3bf 8f6f 	isb	sy
20001f38:	e010      	b.n	20001f5c <xQueueGenericReset+0x74>
20001f3a:	f04f 0350 	mov.w	r3, #80	; 0x50
20001f3e:	f383 8811 	msr	BASEPRI, r3
20001f42:	f3bf 8f6f 	isb	sy
20001f46:	f3bf 8f4f 	dsb	sy
20001f4a:	e7fe      	b.n	20001f4a <xQueueGenericReset+0x62>
			vListInitialise( &( pxQueue->xTasksWaitingToSend ) );
20001f4c:	f104 0010 	add.w	r0, r4, #16
20001f50:	f7ff fc2a 	bl	200017a8 <vListInitialise>
			vListInitialise( &( pxQueue->xTasksWaitingToReceive ) );
20001f54:	f104 0024 	add.w	r0, r4, #36	; 0x24
20001f58:	f7ff fc26 	bl	200017a8 <vListInitialise>
	taskEXIT_CRITICAL();
20001f5c:	f7ff fcec 	bl	20001938 <vPortExitCritical>
}
20001f60:	2001      	movs	r0, #1
20001f62:	bd38      	pop	{r3, r4, r5, pc}
20001f64:	e000ed04 	.word	0xe000ed04

20001f68 <prvInitialiseNewQueue>:
{
20001f68:	b510      	push	{r4, lr}
20001f6a:	9b02      	ldr	r3, [sp, #8]
	if( uxItemSize == ( UBaseType_t ) 0 )
20001f6c:	460c      	mov	r4, r1
20001f6e:	b139      	cbz	r1, 20001f80 <prvInitialiseNewQueue+0x18>
		pxNewQueue->pcHead = ( int8_t * ) pucQueueStorage;
20001f70:	601a      	str	r2, [r3, #0]
	pxNewQueue->uxLength = uxQueueLength;
20001f72:	63d8      	str	r0, [r3, #60]	; 0x3c
	pxNewQueue->uxItemSize = uxItemSize;
20001f74:	641c      	str	r4, [r3, #64]	; 0x40
	( void ) xQueueGenericReset( pxNewQueue, pdTRUE );
20001f76:	2101      	movs	r1, #1
20001f78:	4618      	mov	r0, r3
20001f7a:	f7ff ffb5 	bl	20001ee8 <xQueueGenericReset>
20001f7e:	bd10      	pop	{r4, pc}
		pxNewQueue->pcHead = ( int8_t * ) pxNewQueue;
20001f80:	601b      	str	r3, [r3, #0]
20001f82:	e7f6      	b.n	20001f72 <prvInitialiseNewQueue+0xa>

20001f84 <xQueueGenericCreate>:
		configASSERT( uxQueueLength > ( UBaseType_t ) 0 );
20001f84:	b940      	cbnz	r0, 20001f98 <xQueueGenericCreate+0x14>
20001f86:	f04f 0350 	mov.w	r3, #80	; 0x50
20001f8a:	f383 8811 	msr	BASEPRI, r3
20001f8e:	f3bf 8f6f 	isb	sy
20001f92:	f3bf 8f4f 	dsb	sy
20001f96:	e7fe      	b.n	20001f96 <xQueueGenericCreate+0x12>
	{
20001f98:	b5f0      	push	{r4, r5, r6, r7, lr}
20001f9a:	b083      	sub	sp, #12
20001f9c:	4605      	mov	r5, r0
		if( uxItemSize == ( UBaseType_t ) 0 )
20001f9e:	b111      	cbz	r1, 20001fa6 <xQueueGenericCreate+0x22>
			xQueueSizeInBytes = ( size_t ) ( uxQueueLength * uxItemSize ); /*lint !e961 MISRA exception as the casts are only redundant for some ports. */
20001fa0:	fb01 f000 	mul.w	r0, r1, r0
20001fa4:	e000      	b.n	20001fa8 <xQueueGenericCreate+0x24>
			xQueueSizeInBytes = ( size_t ) 0;
20001fa6:	2000      	movs	r0, #0
20001fa8:	4617      	mov	r7, r2
20001faa:	460c      	mov	r4, r1
		pxNewQueue = ( Queue_t * ) pvPortMalloc( sizeof( Queue_t ) + xQueueSizeInBytes );
20001fac:	3048      	adds	r0, #72	; 0x48
20001fae:	f7ff fe3f 	bl	20001c30 <pvPortMalloc>
		if( pxNewQueue != NULL )
20001fb2:	4606      	mov	r6, r0
20001fb4:	b138      	cbz	r0, 20001fc6 <xQueueGenericCreate+0x42>
			prvInitialiseNewQueue( uxQueueLength, uxItemSize, pucQueueStorage, ucQueueType, pxNewQueue );
20001fb6:	9000      	str	r0, [sp, #0]
20001fb8:	463b      	mov	r3, r7
20001fba:	f100 0248 	add.w	r2, r0, #72	; 0x48
20001fbe:	4621      	mov	r1, r4
20001fc0:	4628      	mov	r0, r5
20001fc2:	f7ff ffd1 	bl	20001f68 <prvInitialiseNewQueue>
	}
20001fc6:	4630      	mov	r0, r6
20001fc8:	b003      	add	sp, #12
20001fca:	bdf0      	pop	{r4, r5, r6, r7, pc}

20001fcc <xQueueGenericSend>:
{
20001fcc:	b5f0      	push	{r4, r5, r6, r7, lr}
20001fce:	b085      	sub	sp, #20
20001fd0:	9201      	str	r2, [sp, #4]
	configASSERT( pxQueue );
20001fd2:	b160      	cbz	r0, 20001fee <xQueueGenericSend+0x22>
20001fd4:	4604      	mov	r4, r0
	configASSERT( !( ( pvItemToQueue == NULL ) && ( pxQueue->uxItemSize != ( UBaseType_t ) 0U ) ) );
20001fd6:	b199      	cbz	r1, 20002000 <xQueueGenericSend+0x34>
20001fd8:	2501      	movs	r5, #1
20001fda:	b9bd      	cbnz	r5, 2000200c <xQueueGenericSend+0x40>
20001fdc:	f04f 0350 	mov.w	r3, #80	; 0x50
20001fe0:	f383 8811 	msr	BASEPRI, r3
20001fe4:	f3bf 8f6f 	isb	sy
20001fe8:	f3bf 8f4f 	dsb	sy
20001fec:	e7fe      	b.n	20001fec <xQueueGenericSend+0x20>
20001fee:	f04f 0350 	mov.w	r3, #80	; 0x50
20001ff2:	f383 8811 	msr	BASEPRI, r3
20001ff6:	f3bf 8f6f 	isb	sy
20001ffa:	f3bf 8f4f 	dsb	sy
20001ffe:	e7fe      	b.n	20001ffe <xQueueGenericSend+0x32>
20002000:	6c02      	ldr	r2, [r0, #64]	; 0x40
20002002:	b90a      	cbnz	r2, 20002008 <xQueueGenericSend+0x3c>
20002004:	2501      	movs	r5, #1
20002006:	e7e8      	b.n	20001fda <xQueueGenericSend+0xe>
20002008:	2500      	movs	r5, #0
2000200a:	e7e6      	b.n	20001fda <xQueueGenericSend+0xe>
	configASSERT( !( ( xCopyPosition == queueOVERWRITE ) && ( pxQueue->uxLength != 1 ) ) );
2000200c:	2b02      	cmp	r3, #2
2000200e:	d009      	beq.n	20002024 <xQueueGenericSend+0x58>
20002010:	b96d      	cbnz	r5, 2000202e <xQueueGenericSend+0x62>
20002012:	f04f 0350 	mov.w	r3, #80	; 0x50
20002016:	f383 8811 	msr	BASEPRI, r3
2000201a:	f3bf 8f6f 	isb	sy
2000201e:	f3bf 8f4f 	dsb	sy
20002022:	e7fe      	b.n	20002022 <xQueueGenericSend+0x56>
20002024:	6be2      	ldr	r2, [r4, #60]	; 0x3c
20002026:	2a01      	cmp	r2, #1
20002028:	d0f2      	beq.n	20002010 <xQueueGenericSend+0x44>
2000202a:	2500      	movs	r5, #0
2000202c:	e7f0      	b.n	20002010 <xQueueGenericSend+0x44>
2000202e:	461e      	mov	r6, r3
20002030:	460f      	mov	r7, r1
		configASSERT( !( ( xTaskGetSchedulerState() == taskSCHEDULER_SUSPENDED ) && ( xTicksToWait != 0 ) ) );
20002032:	f000 ff43 	bl	20002ebc <xTaskGetSchedulerState>
20002036:	b910      	cbnz	r0, 2000203e <xQueueGenericSend+0x72>
20002038:	9b01      	ldr	r3, [sp, #4]
2000203a:	b103      	cbz	r3, 2000203e <xQueueGenericSend+0x72>
2000203c:	2500      	movs	r5, #0
2000203e:	b945      	cbnz	r5, 20002052 <xQueueGenericSend+0x86>
20002040:	f04f 0350 	mov.w	r3, #80	; 0x50
20002044:	f383 8811 	msr	BASEPRI, r3
20002048:	f3bf 8f6f 	isb	sy
2000204c:	f3bf 8f4f 	dsb	sy
20002050:	e7fe      	b.n	20002050 <xQueueGenericSend+0x84>
20002052:	2500      	movs	r5, #0
20002054:	e02c      	b.n	200020b0 <xQueueGenericSend+0xe4>
				xYieldRequired = prvCopyDataToQueue( pxQueue, pvItemToQueue, xCopyPosition );
20002056:	4632      	mov	r2, r6
20002058:	4639      	mov	r1, r7
2000205a:	4620      	mov	r0, r4
2000205c:	f7ff fec0 	bl	20001de0 <prvCopyDataToQueue>
					if( listLIST_IS_EMPTY( &( pxQueue->xTasksWaitingToReceive ) ) == pdFALSE )
20002060:	6a63      	ldr	r3, [r4, #36]	; 0x24
20002062:	b18b      	cbz	r3, 20002088 <xQueueGenericSend+0xbc>
						if( xTaskRemoveFromEventList( &( pxQueue->xTasksWaitingToReceive ) ) != pdFALSE )
20002064:	f104 0024 	add.w	r0, r4, #36	; 0x24
20002068:	f000 fe86 	bl	20002d78 <xTaskRemoveFromEventList>
2000206c:	b138      	cbz	r0, 2000207e <xQueueGenericSend+0xb2>
							queueYIELD_IF_USING_PREEMPTION();
2000206e:	f04f 5280 	mov.w	r2, #268435456	; 0x10000000
20002072:	4b37      	ldr	r3, [pc, #220]	; (20002150 <xQueueGenericSend+0x184>)
20002074:	601a      	str	r2, [r3, #0]
20002076:	f3bf 8f4f 	dsb	sy
2000207a:	f3bf 8f6f 	isb	sy
				taskEXIT_CRITICAL();
2000207e:	f7ff fc5b 	bl	20001938 <vPortExitCritical>
				return pdPASS;
20002082:	2001      	movs	r0, #1
}
20002084:	b005      	add	sp, #20
20002086:	bdf0      	pop	{r4, r5, r6, r7, pc}
					else if( xYieldRequired != pdFALSE )
20002088:	2800      	cmp	r0, #0
2000208a:	d0f8      	beq.n	2000207e <xQueueGenericSend+0xb2>
						queueYIELD_IF_USING_PREEMPTION();
2000208c:	f04f 5280 	mov.w	r2, #268435456	; 0x10000000
20002090:	4b2f      	ldr	r3, [pc, #188]	; (20002150 <xQueueGenericSend+0x184>)
20002092:	601a      	str	r2, [r3, #0]
20002094:	f3bf 8f4f 	dsb	sy
20002098:	f3bf 8f6f 	isb	sy
2000209c:	e7ef      	b.n	2000207e <xQueueGenericSend+0xb2>
					taskEXIT_CRITICAL();
2000209e:	f7ff fc4b 	bl	20001938 <vPortExitCritical>
					return errQUEUE_FULL;
200020a2:	2000      	movs	r0, #0
200020a4:	e7ee      	b.n	20002084 <xQueueGenericSend+0xb8>
				prvUnlockQueue( pxQueue );
200020a6:	4620      	mov	r0, r4
200020a8:	f7ff fee7 	bl	20001e7a <prvUnlockQueue>
				( void ) xTaskResumeAll();
200020ac:	f000 fcfa 	bl	20002aa4 <xTaskResumeAll>
		taskENTER_CRITICAL();
200020b0:	f7ff fc20 	bl	200018f4 <vPortEnterCritical>
			if( ( pxQueue->uxMessagesWaiting < pxQueue->uxLength ) || ( xCopyPosition == queueOVERWRITE ) )
200020b4:	6ba2      	ldr	r2, [r4, #56]	; 0x38
200020b6:	6be3      	ldr	r3, [r4, #60]	; 0x3c
200020b8:	429a      	cmp	r2, r3
200020ba:	d3cc      	bcc.n	20002056 <xQueueGenericSend+0x8a>
200020bc:	2e02      	cmp	r6, #2
200020be:	d0ca      	beq.n	20002056 <xQueueGenericSend+0x8a>
				if( xTicksToWait == ( TickType_t ) 0 )
200020c0:	9b01      	ldr	r3, [sp, #4]
200020c2:	2b00      	cmp	r3, #0
200020c4:	d0eb      	beq.n	2000209e <xQueueGenericSend+0xd2>
				else if( xEntryTimeSet == pdFALSE )
200020c6:	b91d      	cbnz	r5, 200020d0 <xQueueGenericSend+0x104>
					vTaskSetTimeOutState( &xTimeOut );
200020c8:	a802      	add	r0, sp, #8
200020ca:	f000 fe9b 	bl	20002e04 <vTaskSetTimeOutState>
					xEntryTimeSet = pdTRUE;
200020ce:	2501      	movs	r5, #1
		taskEXIT_CRITICAL();
200020d0:	f7ff fc32 	bl	20001938 <vPortExitCritical>
		vTaskSuspendAll();
200020d4:	f000 fc40 	bl	20002958 <vTaskSuspendAll>
		prvLockQueue( pxQueue );
200020d8:	f7ff fc0c 	bl	200018f4 <vPortEnterCritical>
200020dc:	f894 3044 	ldrb.w	r3, [r4, #68]	; 0x44
200020e0:	b25b      	sxtb	r3, r3
200020e2:	f1b3 3fff 	cmp.w	r3, #4294967295
200020e6:	d102      	bne.n	200020ee <xQueueGenericSend+0x122>
200020e8:	2300      	movs	r3, #0
200020ea:	f884 3044 	strb.w	r3, [r4, #68]	; 0x44
200020ee:	f894 3045 	ldrb.w	r3, [r4, #69]	; 0x45
200020f2:	b25b      	sxtb	r3, r3
200020f4:	f1b3 3fff 	cmp.w	r3, #4294967295
200020f8:	d102      	bne.n	20002100 <xQueueGenericSend+0x134>
200020fa:	2300      	movs	r3, #0
200020fc:	f884 3045 	strb.w	r3, [r4, #69]	; 0x45
20002100:	f7ff fc1a 	bl	20001938 <vPortExitCritical>
		if( xTaskCheckForTimeOut( &xTimeOut, &xTicksToWait ) == pdFALSE )
20002104:	a901      	add	r1, sp, #4
20002106:	a802      	add	r0, sp, #8
20002108:	f000 fe92 	bl	20002e30 <xTaskCheckForTimeOut>
2000210c:	b9c8      	cbnz	r0, 20002142 <xQueueGenericSend+0x176>
			if( prvIsQueueFull( pxQueue ) != pdFALSE )
2000210e:	4620      	mov	r0, r4
20002110:	f7ff fe4a 	bl	20001da8 <prvIsQueueFull>
20002114:	2800      	cmp	r0, #0
20002116:	d0c6      	beq.n	200020a6 <xQueueGenericSend+0xda>
				vTaskPlaceOnEventList( &( pxQueue->xTasksWaitingToSend ), xTicksToWait );
20002118:	9901      	ldr	r1, [sp, #4]
2000211a:	f104 0010 	add.w	r0, r4, #16
2000211e:	f000 fdf7 	bl	20002d10 <vTaskPlaceOnEventList>
				prvUnlockQueue( pxQueue );
20002122:	4620      	mov	r0, r4
20002124:	f7ff fea9 	bl	20001e7a <prvUnlockQueue>
				if( xTaskResumeAll() == pdFALSE )
20002128:	f000 fcbc 	bl	20002aa4 <xTaskResumeAll>
2000212c:	2800      	cmp	r0, #0
2000212e:	d1bf      	bne.n	200020b0 <xQueueGenericSend+0xe4>
					portYIELD_WITHIN_API();
20002130:	f04f 5280 	mov.w	r2, #268435456	; 0x10000000
20002134:	4b06      	ldr	r3, [pc, #24]	; (20002150 <xQueueGenericSend+0x184>)
20002136:	601a      	str	r2, [r3, #0]
20002138:	f3bf 8f4f 	dsb	sy
2000213c:	f3bf 8f6f 	isb	sy
20002140:	e7b6      	b.n	200020b0 <xQueueGenericSend+0xe4>
			prvUnlockQueue( pxQueue );
20002142:	4620      	mov	r0, r4
20002144:	f7ff fe99 	bl	20001e7a <prvUnlockQueue>
			( void ) xTaskResumeAll();
20002148:	f000 fcac 	bl	20002aa4 <xTaskResumeAll>
			return errQUEUE_FULL;
2000214c:	2000      	movs	r0, #0
2000214e:	e799      	b.n	20002084 <xQueueGenericSend+0xb8>
20002150:	e000ed04 	.word	0xe000ed04

20002154 <prvInitialiseMutex>:
		if( pxNewQueue != NULL )
20002154:	b148      	cbz	r0, 2000216a <prvInitialiseMutex+0x16>
	{
20002156:	b508      	push	{r3, lr}
			pxNewQueue->pxMutexHolder = NULL;
20002158:	2100      	movs	r1, #0
2000215a:	6041      	str	r1, [r0, #4]
			pxNewQueue->uxQueueType = queueQUEUE_IS_MUTEX;
2000215c:	6001      	str	r1, [r0, #0]
			pxNewQueue->u.uxRecursiveCallCount = 0;
2000215e:	60c1      	str	r1, [r0, #12]
			( void ) xQueueGenericSend( pxNewQueue, NULL, ( TickType_t ) 0U, queueSEND_TO_BACK );
20002160:	460b      	mov	r3, r1
20002162:	460a      	mov	r2, r1
20002164:	f7ff ff32 	bl	20001fcc <xQueueGenericSend>
20002168:	bd08      	pop	{r3, pc}
2000216a:	4770      	bx	lr

2000216c <xQueueCreateMutex>:
	{
2000216c:	b510      	push	{r4, lr}
		pxNewQueue = ( Queue_t * ) xQueueGenericCreate( uxMutexLength, uxMutexSize, ucQueueType );
2000216e:	4602      	mov	r2, r0
20002170:	2100      	movs	r1, #0
20002172:	2001      	movs	r0, #1
20002174:	f7ff ff06 	bl	20001f84 <xQueueGenericCreate>
20002178:	4604      	mov	r4, r0
		prvInitialiseMutex( pxNewQueue );
2000217a:	f7ff ffeb 	bl	20002154 <prvInitialiseMutex>
	}
2000217e:	4620      	mov	r0, r4
20002180:	bd10      	pop	{r4, pc}

20002182 <xQueueGenericSendFromISR>:
{
20002182:	e92d 43f8 	stmdb	sp!, {r3, r4, r5, r6, r7, r8, r9, lr}
	configASSERT( pxQueue );
20002186:	b160      	cbz	r0, 200021a2 <xQueueGenericSendFromISR+0x20>
20002188:	4604      	mov	r4, r0
	configASSERT( !( ( pvItemToQueue == NULL ) && ( pxQueue->uxItemSize != ( UBaseType_t ) 0U ) ) );
2000218a:	b199      	cbz	r1, 200021b4 <xQueueGenericSendFromISR+0x32>
2000218c:	2001      	movs	r0, #1
2000218e:	b9b8      	cbnz	r0, 200021c0 <xQueueGenericSendFromISR+0x3e>
20002190:	f04f 0350 	mov.w	r3, #80	; 0x50
20002194:	f383 8811 	msr	BASEPRI, r3
20002198:	f3bf 8f6f 	isb	sy
2000219c:	f3bf 8f4f 	dsb	sy
200021a0:	e7fe      	b.n	200021a0 <xQueueGenericSendFromISR+0x1e>
200021a2:	f04f 0350 	mov.w	r3, #80	; 0x50
200021a6:	f383 8811 	msr	BASEPRI, r3
200021aa:	f3bf 8f6f 	isb	sy
200021ae:	f3bf 8f4f 	dsb	sy
200021b2:	e7fe      	b.n	200021b2 <xQueueGenericSendFromISR+0x30>
200021b4:	6c00      	ldr	r0, [r0, #64]	; 0x40
200021b6:	b908      	cbnz	r0, 200021bc <xQueueGenericSendFromISR+0x3a>
200021b8:	2001      	movs	r0, #1
200021ba:	e7e8      	b.n	2000218e <xQueueGenericSendFromISR+0xc>
200021bc:	2000      	movs	r0, #0
200021be:	e7e6      	b.n	2000218e <xQueueGenericSendFromISR+0xc>
	configASSERT( !( ( xCopyPosition == queueOVERWRITE ) && ( pxQueue->uxLength != 1 ) ) );
200021c0:	2b02      	cmp	r3, #2
200021c2:	d009      	beq.n	200021d8 <xQueueGenericSendFromISR+0x56>
200021c4:	b968      	cbnz	r0, 200021e2 <xQueueGenericSendFromISR+0x60>
200021c6:	f04f 0350 	mov.w	r3, #80	; 0x50
200021ca:	f383 8811 	msr	BASEPRI, r3
200021ce:	f3bf 8f6f 	isb	sy
200021d2:	f3bf 8f4f 	dsb	sy
200021d6:	e7fe      	b.n	200021d6 <xQueueGenericSendFromISR+0x54>
200021d8:	6be5      	ldr	r5, [r4, #60]	; 0x3c
200021da:	2d01      	cmp	r5, #1
200021dc:	d0f2      	beq.n	200021c4 <xQueueGenericSendFromISR+0x42>
200021de:	2000      	movs	r0, #0
200021e0:	e7f0      	b.n	200021c4 <xQueueGenericSendFromISR+0x42>
200021e2:	461f      	mov	r7, r3
200021e4:	4690      	mov	r8, r2
200021e6:	4689      	mov	r9, r1
	portASSERT_IF_INTERRUPT_PRIORITY_INVALID();
200021e8:	f7ff fc96 	bl	20001b18 <vPortValidateInterruptPriority>
	__asm volatile
200021ec:	f3ef 8611 	mrs	r6, BASEPRI
200021f0:	f04f 0350 	mov.w	r3, #80	; 0x50
200021f4:	f383 8811 	msr	BASEPRI, r3
200021f8:	f3bf 8f6f 	isb	sy
200021fc:	f3bf 8f4f 	dsb	sy
		if( ( pxQueue->uxMessagesWaiting < pxQueue->uxLength ) || ( xCopyPosition == queueOVERWRITE ) )
20002200:	6ba2      	ldr	r2, [r4, #56]	; 0x38
20002202:	6be3      	ldr	r3, [r4, #60]	; 0x3c
20002204:	429a      	cmp	r2, r3
20002206:	d301      	bcc.n	2000220c <xQueueGenericSendFromISR+0x8a>
20002208:	2f02      	cmp	r7, #2
2000220a:	d121      	bne.n	20002250 <xQueueGenericSendFromISR+0xce>
			const int8_t cTxLock = pxQueue->cTxLock;
2000220c:	f894 5045 	ldrb.w	r5, [r4, #69]	; 0x45
20002210:	b26d      	sxtb	r5, r5
			( void ) prvCopyDataToQueue( pxQueue, pvItemToQueue, xCopyPosition );
20002212:	463a      	mov	r2, r7
20002214:	4649      	mov	r1, r9
20002216:	4620      	mov	r0, r4
20002218:	f7ff fde2 	bl	20001de0 <prvCopyDataToQueue>
			if( cTxLock == queueUNLOCKED )
2000221c:	f1b5 3fff 	cmp.w	r5, #4294967295
20002220:	d110      	bne.n	20002244 <xQueueGenericSendFromISR+0xc2>
					if( listLIST_IS_EMPTY( &( pxQueue->xTasksWaitingToReceive ) ) == pdFALSE )
20002222:	6a63      	ldr	r3, [r4, #36]	; 0x24
20002224:	b1b3      	cbz	r3, 20002254 <xQueueGenericSendFromISR+0xd2>
						if( xTaskRemoveFromEventList( &( pxQueue->xTasksWaitingToReceive ) ) != pdFALSE )
20002226:	f104 0024 	add.w	r0, r4, #36	; 0x24
2000222a:	f000 fda5 	bl	20002d78 <xTaskRemoveFromEventList>
2000222e:	b198      	cbz	r0, 20002258 <xQueueGenericSendFromISR+0xd6>
							if( pxHigherPriorityTaskWoken != NULL )
20002230:	f1b8 0f00 	cmp.w	r8, #0
20002234:	d012      	beq.n	2000225c <xQueueGenericSendFromISR+0xda>
								*pxHigherPriorityTaskWoken = pdTRUE;
20002236:	2001      	movs	r0, #1
20002238:	f8c8 0000 	str.w	r0, [r8]
	__asm volatile
2000223c:	f386 8811 	msr	BASEPRI, r6
}
20002240:	e8bd 83f8 	ldmia.w	sp!, {r3, r4, r5, r6, r7, r8, r9, pc}
				pxQueue->cTxLock = ( int8_t ) ( cTxLock + 1 );
20002244:	1c6b      	adds	r3, r5, #1
20002246:	b25b      	sxtb	r3, r3
20002248:	f884 3045 	strb.w	r3, [r4, #69]	; 0x45
			xReturn = pdPASS;
2000224c:	2001      	movs	r0, #1
2000224e:	e7f5      	b.n	2000223c <xQueueGenericSendFromISR+0xba>
			xReturn = errQUEUE_FULL;
20002250:	2000      	movs	r0, #0
20002252:	e7f3      	b.n	2000223c <xQueueGenericSendFromISR+0xba>
			xReturn = pdPASS;
20002254:	2001      	movs	r0, #1
20002256:	e7f1      	b.n	2000223c <xQueueGenericSendFromISR+0xba>
20002258:	2001      	movs	r0, #1
2000225a:	e7ef      	b.n	2000223c <xQueueGenericSendFromISR+0xba>
2000225c:	2001      	movs	r0, #1
2000225e:	e7ed      	b.n	2000223c <xQueueGenericSendFromISR+0xba>

20002260 <xQueueGiveFromISR>:
	configASSERT( pxQueue );
20002260:	b160      	cbz	r0, 2000227c <xQueueGiveFromISR+0x1c>
{
20002262:	b570      	push	{r4, r5, r6, lr}
20002264:	4604      	mov	r4, r0
	configASSERT( pxQueue->uxItemSize == 0 );
20002266:	6c03      	ldr	r3, [r0, #64]	; 0x40
20002268:	b18b      	cbz	r3, 2000228e <xQueueGiveFromISR+0x2e>
	__asm volatile
2000226a:	f04f 0350 	mov.w	r3, #80	; 0x50
2000226e:	f383 8811 	msr	BASEPRI, r3
20002272:	f3bf 8f6f 	isb	sy
20002276:	f3bf 8f4f 	dsb	sy
2000227a:	e7fe      	b.n	2000227a <xQueueGiveFromISR+0x1a>
2000227c:	f04f 0350 	mov.w	r3, #80	; 0x50
20002280:	f383 8811 	msr	BASEPRI, r3
20002284:	f3bf 8f6f 	isb	sy
20002288:	f3bf 8f4f 	dsb	sy
2000228c:	e7fe      	b.n	2000228c <xQueueGiveFromISR+0x2c>
	configASSERT( !( ( pxQueue->uxQueueType == queueQUEUE_IS_MUTEX ) && ( pxQueue->pxMutexHolder != NULL ) ) );
2000228e:	6803      	ldr	r3, [r0, #0]
20002290:	b153      	cbz	r3, 200022a8 <xQueueGiveFromISR+0x48>
20002292:	2301      	movs	r3, #1
20002294:	b973      	cbnz	r3, 200022b4 <xQueueGiveFromISR+0x54>
20002296:	f04f 0350 	mov.w	r3, #80	; 0x50
2000229a:	f383 8811 	msr	BASEPRI, r3
2000229e:	f3bf 8f6f 	isb	sy
200022a2:	f3bf 8f4f 	dsb	sy
200022a6:	e7fe      	b.n	200022a6 <xQueueGiveFromISR+0x46>
200022a8:	6843      	ldr	r3, [r0, #4]
200022aa:	b90b      	cbnz	r3, 200022b0 <xQueueGiveFromISR+0x50>
200022ac:	2301      	movs	r3, #1
200022ae:	e7f1      	b.n	20002294 <xQueueGiveFromISR+0x34>
200022b0:	2300      	movs	r3, #0
200022b2:	e7ef      	b.n	20002294 <xQueueGiveFromISR+0x34>
200022b4:	460e      	mov	r6, r1
	portASSERT_IF_INTERRUPT_PRIORITY_INVALID();
200022b6:	f7ff fc2f 	bl	20001b18 <vPortValidateInterruptPriority>
	__asm volatile
200022ba:	f3ef 8511 	mrs	r5, BASEPRI
200022be:	f04f 0350 	mov.w	r3, #80	; 0x50
200022c2:	f383 8811 	msr	BASEPRI, r3
200022c6:	f3bf 8f6f 	isb	sy
200022ca:	f3bf 8f4f 	dsb	sy
		const UBaseType_t uxMessagesWaiting = pxQueue->uxMessagesWaiting;
200022ce:	6ba2      	ldr	r2, [r4, #56]	; 0x38
		if( uxMessagesWaiting < pxQueue->uxLength )
200022d0:	6be3      	ldr	r3, [r4, #60]	; 0x3c
200022d2:	429a      	cmp	r2, r3
200022d4:	d21a      	bcs.n	2000230c <xQueueGiveFromISR+0xac>
			const int8_t cTxLock = pxQueue->cTxLock;
200022d6:	f894 3045 	ldrb.w	r3, [r4, #69]	; 0x45
200022da:	b25b      	sxtb	r3, r3
			pxQueue->uxMessagesWaiting = uxMessagesWaiting + 1;
200022dc:	3201      	adds	r2, #1
200022de:	63a2      	str	r2, [r4, #56]	; 0x38
			if( cTxLock == queueUNLOCKED )
200022e0:	f1b3 3fff 	cmp.w	r3, #4294967295
200022e4:	d10c      	bne.n	20002300 <xQueueGiveFromISR+0xa0>
					if( listLIST_IS_EMPTY( &( pxQueue->xTasksWaitingToReceive ) ) == pdFALSE )
200022e6:	6a63      	ldr	r3, [r4, #36]	; 0x24
200022e8:	b193      	cbz	r3, 20002310 <xQueueGiveFromISR+0xb0>
						if( xTaskRemoveFromEventList( &( pxQueue->xTasksWaitingToReceive ) ) != pdFALSE )
200022ea:	f104 0024 	add.w	r0, r4, #36	; 0x24
200022ee:	f000 fd43 	bl	20002d78 <xTaskRemoveFromEventList>
200022f2:	b178      	cbz	r0, 20002314 <xQueueGiveFromISR+0xb4>
							if( pxHigherPriorityTaskWoken != NULL )
200022f4:	b186      	cbz	r6, 20002318 <xQueueGiveFromISR+0xb8>
								*pxHigherPriorityTaskWoken = pdTRUE;
200022f6:	2001      	movs	r0, #1
200022f8:	6030      	str	r0, [r6, #0]
	__asm volatile
200022fa:	f385 8811 	msr	BASEPRI, r5
}
200022fe:	bd70      	pop	{r4, r5, r6, pc}
				pxQueue->cTxLock = ( int8_t ) ( cTxLock + 1 );
20002300:	3301      	adds	r3, #1
20002302:	b25b      	sxtb	r3, r3
20002304:	f884 3045 	strb.w	r3, [r4, #69]	; 0x45
			xReturn = pdPASS;
20002308:	2001      	movs	r0, #1
2000230a:	e7f6      	b.n	200022fa <xQueueGiveFromISR+0x9a>
			xReturn = errQUEUE_FULL;
2000230c:	2000      	movs	r0, #0
2000230e:	e7f4      	b.n	200022fa <xQueueGiveFromISR+0x9a>
			xReturn = pdPASS;
20002310:	2001      	movs	r0, #1
20002312:	e7f2      	b.n	200022fa <xQueueGiveFromISR+0x9a>
20002314:	2001      	movs	r0, #1
20002316:	e7f0      	b.n	200022fa <xQueueGiveFromISR+0x9a>
20002318:	2001      	movs	r0, #1
2000231a:	e7ee      	b.n	200022fa <xQueueGiveFromISR+0x9a>

2000231c <xQueueGenericReceive>:
{
2000231c:	e92d 41f0 	stmdb	sp!, {r4, r5, r6, r7, r8, lr}
20002320:	b084      	sub	sp, #16
20002322:	9201      	str	r2, [sp, #4]
	configASSERT( pxQueue );
20002324:	b160      	cbz	r0, 20002340 <xQueueGenericReceive+0x24>
20002326:	4604      	mov	r4, r0
	configASSERT( !( ( pvBuffer == NULL ) && ( pxQueue->uxItemSize != ( UBaseType_t ) 0U ) ) );
20002328:	b199      	cbz	r1, 20002352 <xQueueGenericReceive+0x36>
2000232a:	2501      	movs	r5, #1
2000232c:	b9bd      	cbnz	r5, 2000235e <xQueueGenericReceive+0x42>
	__asm volatile
2000232e:	f04f 0350 	mov.w	r3, #80	; 0x50
20002332:	f383 8811 	msr	BASEPRI, r3
20002336:	f3bf 8f6f 	isb	sy
2000233a:	f3bf 8f4f 	dsb	sy
2000233e:	e7fe      	b.n	2000233e <xQueueGenericReceive+0x22>
20002340:	f04f 0350 	mov.w	r3, #80	; 0x50
20002344:	f383 8811 	msr	BASEPRI, r3
20002348:	f3bf 8f6f 	isb	sy
2000234c:	f3bf 8f4f 	dsb	sy
20002350:	e7fe      	b.n	20002350 <xQueueGenericReceive+0x34>
20002352:	6c02      	ldr	r2, [r0, #64]	; 0x40
20002354:	b90a      	cbnz	r2, 2000235a <xQueueGenericReceive+0x3e>
20002356:	2501      	movs	r5, #1
20002358:	e7e8      	b.n	2000232c <xQueueGenericReceive+0x10>
2000235a:	2500      	movs	r5, #0
2000235c:	e7e6      	b.n	2000232c <xQueueGenericReceive+0x10>
2000235e:	461f      	mov	r7, r3
20002360:	4688      	mov	r8, r1
		configASSERT( !( ( xTaskGetSchedulerState() == taskSCHEDULER_SUSPENDED ) && ( xTicksToWait != 0 ) ) );
20002362:	f000 fdab 	bl	20002ebc <xTaskGetSchedulerState>
20002366:	b910      	cbnz	r0, 2000236e <xQueueGenericReceive+0x52>
20002368:	9b01      	ldr	r3, [sp, #4]
2000236a:	b103      	cbz	r3, 2000236e <xQueueGenericReceive+0x52>
2000236c:	2500      	movs	r5, #0
2000236e:	b945      	cbnz	r5, 20002382 <xQueueGenericReceive+0x66>
20002370:	f04f 0350 	mov.w	r3, #80	; 0x50
20002374:	f383 8811 	msr	BASEPRI, r3
20002378:	f3bf 8f6f 	isb	sy
2000237c:	f3bf 8f4f 	dsb	sy
20002380:	e7fe      	b.n	20002380 <xQueueGenericReceive+0x64>
20002382:	2600      	movs	r6, #0
20002384:	e05d      	b.n	20002442 <xQueueGenericReceive+0x126>
				pcOriginalReadPosition = pxQueue->u.pcReadFrom;
20002386:	68e6      	ldr	r6, [r4, #12]
				prvCopyDataFromQueue( pxQueue, pvBuffer );
20002388:	4641      	mov	r1, r8
2000238a:	4620      	mov	r0, r4
2000238c:	f7ff fd63 	bl	20001e56 <prvCopyDataFromQueue>
				if( xJustPeeking == pdFALSE )
20002390:	b9df      	cbnz	r7, 200023ca <xQueueGenericReceive+0xae>
					pxQueue->uxMessagesWaiting = uxMessagesWaiting - 1;
20002392:	3d01      	subs	r5, #1
20002394:	63a5      	str	r5, [r4, #56]	; 0x38
						if( pxQueue->uxQueueType == queueQUEUE_IS_MUTEX )
20002396:	6823      	ldr	r3, [r4, #0]
20002398:	b913      	cbnz	r3, 200023a0 <xQueueGenericReceive+0x84>
							pxQueue->pxMutexHolder = ( int8_t * ) pvTaskIncrementMutexHeldCount(); /*lint !e961 Cast is not redundant as TaskHandle_t is a typedef. */
2000239a:	f000 fe4b 	bl	20003034 <pvTaskIncrementMutexHeldCount>
2000239e:	6060      	str	r0, [r4, #4]
					if( listLIST_IS_EMPTY( &( pxQueue->xTasksWaitingToSend ) ) == pdFALSE )
200023a0:	6923      	ldr	r3, [r4, #16]
200023a2:	b163      	cbz	r3, 200023be <xQueueGenericReceive+0xa2>
						if( xTaskRemoveFromEventList( &( pxQueue->xTasksWaitingToSend ) ) != pdFALSE )
200023a4:	f104 0010 	add.w	r0, r4, #16
200023a8:	f000 fce6 	bl	20002d78 <xTaskRemoveFromEventList>
200023ac:	b138      	cbz	r0, 200023be <xQueueGenericReceive+0xa2>
							queueYIELD_IF_USING_PREEMPTION();
200023ae:	f04f 5280 	mov.w	r2, #268435456	; 0x10000000
200023b2:	4b45      	ldr	r3, [pc, #276]	; (200024c8 <xQueueGenericReceive+0x1ac>)
200023b4:	601a      	str	r2, [r3, #0]
200023b6:	f3bf 8f4f 	dsb	sy
200023ba:	f3bf 8f6f 	isb	sy
				taskEXIT_CRITICAL();
200023be:	f7ff fabb 	bl	20001938 <vPortExitCritical>
				return pdPASS;
200023c2:	2001      	movs	r0, #1
}
200023c4:	b004      	add	sp, #16
200023c6:	e8bd 81f0 	ldmia.w	sp!, {r4, r5, r6, r7, r8, pc}
					pxQueue->u.pcReadFrom = pcOriginalReadPosition;
200023ca:	60e6      	str	r6, [r4, #12]
					if( listLIST_IS_EMPTY( &( pxQueue->xTasksWaitingToReceive ) ) == pdFALSE )
200023cc:	6a63      	ldr	r3, [r4, #36]	; 0x24
200023ce:	2b00      	cmp	r3, #0
200023d0:	d0f5      	beq.n	200023be <xQueueGenericReceive+0xa2>
						if( xTaskRemoveFromEventList( &( pxQueue->xTasksWaitingToReceive ) ) != pdFALSE )
200023d2:	f104 0024 	add.w	r0, r4, #36	; 0x24
200023d6:	f000 fccf 	bl	20002d78 <xTaskRemoveFromEventList>
200023da:	2800      	cmp	r0, #0
200023dc:	d0ef      	beq.n	200023be <xQueueGenericReceive+0xa2>
							queueYIELD_IF_USING_PREEMPTION();
200023de:	f04f 5280 	mov.w	r2, #268435456	; 0x10000000
200023e2:	4b39      	ldr	r3, [pc, #228]	; (200024c8 <xQueueGenericReceive+0x1ac>)
200023e4:	601a      	str	r2, [r3, #0]
200023e6:	f3bf 8f4f 	dsb	sy
200023ea:	f3bf 8f6f 	isb	sy
200023ee:	e7e6      	b.n	200023be <xQueueGenericReceive+0xa2>
					taskEXIT_CRITICAL();
200023f0:	f7ff faa2 	bl	20001938 <vPortExitCritical>
					return errQUEUE_EMPTY;
200023f4:	2000      	movs	r0, #0
200023f6:	e7e5      	b.n	200023c4 <xQueueGenericReceive+0xa8>
					vTaskSetTimeOutState( &xTimeOut );
200023f8:	a802      	add	r0, sp, #8
200023fa:	f000 fd03 	bl	20002e04 <vTaskSetTimeOutState>
					xEntryTimeSet = pdTRUE;
200023fe:	2601      	movs	r6, #1
20002400:	e029      	b.n	20002456 <xQueueGenericReceive+0x13a>
		prvLockQueue( pxQueue );
20002402:	2300      	movs	r3, #0
20002404:	f884 3044 	strb.w	r3, [r4, #68]	; 0x44
20002408:	e031      	b.n	2000246e <xQueueGenericReceive+0x152>
2000240a:	2300      	movs	r3, #0
2000240c:	f884 3045 	strb.w	r3, [r4, #69]	; 0x45
20002410:	e033      	b.n	2000247a <xQueueGenericReceive+0x15e>
						taskENTER_CRITICAL();
20002412:	f7ff fa6f 	bl	200018f4 <vPortEnterCritical>
							vTaskPriorityInherit( ( void * ) pxQueue->pxMutexHolder );
20002416:	6860      	ldr	r0, [r4, #4]
20002418:	f000 fd60 	bl	20002edc <vTaskPriorityInherit>
						taskEXIT_CRITICAL();
2000241c:	f7ff fa8c 	bl	20001938 <vPortExitCritical>
20002420:	e03b      	b.n	2000249a <xQueueGenericReceive+0x17e>
				prvUnlockQueue( pxQueue );
20002422:	4620      	mov	r0, r4
20002424:	f7ff fd29 	bl	20001e7a <prvUnlockQueue>
				( void ) xTaskResumeAll();
20002428:	f000 fb3c 	bl	20002aa4 <xTaskResumeAll>
2000242c:	e009      	b.n	20002442 <xQueueGenericReceive+0x126>
			prvUnlockQueue( pxQueue );
2000242e:	4620      	mov	r0, r4
20002430:	f7ff fd23 	bl	20001e7a <prvUnlockQueue>
			( void ) xTaskResumeAll();
20002434:	f000 fb36 	bl	20002aa4 <xTaskResumeAll>
			if( prvIsQueueEmpty( pxQueue ) != pdFALSE )
20002438:	4620      	mov	r0, r4
2000243a:	f7ff fcc4 	bl	20001dc6 <prvIsQueueEmpty>
2000243e:	2800      	cmp	r0, #0
20002440:	d140      	bne.n	200024c4 <xQueueGenericReceive+0x1a8>
		taskENTER_CRITICAL();
20002442:	f7ff fa57 	bl	200018f4 <vPortEnterCritical>
			const UBaseType_t uxMessagesWaiting = pxQueue->uxMessagesWaiting;
20002446:	6ba5      	ldr	r5, [r4, #56]	; 0x38
			if( uxMessagesWaiting > ( UBaseType_t ) 0 )
20002448:	2d00      	cmp	r5, #0
2000244a:	d19c      	bne.n	20002386 <xQueueGenericReceive+0x6a>
				if( xTicksToWait == ( TickType_t ) 0 )
2000244c:	9b01      	ldr	r3, [sp, #4]
2000244e:	2b00      	cmp	r3, #0
20002450:	d0ce      	beq.n	200023f0 <xQueueGenericReceive+0xd4>
				else if( xEntryTimeSet == pdFALSE )
20002452:	2e00      	cmp	r6, #0
20002454:	d0d0      	beq.n	200023f8 <xQueueGenericReceive+0xdc>
		taskEXIT_CRITICAL();
20002456:	f7ff fa6f 	bl	20001938 <vPortExitCritical>
		vTaskSuspendAll();
2000245a:	f000 fa7d 	bl	20002958 <vTaskSuspendAll>
		prvLockQueue( pxQueue );
2000245e:	f7ff fa49 	bl	200018f4 <vPortEnterCritical>
20002462:	f894 3044 	ldrb.w	r3, [r4, #68]	; 0x44
20002466:	b25b      	sxtb	r3, r3
20002468:	f1b3 3fff 	cmp.w	r3, #4294967295
2000246c:	d0c9      	beq.n	20002402 <xQueueGenericReceive+0xe6>
2000246e:	f894 3045 	ldrb.w	r3, [r4, #69]	; 0x45
20002472:	b25b      	sxtb	r3, r3
20002474:	f1b3 3fff 	cmp.w	r3, #4294967295
20002478:	d0c7      	beq.n	2000240a <xQueueGenericReceive+0xee>
2000247a:	f7ff fa5d 	bl	20001938 <vPortExitCritical>
		if( xTaskCheckForTimeOut( &xTimeOut, &xTicksToWait ) == pdFALSE )
2000247e:	a901      	add	r1, sp, #4
20002480:	a802      	add	r0, sp, #8
20002482:	f000 fcd5 	bl	20002e30 <xTaskCheckForTimeOut>
20002486:	2800      	cmp	r0, #0
20002488:	d1d1      	bne.n	2000242e <xQueueGenericReceive+0x112>
			if( prvIsQueueEmpty( pxQueue ) != pdFALSE )
2000248a:	4620      	mov	r0, r4
2000248c:	f7ff fc9b 	bl	20001dc6 <prvIsQueueEmpty>
20002490:	2800      	cmp	r0, #0
20002492:	d0c6      	beq.n	20002422 <xQueueGenericReceive+0x106>
					if( pxQueue->uxQueueType == queueQUEUE_IS_MUTEX )
20002494:	6823      	ldr	r3, [r4, #0]
20002496:	2b00      	cmp	r3, #0
20002498:	d0bb      	beq.n	20002412 <xQueueGenericReceive+0xf6>
				vTaskPlaceOnEventList( &( pxQueue->xTasksWaitingToReceive ), xTicksToWait );
2000249a:	9901      	ldr	r1, [sp, #4]
2000249c:	f104 0024 	add.w	r0, r4, #36	; 0x24
200024a0:	f000 fc36 	bl	20002d10 <vTaskPlaceOnEventList>
				prvUnlockQueue( pxQueue );
200024a4:	4620      	mov	r0, r4
200024a6:	f7ff fce8 	bl	20001e7a <prvUnlockQueue>
				if( xTaskResumeAll() == pdFALSE )
200024aa:	f000 fafb 	bl	20002aa4 <xTaskResumeAll>
200024ae:	2800      	cmp	r0, #0
200024b0:	d1c7      	bne.n	20002442 <xQueueGenericReceive+0x126>
					portYIELD_WITHIN_API();
200024b2:	f04f 5280 	mov.w	r2, #268435456	; 0x10000000
200024b6:	4b04      	ldr	r3, [pc, #16]	; (200024c8 <xQueueGenericReceive+0x1ac>)
200024b8:	601a      	str	r2, [r3, #0]
200024ba:	f3bf 8f4f 	dsb	sy
200024be:	f3bf 8f6f 	isb	sy
200024c2:	e7be      	b.n	20002442 <xQueueGenericReceive+0x126>
				return errQUEUE_EMPTY;
200024c4:	2000      	movs	r0, #0
200024c6:	e77d      	b.n	200023c4 <xQueueGenericReceive+0xa8>
200024c8:	e000ed04 	.word	0xe000ed04

200024cc <xQueueReceiveFromISR>:
{
200024cc:	e92d 43f8 	stmdb	sp!, {r3, r4, r5, r6, r7, r8, r9, lr}
	configASSERT( pxQueue );
200024d0:	b160      	cbz	r0, 200024ec <xQueueReceiveFromISR+0x20>
200024d2:	4604      	mov	r4, r0
	configASSERT( !( ( pvBuffer == NULL ) && ( pxQueue->uxItemSize != ( UBaseType_t ) 0U ) ) );
200024d4:	b199      	cbz	r1, 200024fe <xQueueReceiveFromISR+0x32>
200024d6:	2301      	movs	r3, #1
200024d8:	b9bb      	cbnz	r3, 2000250a <xQueueReceiveFromISR+0x3e>
200024da:	f04f 0350 	mov.w	r3, #80	; 0x50
200024de:	f383 8811 	msr	BASEPRI, r3
200024e2:	f3bf 8f6f 	isb	sy
200024e6:	f3bf 8f4f 	dsb	sy
200024ea:	e7fe      	b.n	200024ea <xQueueReceiveFromISR+0x1e>
200024ec:	f04f 0350 	mov.w	r3, #80	; 0x50
200024f0:	f383 8811 	msr	BASEPRI, r3
200024f4:	f3bf 8f6f 	isb	sy
200024f8:	f3bf 8f4f 	dsb	sy
200024fc:	e7fe      	b.n	200024fc <xQueueReceiveFromISR+0x30>
200024fe:	6c03      	ldr	r3, [r0, #64]	; 0x40
20002500:	b90b      	cbnz	r3, 20002506 <xQueueReceiveFromISR+0x3a>
20002502:	2301      	movs	r3, #1
20002504:	e7e8      	b.n	200024d8 <xQueueReceiveFromISR+0xc>
20002506:	2300      	movs	r3, #0
20002508:	e7e6      	b.n	200024d8 <xQueueReceiveFromISR+0xc>
2000250a:	4617      	mov	r7, r2
2000250c:	4689      	mov	r9, r1
	portASSERT_IF_INTERRUPT_PRIORITY_INVALID();
2000250e:	f7ff fb03 	bl	20001b18 <vPortValidateInterruptPriority>
	__asm volatile
20002512:	f3ef 8611 	mrs	r6, BASEPRI
20002516:	f04f 0350 	mov.w	r3, #80	; 0x50
2000251a:	f383 8811 	msr	BASEPRI, r3
2000251e:	f3bf 8f6f 	isb	sy
20002522:	f3bf 8f4f 	dsb	sy
		const UBaseType_t uxMessagesWaiting = pxQueue->uxMessagesWaiting;
20002526:	f8d4 8038 	ldr.w	r8, [r4, #56]	; 0x38
		if( uxMessagesWaiting > ( UBaseType_t ) 0 )
2000252a:	f1b8 0f00 	cmp.w	r8, #0
2000252e:	d020      	beq.n	20002572 <xQueueReceiveFromISR+0xa6>
			const int8_t cRxLock = pxQueue->cRxLock;
20002530:	f894 5044 	ldrb.w	r5, [r4, #68]	; 0x44
20002534:	b26d      	sxtb	r5, r5
			prvCopyDataFromQueue( pxQueue, pvBuffer );
20002536:	4649      	mov	r1, r9
20002538:	4620      	mov	r0, r4
2000253a:	f7ff fc8c 	bl	20001e56 <prvCopyDataFromQueue>
			pxQueue->uxMessagesWaiting = uxMessagesWaiting - 1;
2000253e:	f108 33ff 	add.w	r3, r8, #4294967295
20002542:	63a3      	str	r3, [r4, #56]	; 0x38
			if( cRxLock == queueUNLOCKED )
20002544:	f1b5 3fff 	cmp.w	r5, #4294967295
20002548:	d10d      	bne.n	20002566 <xQueueReceiveFromISR+0x9a>
				if( listLIST_IS_EMPTY( &( pxQueue->xTasksWaitingToSend ) ) == pdFALSE )
2000254a:	6923      	ldr	r3, [r4, #16]
2000254c:	b19b      	cbz	r3, 20002576 <xQueueReceiveFromISR+0xaa>
					if( xTaskRemoveFromEventList( &( pxQueue->xTasksWaitingToSend ) ) != pdFALSE )
2000254e:	f104 0010 	add.w	r0, r4, #16
20002552:	f000 fc11 	bl	20002d78 <xTaskRemoveFromEventList>
20002556:	b180      	cbz	r0, 2000257a <xQueueReceiveFromISR+0xae>
						if( pxHigherPriorityTaskWoken != NULL )
20002558:	b18f      	cbz	r7, 2000257e <xQueueReceiveFromISR+0xb2>
							*pxHigherPriorityTaskWoken = pdTRUE;
2000255a:	2001      	movs	r0, #1
2000255c:	6038      	str	r0, [r7, #0]
	__asm volatile
2000255e:	f386 8811 	msr	BASEPRI, r6
}
20002562:	e8bd 83f8 	ldmia.w	sp!, {r3, r4, r5, r6, r7, r8, r9, pc}
				pxQueue->cRxLock = ( int8_t ) ( cRxLock + 1 );
20002566:	1c6b      	adds	r3, r5, #1
20002568:	b25b      	sxtb	r3, r3
2000256a:	f884 3044 	strb.w	r3, [r4, #68]	; 0x44
			xReturn = pdPASS;
2000256e:	2001      	movs	r0, #1
20002570:	e7f5      	b.n	2000255e <xQueueReceiveFromISR+0x92>
			xReturn = pdFAIL;
20002572:	2000      	movs	r0, #0
20002574:	e7f3      	b.n	2000255e <xQueueReceiveFromISR+0x92>
			xReturn = pdPASS;
20002576:	2001      	movs	r0, #1
20002578:	e7f1      	b.n	2000255e <xQueueReceiveFromISR+0x92>
2000257a:	2001      	movs	r0, #1
2000257c:	e7ef      	b.n	2000255e <xQueueReceiveFromISR+0x92>
2000257e:	2001      	movs	r0, #1
20002580:	e7ed      	b.n	2000255e <xQueueReceiveFromISR+0x92>
	...

20002584 <vQueueAddToRegistry>:
	{
	UBaseType_t ux;

		/* See if there is an empty space in the registry.  A NULL name denotes
		a free slot. */
		for( ux = ( UBaseType_t ) 0U; ux < ( UBaseType_t ) configQUEUE_REGISTRY_SIZE; ux++ )
20002584:	2300      	movs	r3, #0
20002586:	2b07      	cmp	r3, #7
20002588:	d80c      	bhi.n	200025a4 <vQueueAddToRegistry+0x20>
		{
			if( xQueueRegistry[ ux ].pcQueueName == NULL )
2000258a:	4a07      	ldr	r2, [pc, #28]	; (200025a8 <vQueueAddToRegistry+0x24>)
2000258c:	f852 2033 	ldr.w	r2, [r2, r3, lsl #3]
20002590:	b10a      	cbz	r2, 20002596 <vQueueAddToRegistry+0x12>
		for( ux = ( UBaseType_t ) 0U; ux < ( UBaseType_t ) configQUEUE_REGISTRY_SIZE; ux++ )
20002592:	3301      	adds	r3, #1
20002594:	e7f7      	b.n	20002586 <vQueueAddToRegistry+0x2>
			{
				/* Store the information on this queue. */
				xQueueRegistry[ ux ].pcQueueName = pcQueueName;
20002596:	4a04      	ldr	r2, [pc, #16]	; (200025a8 <vQueueAddToRegistry+0x24>)
20002598:	f842 1033 	str.w	r1, [r2, r3, lsl #3]
				xQueueRegistry[ ux ].xHandle = xQueue;
2000259c:	eb02 03c3 	add.w	r3, r2, r3, lsl #3
200025a0:	6058      	str	r0, [r3, #4]

				traceQUEUE_REGISTRY_ADD( xQueue, pcQueueName );
				break;
200025a2:	4770      	bx	lr
200025a4:	4770      	bx	lr
200025a6:	bf00      	nop
200025a8:	2001c224 	.word	0x2001c224

200025ac <vQueueWaitForMessageRestricted>:
/*-----------------------------------------------------------*/

#if ( configUSE_TIMERS == 1 )

	void vQueueWaitForMessageRestricted( QueueHandle_t xQueue, TickType_t xTicksToWait, const BaseType_t xWaitIndefinitely )
	{
200025ac:	b570      	push	{r4, r5, r6, lr}
200025ae:	4604      	mov	r4, r0
200025b0:	460d      	mov	r5, r1
200025b2:	4616      	mov	r6, r2
		will not actually cause the task to block, just place it on a blocked
		list.  It will not block until the scheduler is unlocked - at which
		time a yield will be performed.  If an item is added to the queue while
		the queue is locked, and the calling task blocks on the queue, then the
		calling task will be immediately unblocked when the queue is unlocked. */
		prvLockQueue( pxQueue );
200025b4:	f7ff f99e 	bl	200018f4 <vPortEnterCritical>
200025b8:	f894 3044 	ldrb.w	r3, [r4, #68]	; 0x44
200025bc:	b25b      	sxtb	r3, r3
200025be:	f1b3 3fff 	cmp.w	r3, #4294967295
200025c2:	d00d      	beq.n	200025e0 <vQueueWaitForMessageRestricted+0x34>
200025c4:	f894 3045 	ldrb.w	r3, [r4, #69]	; 0x45
200025c8:	b25b      	sxtb	r3, r3
200025ca:	f1b3 3fff 	cmp.w	r3, #4294967295
200025ce:	d00b      	beq.n	200025e8 <vQueueWaitForMessageRestricted+0x3c>
200025d0:	f7ff f9b2 	bl	20001938 <vPortExitCritical>
		if( pxQueue->uxMessagesWaiting == ( UBaseType_t ) 0U )
200025d4:	6ba3      	ldr	r3, [r4, #56]	; 0x38
200025d6:	b15b      	cbz	r3, 200025f0 <vQueueWaitForMessageRestricted+0x44>
		}
		else
		{
			mtCOVERAGE_TEST_MARKER();
		}
		prvUnlockQueue( pxQueue );
200025d8:	4620      	mov	r0, r4
200025da:	f7ff fc4e 	bl	20001e7a <prvUnlockQueue>
200025de:	bd70      	pop	{r4, r5, r6, pc}
		prvLockQueue( pxQueue );
200025e0:	2300      	movs	r3, #0
200025e2:	f884 3044 	strb.w	r3, [r4, #68]	; 0x44
200025e6:	e7ed      	b.n	200025c4 <vQueueWaitForMessageRestricted+0x18>
200025e8:	2300      	movs	r3, #0
200025ea:	f884 3045 	strb.w	r3, [r4, #69]	; 0x45
200025ee:	e7ef      	b.n	200025d0 <vQueueWaitForMessageRestricted+0x24>
			vTaskPlaceOnEventListRestricted( &( pxQueue->xTasksWaitingToReceive ), xTicksToWait, xWaitIndefinitely );
200025f0:	4632      	mov	r2, r6
200025f2:	4629      	mov	r1, r5
200025f4:	f104 0024 	add.w	r0, r4, #36	; 0x24
200025f8:	f000 fba2 	bl	20002d40 <vTaskPlaceOnEventListRestricted>
200025fc:	e7ec      	b.n	200025d8 <vQueueWaitForMessageRestricted+0x2c>
	...

20002600 <prvResetNextTaskUnblockTime>:

static void prvResetNextTaskUnblockTime( void )
{
TCB_t *pxTCB;

	if( listLIST_IS_EMPTY( pxDelayedTaskList ) != pdFALSE )
20002600:	4b0a      	ldr	r3, [pc, #40]	; (2000262c <prvResetNextTaskUnblockTime+0x2c>)
20002602:	681b      	ldr	r3, [r3, #0]
20002604:	681b      	ldr	r3, [r3, #0]
20002606:	b94b      	cbnz	r3, 2000261c <prvResetNextTaskUnblockTime+0x1c>
20002608:	2301      	movs	r3, #1
2000260a:	b94b      	cbnz	r3, 20002620 <prvResetNextTaskUnblockTime+0x20>
	{
		/* The new current delayed list is not empty, get the value of
		the item at the head of the delayed list.  This is the time at
		which the task at the head of the delayed list should be removed
		from the Blocked state. */
		( pxTCB ) = ( TCB_t * ) listGET_OWNER_OF_HEAD_ENTRY( pxDelayedTaskList );
2000260c:	4b07      	ldr	r3, [pc, #28]	; (2000262c <prvResetNextTaskUnblockTime+0x2c>)
2000260e:	681b      	ldr	r3, [r3, #0]
20002610:	68db      	ldr	r3, [r3, #12]
20002612:	68db      	ldr	r3, [r3, #12]
		xNextTaskUnblockTime = listGET_LIST_ITEM_VALUE( &( ( pxTCB )->xStateListItem ) );
20002614:	685a      	ldr	r2, [r3, #4]
20002616:	4b06      	ldr	r3, [pc, #24]	; (20002630 <prvResetNextTaskUnblockTime+0x30>)
20002618:	601a      	str	r2, [r3, #0]
2000261a:	4770      	bx	lr
	if( listLIST_IS_EMPTY( pxDelayedTaskList ) != pdFALSE )
2000261c:	2300      	movs	r3, #0
2000261e:	e7f4      	b.n	2000260a <prvResetNextTaskUnblockTime+0xa>
		xNextTaskUnblockTime = portMAX_DELAY;
20002620:	f04f 32ff 	mov.w	r2, #4294967295
20002624:	4b02      	ldr	r3, [pc, #8]	; (20002630 <prvResetNextTaskUnblockTime+0x30>)
20002626:	601a      	str	r2, [r3, #0]
20002628:	4770      	bx	lr
2000262a:	bf00      	nop
2000262c:	2001bd20 	.word	0x2001bd20
20002630:	2001bdf8 	.word	0x2001bdf8

20002634 <prvDeleteTCB>:
	{
20002634:	b510      	push	{r4, lr}
20002636:	4604      	mov	r4, r0
			vPortFree( pxTCB->pxStack );
20002638:	6b00      	ldr	r0, [r0, #48]	; 0x30
2000263a:	f7ff fb7d 	bl	20001d38 <vPortFree>
			vPortFree( pxTCB );
2000263e:	4620      	mov	r0, r4
20002640:	f7ff fb7a 	bl	20001d38 <vPortFree>
20002644:	bd10      	pop	{r4, pc}

20002646 <prvInitialiseNewTask>:
{
20002646:	e92d 47f0 	stmdb	sp!, {r4, r5, r6, r7, r8, r9, sl, lr}
2000264a:	4680      	mov	r8, r0
2000264c:	4699      	mov	r9, r3
2000264e:	9d08      	ldr	r5, [sp, #32]
20002650:	9f09      	ldr	r7, [sp, #36]	; 0x24
20002652:	9c0a      	ldr	r4, [sp, #40]	; 0x28
		pxTopOfStack = pxNewTCB->pxStack + ( ulStackDepth - ( uint32_t ) 1 );
20002654:	6b26      	ldr	r6, [r4, #48]	; 0x30
20002656:	f102 4280 	add.w	r2, r2, #1073741824	; 0x40000000
2000265a:	3a01      	subs	r2, #1
2000265c:	eb06 0682 	add.w	r6, r6, r2, lsl #2
		pxTopOfStack = ( StackType_t * ) ( ( ( portPOINTER_SIZE_TYPE ) pxTopOfStack ) & ( ~( ( portPOINTER_SIZE_TYPE ) portBYTE_ALIGNMENT_MASK ) ) ); /*lint !e923 MISRA exception.  Avoiding casts between pointers and integers is not practical.  Size differences accounted for using portPOINTER_SIZE_TYPE type. */
20002660:	f026 0607 	bic.w	r6, r6, #7
	for( x = ( UBaseType_t ) 0; x < ( UBaseType_t ) configMAX_TASK_NAME_LEN; x++ )
20002664:	2300      	movs	r3, #0
20002666:	2b0f      	cmp	r3, #15
20002668:	d807      	bhi.n	2000267a <prvInitialiseNewTask+0x34>
		pxNewTCB->pcTaskName[ x ] = pcName[ x ];
2000266a:	5cc8      	ldrb	r0, [r1, r3]
2000266c:	18e2      	adds	r2, r4, r3
2000266e:	f882 0034 	strb.w	r0, [r2, #52]	; 0x34
		if( pcName[ x ] == 0x00 )
20002672:	5cca      	ldrb	r2, [r1, r3]
20002674:	b10a      	cbz	r2, 2000267a <prvInitialiseNewTask+0x34>
	for( x = ( UBaseType_t ) 0; x < ( UBaseType_t ) configMAX_TASK_NAME_LEN; x++ )
20002676:	3301      	adds	r3, #1
20002678:	e7f5      	b.n	20002666 <prvInitialiseNewTask+0x20>
	pxNewTCB->pcTaskName[ configMAX_TASK_NAME_LEN - 1 ] = '\0';
2000267a:	2300      	movs	r3, #0
2000267c:	f884 3043 	strb.w	r3, [r4, #67]	; 0x43
	if( uxPriority >= ( UBaseType_t ) configMAX_PRIORITIES )
20002680:	2d06      	cmp	r5, #6
20002682:	d900      	bls.n	20002686 <prvInitialiseNewTask+0x40>
		uxPriority = ( UBaseType_t ) configMAX_PRIORITIES - ( UBaseType_t ) 1U;
20002684:	2506      	movs	r5, #6
	pxNewTCB->uxPriority = uxPriority;
20002686:	62e5      	str	r5, [r4, #44]	; 0x2c
		pxNewTCB->uxBasePriority = uxPriority;
20002688:	6465      	str	r5, [r4, #68]	; 0x44
		pxNewTCB->uxMutexesHeld = 0;
2000268a:	f04f 0a00 	mov.w	sl, #0
2000268e:	f8c4 a048 	str.w	sl, [r4, #72]	; 0x48
	vListInitialiseItem( &( pxNewTCB->xStateListItem ) );
20002692:	1d20      	adds	r0, r4, #4
20002694:	f7ff f893 	bl	200017be <vListInitialiseItem>
	vListInitialiseItem( &( pxNewTCB->xEventListItem ) );
20002698:	f104 0018 	add.w	r0, r4, #24
2000269c:	f7ff f88f 	bl	200017be <vListInitialiseItem>
	listSET_LIST_ITEM_OWNER( &( pxNewTCB->xStateListItem ), pxNewTCB );
200026a0:	6124      	str	r4, [r4, #16]
	listSET_LIST_ITEM_VALUE( &( pxNewTCB->xEventListItem ), ( TickType_t ) configMAX_PRIORITIES - ( TickType_t ) uxPriority ); /*lint !e961 MISRA exception as the casts are only redundant for some ports. */
200026a2:	f1c5 0507 	rsb	r5, r5, #7
200026a6:	61a5      	str	r5, [r4, #24]
	listSET_LIST_ITEM_OWNER( &( pxNewTCB->xEventListItem ), pxNewTCB );
200026a8:	6264      	str	r4, [r4, #36]	; 0x24
		pxNewTCB->ulNotifiedValue = 0;
200026aa:	f8c4 a04c 	str.w	sl, [r4, #76]	; 0x4c
		pxNewTCB->ucNotifyState = taskNOT_WAITING_NOTIFICATION;
200026ae:	f884 a050 	strb.w	sl, [r4, #80]	; 0x50
		pxNewTCB->pxTopOfStack = pxPortInitialiseStack( pxTopOfStack, pxTaskCode, pvParameters );
200026b2:	464a      	mov	r2, r9
200026b4:	4641      	mov	r1, r8
200026b6:	4630      	mov	r0, r6
200026b8:	f7ff f8f2 	bl	200018a0 <pxPortInitialiseStack>
200026bc:	6020      	str	r0, [r4, #0]
	if( ( void * ) pxCreatedTask != NULL )
200026be:	b107      	cbz	r7, 200026c2 <prvInitialiseNewTask+0x7c>
		*pxCreatedTask = ( TaskHandle_t ) pxNewTCB;
200026c0:	603c      	str	r4, [r7, #0]
200026c2:	e8bd 87f0 	ldmia.w	sp!, {r4, r5, r6, r7, r8, r9, sl, pc}
	...

200026c8 <prvInitialiseTaskLists>:
{
200026c8:	b538      	push	{r3, r4, r5, lr}
	for( uxPriority = ( UBaseType_t ) 0U; uxPriority < ( UBaseType_t ) configMAX_PRIORITIES; uxPriority++ )
200026ca:	2400      	movs	r4, #0
200026cc:	e007      	b.n	200026de <prvInitialiseTaskLists+0x16>
		vListInitialise( &( pxReadyTasksLists[ uxPriority ] ) );
200026ce:	eb04 0284 	add.w	r2, r4, r4, lsl #2
200026d2:	0093      	lsls	r3, r2, #2
200026d4:	480e      	ldr	r0, [pc, #56]	; (20002710 <prvInitialiseTaskLists+0x48>)
200026d6:	4418      	add	r0, r3
200026d8:	f7ff f866 	bl	200017a8 <vListInitialise>
	for( uxPriority = ( UBaseType_t ) 0U; uxPriority < ( UBaseType_t ) configMAX_PRIORITIES; uxPriority++ )
200026dc:	3401      	adds	r4, #1
200026de:	2c06      	cmp	r4, #6
200026e0:	d9f5      	bls.n	200026ce <prvInitialiseTaskLists+0x6>
	vListInitialise( &xDelayedTaskList1 );
200026e2:	4d0c      	ldr	r5, [pc, #48]	; (20002714 <prvInitialiseTaskLists+0x4c>)
200026e4:	4628      	mov	r0, r5
200026e6:	f7ff f85f 	bl	200017a8 <vListInitialise>
	vListInitialise( &xDelayedTaskList2 );
200026ea:	4c0b      	ldr	r4, [pc, #44]	; (20002718 <prvInitialiseTaskLists+0x50>)
200026ec:	4620      	mov	r0, r4
200026ee:	f7ff f85b 	bl	200017a8 <vListInitialise>
	vListInitialise( &xPendingReadyList );
200026f2:	480a      	ldr	r0, [pc, #40]	; (2000271c <prvInitialiseTaskLists+0x54>)
200026f4:	f7ff f858 	bl	200017a8 <vListInitialise>
		vListInitialise( &xTasksWaitingTermination );
200026f8:	4809      	ldr	r0, [pc, #36]	; (20002720 <prvInitialiseTaskLists+0x58>)
200026fa:	f7ff f855 	bl	200017a8 <vListInitialise>
		vListInitialise( &xSuspendedTaskList );
200026fe:	4809      	ldr	r0, [pc, #36]	; (20002724 <prvInitialiseTaskLists+0x5c>)
20002700:	f7ff f852 	bl	200017a8 <vListInitialise>
	pxDelayedTaskList = &xDelayedTaskList1;
20002704:	4b08      	ldr	r3, [pc, #32]	; (20002728 <prvInitialiseTaskLists+0x60>)
20002706:	601d      	str	r5, [r3, #0]
	pxOverflowDelayedTaskList = &xDelayedTaskList2;
20002708:	4b08      	ldr	r3, [pc, #32]	; (2000272c <prvInitialiseTaskLists+0x64>)
2000270a:	601c      	str	r4, [r3, #0]
2000270c:	bd38      	pop	{r3, r4, r5, pc}
2000270e:	bf00      	nop
20002710:	2001bd28 	.word	0x2001bd28
20002714:	2001bdcc 	.word	0x2001bdcc
20002718:	2001bde0 	.word	0x2001bde0
2000271c:	2001be00 	.word	0x2001be00
20002720:	2001be2c 	.word	0x2001be2c
20002724:	2001be18 	.word	0x2001be18
20002728:	2001bd20 	.word	0x2001bd20
2000272c:	2001bd24 	.word	0x2001bd24

20002730 <prvAddNewTaskToReadyList>:
{
20002730:	b510      	push	{r4, lr}
20002732:	4604      	mov	r4, r0
	taskENTER_CRITICAL();
20002734:	f7ff f8de 	bl	200018f4 <vPortEnterCritical>
		uxCurrentNumberOfTasks++;
20002738:	4a20      	ldr	r2, [pc, #128]	; (200027bc <prvAddNewTaskToReadyList+0x8c>)
2000273a:	6813      	ldr	r3, [r2, #0]
2000273c:	3301      	adds	r3, #1
2000273e:	6013      	str	r3, [r2, #0]
		if( pxCurrentTCB == NULL )
20002740:	4b1f      	ldr	r3, [pc, #124]	; (200027c0 <prvAddNewTaskToReadyList+0x90>)
20002742:	681b      	ldr	r3, [r3, #0]
20002744:	2b00      	cmp	r3, #0
20002746:	d031      	beq.n	200027ac <prvAddNewTaskToReadyList+0x7c>
			if( xSchedulerRunning == pdFALSE )
20002748:	4b1e      	ldr	r3, [pc, #120]	; (200027c4 <prvAddNewTaskToReadyList+0x94>)
2000274a:	681b      	ldr	r3, [r3, #0]
2000274c:	b93b      	cbnz	r3, 2000275e <prvAddNewTaskToReadyList+0x2e>
				if( pxCurrentTCB->uxPriority <= pxNewTCB->uxPriority )
2000274e:	4b1c      	ldr	r3, [pc, #112]	; (200027c0 <prvAddNewTaskToReadyList+0x90>)
20002750:	681b      	ldr	r3, [r3, #0]
20002752:	6ada      	ldr	r2, [r3, #44]	; 0x2c
20002754:	6ae3      	ldr	r3, [r4, #44]	; 0x2c
20002756:	429a      	cmp	r2, r3
20002758:	d801      	bhi.n	2000275e <prvAddNewTaskToReadyList+0x2e>
					pxCurrentTCB = pxNewTCB;
2000275a:	4b19      	ldr	r3, [pc, #100]	; (200027c0 <prvAddNewTaskToReadyList+0x90>)
2000275c:	601c      	str	r4, [r3, #0]
		uxTaskNumber++;
2000275e:	4a1a      	ldr	r2, [pc, #104]	; (200027c8 <prvAddNewTaskToReadyList+0x98>)
20002760:	6813      	ldr	r3, [r2, #0]
20002762:	3301      	adds	r3, #1
20002764:	6013      	str	r3, [r2, #0]
		prvAddTaskToReadyList( pxNewTCB );
20002766:	6ae3      	ldr	r3, [r4, #44]	; 0x2c
20002768:	2201      	movs	r2, #1
2000276a:	409a      	lsls	r2, r3
2000276c:	4917      	ldr	r1, [pc, #92]	; (200027cc <prvAddNewTaskToReadyList+0x9c>)
2000276e:	6808      	ldr	r0, [r1, #0]
20002770:	4302      	orrs	r2, r0
20002772:	600a      	str	r2, [r1, #0]
20002774:	eb03 0383 	add.w	r3, r3, r3, lsl #2
20002778:	009a      	lsls	r2, r3, #2
2000277a:	1d21      	adds	r1, r4, #4
2000277c:	4814      	ldr	r0, [pc, #80]	; (200027d0 <prvAddNewTaskToReadyList+0xa0>)
2000277e:	4410      	add	r0, r2
20002780:	f7ff f820 	bl	200017c4 <vListInsertEnd>
	taskEXIT_CRITICAL();
20002784:	f7ff f8d8 	bl	20001938 <vPortExitCritical>
	if( xSchedulerRunning != pdFALSE )
20002788:	4b0e      	ldr	r3, [pc, #56]	; (200027c4 <prvAddNewTaskToReadyList+0x94>)
2000278a:	681b      	ldr	r3, [r3, #0]
2000278c:	b16b      	cbz	r3, 200027aa <prvAddNewTaskToReadyList+0x7a>
		if( pxCurrentTCB->uxPriority < pxNewTCB->uxPriority )
2000278e:	4b0c      	ldr	r3, [pc, #48]	; (200027c0 <prvAddNewTaskToReadyList+0x90>)
20002790:	681b      	ldr	r3, [r3, #0]
20002792:	6ada      	ldr	r2, [r3, #44]	; 0x2c
20002794:	6ae3      	ldr	r3, [r4, #44]	; 0x2c
20002796:	429a      	cmp	r2, r3
20002798:	d207      	bcs.n	200027aa <prvAddNewTaskToReadyList+0x7a>
			taskYIELD_IF_USING_PREEMPTION();
2000279a:	f04f 5280 	mov.w	r2, #268435456	; 0x10000000
2000279e:	4b0d      	ldr	r3, [pc, #52]	; (200027d4 <prvAddNewTaskToReadyList+0xa4>)
200027a0:	601a      	str	r2, [r3, #0]
200027a2:	f3bf 8f4f 	dsb	sy
200027a6:	f3bf 8f6f 	isb	sy
200027aa:	bd10      	pop	{r4, pc}
			pxCurrentTCB = pxNewTCB;
200027ac:	4b04      	ldr	r3, [pc, #16]	; (200027c0 <prvAddNewTaskToReadyList+0x90>)
200027ae:	601c      	str	r4, [r3, #0]
			if( uxCurrentNumberOfTasks == ( UBaseType_t ) 1 )
200027b0:	6813      	ldr	r3, [r2, #0]
200027b2:	2b01      	cmp	r3, #1
200027b4:	d1d3      	bne.n	2000275e <prvAddNewTaskToReadyList+0x2e>
				prvInitialiseTaskLists();
200027b6:	f7ff ff87 	bl	200026c8 <prvInitialiseTaskLists>
200027ba:	e7d0      	b.n	2000275e <prvAddNewTaskToReadyList+0x2e>
200027bc:	2001bdb4 	.word	0x2001bdb4
200027c0:	2001bd1c 	.word	0x2001bd1c
200027c4:	2001be14 	.word	0x2001be14
200027c8:	2001bdc4 	.word	0x2001bdc4
200027cc:	2001bdc8 	.word	0x2001bdc8
200027d0:	2001bd28 	.word	0x2001bd28
200027d4:	e000ed04 	.word	0xe000ed04

200027d8 <prvAddCurrentTaskToDelayedList>:
#endif /* configUSE_TASK_NOTIFICATIONS */
/*-----------------------------------------------------------*/


static void prvAddCurrentTaskToDelayedList( TickType_t xTicksToWait, const BaseType_t xCanBlockIndefinitely )
{
200027d8:	b570      	push	{r4, r5, r6, lr}
200027da:	4604      	mov	r4, r0
200027dc:	460e      	mov	r6, r1
TickType_t xTimeToWake;
const TickType_t xConstTickCount = xTickCount;
200027de:	4b1d      	ldr	r3, [pc, #116]	; (20002854 <prvAddCurrentTaskToDelayedList+0x7c>)
200027e0:	681d      	ldr	r5, [r3, #0]
	}
	#endif

	/* Remove the task from the ready list before adding it to the blocked list
	as the same list item is used for both lists. */
	if( uxListRemove( &( pxCurrentTCB->xStateListItem ) ) == ( UBaseType_t ) 0 )
200027e2:	4b1d      	ldr	r3, [pc, #116]	; (20002858 <prvAddCurrentTaskToDelayedList+0x80>)
200027e4:	6818      	ldr	r0, [r3, #0]
200027e6:	3004      	adds	r0, #4
200027e8:	f7ff f812 	bl	20001810 <uxListRemove>
200027ec:	b950      	cbnz	r0, 20002804 <prvAddCurrentTaskToDelayedList+0x2c>
	{
		/* The current task must be in a ready list, so there is no need to
		check, and the port reset macro can be called directly. */
		portRESET_READY_PRIORITY( pxCurrentTCB->uxPriority, uxTopReadyPriority );
200027ee:	4b1a      	ldr	r3, [pc, #104]	; (20002858 <prvAddCurrentTaskToDelayedList+0x80>)
200027f0:	681b      	ldr	r3, [r3, #0]
200027f2:	6ada      	ldr	r2, [r3, #44]	; 0x2c
200027f4:	2301      	movs	r3, #1
200027f6:	fa03 f202 	lsl.w	r2, r3, r2
200027fa:	4918      	ldr	r1, [pc, #96]	; (2000285c <prvAddCurrentTaskToDelayedList+0x84>)
200027fc:	680b      	ldr	r3, [r1, #0]
200027fe:	ea23 0302 	bic.w	r3, r3, r2
20002802:	600b      	str	r3, [r1, #0]
		mtCOVERAGE_TEST_MARKER();
	}

	#if ( INCLUDE_vTaskSuspend == 1 )
	{
		if( ( xTicksToWait == portMAX_DELAY ) && ( xCanBlockIndefinitely != pdFALSE ) )
20002804:	f1b4 3fff 	cmp.w	r4, #4294967295
20002808:	d013      	beq.n	20002832 <prvAddCurrentTaskToDelayedList+0x5a>
		else
		{
			/* Calculate the time at which the task should be woken if the event
			does not occur.  This may overflow but this doesn't matter, the
			kernel will manage it correctly. */
			xTimeToWake = xConstTickCount + xTicksToWait;
2000280a:	442c      	add	r4, r5

			/* The list item will be inserted in wake time order. */
			listSET_LIST_ITEM_VALUE( &( pxCurrentTCB->xStateListItem ), xTimeToWake );
2000280c:	4b12      	ldr	r3, [pc, #72]	; (20002858 <prvAddCurrentTaskToDelayedList+0x80>)
2000280e:	681b      	ldr	r3, [r3, #0]
20002810:	605c      	str	r4, [r3, #4]

			if( xTimeToWake < xConstTickCount )
20002812:	42a5      	cmp	r5, r4
20002814:	d816      	bhi.n	20002844 <prvAddCurrentTaskToDelayedList+0x6c>
			}
			else
			{
				/* The wake time has not overflowed, so the current block list
				is used. */
				vListInsert( pxDelayedTaskList, &( pxCurrentTCB->xStateListItem ) );
20002816:	4b12      	ldr	r3, [pc, #72]	; (20002860 <prvAddCurrentTaskToDelayedList+0x88>)
20002818:	6818      	ldr	r0, [r3, #0]
2000281a:	4b0f      	ldr	r3, [pc, #60]	; (20002858 <prvAddCurrentTaskToDelayedList+0x80>)
2000281c:	6819      	ldr	r1, [r3, #0]
2000281e:	3104      	adds	r1, #4
20002820:	f7fe ffdc 	bl	200017dc <vListInsert>

				/* If the task entering the blocked state was placed at the
				head of the list of blocked tasks then xNextTaskUnblockTime
				needs to be updated too. */
				if( xTimeToWake < xNextTaskUnblockTime )
20002824:	4b0f      	ldr	r3, [pc, #60]	; (20002864 <prvAddCurrentTaskToDelayedList+0x8c>)
20002826:	681b      	ldr	r3, [r3, #0]
20002828:	429c      	cmp	r4, r3
2000282a:	d201      	bcs.n	20002830 <prvAddCurrentTaskToDelayedList+0x58>
				{
					xNextTaskUnblockTime = xTimeToWake;
2000282c:	4b0d      	ldr	r3, [pc, #52]	; (20002864 <prvAddCurrentTaskToDelayedList+0x8c>)
2000282e:	601c      	str	r4, [r3, #0]
20002830:	bd70      	pop	{r4, r5, r6, pc}
		if( ( xTicksToWait == portMAX_DELAY ) && ( xCanBlockIndefinitely != pdFALSE ) )
20002832:	2e00      	cmp	r6, #0
20002834:	d0e9      	beq.n	2000280a <prvAddCurrentTaskToDelayedList+0x32>
			vListInsertEnd( &xSuspendedTaskList, &( pxCurrentTCB->xStateListItem ) );
20002836:	4b08      	ldr	r3, [pc, #32]	; (20002858 <prvAddCurrentTaskToDelayedList+0x80>)
20002838:	6819      	ldr	r1, [r3, #0]
2000283a:	3104      	adds	r1, #4
2000283c:	480a      	ldr	r0, [pc, #40]	; (20002868 <prvAddCurrentTaskToDelayedList+0x90>)
2000283e:	f7fe ffc1 	bl	200017c4 <vListInsertEnd>
20002842:	bd70      	pop	{r4, r5, r6, pc}
				vListInsert( pxOverflowDelayedTaskList, &( pxCurrentTCB->xStateListItem ) );
20002844:	4b09      	ldr	r3, [pc, #36]	; (2000286c <prvAddCurrentTaskToDelayedList+0x94>)
20002846:	6818      	ldr	r0, [r3, #0]
20002848:	4b03      	ldr	r3, [pc, #12]	; (20002858 <prvAddCurrentTaskToDelayedList+0x80>)
2000284a:	6819      	ldr	r1, [r3, #0]
2000284c:	3104      	adds	r1, #4
2000284e:	f7fe ffc5 	bl	200017dc <vListInsert>
20002852:	bd70      	pop	{r4, r5, r6, pc}
20002854:	2001be40 	.word	0x2001be40
20002858:	2001bd1c 	.word	0x2001bd1c
2000285c:	2001bdc8 	.word	0x2001bdc8
20002860:	2001bd20 	.word	0x2001bd20
20002864:	2001bdf8 	.word	0x2001bdf8
20002868:	2001be18 	.word	0x2001be18
2000286c:	2001bd24 	.word	0x2001bd24

20002870 <xTaskCreate>:
	{
20002870:	e92d 43f0 	stmdb	sp!, {r4, r5, r6, r7, r8, r9, lr}
20002874:	b085      	sub	sp, #20
20002876:	4606      	mov	r6, r0
20002878:	460f      	mov	r7, r1
2000287a:	4615      	mov	r5, r2
2000287c:	4698      	mov	r8, r3
			pxStack = ( StackType_t * ) pvPortMalloc( ( ( ( size_t ) usStackDepth ) * sizeof( StackType_t ) ) ); /*lint !e961 MISRA exception as the casts are only redundant for some ports. */
2000287e:	0090      	lsls	r0, r2, #2
20002880:	f7ff f9d6 	bl	20001c30 <pvPortMalloc>
			if( pxStack != NULL )
20002884:	b300      	cbz	r0, 200028c8 <xTaskCreate+0x58>
20002886:	4681      	mov	r9, r0
				pxNewTCB = ( TCB_t * ) pvPortMalloc( sizeof( TCB_t ) ); /*lint !e961 MISRA exception as the casts are only redundant for some paths. */
20002888:	2054      	movs	r0, #84	; 0x54
2000288a:	f7ff f9d1 	bl	20001c30 <pvPortMalloc>
				if( pxNewTCB != NULL )
2000288e:	4604      	mov	r4, r0
20002890:	b1b0      	cbz	r0, 200028c0 <xTaskCreate+0x50>
					pxNewTCB->pxStack = pxStack;
20002892:	f8c0 9030 	str.w	r9, [r0, #48]	; 0x30
		if( pxNewTCB != NULL )
20002896:	b1cc      	cbz	r4, 200028cc <xTaskCreate+0x5c>
			prvInitialiseNewTask( pxTaskCode, pcName, ( uint32_t ) usStackDepth, pvParameters, uxPriority, pxCreatedTask, pxNewTCB, NULL );
20002898:	2300      	movs	r3, #0
2000289a:	9303      	str	r3, [sp, #12]
2000289c:	9402      	str	r4, [sp, #8]
2000289e:	9b0d      	ldr	r3, [sp, #52]	; 0x34
200028a0:	9301      	str	r3, [sp, #4]
200028a2:	9b0c      	ldr	r3, [sp, #48]	; 0x30
200028a4:	9300      	str	r3, [sp, #0]
200028a6:	4643      	mov	r3, r8
200028a8:	462a      	mov	r2, r5
200028aa:	4639      	mov	r1, r7
200028ac:	4630      	mov	r0, r6
200028ae:	f7ff feca 	bl	20002646 <prvInitialiseNewTask>
			prvAddNewTaskToReadyList( pxNewTCB );
200028b2:	4620      	mov	r0, r4
200028b4:	f7ff ff3c 	bl	20002730 <prvAddNewTaskToReadyList>
			xReturn = pdPASS;
200028b8:	2001      	movs	r0, #1
	}
200028ba:	b005      	add	sp, #20
200028bc:	e8bd 83f0 	ldmia.w	sp!, {r4, r5, r6, r7, r8, r9, pc}
					vPortFree( pxStack );
200028c0:	4648      	mov	r0, r9
200028c2:	f7ff fa39 	bl	20001d38 <vPortFree>
200028c6:	e7e6      	b.n	20002896 <xTaskCreate+0x26>
				pxNewTCB = NULL;
200028c8:	2400      	movs	r4, #0
200028ca:	e7e4      	b.n	20002896 <xTaskCreate+0x26>
			xReturn = errCOULD_NOT_ALLOCATE_REQUIRED_MEMORY;
200028cc:	f04f 30ff 	mov.w	r0, #4294967295
		return xReturn;
200028d0:	e7f3      	b.n	200028ba <xTaskCreate+0x4a>
	...

200028d4 <vTaskStartScheduler>:
{
200028d4:	b500      	push	{lr}
200028d6:	b083      	sub	sp, #12
		xReturn = xTaskCreate(	prvIdleTask,
200028d8:	4b19      	ldr	r3, [pc, #100]	; (20002940 <vTaskStartScheduler+0x6c>)
200028da:	9301      	str	r3, [sp, #4]
200028dc:	2300      	movs	r3, #0
200028de:	9300      	str	r3, [sp, #0]
200028e0:	2280      	movs	r2, #128	; 0x80
200028e2:	4918      	ldr	r1, [pc, #96]	; (20002944 <vTaskStartScheduler+0x70>)
200028e4:	4818      	ldr	r0, [pc, #96]	; (20002948 <vTaskStartScheduler+0x74>)
200028e6:	f7ff ffc3 	bl	20002870 <xTaskCreate>
		if( xReturn == pdPASS )
200028ea:	2801      	cmp	r0, #1
200028ec:	d007      	beq.n	200028fe <vTaskStartScheduler+0x2a>
	if( xReturn == pdPASS )
200028ee:	2801      	cmp	r0, #1
200028f0:	d008      	beq.n	20002904 <vTaskStartScheduler+0x30>
		configASSERT( xReturn != errCOULD_NOT_ALLOCATE_REQUIRED_MEMORY );
200028f2:	f1b0 3fff 	cmp.w	r0, #4294967295
200028f6:	d01a      	beq.n	2000292e <vTaskStartScheduler+0x5a>
}
200028f8:	b003      	add	sp, #12
200028fa:	f85d fb04 	ldr.w	pc, [sp], #4
			xReturn = xTimerCreateTimerTask();
200028fe:	f000 fc29 	bl	20003154 <xTimerCreateTimerTask>
20002902:	e7f4      	b.n	200028ee <vTaskStartScheduler+0x1a>
	__asm volatile
20002904:	f04f 0350 	mov.w	r3, #80	; 0x50
20002908:	f383 8811 	msr	BASEPRI, r3
2000290c:	f3bf 8f6f 	isb	sy
20002910:	f3bf 8f4f 	dsb	sy
		xNextTaskUnblockTime = portMAX_DELAY;
20002914:	f04f 32ff 	mov.w	r2, #4294967295
20002918:	4b0c      	ldr	r3, [pc, #48]	; (2000294c <vTaskStartScheduler+0x78>)
2000291a:	601a      	str	r2, [r3, #0]
		xSchedulerRunning = pdTRUE;
2000291c:	2201      	movs	r2, #1
2000291e:	4b0c      	ldr	r3, [pc, #48]	; (20002950 <vTaskStartScheduler+0x7c>)
20002920:	601a      	str	r2, [r3, #0]
		xTickCount = ( TickType_t ) 0U;
20002922:	2200      	movs	r2, #0
20002924:	4b0b      	ldr	r3, [pc, #44]	; (20002954 <vTaskStartScheduler+0x80>)
20002926:	601a      	str	r2, [r3, #0]
		if( xPortStartScheduler() != pdFALSE )
20002928:	f7ff f880 	bl	20001a2c <xPortStartScheduler>
2000292c:	e7e4      	b.n	200028f8 <vTaskStartScheduler+0x24>
2000292e:	f04f 0350 	mov.w	r3, #80	; 0x50
20002932:	f383 8811 	msr	BASEPRI, r3
20002936:	f3bf 8f6f 	isb	sy
2000293a:	f3bf 8f4f 	dsb	sy
2000293e:	e7fe      	b.n	2000293e <vTaskStartScheduler+0x6a>
20002940:	2001bdf4 	.word	0x2001bdf4
20002944:	200063d8 	.word	0x200063d8
20002948:	20002c4d 	.word	0x20002c4d
2000294c:	2001bdf8 	.word	0x2001bdf8
20002950:	2001be14 	.word	0x2001be14
20002954:	2001be40 	.word	0x2001be40

20002958 <vTaskSuspendAll>:
	++uxSchedulerSuspended;
20002958:	4a02      	ldr	r2, [pc, #8]	; (20002964 <vTaskSuspendAll+0xc>)
2000295a:	6813      	ldr	r3, [r2, #0]
2000295c:	3301      	adds	r3, #1
2000295e:	6013      	str	r3, [r2, #0]
20002960:	4770      	bx	lr
20002962:	bf00      	nop
20002964:	2001bdc0 	.word	0x2001bdc0

20002968 <xTaskGetTickCount>:
		xTicks = xTickCount;
20002968:	4b01      	ldr	r3, [pc, #4]	; (20002970 <xTaskGetTickCount+0x8>)
2000296a:	6818      	ldr	r0, [r3, #0]
}
2000296c:	4770      	bx	lr
2000296e:	bf00      	nop
20002970:	2001be40 	.word	0x2001be40

20002974 <xTaskGetTickCountFromISR>:
{
20002974:	b508      	push	{r3, lr}
	portASSERT_IF_INTERRUPT_PRIORITY_INVALID();
20002976:	f7ff f8cf 	bl	20001b18 <vPortValidateInterruptPriority>
		xReturn = xTickCount;
2000297a:	4b01      	ldr	r3, [pc, #4]	; (20002980 <xTaskGetTickCountFromISR+0xc>)
2000297c:	6818      	ldr	r0, [r3, #0]
}
2000297e:	bd08      	pop	{r3, pc}
20002980:	2001be40 	.word	0x2001be40

20002984 <xTaskIncrementTick>:
{
20002984:	b5f8      	push	{r3, r4, r5, r6, r7, lr}
	if( uxSchedulerSuspended == ( UBaseType_t ) pdFALSE )
20002986:	4b3c      	ldr	r3, [pc, #240]	; (20002a78 <xTaskIncrementTick+0xf4>)
20002988:	681b      	ldr	r3, [r3, #0]
2000298a:	2b00      	cmp	r3, #0
2000298c:	d168      	bne.n	20002a60 <xTaskIncrementTick+0xdc>
		const TickType_t xConstTickCount = xTickCount + 1;
2000298e:	4b3b      	ldr	r3, [pc, #236]	; (20002a7c <xTaskIncrementTick+0xf8>)
20002990:	681d      	ldr	r5, [r3, #0]
20002992:	3501      	adds	r5, #1
		xTickCount = xConstTickCount;
20002994:	601d      	str	r5, [r3, #0]
		if( xConstTickCount == ( TickType_t ) 0U )
20002996:	b9c5      	cbnz	r5, 200029ca <xTaskIncrementTick+0x46>
			taskSWITCH_DELAYED_LISTS();
20002998:	4b39      	ldr	r3, [pc, #228]	; (20002a80 <xTaskIncrementTick+0xfc>)
2000299a:	681b      	ldr	r3, [r3, #0]
2000299c:	681b      	ldr	r3, [r3, #0]
2000299e:	b143      	cbz	r3, 200029b2 <xTaskIncrementTick+0x2e>
200029a0:	f04f 0350 	mov.w	r3, #80	; 0x50
200029a4:	f383 8811 	msr	BASEPRI, r3
200029a8:	f3bf 8f6f 	isb	sy
200029ac:	f3bf 8f4f 	dsb	sy
200029b0:	e7fe      	b.n	200029b0 <xTaskIncrementTick+0x2c>
200029b2:	4a33      	ldr	r2, [pc, #204]	; (20002a80 <xTaskIncrementTick+0xfc>)
200029b4:	6811      	ldr	r1, [r2, #0]
200029b6:	4b33      	ldr	r3, [pc, #204]	; (20002a84 <xTaskIncrementTick+0x100>)
200029b8:	6818      	ldr	r0, [r3, #0]
200029ba:	6010      	str	r0, [r2, #0]
200029bc:	6019      	str	r1, [r3, #0]
200029be:	4a32      	ldr	r2, [pc, #200]	; (20002a88 <xTaskIncrementTick+0x104>)
200029c0:	6813      	ldr	r3, [r2, #0]
200029c2:	3301      	adds	r3, #1
200029c4:	6013      	str	r3, [r2, #0]
200029c6:	f7ff fe1b 	bl	20002600 <prvResetNextTaskUnblockTime>
		if( xConstTickCount >= xNextTaskUnblockTime )
200029ca:	4b30      	ldr	r3, [pc, #192]	; (20002a8c <xTaskIncrementTick+0x108>)
200029cc:	681b      	ldr	r3, [r3, #0]
200029ce:	429d      	cmp	r5, r3
200029d0:	d23a      	bcs.n	20002a48 <xTaskIncrementTick+0xc4>
BaseType_t xSwitchRequired = pdFALSE;
200029d2:	2400      	movs	r4, #0
			if( listCURRENT_LIST_LENGTH( &( pxReadyTasksLists[ pxCurrentTCB->uxPriority ] ) ) > ( UBaseType_t ) 1 )
200029d4:	4b2e      	ldr	r3, [pc, #184]	; (20002a90 <xTaskIncrementTick+0x10c>)
200029d6:	681b      	ldr	r3, [r3, #0]
200029d8:	6adb      	ldr	r3, [r3, #44]	; 0x2c
200029da:	eb03 0383 	add.w	r3, r3, r3, lsl #2
200029de:	009a      	lsls	r2, r3, #2
200029e0:	4b2c      	ldr	r3, [pc, #176]	; (20002a94 <xTaskIncrementTick+0x110>)
200029e2:	589b      	ldr	r3, [r3, r2]
200029e4:	2b01      	cmp	r3, #1
200029e6:	d940      	bls.n	20002a6a <xTaskIncrementTick+0xe6>
				xSwitchRequired = pdTRUE;
200029e8:	2401      	movs	r4, #1
200029ea:	e03e      	b.n	20002a6a <xTaskIncrementTick+0xe6>
							xSwitchRequired = pdTRUE;
200029ec:	2401      	movs	r4, #1
				if( listLIST_IS_EMPTY( pxDelayedTaskList ) != pdFALSE )
200029ee:	4b24      	ldr	r3, [pc, #144]	; (20002a80 <xTaskIncrementTick+0xfc>)
200029f0:	681b      	ldr	r3, [r3, #0]
200029f2:	681b      	ldr	r3, [r3, #0]
200029f4:	b353      	cbz	r3, 20002a4c <xTaskIncrementTick+0xc8>
200029f6:	2300      	movs	r3, #0
200029f8:	bb53      	cbnz	r3, 20002a50 <xTaskIncrementTick+0xcc>
					pxTCB = ( TCB_t * ) listGET_OWNER_OF_HEAD_ENTRY( pxDelayedTaskList );
200029fa:	4b21      	ldr	r3, [pc, #132]	; (20002a80 <xTaskIncrementTick+0xfc>)
200029fc:	681b      	ldr	r3, [r3, #0]
200029fe:	68db      	ldr	r3, [r3, #12]
20002a00:	68de      	ldr	r6, [r3, #12]
					xItemValue = listGET_LIST_ITEM_VALUE( &( pxTCB->xStateListItem ) );
20002a02:	6873      	ldr	r3, [r6, #4]
					if( xConstTickCount < xItemValue )
20002a04:	429d      	cmp	r5, r3
20002a06:	d328      	bcc.n	20002a5a <xTaskIncrementTick+0xd6>
					( void ) uxListRemove( &( pxTCB->xStateListItem ) );
20002a08:	1d37      	adds	r7, r6, #4
20002a0a:	4638      	mov	r0, r7
20002a0c:	f7fe ff00 	bl	20001810 <uxListRemove>
					if( listLIST_ITEM_CONTAINER( &( pxTCB->xEventListItem ) ) != NULL )
20002a10:	6ab3      	ldr	r3, [r6, #40]	; 0x28
20002a12:	b11b      	cbz	r3, 20002a1c <xTaskIncrementTick+0x98>
						( void ) uxListRemove( &( pxTCB->xEventListItem ) );
20002a14:	f106 0018 	add.w	r0, r6, #24
20002a18:	f7fe fefa 	bl	20001810 <uxListRemove>
					prvAddTaskToReadyList( pxTCB );
20002a1c:	6af3      	ldr	r3, [r6, #44]	; 0x2c
20002a1e:	2201      	movs	r2, #1
20002a20:	409a      	lsls	r2, r3
20002a22:	491d      	ldr	r1, [pc, #116]	; (20002a98 <xTaskIncrementTick+0x114>)
20002a24:	6808      	ldr	r0, [r1, #0]
20002a26:	4302      	orrs	r2, r0
20002a28:	600a      	str	r2, [r1, #0]
20002a2a:	eb03 0383 	add.w	r3, r3, r3, lsl #2
20002a2e:	009a      	lsls	r2, r3, #2
20002a30:	4639      	mov	r1, r7
20002a32:	4818      	ldr	r0, [pc, #96]	; (20002a94 <xTaskIncrementTick+0x110>)
20002a34:	4410      	add	r0, r2
20002a36:	f7fe fec5 	bl	200017c4 <vListInsertEnd>
						if( pxTCB->uxPriority >= pxCurrentTCB->uxPriority )
20002a3a:	6af2      	ldr	r2, [r6, #44]	; 0x2c
20002a3c:	4b14      	ldr	r3, [pc, #80]	; (20002a90 <xTaskIncrementTick+0x10c>)
20002a3e:	681b      	ldr	r3, [r3, #0]
20002a40:	6adb      	ldr	r3, [r3, #44]	; 0x2c
20002a42:	429a      	cmp	r2, r3
20002a44:	d2d2      	bcs.n	200029ec <xTaskIncrementTick+0x68>
20002a46:	e7d2      	b.n	200029ee <xTaskIncrementTick+0x6a>
20002a48:	2400      	movs	r4, #0
20002a4a:	e7d0      	b.n	200029ee <xTaskIncrementTick+0x6a>
				if( listLIST_IS_EMPTY( pxDelayedTaskList ) != pdFALSE )
20002a4c:	2301      	movs	r3, #1
20002a4e:	e7d3      	b.n	200029f8 <xTaskIncrementTick+0x74>
					xNextTaskUnblockTime = portMAX_DELAY; /*lint !e961 MISRA exception as the casts are only redundant for some ports. */
20002a50:	f04f 32ff 	mov.w	r2, #4294967295
20002a54:	4b0d      	ldr	r3, [pc, #52]	; (20002a8c <xTaskIncrementTick+0x108>)
20002a56:	601a      	str	r2, [r3, #0]
					break;
20002a58:	e7bc      	b.n	200029d4 <xTaskIncrementTick+0x50>
						xNextTaskUnblockTime = xItemValue;
20002a5a:	4a0c      	ldr	r2, [pc, #48]	; (20002a8c <xTaskIncrementTick+0x108>)
20002a5c:	6013      	str	r3, [r2, #0]
						break;
20002a5e:	e7b9      	b.n	200029d4 <xTaskIncrementTick+0x50>
		++uxPendedTicks;
20002a60:	4a0e      	ldr	r2, [pc, #56]	; (20002a9c <xTaskIncrementTick+0x118>)
20002a62:	6813      	ldr	r3, [r2, #0]
20002a64:	3301      	adds	r3, #1
20002a66:	6013      	str	r3, [r2, #0]
BaseType_t xSwitchRequired = pdFALSE;
20002a68:	2400      	movs	r4, #0
		if( xYieldPending != pdFALSE )
20002a6a:	4b0d      	ldr	r3, [pc, #52]	; (20002aa0 <xTaskIncrementTick+0x11c>)
20002a6c:	681b      	ldr	r3, [r3, #0]
20002a6e:	b103      	cbz	r3, 20002a72 <xTaskIncrementTick+0xee>
			xSwitchRequired = pdTRUE;
20002a70:	2401      	movs	r4, #1
}
20002a72:	4620      	mov	r0, r4
20002a74:	bdf8      	pop	{r3, r4, r5, r6, r7, pc}
20002a76:	bf00      	nop
20002a78:	2001bdc0 	.word	0x2001bdc0
20002a7c:	2001be40 	.word	0x2001be40
20002a80:	2001bd20 	.word	0x2001bd20
20002a84:	2001bd24 	.word	0x2001bd24
20002a88:	2001bdfc 	.word	0x2001bdfc
20002a8c:	2001bdf8 	.word	0x2001bdf8
20002a90:	2001bd1c 	.word	0x2001bd1c
20002a94:	2001bd28 	.word	0x2001bd28
20002a98:	2001bdc8 	.word	0x2001bdc8
20002a9c:	2001bdbc 	.word	0x2001bdbc
20002aa0:	2001be44 	.word	0x2001be44

20002aa4 <xTaskResumeAll>:
{
20002aa4:	b538      	push	{r3, r4, r5, lr}
	configASSERT( uxSchedulerSuspended );
20002aa6:	4b35      	ldr	r3, [pc, #212]	; (20002b7c <xTaskResumeAll+0xd8>)
20002aa8:	681b      	ldr	r3, [r3, #0]
20002aaa:	b943      	cbnz	r3, 20002abe <xTaskResumeAll+0x1a>
20002aac:	f04f 0350 	mov.w	r3, #80	; 0x50
20002ab0:	f383 8811 	msr	BASEPRI, r3
20002ab4:	f3bf 8f6f 	isb	sy
20002ab8:	f3bf 8f4f 	dsb	sy
20002abc:	e7fe      	b.n	20002abc <xTaskResumeAll+0x18>
	taskENTER_CRITICAL();
20002abe:	f7fe ff19 	bl	200018f4 <vPortEnterCritical>
		--uxSchedulerSuspended;
20002ac2:	4b2e      	ldr	r3, [pc, #184]	; (20002b7c <xTaskResumeAll+0xd8>)
20002ac4:	681a      	ldr	r2, [r3, #0]
20002ac6:	3a01      	subs	r2, #1
20002ac8:	601a      	str	r2, [r3, #0]
		if( uxSchedulerSuspended == ( UBaseType_t ) pdFALSE )
20002aca:	681b      	ldr	r3, [r3, #0]
20002acc:	2b00      	cmp	r3, #0
20002ace:	d150      	bne.n	20002b72 <xTaskResumeAll+0xce>
			if( uxCurrentNumberOfTasks > ( UBaseType_t ) 0U )
20002ad0:	4b2b      	ldr	r3, [pc, #172]	; (20002b80 <xTaskResumeAll+0xdc>)
20002ad2:	681b      	ldr	r3, [r3, #0]
20002ad4:	b923      	cbnz	r3, 20002ae0 <xTaskResumeAll+0x3c>
BaseType_t xAlreadyYielded = pdFALSE;
20002ad6:	2400      	movs	r4, #0
	taskEXIT_CRITICAL();
20002ad8:	f7fe ff2e 	bl	20001938 <vPortExitCritical>
}
20002adc:	4620      	mov	r0, r4
20002ade:	bd38      	pop	{r3, r4, r5, pc}
20002ae0:	2400      	movs	r4, #0
				while( listLIST_IS_EMPTY( &xPendingReadyList ) == pdFALSE )
20002ae2:	4b28      	ldr	r3, [pc, #160]	; (20002b84 <xTaskResumeAll+0xe0>)
20002ae4:	681b      	ldr	r3, [r3, #0]
20002ae6:	b31b      	cbz	r3, 20002b30 <xTaskResumeAll+0x8c>
					pxTCB = ( TCB_t * ) listGET_OWNER_OF_HEAD_ENTRY( ( &xPendingReadyList ) );
20002ae8:	4b26      	ldr	r3, [pc, #152]	; (20002b84 <xTaskResumeAll+0xe0>)
20002aea:	68db      	ldr	r3, [r3, #12]
20002aec:	68dc      	ldr	r4, [r3, #12]
					( void ) uxListRemove( &( pxTCB->xEventListItem ) );
20002aee:	f104 0018 	add.w	r0, r4, #24
20002af2:	f7fe fe8d 	bl	20001810 <uxListRemove>
					( void ) uxListRemove( &( pxTCB->xStateListItem ) );
20002af6:	1d25      	adds	r5, r4, #4
20002af8:	4628      	mov	r0, r5
20002afa:	f7fe fe89 	bl	20001810 <uxListRemove>
					prvAddTaskToReadyList( pxTCB );
20002afe:	6ae3      	ldr	r3, [r4, #44]	; 0x2c
20002b00:	2201      	movs	r2, #1
20002b02:	409a      	lsls	r2, r3
20002b04:	4920      	ldr	r1, [pc, #128]	; (20002b88 <xTaskResumeAll+0xe4>)
20002b06:	6808      	ldr	r0, [r1, #0]
20002b08:	4302      	orrs	r2, r0
20002b0a:	600a      	str	r2, [r1, #0]
20002b0c:	eb03 0383 	add.w	r3, r3, r3, lsl #2
20002b10:	009a      	lsls	r2, r3, #2
20002b12:	4629      	mov	r1, r5
20002b14:	481d      	ldr	r0, [pc, #116]	; (20002b8c <xTaskResumeAll+0xe8>)
20002b16:	4410      	add	r0, r2
20002b18:	f7fe fe54 	bl	200017c4 <vListInsertEnd>
					if( pxTCB->uxPriority >= pxCurrentTCB->uxPriority )
20002b1c:	6ae2      	ldr	r2, [r4, #44]	; 0x2c
20002b1e:	4b1c      	ldr	r3, [pc, #112]	; (20002b90 <xTaskResumeAll+0xec>)
20002b20:	681b      	ldr	r3, [r3, #0]
20002b22:	6adb      	ldr	r3, [r3, #44]	; 0x2c
20002b24:	429a      	cmp	r2, r3
20002b26:	d3dc      	bcc.n	20002ae2 <xTaskResumeAll+0x3e>
						xYieldPending = pdTRUE;
20002b28:	2201      	movs	r2, #1
20002b2a:	4b1a      	ldr	r3, [pc, #104]	; (20002b94 <xTaskResumeAll+0xf0>)
20002b2c:	601a      	str	r2, [r3, #0]
20002b2e:	e7d8      	b.n	20002ae2 <xTaskResumeAll+0x3e>
				if( pxTCB != NULL )
20002b30:	b10c      	cbz	r4, 20002b36 <xTaskResumeAll+0x92>
					prvResetNextTaskUnblockTime();
20002b32:	f7ff fd65 	bl	20002600 <prvResetNextTaskUnblockTime>
					UBaseType_t uxPendedCounts = uxPendedTicks; /* Non-volatile copy. */
20002b36:	4b18      	ldr	r3, [pc, #96]	; (20002b98 <xTaskResumeAll+0xf4>)
20002b38:	681c      	ldr	r4, [r3, #0]
					if( uxPendedCounts > ( UBaseType_t ) 0U )
20002b3a:	b974      	cbnz	r4, 20002b5a <xTaskResumeAll+0xb6>
				if( xYieldPending != pdFALSE )
20002b3c:	4b15      	ldr	r3, [pc, #84]	; (20002b94 <xTaskResumeAll+0xf0>)
20002b3e:	681b      	ldr	r3, [r3, #0]
20002b40:	b1cb      	cbz	r3, 20002b76 <xTaskResumeAll+0xd2>
					taskYIELD_IF_USING_PREEMPTION();
20002b42:	f04f 5280 	mov.w	r2, #268435456	; 0x10000000
20002b46:	4b15      	ldr	r3, [pc, #84]	; (20002b9c <xTaskResumeAll+0xf8>)
20002b48:	601a      	str	r2, [r3, #0]
20002b4a:	f3bf 8f4f 	dsb	sy
20002b4e:	f3bf 8f6f 	isb	sy
						xAlreadyYielded = pdTRUE;
20002b52:	2401      	movs	r4, #1
20002b54:	e7c0      	b.n	20002ad8 <xTaskResumeAll+0x34>
						} while( uxPendedCounts > ( UBaseType_t ) 0U );
20002b56:	3c01      	subs	r4, #1
20002b58:	d007      	beq.n	20002b6a <xTaskResumeAll+0xc6>
							if( xTaskIncrementTick() != pdFALSE )
20002b5a:	f7ff ff13 	bl	20002984 <xTaskIncrementTick>
20002b5e:	2800      	cmp	r0, #0
20002b60:	d0f9      	beq.n	20002b56 <xTaskResumeAll+0xb2>
								xYieldPending = pdTRUE;
20002b62:	2201      	movs	r2, #1
20002b64:	4b0b      	ldr	r3, [pc, #44]	; (20002b94 <xTaskResumeAll+0xf0>)
20002b66:	601a      	str	r2, [r3, #0]
20002b68:	e7f5      	b.n	20002b56 <xTaskResumeAll+0xb2>
						uxPendedTicks = 0;
20002b6a:	2200      	movs	r2, #0
20002b6c:	4b0a      	ldr	r3, [pc, #40]	; (20002b98 <xTaskResumeAll+0xf4>)
20002b6e:	601a      	str	r2, [r3, #0]
20002b70:	e7e4      	b.n	20002b3c <xTaskResumeAll+0x98>
BaseType_t xAlreadyYielded = pdFALSE;
20002b72:	2400      	movs	r4, #0
20002b74:	e7b0      	b.n	20002ad8 <xTaskResumeAll+0x34>
20002b76:	2400      	movs	r4, #0
20002b78:	e7ae      	b.n	20002ad8 <xTaskResumeAll+0x34>
20002b7a:	bf00      	nop
20002b7c:	2001bdc0 	.word	0x2001bdc0
20002b80:	2001bdb4 	.word	0x2001bdb4
20002b84:	2001be00 	.word	0x2001be00
20002b88:	2001bdc8 	.word	0x2001bdc8
20002b8c:	2001bd28 	.word	0x2001bd28
20002b90:	2001bd1c 	.word	0x2001bd1c
20002b94:	2001be44 	.word	0x2001be44
20002b98:	2001bdbc 	.word	0x2001bdbc
20002b9c:	e000ed04 	.word	0xe000ed04

20002ba0 <vTaskDelay>:
	{
20002ba0:	b510      	push	{r4, lr}
		if( xTicksToDelay > ( TickType_t ) 0U )
20002ba2:	b1a8      	cbz	r0, 20002bd0 <vTaskDelay+0x30>
20002ba4:	4604      	mov	r4, r0
			configASSERT( uxSchedulerSuspended == 0 );
20002ba6:	4b10      	ldr	r3, [pc, #64]	; (20002be8 <vTaskDelay+0x48>)
20002ba8:	681b      	ldr	r3, [r3, #0]
20002baa:	b143      	cbz	r3, 20002bbe <vTaskDelay+0x1e>
20002bac:	f04f 0350 	mov.w	r3, #80	; 0x50
20002bb0:	f383 8811 	msr	BASEPRI, r3
20002bb4:	f3bf 8f6f 	isb	sy
20002bb8:	f3bf 8f4f 	dsb	sy
20002bbc:	e7fe      	b.n	20002bbc <vTaskDelay+0x1c>
			vTaskSuspendAll();
20002bbe:	f7ff fecb 	bl	20002958 <vTaskSuspendAll>
				prvAddCurrentTaskToDelayedList( xTicksToDelay, pdFALSE );
20002bc2:	2100      	movs	r1, #0
20002bc4:	4620      	mov	r0, r4
20002bc6:	f7ff fe07 	bl	200027d8 <prvAddCurrentTaskToDelayedList>
			xAlreadyYielded = xTaskResumeAll();
20002bca:	f7ff ff6b 	bl	20002aa4 <xTaskResumeAll>
20002bce:	e000      	b.n	20002bd2 <vTaskDelay+0x32>
	BaseType_t xAlreadyYielded = pdFALSE;
20002bd0:	2000      	movs	r0, #0
		if( xAlreadyYielded == pdFALSE )
20002bd2:	b938      	cbnz	r0, 20002be4 <vTaskDelay+0x44>
			portYIELD_WITHIN_API();
20002bd4:	f04f 5280 	mov.w	r2, #268435456	; 0x10000000
20002bd8:	4b04      	ldr	r3, [pc, #16]	; (20002bec <vTaskDelay+0x4c>)
20002bda:	601a      	str	r2, [r3, #0]
20002bdc:	f3bf 8f4f 	dsb	sy
20002be0:	f3bf 8f6f 	isb	sy
20002be4:	bd10      	pop	{r4, pc}
20002be6:	bf00      	nop
20002be8:	2001bdc0 	.word	0x2001bdc0
20002bec:	e000ed04 	.word	0xe000ed04

20002bf0 <prvCheckTasksWaitingTermination>:
		while( uxDeletedTasksWaitingCleanUp > ( UBaseType_t ) 0U )
20002bf0:	4b13      	ldr	r3, [pc, #76]	; (20002c40 <prvCheckTasksWaitingTermination+0x50>)
20002bf2:	681b      	ldr	r3, [r3, #0]
20002bf4:	b313      	cbz	r3, 20002c3c <prvCheckTasksWaitingTermination+0x4c>
{
20002bf6:	b510      	push	{r4, lr}
			vTaskSuspendAll();
20002bf8:	f7ff feae 	bl	20002958 <vTaskSuspendAll>
				xListIsEmpty = listLIST_IS_EMPTY( &xTasksWaitingTermination );
20002bfc:	4b11      	ldr	r3, [pc, #68]	; (20002c44 <prvCheckTasksWaitingTermination+0x54>)
20002bfe:	681c      	ldr	r4, [r3, #0]
			( void ) xTaskResumeAll();
20002c00:	f7ff ff50 	bl	20002aa4 <xTaskResumeAll>
			if( xListIsEmpty == pdFALSE )
20002c04:	b924      	cbnz	r4, 20002c10 <prvCheckTasksWaitingTermination+0x20>
		while( uxDeletedTasksWaitingCleanUp > ( UBaseType_t ) 0U )
20002c06:	4b0e      	ldr	r3, [pc, #56]	; (20002c40 <prvCheckTasksWaitingTermination+0x50>)
20002c08:	681b      	ldr	r3, [r3, #0]
20002c0a:	2b00      	cmp	r3, #0
20002c0c:	d1f4      	bne.n	20002bf8 <prvCheckTasksWaitingTermination+0x8>
}
20002c0e:	bd10      	pop	{r4, pc}
				taskENTER_CRITICAL();
20002c10:	f7fe fe70 	bl	200018f4 <vPortEnterCritical>
					pxTCB = ( TCB_t * ) listGET_OWNER_OF_HEAD_ENTRY( ( &xTasksWaitingTermination ) );
20002c14:	4b0b      	ldr	r3, [pc, #44]	; (20002c44 <prvCheckTasksWaitingTermination+0x54>)
20002c16:	68db      	ldr	r3, [r3, #12]
20002c18:	68dc      	ldr	r4, [r3, #12]
					( void ) uxListRemove( &( pxTCB->xStateListItem ) );
20002c1a:	1d20      	adds	r0, r4, #4
20002c1c:	f7fe fdf8 	bl	20001810 <uxListRemove>
					--uxCurrentNumberOfTasks;
20002c20:	4a09      	ldr	r2, [pc, #36]	; (20002c48 <prvCheckTasksWaitingTermination+0x58>)
20002c22:	6813      	ldr	r3, [r2, #0]
20002c24:	3b01      	subs	r3, #1
20002c26:	6013      	str	r3, [r2, #0]
					--uxDeletedTasksWaitingCleanUp;
20002c28:	4a05      	ldr	r2, [pc, #20]	; (20002c40 <prvCheckTasksWaitingTermination+0x50>)
20002c2a:	6813      	ldr	r3, [r2, #0]
20002c2c:	3b01      	subs	r3, #1
20002c2e:	6013      	str	r3, [r2, #0]
				taskEXIT_CRITICAL();
20002c30:	f7fe fe82 	bl	20001938 <vPortExitCritical>
				prvDeleteTCB( pxTCB );
20002c34:	4620      	mov	r0, r4
20002c36:	f7ff fcfd 	bl	20002634 <prvDeleteTCB>
20002c3a:	e7e4      	b.n	20002c06 <prvCheckTasksWaitingTermination+0x16>
20002c3c:	4770      	bx	lr
20002c3e:	bf00      	nop
20002c40:	2001bdb8 	.word	0x2001bdb8
20002c44:	2001be2c 	.word	0x2001be2c
20002c48:	2001bdb4 	.word	0x2001bdb4

20002c4c <prvIdleTask>:
{
20002c4c:	b508      	push	{r3, lr}
		prvCheckTasksWaitingTermination();
20002c4e:	f7ff ffcf 	bl	20002bf0 <prvCheckTasksWaitingTermination>
			if( listCURRENT_LIST_LENGTH( &( pxReadyTasksLists[ tskIDLE_PRIORITY ] ) ) > ( UBaseType_t ) 1 )
20002c52:	4b06      	ldr	r3, [pc, #24]	; (20002c6c <prvIdleTask+0x20>)
20002c54:	681b      	ldr	r3, [r3, #0]
20002c56:	2b01      	cmp	r3, #1
20002c58:	d9f9      	bls.n	20002c4e <prvIdleTask+0x2>
				taskYIELD();
20002c5a:	f04f 5280 	mov.w	r2, #268435456	; 0x10000000
20002c5e:	4b04      	ldr	r3, [pc, #16]	; (20002c70 <prvIdleTask+0x24>)
20002c60:	601a      	str	r2, [r3, #0]
20002c62:	f3bf 8f4f 	dsb	sy
20002c66:	f3bf 8f6f 	isb	sy
20002c6a:	e7f0      	b.n	20002c4e <prvIdleTask+0x2>
20002c6c:	2001bd28 	.word	0x2001bd28
20002c70:	e000ed04 	.word	0xe000ed04

20002c74 <vTaskSwitchContext>:
	if( uxSchedulerSuspended != ( UBaseType_t ) pdFALSE )
20002c74:	4b21      	ldr	r3, [pc, #132]	; (20002cfc <vTaskSwitchContext+0x88>)
20002c76:	681b      	ldr	r3, [r3, #0]
20002c78:	b9c3      	cbnz	r3, 20002cac <vTaskSwitchContext+0x38>
		xYieldPending = pdFALSE;
20002c7a:	2200      	movs	r2, #0
20002c7c:	4b20      	ldr	r3, [pc, #128]	; (20002d00 <vTaskSwitchContext+0x8c>)
20002c7e:	601a      	str	r2, [r3, #0]
		taskSELECT_HIGHEST_PRIORITY_TASK();
20002c80:	4b20      	ldr	r3, [pc, #128]	; (20002d04 <vTaskSwitchContext+0x90>)
20002c82:	681b      	ldr	r3, [r3, #0]
		__asm volatile ( "clz %0, %1" : "=r" ( ucReturn ) : "r" ( ulBitmap ) );
20002c84:	fab3 f383 	clz	r3, r3
20002c88:	b2db      	uxtb	r3, r3
20002c8a:	f1c3 031f 	rsb	r3, r3, #31
20002c8e:	eb03 0183 	add.w	r1, r3, r3, lsl #2
20002c92:	008a      	lsls	r2, r1, #2
20002c94:	491c      	ldr	r1, [pc, #112]	; (20002d08 <vTaskSwitchContext+0x94>)
20002c96:	588a      	ldr	r2, [r1, r2]
20002c98:	b962      	cbnz	r2, 20002cb4 <vTaskSwitchContext+0x40>
	__asm volatile
20002c9a:	f04f 0350 	mov.w	r3, #80	; 0x50
20002c9e:	f383 8811 	msr	BASEPRI, r3
20002ca2:	f3bf 8f6f 	isb	sy
20002ca6:	f3bf 8f4f 	dsb	sy
20002caa:	e7fe      	b.n	20002caa <vTaskSwitchContext+0x36>
		xYieldPending = pdTRUE;
20002cac:	2201      	movs	r2, #1
20002cae:	4b14      	ldr	r3, [pc, #80]	; (20002d00 <vTaskSwitchContext+0x8c>)
20002cb0:	601a      	str	r2, [r3, #0]
20002cb2:	4770      	bx	lr
{
20002cb4:	b410      	push	{r4}
		taskSELECT_HIGHEST_PRIORITY_TASK();
20002cb6:	4814      	ldr	r0, [pc, #80]	; (20002d08 <vTaskSwitchContext+0x94>)
20002cb8:	009a      	lsls	r2, r3, #2
20002cba:	18d4      	adds	r4, r2, r3
20002cbc:	00a1      	lsls	r1, r4, #2
20002cbe:	4401      	add	r1, r0
20002cc0:	684c      	ldr	r4, [r1, #4]
20002cc2:	6864      	ldr	r4, [r4, #4]
20002cc4:	604c      	str	r4, [r1, #4]
20002cc6:	441a      	add	r2, r3
20002cc8:	0091      	lsls	r1, r2, #2
20002cca:	3108      	adds	r1, #8
20002ccc:	4408      	add	r0, r1
20002cce:	4284      	cmp	r4, r0
20002cd0:	d00b      	beq.n	20002cea <vTaskSwitchContext+0x76>
20002cd2:	eb03 0383 	add.w	r3, r3, r3, lsl #2
20002cd6:	009a      	lsls	r2, r3, #2
20002cd8:	4b0b      	ldr	r3, [pc, #44]	; (20002d08 <vTaskSwitchContext+0x94>)
20002cda:	4413      	add	r3, r2
20002cdc:	685b      	ldr	r3, [r3, #4]
20002cde:	68da      	ldr	r2, [r3, #12]
20002ce0:	4b0a      	ldr	r3, [pc, #40]	; (20002d0c <vTaskSwitchContext+0x98>)
20002ce2:	601a      	str	r2, [r3, #0]
}
20002ce4:	f85d 4b04 	ldr.w	r4, [sp], #4
20002ce8:	4770      	bx	lr
		taskSELECT_HIGHEST_PRIORITY_TASK();
20002cea:	6860      	ldr	r0, [r4, #4]
20002cec:	eb03 0283 	add.w	r2, r3, r3, lsl #2
20002cf0:	0091      	lsls	r1, r2, #2
20002cf2:	4a05      	ldr	r2, [pc, #20]	; (20002d08 <vTaskSwitchContext+0x94>)
20002cf4:	440a      	add	r2, r1
20002cf6:	6050      	str	r0, [r2, #4]
20002cf8:	e7eb      	b.n	20002cd2 <vTaskSwitchContext+0x5e>
20002cfa:	bf00      	nop
20002cfc:	2001bdc0 	.word	0x2001bdc0
20002d00:	2001be44 	.word	0x2001be44
20002d04:	2001bdc8 	.word	0x2001bdc8
20002d08:	2001bd28 	.word	0x2001bd28
20002d0c:	2001bd1c 	.word	0x2001bd1c

20002d10 <vTaskPlaceOnEventList>:
	configASSERT( pxEventList );
20002d10:	b940      	cbnz	r0, 20002d24 <vTaskPlaceOnEventList+0x14>
20002d12:	f04f 0350 	mov.w	r3, #80	; 0x50
20002d16:	f383 8811 	msr	BASEPRI, r3
20002d1a:	f3bf 8f6f 	isb	sy
20002d1e:	f3bf 8f4f 	dsb	sy
20002d22:	e7fe      	b.n	20002d22 <vTaskPlaceOnEventList+0x12>
{
20002d24:	b510      	push	{r4, lr}
20002d26:	460c      	mov	r4, r1
	vListInsert( pxEventList, &( pxCurrentTCB->xEventListItem ) );
20002d28:	4b04      	ldr	r3, [pc, #16]	; (20002d3c <vTaskPlaceOnEventList+0x2c>)
20002d2a:	6819      	ldr	r1, [r3, #0]
20002d2c:	3118      	adds	r1, #24
20002d2e:	f7fe fd55 	bl	200017dc <vListInsert>
	prvAddCurrentTaskToDelayedList( xTicksToWait, pdTRUE );
20002d32:	2101      	movs	r1, #1
20002d34:	4620      	mov	r0, r4
20002d36:	f7ff fd4f 	bl	200027d8 <prvAddCurrentTaskToDelayedList>
20002d3a:	bd10      	pop	{r4, pc}
20002d3c:	2001bd1c 	.word	0x2001bd1c

20002d40 <vTaskPlaceOnEventListRestricted>:
	{
20002d40:	b538      	push	{r3, r4, r5, lr}
		configASSERT( pxEventList );
20002d42:	b170      	cbz	r0, 20002d62 <vTaskPlaceOnEventListRestricted+0x22>
20002d44:	460c      	mov	r4, r1
20002d46:	4615      	mov	r5, r2
		vListInsertEnd( pxEventList, &( pxCurrentTCB->xEventListItem ) );
20002d48:	4a0a      	ldr	r2, [pc, #40]	; (20002d74 <vTaskPlaceOnEventListRestricted+0x34>)
20002d4a:	6811      	ldr	r1, [r2, #0]
20002d4c:	3118      	adds	r1, #24
20002d4e:	f7fe fd39 	bl	200017c4 <vListInsertEnd>
		if( xWaitIndefinitely != pdFALSE )
20002d52:	b10d      	cbz	r5, 20002d58 <vTaskPlaceOnEventListRestricted+0x18>
			xTicksToWait = portMAX_DELAY;
20002d54:	f04f 34ff 	mov.w	r4, #4294967295
		prvAddCurrentTaskToDelayedList( xTicksToWait, xWaitIndefinitely );
20002d58:	4629      	mov	r1, r5
20002d5a:	4620      	mov	r0, r4
20002d5c:	f7ff fd3c 	bl	200027d8 <prvAddCurrentTaskToDelayedList>
20002d60:	bd38      	pop	{r3, r4, r5, pc}
20002d62:	f04f 0350 	mov.w	r3, #80	; 0x50
20002d66:	f383 8811 	msr	BASEPRI, r3
20002d6a:	f3bf 8f6f 	isb	sy
20002d6e:	f3bf 8f4f 	dsb	sy
20002d72:	e7fe      	b.n	20002d72 <vTaskPlaceOnEventListRestricted+0x32>
20002d74:	2001bd1c 	.word	0x2001bd1c

20002d78 <xTaskRemoveFromEventList>:
{
20002d78:	b538      	push	{r3, r4, r5, lr}
	pxUnblockedTCB = ( TCB_t * ) listGET_OWNER_OF_HEAD_ENTRY( pxEventList );
20002d7a:	68c3      	ldr	r3, [r0, #12]
20002d7c:	68dc      	ldr	r4, [r3, #12]
	configASSERT( pxUnblockedTCB );
20002d7e:	b324      	cbz	r4, 20002dca <xTaskRemoveFromEventList+0x52>
	( void ) uxListRemove( &( pxUnblockedTCB->xEventListItem ) );
20002d80:	f104 0518 	add.w	r5, r4, #24
20002d84:	4628      	mov	r0, r5
20002d86:	f7fe fd43 	bl	20001810 <uxListRemove>
	if( uxSchedulerSuspended == ( UBaseType_t ) pdFALSE )
20002d8a:	4b18      	ldr	r3, [pc, #96]	; (20002dec <xTaskRemoveFromEventList+0x74>)
20002d8c:	681b      	ldr	r3, [r3, #0]
20002d8e:	bb2b      	cbnz	r3, 20002ddc <xTaskRemoveFromEventList+0x64>
		( void ) uxListRemove( &( pxUnblockedTCB->xStateListItem ) );
20002d90:	1d25      	adds	r5, r4, #4
20002d92:	4628      	mov	r0, r5
20002d94:	f7fe fd3c 	bl	20001810 <uxListRemove>
		prvAddTaskToReadyList( pxUnblockedTCB );
20002d98:	6ae3      	ldr	r3, [r4, #44]	; 0x2c
20002d9a:	2201      	movs	r2, #1
20002d9c:	409a      	lsls	r2, r3
20002d9e:	4914      	ldr	r1, [pc, #80]	; (20002df0 <xTaskRemoveFromEventList+0x78>)
20002da0:	6808      	ldr	r0, [r1, #0]
20002da2:	4302      	orrs	r2, r0
20002da4:	600a      	str	r2, [r1, #0]
20002da6:	eb03 0383 	add.w	r3, r3, r3, lsl #2
20002daa:	009a      	lsls	r2, r3, #2
20002dac:	4629      	mov	r1, r5
20002dae:	4811      	ldr	r0, [pc, #68]	; (20002df4 <xTaskRemoveFromEventList+0x7c>)
20002db0:	4410      	add	r0, r2
20002db2:	f7fe fd07 	bl	200017c4 <vListInsertEnd>
	if( pxUnblockedTCB->uxPriority > pxCurrentTCB->uxPriority )
20002db6:	6ae2      	ldr	r2, [r4, #44]	; 0x2c
20002db8:	4b0f      	ldr	r3, [pc, #60]	; (20002df8 <xTaskRemoveFromEventList+0x80>)
20002dba:	681b      	ldr	r3, [r3, #0]
20002dbc:	6adb      	ldr	r3, [r3, #44]	; 0x2c
20002dbe:	429a      	cmp	r2, r3
20002dc0:	d911      	bls.n	20002de6 <xTaskRemoveFromEventList+0x6e>
		xYieldPending = pdTRUE;
20002dc2:	2001      	movs	r0, #1
20002dc4:	4b0d      	ldr	r3, [pc, #52]	; (20002dfc <xTaskRemoveFromEventList+0x84>)
20002dc6:	6018      	str	r0, [r3, #0]
20002dc8:	bd38      	pop	{r3, r4, r5, pc}
20002dca:	f04f 0350 	mov.w	r3, #80	; 0x50
20002dce:	f383 8811 	msr	BASEPRI, r3
20002dd2:	f3bf 8f6f 	isb	sy
20002dd6:	f3bf 8f4f 	dsb	sy
20002dda:	e7fe      	b.n	20002dda <xTaskRemoveFromEventList+0x62>
		vListInsertEnd( &( xPendingReadyList ), &( pxUnblockedTCB->xEventListItem ) );
20002ddc:	4629      	mov	r1, r5
20002dde:	4808      	ldr	r0, [pc, #32]	; (20002e00 <xTaskRemoveFromEventList+0x88>)
20002de0:	f7fe fcf0 	bl	200017c4 <vListInsertEnd>
20002de4:	e7e7      	b.n	20002db6 <xTaskRemoveFromEventList+0x3e>
		xReturn = pdFALSE;
20002de6:	2000      	movs	r0, #0
}
20002de8:	bd38      	pop	{r3, r4, r5, pc}
20002dea:	bf00      	nop
20002dec:	2001bdc0 	.word	0x2001bdc0
20002df0:	2001bdc8 	.word	0x2001bdc8
20002df4:	2001bd28 	.word	0x2001bd28
20002df8:	2001bd1c 	.word	0x2001bd1c
20002dfc:	2001be44 	.word	0x2001be44
20002e00:	2001be00 	.word	0x2001be00

20002e04 <vTaskSetTimeOutState>:
	configASSERT( pxTimeOut );
20002e04:	b130      	cbz	r0, 20002e14 <vTaskSetTimeOutState+0x10>
	pxTimeOut->xOverflowCount = xNumOfOverflows;
20002e06:	4a08      	ldr	r2, [pc, #32]	; (20002e28 <vTaskSetTimeOutState+0x24>)
20002e08:	6812      	ldr	r2, [r2, #0]
20002e0a:	6002      	str	r2, [r0, #0]
	pxTimeOut->xTimeOnEntering = xTickCount;
20002e0c:	4a07      	ldr	r2, [pc, #28]	; (20002e2c <vTaskSetTimeOutState+0x28>)
20002e0e:	6812      	ldr	r2, [r2, #0]
20002e10:	6042      	str	r2, [r0, #4]
20002e12:	4770      	bx	lr
20002e14:	f04f 0350 	mov.w	r3, #80	; 0x50
20002e18:	f383 8811 	msr	BASEPRI, r3
20002e1c:	f3bf 8f6f 	isb	sy
20002e20:	f3bf 8f4f 	dsb	sy
20002e24:	e7fe      	b.n	20002e24 <vTaskSetTimeOutState+0x20>
20002e26:	bf00      	nop
20002e28:	2001bdfc 	.word	0x2001bdfc
20002e2c:	2001be40 	.word	0x2001be40

20002e30 <xTaskCheckForTimeOut>:
{
20002e30:	b538      	push	{r3, r4, r5, lr}
	configASSERT( pxTimeOut );
20002e32:	b1c0      	cbz	r0, 20002e66 <xTaskCheckForTimeOut+0x36>
20002e34:	4604      	mov	r4, r0
	configASSERT( pxTicksToWait );
20002e36:	b1f9      	cbz	r1, 20002e78 <xTaskCheckForTimeOut+0x48>
20002e38:	460d      	mov	r5, r1
	taskENTER_CRITICAL();
20002e3a:	f7fe fd5b 	bl	200018f4 <vPortEnterCritical>
		const TickType_t xConstTickCount = xTickCount;
20002e3e:	4b1a      	ldr	r3, [pc, #104]	; (20002ea8 <xTaskCheckForTimeOut+0x78>)
20002e40:	6819      	ldr	r1, [r3, #0]
			if( *pxTicksToWait == portMAX_DELAY )
20002e42:	682b      	ldr	r3, [r5, #0]
20002e44:	f1b3 3fff 	cmp.w	r3, #4294967295
20002e48:	d02a      	beq.n	20002ea0 <xTaskCheckForTimeOut+0x70>
		if( ( xNumOfOverflows != pxTimeOut->xOverflowCount ) && ( xConstTickCount >= pxTimeOut->xTimeOnEntering ) ) /*lint !e525 Indentation preferred as is to make code within pre-processor directives clearer. */
20002e4a:	6820      	ldr	r0, [r4, #0]
20002e4c:	4a17      	ldr	r2, [pc, #92]	; (20002eac <xTaskCheckForTimeOut+0x7c>)
20002e4e:	6812      	ldr	r2, [r2, #0]
20002e50:	4290      	cmp	r0, r2
20002e52:	d002      	beq.n	20002e5a <xTaskCheckForTimeOut+0x2a>
20002e54:	6862      	ldr	r2, [r4, #4]
20002e56:	4291      	cmp	r1, r2
20002e58:	d224      	bcs.n	20002ea4 <xTaskCheckForTimeOut+0x74>
		else if( ( ( TickType_t ) ( xConstTickCount - pxTimeOut->xTimeOnEntering ) ) < *pxTicksToWait ) /*lint !e961 Explicit casting is only redundant with some compilers, whereas others require it to prevent integer conversion errors. */
20002e5a:	6862      	ldr	r2, [r4, #4]
20002e5c:	1a88      	subs	r0, r1, r2
20002e5e:	4283      	cmp	r3, r0
20002e60:	d813      	bhi.n	20002e8a <xTaskCheckForTimeOut+0x5a>
			xReturn = pdTRUE;
20002e62:	2401      	movs	r4, #1
20002e64:	e018      	b.n	20002e98 <xTaskCheckForTimeOut+0x68>
20002e66:	f04f 0350 	mov.w	r3, #80	; 0x50
20002e6a:	f383 8811 	msr	BASEPRI, r3
20002e6e:	f3bf 8f6f 	isb	sy
20002e72:	f3bf 8f4f 	dsb	sy
20002e76:	e7fe      	b.n	20002e76 <xTaskCheckForTimeOut+0x46>
20002e78:	f04f 0350 	mov.w	r3, #80	; 0x50
20002e7c:	f383 8811 	msr	BASEPRI, r3
20002e80:	f3bf 8f6f 	isb	sy
20002e84:	f3bf 8f4f 	dsb	sy
20002e88:	e7fe      	b.n	20002e88 <xTaskCheckForTimeOut+0x58>
			*pxTicksToWait -= ( xConstTickCount - pxTimeOut->xTimeOnEntering );
20002e8a:	1a52      	subs	r2, r2, r1
20002e8c:	4413      	add	r3, r2
20002e8e:	602b      	str	r3, [r5, #0]
			vTaskSetTimeOutState( pxTimeOut );
20002e90:	4620      	mov	r0, r4
20002e92:	f7ff ffb7 	bl	20002e04 <vTaskSetTimeOutState>
			xReturn = pdFALSE;
20002e96:	2400      	movs	r4, #0
	taskEXIT_CRITICAL();
20002e98:	f7fe fd4e 	bl	20001938 <vPortExitCritical>
}
20002e9c:	4620      	mov	r0, r4
20002e9e:	bd38      	pop	{r3, r4, r5, pc}
				xReturn = pdFALSE;
20002ea0:	2400      	movs	r4, #0
20002ea2:	e7f9      	b.n	20002e98 <xTaskCheckForTimeOut+0x68>
			xReturn = pdTRUE;
20002ea4:	2401      	movs	r4, #1
20002ea6:	e7f7      	b.n	20002e98 <xTaskCheckForTimeOut+0x68>
20002ea8:	2001be40 	.word	0x2001be40
20002eac:	2001bdfc 	.word	0x2001bdfc

20002eb0 <vTaskMissedYield>:
	xYieldPending = pdTRUE;
20002eb0:	2201      	movs	r2, #1
20002eb2:	4b01      	ldr	r3, [pc, #4]	; (20002eb8 <vTaskMissedYield+0x8>)
20002eb4:	601a      	str	r2, [r3, #0]
20002eb6:	4770      	bx	lr
20002eb8:	2001be44 	.word	0x2001be44

20002ebc <xTaskGetSchedulerState>:
		if( xSchedulerRunning == pdFALSE )
20002ebc:	4b05      	ldr	r3, [pc, #20]	; (20002ed4 <xTaskGetSchedulerState+0x18>)
20002ebe:	681b      	ldr	r3, [r3, #0]
20002ec0:	b123      	cbz	r3, 20002ecc <xTaskGetSchedulerState+0x10>
			if( uxSchedulerSuspended == ( UBaseType_t ) pdFALSE )
20002ec2:	4b05      	ldr	r3, [pc, #20]	; (20002ed8 <xTaskGetSchedulerState+0x1c>)
20002ec4:	681b      	ldr	r3, [r3, #0]
20002ec6:	b91b      	cbnz	r3, 20002ed0 <xTaskGetSchedulerState+0x14>
				xReturn = taskSCHEDULER_RUNNING;
20002ec8:	2002      	movs	r0, #2
20002eca:	4770      	bx	lr
			xReturn = taskSCHEDULER_NOT_STARTED;
20002ecc:	2001      	movs	r0, #1
20002ece:	4770      	bx	lr
				xReturn = taskSCHEDULER_SUSPENDED;
20002ed0:	2000      	movs	r0, #0
	}
20002ed2:	4770      	bx	lr
20002ed4:	2001be14 	.word	0x2001be14
20002ed8:	2001bdc0 	.word	0x2001bdc0

20002edc <vTaskPriorityInherit>:
		if( pxMutexHolder != NULL )
20002edc:	2800      	cmp	r0, #0
20002ede:	d047      	beq.n	20002f70 <vTaskPriorityInherit+0x94>
	{
20002ee0:	b538      	push	{r3, r4, r5, lr}
20002ee2:	4604      	mov	r4, r0
			if( pxTCB->uxPriority < pxCurrentTCB->uxPriority )
20002ee4:	6ac3      	ldr	r3, [r0, #44]	; 0x2c
20002ee6:	4923      	ldr	r1, [pc, #140]	; (20002f74 <vTaskPriorityInherit+0x98>)
20002ee8:	6809      	ldr	r1, [r1, #0]
20002eea:	6ac9      	ldr	r1, [r1, #44]	; 0x2c
20002eec:	428b      	cmp	r3, r1
20002eee:	d216      	bcs.n	20002f1e <vTaskPriorityInherit+0x42>
				if( ( listGET_LIST_ITEM_VALUE( &( pxTCB->xEventListItem ) ) & taskEVENT_LIST_ITEM_VALUE_IN_USE ) == 0UL )
20002ef0:	6981      	ldr	r1, [r0, #24]
20002ef2:	2900      	cmp	r1, #0
20002ef4:	db05      	blt.n	20002f02 <vTaskPriorityInherit+0x26>
					listSET_LIST_ITEM_VALUE( &( pxTCB->xEventListItem ), ( TickType_t ) configMAX_PRIORITIES - ( TickType_t ) pxCurrentTCB->uxPriority ); /*lint !e961 MISRA exception as the casts are only redundant for some ports. */
20002ef6:	491f      	ldr	r1, [pc, #124]	; (20002f74 <vTaskPriorityInherit+0x98>)
20002ef8:	6809      	ldr	r1, [r1, #0]
20002efa:	6ac9      	ldr	r1, [r1, #44]	; 0x2c
20002efc:	f1c1 0107 	rsb	r1, r1, #7
20002f00:	6181      	str	r1, [r0, #24]
				if( listIS_CONTAINED_WITHIN( &( pxReadyTasksLists[ pxTCB->uxPriority ] ), &( pxTCB->xStateListItem ) ) != pdFALSE )
20002f02:	6960      	ldr	r0, [r4, #20]
20002f04:	eb03 0383 	add.w	r3, r3, r3, lsl #2
20002f08:	0099      	lsls	r1, r3, #2
20002f0a:	4b1b      	ldr	r3, [pc, #108]	; (20002f78 <vTaskPriorityInherit+0x9c>)
20002f0c:	440b      	add	r3, r1
20002f0e:	4298      	cmp	r0, r3
20002f10:	d006      	beq.n	20002f20 <vTaskPriorityInherit+0x44>
20002f12:	2300      	movs	r3, #0
20002f14:	b933      	cbnz	r3, 20002f24 <vTaskPriorityInherit+0x48>
					pxTCB->uxPriority = pxCurrentTCB->uxPriority;
20002f16:	4b17      	ldr	r3, [pc, #92]	; (20002f74 <vTaskPriorityInherit+0x98>)
20002f18:	681b      	ldr	r3, [r3, #0]
20002f1a:	6adb      	ldr	r3, [r3, #44]	; 0x2c
20002f1c:	62e3      	str	r3, [r4, #44]	; 0x2c
20002f1e:	bd38      	pop	{r3, r4, r5, pc}
				if( listIS_CONTAINED_WITHIN( &( pxReadyTasksLists[ pxTCB->uxPriority ] ), &( pxTCB->xStateListItem ) ) != pdFALSE )
20002f20:	2301      	movs	r3, #1
20002f22:	e7f7      	b.n	20002f14 <vTaskPriorityInherit+0x38>
					if( uxListRemove( &( pxTCB->xStateListItem ) ) == ( UBaseType_t ) 0 )
20002f24:	1d25      	adds	r5, r4, #4
20002f26:	4628      	mov	r0, r5
20002f28:	f7fe fc72 	bl	20001810 <uxListRemove>
20002f2c:	b968      	cbnz	r0, 20002f4a <vTaskPriorityInherit+0x6e>
						taskRESET_READY_PRIORITY( pxTCB->uxPriority );
20002f2e:	6ae3      	ldr	r3, [r4, #44]	; 0x2c
20002f30:	eb03 0183 	add.w	r1, r3, r3, lsl #2
20002f34:	008a      	lsls	r2, r1, #2
20002f36:	4910      	ldr	r1, [pc, #64]	; (20002f78 <vTaskPriorityInherit+0x9c>)
20002f38:	588a      	ldr	r2, [r1, r2]
20002f3a:	b932      	cbnz	r2, 20002f4a <vTaskPriorityInherit+0x6e>
20002f3c:	2201      	movs	r2, #1
20002f3e:	409a      	lsls	r2, r3
20002f40:	490e      	ldr	r1, [pc, #56]	; (20002f7c <vTaskPriorityInherit+0xa0>)
20002f42:	680b      	ldr	r3, [r1, #0]
20002f44:	ea23 0302 	bic.w	r3, r3, r2
20002f48:	600b      	str	r3, [r1, #0]
					pxTCB->uxPriority = pxCurrentTCB->uxPriority;
20002f4a:	4b0a      	ldr	r3, [pc, #40]	; (20002f74 <vTaskPriorityInherit+0x98>)
20002f4c:	681b      	ldr	r3, [r3, #0]
20002f4e:	6adb      	ldr	r3, [r3, #44]	; 0x2c
20002f50:	62e3      	str	r3, [r4, #44]	; 0x2c
					prvAddTaskToReadyList( pxTCB );
20002f52:	2201      	movs	r2, #1
20002f54:	409a      	lsls	r2, r3
20002f56:	4909      	ldr	r1, [pc, #36]	; (20002f7c <vTaskPriorityInherit+0xa0>)
20002f58:	6808      	ldr	r0, [r1, #0]
20002f5a:	4302      	orrs	r2, r0
20002f5c:	600a      	str	r2, [r1, #0]
20002f5e:	eb03 0383 	add.w	r3, r3, r3, lsl #2
20002f62:	009a      	lsls	r2, r3, #2
20002f64:	4629      	mov	r1, r5
20002f66:	4804      	ldr	r0, [pc, #16]	; (20002f78 <vTaskPriorityInherit+0x9c>)
20002f68:	4410      	add	r0, r2
20002f6a:	f7fe fc2b 	bl	200017c4 <vListInsertEnd>
20002f6e:	bd38      	pop	{r3, r4, r5, pc}
20002f70:	4770      	bx	lr
20002f72:	bf00      	nop
20002f74:	2001bd1c 	.word	0x2001bd1c
20002f78:	2001bd28 	.word	0x2001bd28
20002f7c:	2001bdc8 	.word	0x2001bdc8

20002f80 <xTaskPriorityDisinherit>:
		if( pxMutexHolder != NULL )
20002f80:	2800      	cmp	r0, #0
20002f82:	d04a      	beq.n	2000301a <xTaskPriorityDisinherit+0x9a>
	{
20002f84:	b538      	push	{r3, r4, r5, lr}
20002f86:	4604      	mov	r4, r0
			configASSERT( pxTCB == pxCurrentTCB );
20002f88:	4a27      	ldr	r2, [pc, #156]	; (20003028 <xTaskPriorityDisinherit+0xa8>)
20002f8a:	6812      	ldr	r2, [r2, #0]
20002f8c:	4290      	cmp	r0, r2
20002f8e:	d008      	beq.n	20002fa2 <xTaskPriorityDisinherit+0x22>
20002f90:	f04f 0350 	mov.w	r3, #80	; 0x50
20002f94:	f383 8811 	msr	BASEPRI, r3
20002f98:	f3bf 8f6f 	isb	sy
20002f9c:	f3bf 8f4f 	dsb	sy
20002fa0:	e7fe      	b.n	20002fa0 <xTaskPriorityDisinherit+0x20>
			configASSERT( pxTCB->uxMutexesHeld );
20002fa2:	6c82      	ldr	r2, [r0, #72]	; 0x48
20002fa4:	b942      	cbnz	r2, 20002fb8 <xTaskPriorityDisinherit+0x38>
20002fa6:	f04f 0350 	mov.w	r3, #80	; 0x50
20002faa:	f383 8811 	msr	BASEPRI, r3
20002fae:	f3bf 8f6f 	isb	sy
20002fb2:	f3bf 8f4f 	dsb	sy
20002fb6:	e7fe      	b.n	20002fb6 <xTaskPriorityDisinherit+0x36>
			( pxTCB->uxMutexesHeld )--;
20002fb8:	3a01      	subs	r2, #1
20002fba:	6482      	str	r2, [r0, #72]	; 0x48
			if( pxTCB->uxPriority != pxTCB->uxBasePriority )
20002fbc:	6ac0      	ldr	r0, [r0, #44]	; 0x2c
20002fbe:	6c61      	ldr	r1, [r4, #68]	; 0x44
20002fc0:	4288      	cmp	r0, r1
20002fc2:	d02c      	beq.n	2000301e <xTaskPriorityDisinherit+0x9e>
				if( pxTCB->uxMutexesHeld == ( UBaseType_t ) 0 )
20002fc4:	bb6a      	cbnz	r2, 20003022 <xTaskPriorityDisinherit+0xa2>
					if( uxListRemove( &( pxTCB->xStateListItem ) ) == ( UBaseType_t ) 0 )
20002fc6:	1d25      	adds	r5, r4, #4
20002fc8:	4628      	mov	r0, r5
20002fca:	f7fe fc21 	bl	20001810 <uxListRemove>
20002fce:	b970      	cbnz	r0, 20002fee <xTaskPriorityDisinherit+0x6e>
						taskRESET_READY_PRIORITY( pxTCB->uxPriority );
20002fd0:	6ae2      	ldr	r2, [r4, #44]	; 0x2c
20002fd2:	eb02 0182 	add.w	r1, r2, r2, lsl #2
20002fd6:	008b      	lsls	r3, r1, #2
20002fd8:	4914      	ldr	r1, [pc, #80]	; (2000302c <xTaskPriorityDisinherit+0xac>)
20002fda:	58cb      	ldr	r3, [r1, r3]
20002fdc:	b93b      	cbnz	r3, 20002fee <xTaskPriorityDisinherit+0x6e>
20002fde:	2301      	movs	r3, #1
20002fe0:	fa03 f202 	lsl.w	r2, r3, r2
20002fe4:	4912      	ldr	r1, [pc, #72]	; (20003030 <xTaskPriorityDisinherit+0xb0>)
20002fe6:	680b      	ldr	r3, [r1, #0]
20002fe8:	ea23 0302 	bic.w	r3, r3, r2
20002fec:	600b      	str	r3, [r1, #0]
					pxTCB->uxPriority = pxTCB->uxBasePriority;
20002fee:	6c63      	ldr	r3, [r4, #68]	; 0x44
20002ff0:	62e3      	str	r3, [r4, #44]	; 0x2c
					listSET_LIST_ITEM_VALUE( &( pxTCB->xEventListItem ), ( TickType_t ) configMAX_PRIORITIES - ( TickType_t ) pxTCB->uxPriority ); /*lint !e961 MISRA exception as the casts are only redundant for some ports. */
20002ff2:	f1c3 0207 	rsb	r2, r3, #7
20002ff6:	61a2      	str	r2, [r4, #24]
					prvAddTaskToReadyList( pxTCB );
20002ff8:	2401      	movs	r4, #1
20002ffa:	fa04 f203 	lsl.w	r2, r4, r3
20002ffe:	490c      	ldr	r1, [pc, #48]	; (20003030 <xTaskPriorityDisinherit+0xb0>)
20003000:	6808      	ldr	r0, [r1, #0]
20003002:	4302      	orrs	r2, r0
20003004:	600a      	str	r2, [r1, #0]
20003006:	eb03 0383 	add.w	r3, r3, r3, lsl #2
2000300a:	009a      	lsls	r2, r3, #2
2000300c:	4629      	mov	r1, r5
2000300e:	4807      	ldr	r0, [pc, #28]	; (2000302c <xTaskPriorityDisinherit+0xac>)
20003010:	4410      	add	r0, r2
20003012:	f7fe fbd7 	bl	200017c4 <vListInsertEnd>
					xReturn = pdTRUE;
20003016:	4620      	mov	r0, r4
20003018:	bd38      	pop	{r3, r4, r5, pc}
	BaseType_t xReturn = pdFALSE;
2000301a:	2000      	movs	r0, #0
2000301c:	4770      	bx	lr
2000301e:	2000      	movs	r0, #0
20003020:	bd38      	pop	{r3, r4, r5, pc}
20003022:	2000      	movs	r0, #0
	}
20003024:	bd38      	pop	{r3, r4, r5, pc}
20003026:	bf00      	nop
20003028:	2001bd1c 	.word	0x2001bd1c
2000302c:	2001bd28 	.word	0x2001bd28
20003030:	2001bdc8 	.word	0x2001bdc8

20003034 <pvTaskIncrementMutexHeldCount>:
		if( pxCurrentTCB != NULL )
20003034:	4b05      	ldr	r3, [pc, #20]	; (2000304c <pvTaskIncrementMutexHeldCount+0x18>)
20003036:	681b      	ldr	r3, [r3, #0]
20003038:	b123      	cbz	r3, 20003044 <pvTaskIncrementMutexHeldCount+0x10>
			( pxCurrentTCB->uxMutexesHeld )++;
2000303a:	4b04      	ldr	r3, [pc, #16]	; (2000304c <pvTaskIncrementMutexHeldCount+0x18>)
2000303c:	681a      	ldr	r2, [r3, #0]
2000303e:	6c93      	ldr	r3, [r2, #72]	; 0x48
20003040:	3301      	adds	r3, #1
20003042:	6493      	str	r3, [r2, #72]	; 0x48
		return pxCurrentTCB;
20003044:	4b01      	ldr	r3, [pc, #4]	; (2000304c <pvTaskIncrementMutexHeldCount+0x18>)
20003046:	6818      	ldr	r0, [r3, #0]
	}
20003048:	4770      	bx	lr
2000304a:	bf00      	nop
2000304c:	2001bd1c 	.word	0x2001bd1c

20003050 <prvGetNextExpireTime>:
	the timer with the nearest expiry time will expire.  If there are no
	active timers then just set the next expire time to 0.  That will cause
	this task to unblock when the tick count overflows, at which point the
	timer lists will be switched and the next expiry time can be
	re-assessed.  */
	*pxListWasEmpty = listLIST_IS_EMPTY( pxCurrentTimerList );
20003050:	4b06      	ldr	r3, [pc, #24]	; (2000306c <prvGetNextExpireTime+0x1c>)
20003052:	681a      	ldr	r2, [r3, #0]
20003054:	6813      	ldr	r3, [r2, #0]
20003056:	fab3 f383 	clz	r3, r3
2000305a:	095b      	lsrs	r3, r3, #5
2000305c:	6003      	str	r3, [r0, #0]
	if( *pxListWasEmpty == pdFALSE )
2000305e:	b913      	cbnz	r3, 20003066 <prvGetNextExpireTime+0x16>
	{
		xNextExpireTime = listGET_ITEM_VALUE_OF_HEAD_ENTRY( pxCurrentTimerList );
20003060:	68d3      	ldr	r3, [r2, #12]
20003062:	6818      	ldr	r0, [r3, #0]
20003064:	4770      	bx	lr
	}
	else
	{
		/* Ensure the task unblocks when the tick count rolls over. */
		xNextExpireTime = ( TickType_t ) 0U;
20003066:	2000      	movs	r0, #0
	}

	return xNextExpireTime;
}
20003068:	4770      	bx	lr
2000306a:	bf00      	nop
2000306c:	2001be48 	.word	0x2001be48

20003070 <prvInsertTimerInActiveList>:
	return xTimeNow;
}
/*-----------------------------------------------------------*/

static BaseType_t prvInsertTimerInActiveList( Timer_t * const pxTimer, const TickType_t xNextExpiryTime, const TickType_t xTimeNow, const TickType_t xCommandTime )
{
20003070:	b508      	push	{r3, lr}
BaseType_t xProcessTimerNow = pdFALSE;

	listSET_LIST_ITEM_VALUE( &( pxTimer->xTimerListItem ), xNextExpiryTime );
20003072:	6041      	str	r1, [r0, #4]
	listSET_LIST_ITEM_OWNER( &( pxTimer->xTimerListItem ), pxTimer );
20003074:	6100      	str	r0, [r0, #16]

	if( xNextExpiryTime <= xTimeNow )
20003076:	4291      	cmp	r1, r2
20003078:	d80c      	bhi.n	20003094 <prvInsertTimerInActiveList+0x24>
	{
		/* Has the expiry time elapsed between the command to start/reset a
		timer was issued, and the time the command was processed? */
		if( ( ( TickType_t ) ( xTimeNow - xCommandTime ) ) >= pxTimer->xTimerPeriodInTicks ) /*lint !e961 MISRA exception as the casts are only redundant for some ports. */
2000307a:	1ad2      	subs	r2, r2, r3
2000307c:	6983      	ldr	r3, [r0, #24]
2000307e:	429a      	cmp	r2, r3
20003080:	d301      	bcc.n	20003086 <prvInsertTimerInActiveList+0x16>
		{
			/* The time between a command being issued and the command being
			processed actually exceeds the timers period.  */
			xProcessTimerNow = pdTRUE;
20003082:	2001      	movs	r0, #1
20003084:	bd08      	pop	{r3, pc}
		}
		else
		{
			vListInsert( pxOverflowTimerList, &( pxTimer->xTimerListItem ) );
20003086:	1d01      	adds	r1, r0, #4
20003088:	4b09      	ldr	r3, [pc, #36]	; (200030b0 <prvInsertTimerInActiveList+0x40>)
2000308a:	6818      	ldr	r0, [r3, #0]
2000308c:	f7fe fba6 	bl	200017dc <vListInsert>
BaseType_t xProcessTimerNow = pdFALSE;
20003090:	2000      	movs	r0, #0
20003092:	bd08      	pop	{r3, pc}
		}
	}
	else
	{
		if( ( xTimeNow < xCommandTime ) && ( xNextExpiryTime >= xCommandTime ) )
20003094:	429a      	cmp	r2, r3
20003096:	d201      	bcs.n	2000309c <prvInsertTimerInActiveList+0x2c>
20003098:	4299      	cmp	r1, r3
2000309a:	d206      	bcs.n	200030aa <prvInsertTimerInActiveList+0x3a>
			its expiry time and should be processed immediately. */
			xProcessTimerNow = pdTRUE;
		}
		else
		{
			vListInsert( pxCurrentTimerList, &( pxTimer->xTimerListItem ) );
2000309c:	1d01      	adds	r1, r0, #4
2000309e:	4b05      	ldr	r3, [pc, #20]	; (200030b4 <prvInsertTimerInActiveList+0x44>)
200030a0:	6818      	ldr	r0, [r3, #0]
200030a2:	f7fe fb9b 	bl	200017dc <vListInsert>
BaseType_t xProcessTimerNow = pdFALSE;
200030a6:	2000      	movs	r0, #0
200030a8:	bd08      	pop	{r3, pc}
			xProcessTimerNow = pdTRUE;
200030aa:	2001      	movs	r0, #1
		}
	}

	return xProcessTimerNow;
}
200030ac:	bd08      	pop	{r3, pc}
200030ae:	bf00      	nop
200030b0:	2001be4c 	.word	0x2001be4c
200030b4:	2001be48 	.word	0x2001be48

200030b8 <prvCheckForValidListAndQueue>:
	pxOverflowTimerList = pxTemp;
}
/*-----------------------------------------------------------*/

static void prvCheckForValidListAndQueue( void )
{
200030b8:	b538      	push	{r3, r4, r5, lr}
	/* Check that the list from which active timers are referenced, and the
	queue used to communicate with the timer service, have been
	initialised. */
	taskENTER_CRITICAL();
200030ba:	f7fe fc1b 	bl	200018f4 <vPortEnterCritical>
	{
		if( xTimerQueue == NULL )
200030be:	4b0f      	ldr	r3, [pc, #60]	; (200030fc <prvCheckForValidListAndQueue+0x44>)
200030c0:	681b      	ldr	r3, [r3, #0]
200030c2:	b113      	cbz	r3, 200030ca <prvCheckForValidListAndQueue+0x12>
		else
		{
			mtCOVERAGE_TEST_MARKER();
		}
	}
	taskEXIT_CRITICAL();
200030c4:	f7fe fc38 	bl	20001938 <vPortExitCritical>
200030c8:	bd38      	pop	{r3, r4, r5, pc}
			vListInitialise( &xActiveTimerList1 );
200030ca:	4d0d      	ldr	r5, [pc, #52]	; (20003100 <prvCheckForValidListAndQueue+0x48>)
200030cc:	4628      	mov	r0, r5
200030ce:	f7fe fb6b 	bl	200017a8 <vListInitialise>
			vListInitialise( &xActiveTimerList2 );
200030d2:	4c0c      	ldr	r4, [pc, #48]	; (20003104 <prvCheckForValidListAndQueue+0x4c>)
200030d4:	4620      	mov	r0, r4
200030d6:	f7fe fb67 	bl	200017a8 <vListInitialise>
			pxCurrentTimerList = &xActiveTimerList1;
200030da:	4b0b      	ldr	r3, [pc, #44]	; (20003108 <prvCheckForValidListAndQueue+0x50>)
200030dc:	601d      	str	r5, [r3, #0]
			pxOverflowTimerList = &xActiveTimerList2;
200030de:	4b0b      	ldr	r3, [pc, #44]	; (2000310c <prvCheckForValidListAndQueue+0x54>)
200030e0:	601c      	str	r4, [r3, #0]
				xTimerQueue = xQueueCreate( ( UBaseType_t ) configTIMER_QUEUE_LENGTH, sizeof( DaemonTaskMessage_t ) );
200030e2:	2200      	movs	r2, #0
200030e4:	210c      	movs	r1, #12
200030e6:	200a      	movs	r0, #10
200030e8:	f7fe ff4c 	bl	20001f84 <xQueueGenericCreate>
200030ec:	4b03      	ldr	r3, [pc, #12]	; (200030fc <prvCheckForValidListAndQueue+0x44>)
200030ee:	6018      	str	r0, [r3, #0]
				if( xTimerQueue != NULL )
200030f0:	2800      	cmp	r0, #0
200030f2:	d0e7      	beq.n	200030c4 <prvCheckForValidListAndQueue+0xc>
					vQueueAddToRegistry( xTimerQueue, "TmrQ" );
200030f4:	4906      	ldr	r1, [pc, #24]	; (20003110 <prvCheckForValidListAndQueue+0x58>)
200030f6:	f7ff fa45 	bl	20002584 <vQueueAddToRegistry>
200030fa:	e7e3      	b.n	200030c4 <prvCheckForValidListAndQueue+0xc>
200030fc:	2001be7c 	.word	0x2001be7c
20003100:	2001be50 	.word	0x2001be50
20003104:	2001be64 	.word	0x2001be64
20003108:	2001be48 	.word	0x2001be48
2000310c:	2001be4c 	.word	0x2001be4c
20003110:	200063e0 	.word	0x200063e0

20003114 <prvInitialiseNewTimer>:
{
20003114:	e92d 41f0 	stmdb	sp!, {r4, r5, r6, r7, r8, lr}
20003118:	9c07      	ldr	r4, [sp, #28]
	configASSERT( ( xTimerPeriodInTicks > 0 ) );
2000311a:	b941      	cbnz	r1, 2000312e <prvInitialiseNewTimer+0x1a>
2000311c:	f04f 0350 	mov.w	r3, #80	; 0x50
20003120:	f383 8811 	msr	BASEPRI, r3
20003124:	f3bf 8f6f 	isb	sy
20003128:	f3bf 8f4f 	dsb	sy
2000312c:	e7fe      	b.n	2000312c <prvInitialiseNewTimer+0x18>
2000312e:	460f      	mov	r7, r1
	if( pxNewTimer != NULL )
20003130:	b174      	cbz	r4, 20003150 <prvInitialiseNewTimer+0x3c>
20003132:	461d      	mov	r5, r3
20003134:	4616      	mov	r6, r2
20003136:	4680      	mov	r8, r0
		prvCheckForValidListAndQueue();
20003138:	f7ff ffbe 	bl	200030b8 <prvCheckForValidListAndQueue>
		pxNewTimer->pcTimerName = pcTimerName;
2000313c:	f8c4 8000 	str.w	r8, [r4]
		pxNewTimer->xTimerPeriodInTicks = xTimerPeriodInTicks;
20003140:	61a7      	str	r7, [r4, #24]
		pxNewTimer->uxAutoReload = uxAutoReload;
20003142:	61e6      	str	r6, [r4, #28]
		pxNewTimer->pvTimerID = pvTimerID;
20003144:	6225      	str	r5, [r4, #32]
		pxNewTimer->pxCallbackFunction = pxCallbackFunction;
20003146:	9b06      	ldr	r3, [sp, #24]
20003148:	6263      	str	r3, [r4, #36]	; 0x24
		vListInitialiseItem( &( pxNewTimer->xTimerListItem ) );
2000314a:	1d20      	adds	r0, r4, #4
2000314c:	f7fe fb37 	bl	200017be <vListInitialiseItem>
20003150:	e8bd 81f0 	ldmia.w	sp!, {r4, r5, r6, r7, r8, pc}

20003154 <xTimerCreateTimerTask>:
{
20003154:	b500      	push	{lr}
20003156:	b083      	sub	sp, #12
	prvCheckForValidListAndQueue();
20003158:	f7ff ffae 	bl	200030b8 <prvCheckForValidListAndQueue>
	if( xTimerQueue != NULL )
2000315c:	4b0e      	ldr	r3, [pc, #56]	; (20003198 <xTimerCreateTimerTask+0x44>)
2000315e:	681b      	ldr	r3, [r3, #0]
20003160:	b1a3      	cbz	r3, 2000318c <xTimerCreateTimerTask+0x38>
			xReturn = xTaskCreate(	prvTimerTask,
20003162:	4b0e      	ldr	r3, [pc, #56]	; (2000319c <xTimerCreateTimerTask+0x48>)
20003164:	9301      	str	r3, [sp, #4]
20003166:	2302      	movs	r3, #2
20003168:	9300      	str	r3, [sp, #0]
2000316a:	2300      	movs	r3, #0
2000316c:	f44f 7280 	mov.w	r2, #256	; 0x100
20003170:	490b      	ldr	r1, [pc, #44]	; (200031a0 <xTimerCreateTimerTask+0x4c>)
20003172:	480c      	ldr	r0, [pc, #48]	; (200031a4 <xTimerCreateTimerTask+0x50>)
20003174:	f7ff fb7c 	bl	20002870 <xTaskCreate>
	configASSERT( xReturn );
20003178:	b950      	cbnz	r0, 20003190 <xTimerCreateTimerTask+0x3c>
2000317a:	f04f 0350 	mov.w	r3, #80	; 0x50
2000317e:	f383 8811 	msr	BASEPRI, r3
20003182:	f3bf 8f6f 	isb	sy
20003186:	f3bf 8f4f 	dsb	sy
2000318a:	e7fe      	b.n	2000318a <xTimerCreateTimerTask+0x36>
BaseType_t xReturn = pdFAIL;
2000318c:	2000      	movs	r0, #0
2000318e:	e7f3      	b.n	20003178 <xTimerCreateTimerTask+0x24>
}
20003190:	b003      	add	sp, #12
20003192:	f85d fb04 	ldr.w	pc, [sp], #4
20003196:	bf00      	nop
20003198:	2001be7c 	.word	0x2001be7c
2000319c:	2001be80 	.word	0x2001be80
200031a0:	200063e8 	.word	0x200063e8
200031a4:	200034a5 	.word	0x200034a5

200031a8 <xTimerCreate>:
	{
200031a8:	e92d 41f0 	stmdb	sp!, {r4, r5, r6, r7, r8, lr}
200031ac:	b082      	sub	sp, #8
200031ae:	4605      	mov	r5, r0
200031b0:	460e      	mov	r6, r1
200031b2:	4617      	mov	r7, r2
200031b4:	4698      	mov	r8, r3
		pxNewTimer = ( Timer_t * ) pvPortMalloc( sizeof( Timer_t ) );
200031b6:	2028      	movs	r0, #40	; 0x28
200031b8:	f7fe fd3a 	bl	20001c30 <pvPortMalloc>
		if( pxNewTimer != NULL )
200031bc:	4604      	mov	r4, r0
200031be:	b140      	cbz	r0, 200031d2 <xTimerCreate+0x2a>
			prvInitialiseNewTimer( pcTimerName, xTimerPeriodInTicks, uxAutoReload, pvTimerID, pxCallbackFunction, pxNewTimer );
200031c0:	9001      	str	r0, [sp, #4]
200031c2:	9b08      	ldr	r3, [sp, #32]
200031c4:	9300      	str	r3, [sp, #0]
200031c6:	4643      	mov	r3, r8
200031c8:	463a      	mov	r2, r7
200031ca:	4631      	mov	r1, r6
200031cc:	4628      	mov	r0, r5
200031ce:	f7ff ffa1 	bl	20003114 <prvInitialiseNewTimer>
	}
200031d2:	4620      	mov	r0, r4
200031d4:	b002      	add	sp, #8
200031d6:	e8bd 81f0 	ldmia.w	sp!, {r4, r5, r6, r7, r8, pc}
	...

200031dc <xTimerGenericCommand>:
	configASSERT( xTimer );
200031dc:	b1c0      	cbz	r0, 20003210 <xTimerGenericCommand+0x34>
{
200031de:	b530      	push	{r4, r5, lr}
200031e0:	b085      	sub	sp, #20
200031e2:	4615      	mov	r5, r2
200031e4:	4604      	mov	r4, r0
	if( xTimerQueue != NULL )
200031e6:	4a17      	ldr	r2, [pc, #92]	; (20003244 <xTimerGenericCommand+0x68>)
200031e8:	6810      	ldr	r0, [r2, #0]
200031ea:	b340      	cbz	r0, 2000323e <xTimerGenericCommand+0x62>
200031ec:	461a      	mov	r2, r3
		xMessage.xMessageID = xCommandID;
200031ee:	9101      	str	r1, [sp, #4]
		xMessage.u.xTimerParameters.xMessageValue = xOptionalValue;
200031f0:	9502      	str	r5, [sp, #8]
		xMessage.u.xTimerParameters.pxTimer = ( Timer_t * ) xTimer;
200031f2:	9403      	str	r4, [sp, #12]
		if( xCommandID < tmrFIRST_FROM_ISR_COMMAND )
200031f4:	2905      	cmp	r1, #5
200031f6:	dc1c      	bgt.n	20003232 <xTimerGenericCommand+0x56>
			if( xTaskGetSchedulerState() == taskSCHEDULER_RUNNING )
200031f8:	f7ff fe60 	bl	20002ebc <xTaskGetSchedulerState>
200031fc:	2802      	cmp	r0, #2
200031fe:	d010      	beq.n	20003222 <xTimerGenericCommand+0x46>
				xReturn = xQueueSendToBack( xTimerQueue, &xMessage, tmrNO_DELAY );
20003200:	2300      	movs	r3, #0
20003202:	461a      	mov	r2, r3
20003204:	a901      	add	r1, sp, #4
20003206:	480f      	ldr	r0, [pc, #60]	; (20003244 <xTimerGenericCommand+0x68>)
20003208:	6800      	ldr	r0, [r0, #0]
2000320a:	f7fe fedf 	bl	20001fcc <xQueueGenericSend>
2000320e:	e014      	b.n	2000323a <xTimerGenericCommand+0x5e>
20003210:	f04f 0350 	mov.w	r3, #80	; 0x50
20003214:	f383 8811 	msr	BASEPRI, r3
20003218:	f3bf 8f6f 	isb	sy
2000321c:	f3bf 8f4f 	dsb	sy
20003220:	e7fe      	b.n	20003220 <xTimerGenericCommand+0x44>
				xReturn = xQueueSendToBack( xTimerQueue, &xMessage, xTicksToWait );
20003222:	2300      	movs	r3, #0
20003224:	9a08      	ldr	r2, [sp, #32]
20003226:	a901      	add	r1, sp, #4
20003228:	4806      	ldr	r0, [pc, #24]	; (20003244 <xTimerGenericCommand+0x68>)
2000322a:	6800      	ldr	r0, [r0, #0]
2000322c:	f7fe fece 	bl	20001fcc <xQueueGenericSend>
20003230:	e003      	b.n	2000323a <xTimerGenericCommand+0x5e>
			xReturn = xQueueSendToBackFromISR( xTimerQueue, &xMessage, pxHigherPriorityTaskWoken );
20003232:	2300      	movs	r3, #0
20003234:	a901      	add	r1, sp, #4
20003236:	f7fe ffa4 	bl	20002182 <xQueueGenericSendFromISR>
}
2000323a:	b005      	add	sp, #20
2000323c:	bd30      	pop	{r4, r5, pc}
BaseType_t xReturn = pdFAIL;
2000323e:	2000      	movs	r0, #0
	return xReturn;
20003240:	e7fb      	b.n	2000323a <xTimerGenericCommand+0x5e>
20003242:	bf00      	nop
20003244:	2001be7c 	.word	0x2001be7c

20003248 <prvSwitchTimerLists>:
{
20003248:	b570      	push	{r4, r5, r6, lr}
2000324a:	b082      	sub	sp, #8
	while( listLIST_IS_EMPTY( pxCurrentTimerList ) == pdFALSE )
2000324c:	4b1a      	ldr	r3, [pc, #104]	; (200032b8 <prvSwitchTimerLists+0x70>)
2000324e:	681b      	ldr	r3, [r3, #0]
20003250:	681a      	ldr	r2, [r3, #0]
20003252:	b352      	cbz	r2, 200032aa <prvSwitchTimerLists+0x62>
		xNextExpireTime = listGET_ITEM_VALUE_OF_HEAD_ENTRY( pxCurrentTimerList );
20003254:	68db      	ldr	r3, [r3, #12]
20003256:	681e      	ldr	r6, [r3, #0]
		pxTimer = ( Timer_t * ) listGET_OWNER_OF_HEAD_ENTRY( pxCurrentTimerList );
20003258:	68dc      	ldr	r4, [r3, #12]
		( void ) uxListRemove( &( pxTimer->xTimerListItem ) );
2000325a:	1d25      	adds	r5, r4, #4
2000325c:	4628      	mov	r0, r5
2000325e:	f7fe fad7 	bl	20001810 <uxListRemove>
		pxTimer->pxCallbackFunction( ( TimerHandle_t ) pxTimer );
20003262:	6a63      	ldr	r3, [r4, #36]	; 0x24
20003264:	4620      	mov	r0, r4
20003266:	4798      	blx	r3
		if( pxTimer->uxAutoReload == ( UBaseType_t ) pdTRUE )
20003268:	69e3      	ldr	r3, [r4, #28]
2000326a:	2b01      	cmp	r3, #1
2000326c:	d1ee      	bne.n	2000324c <prvSwitchTimerLists+0x4>
			xReloadTime = ( xNextExpireTime + pxTimer->xTimerPeriodInTicks );
2000326e:	69a3      	ldr	r3, [r4, #24]
20003270:	4433      	add	r3, r6
			if( xReloadTime > xNextExpireTime )
20003272:	429e      	cmp	r6, r3
20003274:	d207      	bcs.n	20003286 <prvSwitchTimerLists+0x3e>
				listSET_LIST_ITEM_VALUE( &( pxTimer->xTimerListItem ), xReloadTime );
20003276:	6063      	str	r3, [r4, #4]
				listSET_LIST_ITEM_OWNER( &( pxTimer->xTimerListItem ), pxTimer );
20003278:	6124      	str	r4, [r4, #16]
				vListInsert( pxCurrentTimerList, &( pxTimer->xTimerListItem ) );
2000327a:	4629      	mov	r1, r5
2000327c:	4b0e      	ldr	r3, [pc, #56]	; (200032b8 <prvSwitchTimerLists+0x70>)
2000327e:	6818      	ldr	r0, [r3, #0]
20003280:	f7fe faac 	bl	200017dc <vListInsert>
20003284:	e7e2      	b.n	2000324c <prvSwitchTimerLists+0x4>
				xResult = xTimerGenericCommand( pxTimer, tmrCOMMAND_START_DONT_TRACE, xNextExpireTime, NULL, tmrNO_DELAY );
20003286:	2100      	movs	r1, #0
20003288:	9100      	str	r1, [sp, #0]
2000328a:	460b      	mov	r3, r1
2000328c:	4632      	mov	r2, r6
2000328e:	4620      	mov	r0, r4
20003290:	f7ff ffa4 	bl	200031dc <xTimerGenericCommand>
				configASSERT( xResult );
20003294:	2800      	cmp	r0, #0
20003296:	d1d9      	bne.n	2000324c <prvSwitchTimerLists+0x4>
20003298:	f04f 0350 	mov.w	r3, #80	; 0x50
2000329c:	f383 8811 	msr	BASEPRI, r3
200032a0:	f3bf 8f6f 	isb	sy
200032a4:	f3bf 8f4f 	dsb	sy
200032a8:	e7fe      	b.n	200032a8 <prvSwitchTimerLists+0x60>
	pxCurrentTimerList = pxOverflowTimerList;
200032aa:	4a04      	ldr	r2, [pc, #16]	; (200032bc <prvSwitchTimerLists+0x74>)
200032ac:	6810      	ldr	r0, [r2, #0]
200032ae:	4902      	ldr	r1, [pc, #8]	; (200032b8 <prvSwitchTimerLists+0x70>)
200032b0:	6008      	str	r0, [r1, #0]
	pxOverflowTimerList = pxTemp;
200032b2:	6013      	str	r3, [r2, #0]
}
200032b4:	b002      	add	sp, #8
200032b6:	bd70      	pop	{r4, r5, r6, pc}
200032b8:	2001be48 	.word	0x2001be48
200032bc:	2001be4c 	.word	0x2001be4c

200032c0 <prvSampleTimeNow>:
{
200032c0:	b538      	push	{r3, r4, r5, lr}
200032c2:	4605      	mov	r5, r0
	xTimeNow = xTaskGetTickCount();
200032c4:	f7ff fb50 	bl	20002968 <xTaskGetTickCount>
200032c8:	4604      	mov	r4, r0
	if( xTimeNow < xLastTime )
200032ca:	4b07      	ldr	r3, [pc, #28]	; (200032e8 <prvSampleTimeNow+0x28>)
200032cc:	681b      	ldr	r3, [r3, #0]
200032ce:	4298      	cmp	r0, r3
200032d0:	d305      	bcc.n	200032de <prvSampleTimeNow+0x1e>
		*pxTimerListsWereSwitched = pdFALSE;
200032d2:	2300      	movs	r3, #0
200032d4:	602b      	str	r3, [r5, #0]
	xLastTime = xTimeNow;
200032d6:	4b04      	ldr	r3, [pc, #16]	; (200032e8 <prvSampleTimeNow+0x28>)
200032d8:	601c      	str	r4, [r3, #0]
}
200032da:	4620      	mov	r0, r4
200032dc:	bd38      	pop	{r3, r4, r5, pc}
		prvSwitchTimerLists();
200032de:	f7ff ffb3 	bl	20003248 <prvSwitchTimerLists>
		*pxTimerListsWereSwitched = pdTRUE;
200032e2:	2301      	movs	r3, #1
200032e4:	602b      	str	r3, [r5, #0]
200032e6:	e7f6      	b.n	200032d6 <prvSampleTimeNow+0x16>
200032e8:	2001be78 	.word	0x2001be78

200032ec <prvProcessExpiredTimer>:
{
200032ec:	b570      	push	{r4, r5, r6, lr}
200032ee:	b082      	sub	sp, #8
200032f0:	4605      	mov	r5, r0
200032f2:	460e      	mov	r6, r1
Timer_t * const pxTimer = ( Timer_t * ) listGET_OWNER_OF_HEAD_ENTRY( pxCurrentTimerList );
200032f4:	4b14      	ldr	r3, [pc, #80]	; (20003348 <prvProcessExpiredTimer+0x5c>)
200032f6:	681b      	ldr	r3, [r3, #0]
200032f8:	68db      	ldr	r3, [r3, #12]
200032fa:	68dc      	ldr	r4, [r3, #12]
	( void ) uxListRemove( &( pxTimer->xTimerListItem ) );
200032fc:	1d20      	adds	r0, r4, #4
200032fe:	f7fe fa87 	bl	20001810 <uxListRemove>
	if( pxTimer->uxAutoReload == ( UBaseType_t ) pdTRUE )
20003302:	69e3      	ldr	r3, [r4, #28]
20003304:	2b01      	cmp	r3, #1
20003306:	d004      	beq.n	20003312 <prvProcessExpiredTimer+0x26>
	pxTimer->pxCallbackFunction( ( TimerHandle_t ) pxTimer );
20003308:	6a63      	ldr	r3, [r4, #36]	; 0x24
2000330a:	4620      	mov	r0, r4
2000330c:	4798      	blx	r3
}
2000330e:	b002      	add	sp, #8
20003310:	bd70      	pop	{r4, r5, r6, pc}
		if( prvInsertTimerInActiveList( pxTimer, ( xNextExpireTime + pxTimer->xTimerPeriodInTicks ), xTimeNow, xNextExpireTime ) != pdFALSE )
20003312:	69a1      	ldr	r1, [r4, #24]
20003314:	462b      	mov	r3, r5
20003316:	4632      	mov	r2, r6
20003318:	4429      	add	r1, r5
2000331a:	4620      	mov	r0, r4
2000331c:	f7ff fea8 	bl	20003070 <prvInsertTimerInActiveList>
20003320:	2800      	cmp	r0, #0
20003322:	d0f1      	beq.n	20003308 <prvProcessExpiredTimer+0x1c>
			xResult = xTimerGenericCommand( pxTimer, tmrCOMMAND_START_DONT_TRACE, xNextExpireTime, NULL, tmrNO_DELAY );
20003324:	2100      	movs	r1, #0
20003326:	9100      	str	r1, [sp, #0]
20003328:	460b      	mov	r3, r1
2000332a:	462a      	mov	r2, r5
2000332c:	4620      	mov	r0, r4
2000332e:	f7ff ff55 	bl	200031dc <xTimerGenericCommand>
			configASSERT( xResult );
20003332:	2800      	cmp	r0, #0
20003334:	d1e8      	bne.n	20003308 <prvProcessExpiredTimer+0x1c>
20003336:	f04f 0350 	mov.w	r3, #80	; 0x50
2000333a:	f383 8811 	msr	BASEPRI, r3
2000333e:	f3bf 8f6f 	isb	sy
20003342:	f3bf 8f4f 	dsb	sy
20003346:	e7fe      	b.n	20003346 <prvProcessExpiredTimer+0x5a>
20003348:	2001be48 	.word	0x2001be48

2000334c <prvProcessTimerOrBlockTask>:
{
2000334c:	b570      	push	{r4, r5, r6, lr}
2000334e:	b082      	sub	sp, #8
20003350:	4606      	mov	r6, r0
20003352:	460c      	mov	r4, r1
	vTaskSuspendAll();
20003354:	f7ff fb00 	bl	20002958 <vTaskSuspendAll>
		xTimeNow = prvSampleTimeNow( &xTimerListsWereSwitched );
20003358:	a801      	add	r0, sp, #4
2000335a:	f7ff ffb1 	bl	200032c0 <prvSampleTimeNow>
		if( xTimerListsWereSwitched == pdFALSE )
2000335e:	9b01      	ldr	r3, [sp, #4]
20003360:	bb23      	cbnz	r3, 200033ac <prvProcessTimerOrBlockTask+0x60>
20003362:	4605      	mov	r5, r0
			if( ( xListWasEmpty == pdFALSE ) && ( xNextExpireTime <= xTimeNow ) )
20003364:	b90c      	cbnz	r4, 2000336a <prvProcessTimerOrBlockTask+0x1e>
20003366:	42b0      	cmp	r0, r6
20003368:	d219      	bcs.n	2000339e <prvProcessTimerOrBlockTask+0x52>
				if( xListWasEmpty != pdFALSE )
2000336a:	b12c      	cbz	r4, 20003378 <prvProcessTimerOrBlockTask+0x2c>
					xListWasEmpty = listLIST_IS_EMPTY( pxOverflowTimerList );
2000336c:	4b11      	ldr	r3, [pc, #68]	; (200033b4 <prvProcessTimerOrBlockTask+0x68>)
2000336e:	681b      	ldr	r3, [r3, #0]
20003370:	681c      	ldr	r4, [r3, #0]
20003372:	fab4 f484 	clz	r4, r4
20003376:	0964      	lsrs	r4, r4, #5
				vQueueWaitForMessageRestricted( xTimerQueue, ( xNextExpireTime - xTimeNow ), xListWasEmpty );
20003378:	4622      	mov	r2, r4
2000337a:	1b71      	subs	r1, r6, r5
2000337c:	4b0e      	ldr	r3, [pc, #56]	; (200033b8 <prvProcessTimerOrBlockTask+0x6c>)
2000337e:	6818      	ldr	r0, [r3, #0]
20003380:	f7ff f914 	bl	200025ac <vQueueWaitForMessageRestricted>
				if( xTaskResumeAll() == pdFALSE )
20003384:	f7ff fb8e 	bl	20002aa4 <xTaskResumeAll>
20003388:	b938      	cbnz	r0, 2000339a <prvProcessTimerOrBlockTask+0x4e>
					portYIELD_WITHIN_API();
2000338a:	f04f 5280 	mov.w	r2, #268435456	; 0x10000000
2000338e:	4b0b      	ldr	r3, [pc, #44]	; (200033bc <prvProcessTimerOrBlockTask+0x70>)
20003390:	601a      	str	r2, [r3, #0]
20003392:	f3bf 8f4f 	dsb	sy
20003396:	f3bf 8f6f 	isb	sy
}
2000339a:	b002      	add	sp, #8
2000339c:	bd70      	pop	{r4, r5, r6, pc}
				( void ) xTaskResumeAll();
2000339e:	f7ff fb81 	bl	20002aa4 <xTaskResumeAll>
				prvProcessExpiredTimer( xNextExpireTime, xTimeNow );
200033a2:	4629      	mov	r1, r5
200033a4:	4630      	mov	r0, r6
200033a6:	f7ff ffa1 	bl	200032ec <prvProcessExpiredTimer>
200033aa:	e7f6      	b.n	2000339a <prvProcessTimerOrBlockTask+0x4e>
			( void ) xTaskResumeAll();
200033ac:	f7ff fb7a 	bl	20002aa4 <xTaskResumeAll>
}
200033b0:	e7f3      	b.n	2000339a <prvProcessTimerOrBlockTask+0x4e>
200033b2:	bf00      	nop
200033b4:	2001be4c 	.word	0x2001be4c
200033b8:	2001be7c 	.word	0x2001be7c
200033bc:	e000ed04 	.word	0xe000ed04

200033c0 <prvProcessReceivedCommands>:
{
200033c0:	b530      	push	{r4, r5, lr}
200033c2:	b087      	sub	sp, #28
	while( xQueueReceive( xTimerQueue, &xMessage, tmrNO_DELAY ) != pdFAIL ) /*lint !e603 xMessage does not have to be initialised as it is passed out, not in, and it is not used unless xQueueReceive() returns pdTRUE. */
200033c4:	2300      	movs	r3, #0
200033c6:	461a      	mov	r2, r3
200033c8:	a903      	add	r1, sp, #12
200033ca:	4835      	ldr	r0, [pc, #212]	; (200034a0 <prvProcessReceivedCommands+0xe0>)
200033cc:	6800      	ldr	r0, [r0, #0]
200033ce:	f7fe ffa5 	bl	2000231c <xQueueGenericReceive>
200033d2:	2800      	cmp	r0, #0
200033d4:	d061      	beq.n	2000349a <prvProcessReceivedCommands+0xda>
		if( xMessage.xMessageID >= ( BaseType_t ) 0 )
200033d6:	9b03      	ldr	r3, [sp, #12]
200033d8:	2b00      	cmp	r3, #0
200033da:	dbf3      	blt.n	200033c4 <prvProcessReceivedCommands+0x4>
			pxTimer = xMessage.u.xTimerParameters.pxTimer;
200033dc:	9c05      	ldr	r4, [sp, #20]
			if( listIS_CONTAINED_WITHIN( NULL, &( pxTimer->xTimerListItem ) ) == pdFALSE )
200033de:	6963      	ldr	r3, [r4, #20]
200033e0:	b113      	cbz	r3, 200033e8 <prvProcessReceivedCommands+0x28>
				( void ) uxListRemove( &( pxTimer->xTimerListItem ) );
200033e2:	1d20      	adds	r0, r4, #4
200033e4:	f7fe fa14 	bl	20001810 <uxListRemove>
			xTimeNow = prvSampleTimeNow( &xTimerListsWereSwitched );
200033e8:	a802      	add	r0, sp, #8
200033ea:	f7ff ff69 	bl	200032c0 <prvSampleTimeNow>
			switch( xMessage.xMessageID )
200033ee:	9b03      	ldr	r3, [sp, #12]
200033f0:	2b09      	cmp	r3, #9
200033f2:	d8e7      	bhi.n	200033c4 <prvProcessReceivedCommands+0x4>
200033f4:	a201      	add	r2, pc, #4	; (adr r2, 200033fc <prvProcessReceivedCommands+0x3c>)
200033f6:	f852 f023 	ldr.w	pc, [r2, r3, lsl #2]
200033fa:	bf00      	nop
200033fc:	20003425 	.word	0x20003425
20003400:	20003425 	.word	0x20003425
20003404:	20003425 	.word	0x20003425
20003408:	200033c5 	.word	0x200033c5
2000340c:	2000346d 	.word	0x2000346d
20003410:	20003493 	.word	0x20003493
20003414:	20003425 	.word	0x20003425
20003418:	20003425 	.word	0x20003425
2000341c:	200033c5 	.word	0x200033c5
20003420:	2000346d 	.word	0x2000346d
					if( prvInsertTimerInActiveList( pxTimer,  xMessage.u.xTimerParameters.xMessageValue + pxTimer->xTimerPeriodInTicks, xTimeNow, xMessage.u.xTimerParameters.xMessageValue ) != pdFALSE )
20003424:	9904      	ldr	r1, [sp, #16]
20003426:	69a5      	ldr	r5, [r4, #24]
20003428:	460b      	mov	r3, r1
2000342a:	4602      	mov	r2, r0
2000342c:	4429      	add	r1, r5
2000342e:	4620      	mov	r0, r4
20003430:	f7ff fe1e 	bl	20003070 <prvInsertTimerInActiveList>
20003434:	2800      	cmp	r0, #0
20003436:	d0c5      	beq.n	200033c4 <prvProcessReceivedCommands+0x4>
						pxTimer->pxCallbackFunction( ( TimerHandle_t ) pxTimer );
20003438:	6a63      	ldr	r3, [r4, #36]	; 0x24
2000343a:	4620      	mov	r0, r4
2000343c:	4798      	blx	r3
						if( pxTimer->uxAutoReload == ( UBaseType_t ) pdTRUE )
2000343e:	69e3      	ldr	r3, [r4, #28]
20003440:	2b01      	cmp	r3, #1
20003442:	d1bf      	bne.n	200033c4 <prvProcessReceivedCommands+0x4>
							xResult = xTimerGenericCommand( pxTimer, tmrCOMMAND_START_DONT_TRACE, xMessage.u.xTimerParameters.xMessageValue + pxTimer->xTimerPeriodInTicks, NULL, tmrNO_DELAY );
20003444:	69a2      	ldr	r2, [r4, #24]
20003446:	2100      	movs	r1, #0
20003448:	9100      	str	r1, [sp, #0]
2000344a:	460b      	mov	r3, r1
2000344c:	9804      	ldr	r0, [sp, #16]
2000344e:	4402      	add	r2, r0
20003450:	4620      	mov	r0, r4
20003452:	f7ff fec3 	bl	200031dc <xTimerGenericCommand>
							configASSERT( xResult );
20003456:	2800      	cmp	r0, #0
20003458:	d1b4      	bne.n	200033c4 <prvProcessReceivedCommands+0x4>
2000345a:	f04f 0350 	mov.w	r3, #80	; 0x50
2000345e:	f383 8811 	msr	BASEPRI, r3
20003462:	f3bf 8f6f 	isb	sy
20003466:	f3bf 8f4f 	dsb	sy
2000346a:	e7fe      	b.n	2000346a <prvProcessReceivedCommands+0xaa>
					pxTimer->xTimerPeriodInTicks = xMessage.u.xTimerParameters.xMessageValue;
2000346c:	9904      	ldr	r1, [sp, #16]
2000346e:	61a1      	str	r1, [r4, #24]
					configASSERT( ( pxTimer->xTimerPeriodInTicks > 0 ) );
20003470:	b131      	cbz	r1, 20003480 <prvProcessReceivedCommands+0xc0>
					( void ) prvInsertTimerInActiveList( pxTimer, ( xTimeNow + pxTimer->xTimerPeriodInTicks ), xTimeNow, xTimeNow );
20003472:	4603      	mov	r3, r0
20003474:	4602      	mov	r2, r0
20003476:	4401      	add	r1, r0
20003478:	4620      	mov	r0, r4
2000347a:	f7ff fdf9 	bl	20003070 <prvInsertTimerInActiveList>
					break;
2000347e:	e7a1      	b.n	200033c4 <prvProcessReceivedCommands+0x4>
20003480:	f04f 0350 	mov.w	r3, #80	; 0x50
20003484:	f383 8811 	msr	BASEPRI, r3
20003488:	f3bf 8f6f 	isb	sy
2000348c:	f3bf 8f4f 	dsb	sy
20003490:	e7fe      	b.n	20003490 <prvProcessReceivedCommands+0xd0>
						vPortFree( pxTimer );
20003492:	4620      	mov	r0, r4
20003494:	f7fe fc50 	bl	20001d38 <vPortFree>
					break;
20003498:	e794      	b.n	200033c4 <prvProcessReceivedCommands+0x4>
}
2000349a:	b007      	add	sp, #28
2000349c:	bd30      	pop	{r4, r5, pc}
2000349e:	bf00      	nop
200034a0:	2001be7c 	.word	0x2001be7c

200034a4 <prvTimerTask>:
{
200034a4:	b500      	push	{lr}
200034a6:	b083      	sub	sp, #12
		xNextExpireTime = prvGetNextExpireTime( &xListWasEmpty );
200034a8:	a801      	add	r0, sp, #4
200034aa:	f7ff fdd1 	bl	20003050 <prvGetNextExpireTime>
		prvProcessTimerOrBlockTask( xNextExpireTime, xListWasEmpty );
200034ae:	9901      	ldr	r1, [sp, #4]
200034b0:	f7ff ff4c 	bl	2000334c <prvProcessTimerOrBlockTask>
		prvProcessReceivedCommands();
200034b4:	f7ff ff84 	bl	200033c0 <prvProcessReceivedCommands>
200034b8:	e7f6      	b.n	200034a8 <prvTimerTask+0x4>
	...

200034bc <cbTimer>:
  }
}

//-----------------------------------------------------------------------------
void cbTimer(void const * argument)
{
200034bc:	b508      	push	{r3, lr}
  static uint64_t task02_power = 0;
  static uint32_t task02_measurenum = 1;
  uint32_t t32;

  if(task02_reset)
200034be:	4b1d      	ldr	r3, [pc, #116]	; (20003534 <cbTimer+0x78>)
200034c0:	681b      	ldr	r3, [r3, #0]
200034c2:	bb23      	cbnz	r3, 2000350e <cbTimer+0x52>
    task02_poweravg = 0;
    task02_measurenum = 0;
    return;
  }

  t32 = task02_count;
200034c4:	4a1c      	ldr	r2, [pc, #112]	; (20003538 <cbTimer+0x7c>)
200034c6:	6813      	ldr	r3, [r2, #0]
  task02_count = 0;
200034c8:	2100      	movs	r1, #0
200034ca:	6011      	str	r1, [r2, #0]

  if(task02_run)
200034cc:	4a1b      	ldr	r2, [pc, #108]	; (2000353c <cbTimer+0x80>)
200034ce:	6812      	ldr	r2, [r2, #0]
200034d0:	b1e2      	cbz	r2, 2000350c <cbTimer+0x50>
  {
    if(t32 < task02_powermin)
200034d2:	4a1b      	ldr	r2, [pc, #108]	; (20003540 <cbTimer+0x84>)
200034d4:	6812      	ldr	r2, [r2, #0]
200034d6:	4293      	cmp	r3, r2
200034d8:	d201      	bcs.n	200034de <cbTimer+0x22>
      task02_powermin = t32;
200034da:	4a19      	ldr	r2, [pc, #100]	; (20003540 <cbTimer+0x84>)
200034dc:	6013      	str	r3, [r2, #0]

    if(t32 > task02_powermax)
200034de:	4a19      	ldr	r2, [pc, #100]	; (20003544 <cbTimer+0x88>)
200034e0:	6812      	ldr	r2, [r2, #0]
200034e2:	4293      	cmp	r3, r2
200034e4:	d901      	bls.n	200034ea <cbTimer+0x2e>
      task02_powermax = t32;
200034e6:	4a17      	ldr	r2, [pc, #92]	; (20003544 <cbTimer+0x88>)
200034e8:	6013      	str	r3, [r2, #0]

    task02_power += t32;
200034ea:	4a17      	ldr	r2, [pc, #92]	; (20003548 <cbTimer+0x8c>)
200034ec:	e9d2 0100 	ldrd	r0, r1, [r2]
200034f0:	18c0      	adds	r0, r0, r3
200034f2:	f141 0100 	adc.w	r1, r1, #0
200034f6:	e9c2 0100 	strd	r0, r1, [r2]
    task02_measurenum++;
200034fa:	4b14      	ldr	r3, [pc, #80]	; (2000354c <cbTimer+0x90>)
200034fc:	681a      	ldr	r2, [r3, #0]
200034fe:	3201      	adds	r2, #1
20003500:	601a      	str	r2, [r3, #0]
    task02_poweravg = task02_power / task02_measurenum;
20003502:	2300      	movs	r3, #0
20003504:	f7fc feb4 	bl	20000270 <__aeabi_uldivmod>
20003508:	4b11      	ldr	r3, [pc, #68]	; (20003550 <cbTimer+0x94>)
2000350a:	6018      	str	r0, [r3, #0]
2000350c:	bd08      	pop	{r3, pc}
    task02_reset = 0;
2000350e:	2300      	movs	r3, #0
20003510:	4a08      	ldr	r2, [pc, #32]	; (20003534 <cbTimer+0x78>)
20003512:	6013      	str	r3, [r2, #0]
    task02_power = 0;
20003514:	2000      	movs	r0, #0
20003516:	2100      	movs	r1, #0
20003518:	4a0b      	ldr	r2, [pc, #44]	; (20003548 <cbTimer+0x8c>)
2000351a:	e9c2 0100 	strd	r0, r1, [r2]
    task02_powermin = 0xFFFFFFFF;
2000351e:	f04f 31ff 	mov.w	r1, #4294967295
20003522:	4a07      	ldr	r2, [pc, #28]	; (20003540 <cbTimer+0x84>)
20003524:	6011      	str	r1, [r2, #0]
    task02_powermax = 0;
20003526:	4a07      	ldr	r2, [pc, #28]	; (20003544 <cbTimer+0x88>)
20003528:	6013      	str	r3, [r2, #0]
    task02_poweravg = 0;
2000352a:	4a09      	ldr	r2, [pc, #36]	; (20003550 <cbTimer+0x94>)
2000352c:	6013      	str	r3, [r2, #0]
    task02_measurenum = 0;
2000352e:	4a07      	ldr	r2, [pc, #28]	; (2000354c <cbTimer+0x90>)
20003530:	6013      	str	r3, [r2, #0]
    return;
20003532:	bd08      	pop	{r3, pc}
20003534:	2001be9c 	.word	0x2001be9c
20003538:	2001be84 	.word	0x2001be84
2000353c:	2001bea0 	.word	0x2001bea0
20003540:	2001be98 	.word	0x2001be98
20003544:	2001be94 	.word	0x2001be94
20003548:	2001be88 	.word	0x2001be88
2000354c:	20018008 	.word	0x20018008
20003550:	2001be90 	.word	0x2001be90

20003554 <ClearTest>:
{
20003554:	b510      	push	{r4, lr}
  uint32_t ctStartT = GetTime();
20003556:	f7fe f828 	bl	200015aa <osKernelSysTick>
2000355a:	4604      	mov	r4, r0
  BSP_LCD_Clear(LCD_COLOR_BLACK);
2000355c:	2000      	movs	r0, #0
2000355e:	f001 f983 	bl	20004868 <BSP_LCD_Clear>
  return(GetTime() - ctStartT);
20003562:	f7fe f822 	bl	200015aa <osKernelSysTick>
}
20003566:	1b00      	subs	r0, r0, r4
20003568:	bd10      	pop	{r4, pc}
	...

2000356c <PixelTest>:
{
2000356c:	e92d 43f8 	stmdb	sp!, {r3, r4, r5, r6, r7, r8, r9, lr}
20003570:	4607      	mov	r7, r0
  uint32_t ctStartT = GetTime();
20003572:	f7fe f81a 	bl	200015aa <osKernelSysTick>
20003576:	4680      	mov	r8, r0
  for(uint32_t i = 0; i < n; i++)
20003578:	2600      	movs	r6, #0
2000357a:	e025      	b.n	200035c8 <PixelTest+0x5c>
    x = random() % BSP_LCD_GetXSize();
2000357c:	f001 ffe0 	bl	20005540 <random>
20003580:	4605      	mov	r5, r0
20003582:	f001 f949 	bl	20004818 <BSP_LCD_GetXSize>
20003586:	fb95 f4f0 	sdiv	r4, r5, r0
2000358a:	fb00 5414 	mls	r4, r0, r4, r5
2000358e:	b2a4      	uxth	r4, r4
    y = random() % BSP_LCD_GetYSize();
20003590:	f001 ffd6 	bl	20005540 <random>
20003594:	4681      	mov	r9, r0
20003596:	f001 f947 	bl	20004828 <BSP_LCD_GetYSize>
2000359a:	fb99 f5f0 	sdiv	r5, r9, r0
2000359e:	fb00 9515 	mls	r5, r0, r5, r9
200035a2:	b2ad      	uxth	r5, r5
    c = random() % 0xFFFF;
200035a4:	f001 ffcc 	bl	20005540 <random>
200035a8:	4a0b      	ldr	r2, [pc, #44]	; (200035d8 <PixelTest+0x6c>)
200035aa:	fb82 3200 	smull	r3, r2, r2, r0
200035ae:	1813      	adds	r3, r2, r0
200035b0:	17c2      	asrs	r2, r0, #31
200035b2:	ebc2 32e3 	rsb	r2, r2, r3, asr #15
200035b6:	ebc2 4202 	rsb	r2, r2, r2, lsl #16
200035ba:	1a82      	subs	r2, r0, r2
    BSP_LCD_DrawPixel(x, y, c);
200035bc:	b292      	uxth	r2, r2
200035be:	4629      	mov	r1, r5
200035c0:	4620      	mov	r0, r4
200035c2:	f001 f985 	bl	200048d0 <BSP_LCD_DrawPixel>
  for(uint32_t i = 0; i < n; i++)
200035c6:	3601      	adds	r6, #1
200035c8:	42be      	cmp	r6, r7
200035ca:	d3d7      	bcc.n	2000357c <PixelTest+0x10>
  return(GetTime() - ctStartT);
200035cc:	f7fd ffed 	bl	200015aa <osKernelSysTick>
}
200035d0:	eba0 0008 	sub.w	r0, r0, r8
200035d4:	e8bd 83f8 	ldmia.w	sp!, {r3, r4, r5, r6, r7, r8, r9, pc}
200035d8:	80008001 	.word	0x80008001

200035dc <LineTest>:
{
200035dc:	e92d 4ff8 	stmdb	sp!, {r3, r4, r5, r6, r7, r8, r9, sl, fp, lr}
200035e0:	4681      	mov	r9, r0
  uint32_t ctStartT = GetTime();
200035e2:	f7fd ffe2 	bl	200015aa <osKernelSysTick>
200035e6:	4682      	mov	sl, r0
  for(uint32_t i = 0; i < n; i++)
200035e8:	f04f 0800 	mov.w	r8, #0
200035ec:	e03f      	b.n	2000366e <LineTest+0x92>
    x1 = random() % BSP_LCD_GetXSize();
200035ee:	f001 ffa7 	bl	20005540 <random>
200035f2:	4605      	mov	r5, r0
200035f4:	f001 f910 	bl	20004818 <BSP_LCD_GetXSize>
200035f8:	fb95 f4f0 	sdiv	r4, r5, r0
200035fc:	fb00 5414 	mls	r4, r0, r4, r5
20003600:	b2a4      	uxth	r4, r4
    y1 = random() % BSP_LCD_GetYSize();
20003602:	f001 ff9d 	bl	20005540 <random>
20003606:	4606      	mov	r6, r0
20003608:	f001 f90e 	bl	20004828 <BSP_LCD_GetYSize>
2000360c:	fb96 f5f0 	sdiv	r5, r6, r0
20003610:	fb00 6515 	mls	r5, r0, r5, r6
20003614:	b2ad      	uxth	r5, r5
    x2 = random() % BSP_LCD_GetXSize();
20003616:	f001 ff93 	bl	20005540 <random>
2000361a:	4607      	mov	r7, r0
2000361c:	f001 f8fc 	bl	20004818 <BSP_LCD_GetXSize>
20003620:	fb97 f6f0 	sdiv	r6, r7, r0
20003624:	fb00 7616 	mls	r6, r0, r6, r7
20003628:	b2b6      	uxth	r6, r6
    y2 = random() % BSP_LCD_GetYSize();
2000362a:	f001 ff89 	bl	20005540 <random>
2000362e:	4683      	mov	fp, r0
20003630:	f001 f8fa 	bl	20004828 <BSP_LCD_GetYSize>
20003634:	fb9b f7f0 	sdiv	r7, fp, r0
20003638:	fb00 b717 	mls	r7, r0, r7, fp
2000363c:	b2bf      	uxth	r7, r7
    BSP_LCD_SetTextColor(RD(random() % 0xFFFF));
2000363e:	f001 ff7f 	bl	20005540 <random>
20003642:	4b0f      	ldr	r3, [pc, #60]	; (20003680 <LineTest+0xa4>)
20003644:	fb83 2300 	smull	r2, r3, r3, r0
20003648:	181a      	adds	r2, r3, r0
2000364a:	17c3      	asrs	r3, r0, #31
2000364c:	ebc3 33e2 	rsb	r3, r3, r2, asr #15
20003650:	ebc3 4303 	rsb	r3, r3, r3, lsl #16
20003654:	1ac3      	subs	r3, r0, r3
  \return               Reversed value
 */
__attribute__((always_inline)) __STATIC_INLINE int32_t __REVSH(int32_t value)
{
#if (__GNUC__ > 4) || (__GNUC__ == 4 && __GNUC_MINOR__ >= 8)
  return (short)__builtin_bswap16(value);
20003656:	ba58      	rev16	r0, r3
20003658:	b280      	uxth	r0, r0
2000365a:	f001 f8ed 	bl	20004838 <BSP_LCD_SetTextColor>
    BSP_LCD_DrawLine(x1, y1, x2, y2);
2000365e:	463b      	mov	r3, r7
20003660:	4632      	mov	r2, r6
20003662:	4629      	mov	r1, r5
20003664:	4620      	mov	r0, r4
20003666:	f001 f97d 	bl	20004964 <BSP_LCD_DrawLine>
  for(uint32_t i = 0; i < n; i++)
2000366a:	f108 0801 	add.w	r8, r8, #1
2000366e:	45c8      	cmp	r8, r9
20003670:	d3bd      	bcc.n	200035ee <LineTest+0x12>
  return(GetTime() - ctStartT);
20003672:	f7fd ff9a 	bl	200015aa <osKernelSysTick>
}
20003676:	eba0 000a 	sub.w	r0, r0, sl
2000367a:	e8bd 8ff8 	ldmia.w	sp!, {r3, r4, r5, r6, r7, r8, r9, sl, fp, pc}
2000367e:	bf00      	nop
20003680:	80008001 	.word	0x80008001

20003684 <FillRectTest>:
{
20003684:	e92d 4ff8 	stmdb	sp!, {r3, r4, r5, r6, r7, r8, r9, sl, fp, lr}
20003688:	4681      	mov	r9, r0
  uint32_t ctStartT = GetTime();
2000368a:	f7fd ff8e 	bl	200015aa <osKernelSysTick>
2000368e:	4682      	mov	sl, r0
  for(uint32_t i = 0; i < n; i++)
20003690:	f04f 0800 	mov.w	r8, #0
20003694:	e045      	b.n	20003722 <FillRectTest+0x9e>
    w = random() % (BSP_LCD_GetXSize() >> 1);
20003696:	f001 ff53 	bl	20005540 <random>
2000369a:	4605      	mov	r5, r0
2000369c:	f001 f8bc 	bl	20004818 <BSP_LCD_GetXSize>
200036a0:	f3c0 004f 	ubfx	r0, r0, #1, #16
200036a4:	fb95 f4f0 	sdiv	r4, r5, r0
200036a8:	fb00 5414 	mls	r4, r0, r4, r5
200036ac:	b2a4      	uxth	r4, r4
    h = random() % (BSP_LCD_GetYSize() >> 1);
200036ae:	f001 ff47 	bl	20005540 <random>
200036b2:	4606      	mov	r6, r0
200036b4:	f001 f8b8 	bl	20004828 <BSP_LCD_GetYSize>
200036b8:	f3c0 004f 	ubfx	r0, r0, #1, #16
200036bc:	fb96 f5f0 	sdiv	r5, r6, r0
200036c0:	fb00 6515 	mls	r5, r0, r5, r6
200036c4:	b2ad      	uxth	r5, r5
    x = random() % (BSP_LCD_GetXSize() - w);
200036c6:	f001 ff3b 	bl	20005540 <random>
200036ca:	4607      	mov	r7, r0
200036cc:	f001 f8a4 	bl	20004818 <BSP_LCD_GetXSize>
200036d0:	1b00      	subs	r0, r0, r4
200036d2:	fb97 f6f0 	sdiv	r6, r7, r0
200036d6:	fb00 7616 	mls	r6, r0, r6, r7
200036da:	b2b6      	uxth	r6, r6
    y = random() % (BSP_LCD_GetYSize() - h);
200036dc:	f001 ff30 	bl	20005540 <random>
200036e0:	4683      	mov	fp, r0
200036e2:	f001 f8a1 	bl	20004828 <BSP_LCD_GetYSize>
200036e6:	1b40      	subs	r0, r0, r5
200036e8:	fb9b f7f0 	sdiv	r7, fp, r0
200036ec:	fb00 b717 	mls	r7, r0, r7, fp
200036f0:	b2bf      	uxth	r7, r7
    BSP_LCD_SetTextColor(RD(random() % 0xFFFF));
200036f2:	f001 ff25 	bl	20005540 <random>
200036f6:	4b0f      	ldr	r3, [pc, #60]	; (20003734 <FillRectTest+0xb0>)
200036f8:	fb83 2300 	smull	r2, r3, r3, r0
200036fc:	181a      	adds	r2, r3, r0
200036fe:	17c3      	asrs	r3, r0, #31
20003700:	ebc3 33e2 	rsb	r3, r3, r2, asr #15
20003704:	ebc3 4303 	rsb	r3, r3, r3, lsl #16
20003708:	1ac3      	subs	r3, r0, r3
2000370a:	ba58      	rev16	r0, r3
2000370c:	b280      	uxth	r0, r0
2000370e:	f001 f893 	bl	20004838 <BSP_LCD_SetTextColor>
    BSP_LCD_FillRect(x, y, w, h);
20003712:	462b      	mov	r3, r5
20003714:	4622      	mov	r2, r4
20003716:	4639      	mov	r1, r7
20003718:	4630      	mov	r0, r6
2000371a:	f001 fac1 	bl	20004ca0 <BSP_LCD_FillRect>
  for(uint32_t i = 0; i < n; i++)
2000371e:	f108 0801 	add.w	r8, r8, #1
20003722:	45c8      	cmp	r8, r9
20003724:	d3b7      	bcc.n	20003696 <FillRectTest+0x12>
  return(GetTime() - ctStartT);
20003726:	f7fd ff40 	bl	200015aa <osKernelSysTick>
}
2000372a:	eba0 000a 	sub.w	r0, r0, sl
2000372e:	e8bd 8ff8 	ldmia.w	sp!, {r3, r4, r5, r6, r7, r8, r9, sl, fp, pc}
20003732:	bf00      	nop
20003734:	80008001 	.word	0x80008001

20003738 <CharTest>:
{
20003738:	e92d 43f8 	stmdb	sp!, {r3, r4, r5, r6, r7, r8, r9, lr}
2000373c:	4607      	mov	r7, r0
  uint32_t ctStartT = GetTime();
2000373e:	f7fd ff34 	bl	200015aa <osKernelSysTick>
20003742:	4680      	mov	r8, r0
  for(uint32_t i = 0; i < n; i++)
20003744:	2600      	movs	r6, #0
20003746:	e051      	b.n	200037ec <CharTest+0xb4>
      BSP_LCD_SetFont(&Font8);
20003748:	483f      	ldr	r0, [pc, #252]	; (20003848 <CharTest+0x110>)
2000374a:	f001 f881 	bl	20004850 <BSP_LCD_SetFont>
    fp = BSP_LCD_GetFont();
2000374e:	f001 f885 	bl	2000485c <BSP_LCD_GetFont>
20003752:	4605      	mov	r5, r0
    x = random() % (BSP_LCD_GetXSize() - fp->Width);
20003754:	f001 fef4 	bl	20005540 <random>
20003758:	4681      	mov	r9, r0
2000375a:	f001 f85d 	bl	20004818 <BSP_LCD_GetXSize>
2000375e:	88ac      	ldrh	r4, [r5, #4]
20003760:	1b00      	subs	r0, r0, r4
20003762:	fb99 f4f0 	sdiv	r4, r9, r0
20003766:	fb00 9014 	mls	r0, r0, r4, r9
2000376a:	b284      	uxth	r4, r0
    y = random() % (BSP_LCD_GetYSize() - fp->Height);
2000376c:	f001 fee8 	bl	20005540 <random>
20003770:	4681      	mov	r9, r0
20003772:	f001 f859 	bl	20004828 <BSP_LCD_GetYSize>
20003776:	88ed      	ldrh	r5, [r5, #6]
20003778:	1b40      	subs	r0, r0, r5
2000377a:	fb99 f5f0 	sdiv	r5, r9, r0
2000377e:	fb00 9015 	mls	r0, r0, r5, r9
20003782:	b285      	uxth	r5, r0
    BSP_LCD_SetTextColor(RD(random() % 0xFFFF));
20003784:	f001 fedc 	bl	20005540 <random>
20003788:	f8df 90d8 	ldr.w	r9, [pc, #216]	; 20003864 <CharTest+0x12c>
2000378c:	fb89 2300 	smull	r2, r3, r9, r0
20003790:	181a      	adds	r2, r3, r0
20003792:	17c3      	asrs	r3, r0, #31
20003794:	ebc3 33e2 	rsb	r3, r3, r2, asr #15
20003798:	ebc3 4303 	rsb	r3, r3, r3, lsl #16
2000379c:	1ac3      	subs	r3, r0, r3
2000379e:	ba58      	rev16	r0, r3
200037a0:	b280      	uxth	r0, r0
200037a2:	f001 f849 	bl	20004838 <BSP_LCD_SetTextColor>
    BSP_LCD_SetBackColor(RD(random() % 0xFFFF));
200037a6:	f001 fecb 	bl	20005540 <random>
200037aa:	fb89 3900 	smull	r3, r9, r9, r0
200037ae:	4481      	add	r9, r0
200037b0:	17c3      	asrs	r3, r0, #31
200037b2:	ebc3 33e9 	rsb	r3, r3, r9, asr #15
200037b6:	ebc3 4303 	rsb	r3, r3, r3, lsl #16
200037ba:	1ac3      	subs	r3, r0, r3
200037bc:	ba58      	rev16	r0, r3
200037be:	b280      	uxth	r0, r0
200037c0:	f001 f840 	bl	20004844 <BSP_LCD_SetBackColor>
    c = random() % 96 + ' ';
200037c4:	f001 febc 	bl	20005540 <random>
200037c8:	4b20      	ldr	r3, [pc, #128]	; (2000384c <CharTest+0x114>)
200037ca:	fb83 2300 	smull	r2, r3, r3, r0
200037ce:	17c2      	asrs	r2, r0, #31
200037d0:	ebc2 1223 	rsb	r2, r2, r3, asr #4
200037d4:	eb02 0242 	add.w	r2, r2, r2, lsl #1
200037d8:	0153      	lsls	r3, r2, #5
200037da:	1ac2      	subs	r2, r0, r3
200037dc:	b2d2      	uxtb	r2, r2
200037de:	3220      	adds	r2, #32
    BSP_LCD_DisplayChar(x, y, c);
200037e0:	b2d2      	uxtb	r2, r2
200037e2:	4629      	mov	r1, r5
200037e4:	4620      	mov	r0, r4
200037e6:	f001 fa47 	bl	20004c78 <BSP_LCD_DisplayChar>
  for(uint32_t i = 0; i < n; i++)
200037ea:	3601      	adds	r6, #1
200037ec:	42be      	cmp	r6, r7
200037ee:	d225      	bcs.n	2000383c <CharTest+0x104>
    c = random() % 5;
200037f0:	f001 fea6 	bl	20005540 <random>
200037f4:	4a16      	ldr	r2, [pc, #88]	; (20003850 <CharTest+0x118>)
200037f6:	fb82 3200 	smull	r3, r2, r2, r0
200037fa:	17c3      	asrs	r3, r0, #31
200037fc:	ebc3 0362 	rsb	r3, r3, r2, asr #1
20003800:	eb03 0383 	add.w	r3, r3, r3, lsl #2
20003804:	1ac3      	subs	r3, r0, r3
    if(c == 0)
20003806:	f013 03ff 	ands.w	r3, r3, #255	; 0xff
2000380a:	d09d      	beq.n	20003748 <CharTest+0x10>
    else if(c == 1)
2000380c:	2b01      	cmp	r3, #1
2000380e:	d009      	beq.n	20003824 <CharTest+0xec>
    else if(c == 2)
20003810:	2b02      	cmp	r3, #2
20003812:	d00b      	beq.n	2000382c <CharTest+0xf4>
    else if(c == 3)
20003814:	2b03      	cmp	r3, #3
20003816:	d00d      	beq.n	20003834 <CharTest+0xfc>
    else if(c == 4)
20003818:	2b04      	cmp	r3, #4
2000381a:	d198      	bne.n	2000374e <CharTest+0x16>
      BSP_LCD_SetFont(&Font24);
2000381c:	480d      	ldr	r0, [pc, #52]	; (20003854 <CharTest+0x11c>)
2000381e:	f001 f817 	bl	20004850 <BSP_LCD_SetFont>
20003822:	e794      	b.n	2000374e <CharTest+0x16>
      BSP_LCD_SetFont(&Font12);
20003824:	480c      	ldr	r0, [pc, #48]	; (20003858 <CharTest+0x120>)
20003826:	f001 f813 	bl	20004850 <BSP_LCD_SetFont>
2000382a:	e790      	b.n	2000374e <CharTest+0x16>
      BSP_LCD_SetFont(&Font16);
2000382c:	480b      	ldr	r0, [pc, #44]	; (2000385c <CharTest+0x124>)
2000382e:	f001 f80f 	bl	20004850 <BSP_LCD_SetFont>
20003832:	e78c      	b.n	2000374e <CharTest+0x16>
      BSP_LCD_SetFont(&Font20);
20003834:	480a      	ldr	r0, [pc, #40]	; (20003860 <CharTest+0x128>)
20003836:	f001 f80b 	bl	20004850 <BSP_LCD_SetFont>
2000383a:	e788      	b.n	2000374e <CharTest+0x16>
  return(GetTime() - ctStartT);
2000383c:	f7fd feb5 	bl	200015aa <osKernelSysTick>
}
20003840:	eba0 0008 	sub.w	r0, r0, r8
20003844:	e8bd 83f8 	ldmia.w	sp!, {r3, r4, r5, r6, r7, r8, r9, pc}
20003848:	2001802c 	.word	0x2001802c
2000384c:	2aaaaaab 	.word	0x2aaaaaab
20003850:	66666667 	.word	0x66666667
20003854:	20018024 	.word	0x20018024
20003858:	2001800c 	.word	0x2001800c
2000385c:	20018014 	.word	0x20018014
20003860:	2001801c 	.word	0x2001801c
20003864:	80008001 	.word	0x80008001

20003868 <CircleTest>:
{
20003868:	e92d 4ff8 	stmdb	sp!, {r3, r4, r5, r6, r7, r8, r9, sl, fp, lr}
2000386c:	4680      	mov	r8, r0
  rmax = BSP_LCD_GetXSize();
2000386e:	f000 ffd3 	bl	20004818 <BSP_LCD_GetXSize>
20003872:	4606      	mov	r6, r0
  if(rmax > BSP_LCD_GetYSize())
20003874:	f000 ffd8 	bl	20004828 <BSP_LCD_GetYSize>
20003878:	4286      	cmp	r6, r0
2000387a:	d806      	bhi.n	2000388a <CircleTest+0x22>
  rmax >>= 2;
2000387c:	f3c6 068f 	ubfx	r6, r6, #2, #16
  uint32_t ctStartT = GetTime();
20003880:	f7fd fe93 	bl	200015aa <osKernelSysTick>
20003884:	4681      	mov	r9, r0
  for(uint32_t i = 0; i < n; i++)
20003886:	2700      	movs	r7, #0
20003888:	e040      	b.n	2000390c <CircleTest+0xa4>
    rmax = BSP_LCD_GetYSize();
2000388a:	f000 ffcd 	bl	20004828 <BSP_LCD_GetYSize>
2000388e:	4606      	mov	r6, r0
20003890:	e7f4      	b.n	2000387c <CircleTest+0x14>
      r = random() % rmax;
20003892:	f001 fe55 	bl	20005540 <random>
20003896:	fb90 f4f6 	sdiv	r4, r0, r6
2000389a:	fb06 0414 	mls	r4, r6, r4, r0
2000389e:	b2a5      	uxth	r5, r4
    while(r == 0);
200038a0:	2d00      	cmp	r5, #0
200038a2:	d0f6      	beq.n	20003892 <CircleTest+0x2a>
    x = random() % (BSP_LCD_GetXSize() - (r << 1)) + r;
200038a4:	f001 fe4c 	bl	20005540 <random>
200038a8:	4683      	mov	fp, r0
200038aa:	f000 ffb5 	bl	20004818 <BSP_LCD_GetXSize>
200038ae:	4b1b      	ldr	r3, [pc, #108]	; (2000391c <CircleTest+0xb4>)
200038b0:	ea03 0444 	and.w	r4, r3, r4, lsl #1
200038b4:	1b00      	subs	r0, r0, r4
200038b6:	fb9b faf0 	sdiv	sl, fp, r0
200038ba:	fb00 ba1a 	mls	sl, r0, sl, fp
200038be:	fa15 fa8a 	uxtah	sl, r5, sl
200038c2:	fa1f fa8a 	uxth.w	sl, sl
    y = random() % (BSP_LCD_GetYSize() - (r << 1)) + r;
200038c6:	f001 fe3b 	bl	20005540 <random>
200038ca:	4683      	mov	fp, r0
200038cc:	f000 ffac 	bl	20004828 <BSP_LCD_GetYSize>
200038d0:	1b00      	subs	r0, r0, r4
200038d2:	fb9b f4f0 	sdiv	r4, fp, r0
200038d6:	fb00 b414 	mls	r4, r0, r4, fp
200038da:	fa15 f484 	uxtah	r4, r5, r4
200038de:	b2a4      	uxth	r4, r4
    c = random() % 0xFFFF;
200038e0:	f001 fe2e 	bl	20005540 <random>
200038e4:	4b0e      	ldr	r3, [pc, #56]	; (20003920 <CircleTest+0xb8>)
200038e6:	fb83 2300 	smull	r2, r3, r3, r0
200038ea:	181a      	adds	r2, r3, r0
200038ec:	17c3      	asrs	r3, r0, #31
200038ee:	ebc3 33e2 	rsb	r3, r3, r2, asr #15
200038f2:	ebc3 4303 	rsb	r3, r3, r3, lsl #16
200038f6:	1ac3      	subs	r3, r0, r3
200038f8:	ba58      	rev16	r0, r3
    BSP_LCD_SetTextColor(RD(c));
200038fa:	b280      	uxth	r0, r0
200038fc:	f000 ff9c 	bl	20004838 <BSP_LCD_SetTextColor>
    BSP_LCD_DrawCircle(x, y, r);
20003900:	462a      	mov	r2, r5
20003902:	4621      	mov	r1, r4
20003904:	4650      	mov	r0, sl
20003906:	f001 f899 	bl	20004a3c <BSP_LCD_DrawCircle>
  for(uint32_t i = 0; i < n; i++)
2000390a:	3701      	adds	r7, #1
2000390c:	4547      	cmp	r7, r8
2000390e:	d3c0      	bcc.n	20003892 <CircleTest+0x2a>
  return(GetTime() - ctStartT);
20003910:	f7fd fe4b 	bl	200015aa <osKernelSysTick>
}
20003914:	eba0 0009 	sub.w	r0, r0, r9
20003918:	e8bd 8ff8 	ldmia.w	sp!, {r3, r4, r5, r6, r7, r8, r9, sl, fp, pc}
2000391c:	0001fffe 	.word	0x0001fffe
20003920:	80008001 	.word	0x80008001

20003924 <FillCircleTest>:
{
20003924:	e92d 4ff8 	stmdb	sp!, {r3, r4, r5, r6, r7, r8, r9, sl, fp, lr}
20003928:	4680      	mov	r8, r0
  rmax = BSP_LCD_GetXSize();
2000392a:	f000 ff75 	bl	20004818 <BSP_LCD_GetXSize>
2000392e:	4606      	mov	r6, r0
  if(rmax > BSP_LCD_GetYSize())
20003930:	f000 ff7a 	bl	20004828 <BSP_LCD_GetYSize>
20003934:	4286      	cmp	r6, r0
20003936:	d806      	bhi.n	20003946 <FillCircleTest+0x22>
  rmax >>= 2;
20003938:	f3c6 068f 	ubfx	r6, r6, #2, #16
  uint32_t ctStartT = GetTime();
2000393c:	f7fd fe35 	bl	200015aa <osKernelSysTick>
20003940:	4681      	mov	r9, r0
  for(uint32_t i = 0; i < n; i++)
20003942:	2700      	movs	r7, #0
20003944:	e040      	b.n	200039c8 <FillCircleTest+0xa4>
    rmax = BSP_LCD_GetYSize();
20003946:	f000 ff6f 	bl	20004828 <BSP_LCD_GetYSize>
2000394a:	4606      	mov	r6, r0
2000394c:	e7f4      	b.n	20003938 <FillCircleTest+0x14>
      r = random() % rmax;
2000394e:	f001 fdf7 	bl	20005540 <random>
20003952:	fb90 f4f6 	sdiv	r4, r0, r6
20003956:	fb06 0414 	mls	r4, r6, r4, r0
2000395a:	b2a5      	uxth	r5, r4
    while(r == 0);
2000395c:	2d00      	cmp	r5, #0
2000395e:	d0f6      	beq.n	2000394e <FillCircleTest+0x2a>
    x = random() % (BSP_LCD_GetXSize() - (r << 1)) + r;
20003960:	f001 fdee 	bl	20005540 <random>
20003964:	4683      	mov	fp, r0
20003966:	f000 ff57 	bl	20004818 <BSP_LCD_GetXSize>
2000396a:	4b1b      	ldr	r3, [pc, #108]	; (200039d8 <FillCircleTest+0xb4>)
2000396c:	ea03 0444 	and.w	r4, r3, r4, lsl #1
20003970:	1b00      	subs	r0, r0, r4
20003972:	fb9b faf0 	sdiv	sl, fp, r0
20003976:	fb00 ba1a 	mls	sl, r0, sl, fp
2000397a:	fa15 fa8a 	uxtah	sl, r5, sl
2000397e:	fa1f fa8a 	uxth.w	sl, sl
    y = random() % (BSP_LCD_GetYSize() - (r << 1)) + r;
20003982:	f001 fddd 	bl	20005540 <random>
20003986:	4683      	mov	fp, r0
20003988:	f000 ff4e 	bl	20004828 <BSP_LCD_GetYSize>
2000398c:	1b00      	subs	r0, r0, r4
2000398e:	fb9b f4f0 	sdiv	r4, fp, r0
20003992:	fb00 b414 	mls	r4, r0, r4, fp
20003996:	fa15 f484 	uxtah	r4, r5, r4
2000399a:	b2a4      	uxth	r4, r4
    c = random() % 0xFFFF;
2000399c:	f001 fdd0 	bl	20005540 <random>
200039a0:	4b0e      	ldr	r3, [pc, #56]	; (200039dc <FillCircleTest+0xb8>)
200039a2:	fb83 2300 	smull	r2, r3, r3, r0
200039a6:	181a      	adds	r2, r3, r0
200039a8:	17c3      	asrs	r3, r0, #31
200039aa:	ebc3 33e2 	rsb	r3, r3, r2, asr #15
200039ae:	ebc3 4303 	rsb	r3, r3, r3, lsl #16
200039b2:	1ac3      	subs	r3, r0, r3
200039b4:	ba58      	rev16	r0, r3
    BSP_LCD_SetTextColor(RD(c));
200039b6:	b280      	uxth	r0, r0
200039b8:	f000 ff3e 	bl	20004838 <BSP_LCD_SetTextColor>
    BSP_LCD_FillCircle(x, y, r);
200039bc:	462a      	mov	r2, r5
200039be:	4621      	mov	r1, r4
200039c0:	4650      	mov	r0, sl
200039c2:	f001 f97d 	bl	20004cc0 <BSP_LCD_FillCircle>
  for(uint32_t i = 0; i < n; i++)
200039c6:	3701      	adds	r7, #1
200039c8:	4547      	cmp	r7, r8
200039ca:	d3c0      	bcc.n	2000394e <FillCircleTest+0x2a>
  return(GetTime() - ctStartT);
200039cc:	f7fd fded 	bl	200015aa <osKernelSysTick>
}
200039d0:	eba0 0009 	sub.w	r0, r0, r9
200039d4:	e8bd 8ff8 	ldmia.w	sp!, {r3, r4, r5, r6, r7, r8, r9, sl, fp, pc}
200039d8:	0001fffe 	.word	0x0001fffe
200039dc:	80008001 	.word	0x80008001

200039e0 <ColorTest>:
{
200039e0:	e92d 4ff8 	stmdb	sp!, {r3, r4, r5, r6, r7, r8, r9, sl, fp, lr}
  uint32_t ctStartT = GetTime();
200039e4:	f7fd fde1 	bl	200015aa <osKernelSysTick>
200039e8:	4681      	mov	r9, r0
  xs = BSP_LCD_GetXSize();
200039ea:	f000 ff15 	bl	20004818 <BSP_LCD_GetXSize>
200039ee:	4607      	mov	r7, r0
  ys = BSP_LCD_GetYSize();
200039f0:	f000 ff1a 	bl	20004828 <BSP_LCD_GetYSize>
200039f4:	4680      	mov	r8, r0
  for(uint16_t x = 0; x < xs; x++)
200039f6:	2500      	movs	r5, #0
200039f8:	e042      	b.n	20003a80 <ColorTest+0xa0>
    cy = (uint32_t)(x << 8) / xs;
200039fa:	022c      	lsls	r4, r5, #8
200039fc:	fbb4 f4f7 	udiv	r4, r4, r7
20003a00:	0226      	lsls	r6, r4, #8
    c_rgb565 = RGB888TORGB565(cy, cy, cy);
20003a02:	f426 63ff 	bic.w	r3, r6, #2040	; 0x7f8
20003a06:	f023 0307 	bic.w	r3, r3, #7
20003a0a:	b218      	sxth	r0, r3
20003a0c:	ea4f 0ac4 	mov.w	sl, r4, lsl #3
20003a10:	f40a 6aff 	and.w	sl, sl, #2040	; 0x7f8
20003a14:	f40a 63fc 	and.w	r3, sl, #2016	; 0x7e0
20003a18:	4318      	orrs	r0, r3
20003a1a:	f3c4 04c4 	ubfx	r4, r4, #3, #5
20003a1e:	4320      	orrs	r0, r4
20003a20:	ba40      	rev16	r0, r0
    BSP_LCD_SetTextColor(RD(c_rgb565));
20003a22:	b280      	uxth	r0, r0
20003a24:	f000 ff08 	bl	20004838 <BSP_LCD_SetTextColor>
    BSP_LCD_DrawVLine(x, 0, ys >> 2);
20003a28:	f3c8 0b8f 	ubfx	fp, r8, #2, #16
20003a2c:	465a      	mov	r2, fp
20003a2e:	2100      	movs	r1, #0
20003a30:	4628      	mov	r0, r5
20003a32:	f000 ff77 	bl	20004924 <BSP_LCD_DrawVLine>
    c_rgb565 = RGB888TORGB565(cy, 0, 0);
20003a36:	f406 4078 	and.w	r0, r6, #63488	; 0xf800
20003a3a:	ba40      	rev16	r0, r0
    BSP_LCD_SetTextColor(RD(c_rgb565));
20003a3c:	b280      	uxth	r0, r0
20003a3e:	f000 fefb 	bl	20004838 <BSP_LCD_SetTextColor>
    BSP_LCD_DrawVLine(x, ys >> 2, ys >> 2);
20003a42:	465a      	mov	r2, fp
20003a44:	4659      	mov	r1, fp
20003a46:	4628      	mov	r0, r5
20003a48:	f000 ff6c 	bl	20004924 <BSP_LCD_DrawVLine>
    c_rgb565 = RGB888TORGB565(0, cy, 0);
20003a4c:	f40a 60fc 	and.w	r0, sl, #2016	; 0x7e0
20003a50:	ba40      	rev16	r0, r0
    BSP_LCD_SetTextColor(RD(c_rgb565));
20003a52:	b280      	uxth	r0, r0
20003a54:	f000 fef0 	bl	20004838 <BSP_LCD_SetTextColor>
    BSP_LCD_DrawVLine(x, ys >> 1, ys >> 2);
20003a58:	f3c8 064f 	ubfx	r6, r8, #1, #16
20003a5c:	465a      	mov	r2, fp
20003a5e:	4631      	mov	r1, r6
20003a60:	4628      	mov	r0, r5
20003a62:	f000 ff5f 	bl	20004924 <BSP_LCD_DrawVLine>
20003a66:	ba60      	rev16	r0, r4
    BSP_LCD_SetTextColor(RD(c_rgb565));
20003a68:	b280      	uxth	r0, r0
20003a6a:	f000 fee5 	bl	20004838 <BSP_LCD_SetTextColor>
    BSP_LCD_DrawVLine(x, (ys >> 1) + (ys >> 2), ys >> 2);
20003a6e:	eb0b 0106 	add.w	r1, fp, r6
20003a72:	465a      	mov	r2, fp
20003a74:	b289      	uxth	r1, r1
20003a76:	4628      	mov	r0, r5
20003a78:	f000 ff54 	bl	20004924 <BSP_LCD_DrawVLine>
  for(uint16_t x = 0; x < xs; x++)
20003a7c:	3501      	adds	r5, #1
20003a7e:	b2ad      	uxth	r5, r5
20003a80:	42bd      	cmp	r5, r7
20003a82:	d3ba      	bcc.n	200039fa <ColorTest+0x1a>
  return(GetTime() - ctStartT);
20003a84:	f7fd fd91 	bl	200015aa <osKernelSysTick>
}
20003a88:	eba0 0009 	sub.w	r0, r0, r9
20003a8c:	e8bd 8ff8 	ldmia.w	sp!, {r3, r4, r5, r6, r7, r8, r9, sl, fp, pc}

20003a90 <BitmapTest>:
{
20003a90:	e92d 43f8 	stmdb	sp!, {r3, r4, r5, r6, r7, r8, r9, lr}
20003a94:	4607      	mov	r7, r0
  uint32_t ctStartT = GetTime();
20003a96:	f7fd fd88 	bl	200015aa <osKernelSysTick>
20003a9a:	4680      	mov	r8, r0
  for(uint32_t i = 0; i < n; i++)
20003a9c:	2600      	movs	r6, #0
20003a9e:	e01f      	b.n	20003ae0 <BitmapTest+0x50>
    x = random() % (BSP_LCD_GetXSize() - rombitmap.infoHeader.biWidth);
20003aa0:	f001 fd4e 	bl	20005540 <random>
20003aa4:	4681      	mov	r9, r0
20003aa6:	f000 feb7 	bl	20004818 <BSP_LCD_GetXSize>
20003aaa:	4d11      	ldr	r5, [pc, #68]	; (20003af0 <BitmapTest+0x60>)
20003aac:	f8d5 4012 	ldr.w	r4, [r5, #18]
20003ab0:	1b00      	subs	r0, r0, r4
20003ab2:	fbb9 f4f0 	udiv	r4, r9, r0
20003ab6:	fb00 9014 	mls	r0, r0, r4, r9
20003aba:	b284      	uxth	r4, r0
    y = random() % (BSP_LCD_GetYSize() - rombitmap.infoHeader.biHeight);
20003abc:	f001 fd40 	bl	20005540 <random>
20003ac0:	4681      	mov	r9, r0
20003ac2:	f000 feb1 	bl	20004828 <BSP_LCD_GetYSize>
20003ac6:	f8d5 1016 	ldr.w	r1, [r5, #22]
20003aca:	1a40      	subs	r0, r0, r1
20003acc:	fbb9 f1f0 	udiv	r1, r9, r0
20003ad0:	fb00 9111 	mls	r1, r0, r1, r9
    BSP_LCD_DrawBitmap(x, y, (uint8_t *)&rombitmap);
20003ad4:	462a      	mov	r2, r5
20003ad6:	b289      	uxth	r1, r1
20003ad8:	4620      	mov	r0, r4
20003ada:	f001 f81d 	bl	20004b18 <BSP_LCD_DrawBitmap>
  for(uint32_t i = 0; i < n; i++)
20003ade:	3601      	adds	r6, #1
20003ae0:	42be      	cmp	r6, r7
20003ae2:	d3dd      	bcc.n	20003aa0 <BitmapTest+0x10>
  return(GetTime() - ctStartT);
20003ae4:	f7fd fd61 	bl	200015aa <osKernelSysTick>
}
20003ae8:	eba0 0008 	sub.w	r0, r0, r8
20003aec:	e8bd 83f8 	ldmia.w	sp!, {r3, r4, r5, r6, r7, r8, r9, pc}
20003af0:	20006528 	.word	0x20006528

20003af4 <ReadPixelTest>:
{
20003af4:	e92d 4ff0 	stmdb	sp!, {r4, r5, r6, r7, r8, r9, sl, fp, lr}
20003af8:	b085      	sub	sp, #20
20003afa:	4604      	mov	r4, r0
  xsize = rombitmap.infoHeader.biWidth;
20003afc:	4a33      	ldr	r2, [pc, #204]	; (20003bcc <ReadPixelTest+0xd8>)
20003afe:	f8d2 8012 	ldr.w	r8, [r2, #18]
20003b02:	fa1f f788 	uxth.w	r7, r8
  ysize = rombitmap.infoHeader.biHeight;
20003b06:	f8d2 a016 	ldr.w	sl, [r2, #22]
20003b0a:	fa1f f98a 	uxth.w	r9, sl
  BSP_LCD_DrawBitmap(x0, y0, (uint8_t *)&rombitmap);
20003b0e:	2105      	movs	r1, #5
20003b10:	2014      	movs	r0, #20
20003b12:	f001 f801 	bl	20004b18 <BSP_LCD_DrawBitmap>
  uint32_t ctStartT = GetTime();
20003b16:	f7fd fd48 	bl	200015aa <osKernelSysTick>
20003b1a:	9003      	str	r0, [sp, #12]
  while(n--)
20003b1c:	e018      	b.n	20003b50 <ReadPixelTest+0x5c>
        bitmap[y * xsize + x] = BSP_LCD_ReadPixel(x0 + x, y0 + y);
20003b1e:	fa1f f588 	uxth.w	r5, r8
20003b22:	fb06 4505 	mla	r5, r6, r5, r4
20003b26:	1d71      	adds	r1, r6, #5
20003b28:	f104 0014 	add.w	r0, r4, #20
20003b2c:	b289      	uxth	r1, r1
20003b2e:	b280      	uxth	r0, r0
20003b30:	f001 f93e 	bl	20004db0 <BSP_LCD_ReadPixel>
20003b34:	4b26      	ldr	r3, [pc, #152]	; (20003bd0 <ReadPixelTest+0xdc>)
20003b36:	f823 0015 	strh.w	r0, [r3, r5, lsl #1]
      for(x = 0; x < xsize; x++)
20003b3a:	3401      	adds	r4, #1
20003b3c:	b2a4      	uxth	r4, r4
20003b3e:	42bc      	cmp	r4, r7
20003b40:	d3ed      	bcc.n	20003b1e <ReadPixelTest+0x2a>
    for(y = 0; y < ysize; y++)
20003b42:	3601      	adds	r6, #1
20003b44:	b2b6      	uxth	r6, r6
20003b46:	454e      	cmp	r6, r9
20003b48:	d201      	bcs.n	20003b4e <ReadPixelTest+0x5a>
20003b4a:	2400      	movs	r4, #0
20003b4c:	e7f7      	b.n	20003b3e <ReadPixelTest+0x4a>
  while(n--)
20003b4e:	465c      	mov	r4, fp
20003b50:	f104 3bff 	add.w	fp, r4, #4294967295
20003b54:	b10c      	cbz	r4, 20003b5a <ReadPixelTest+0x66>
20003b56:	2600      	movs	r6, #0
20003b58:	e7f5      	b.n	20003b46 <ReadPixelTest+0x52>
  ctStartT = GetTime() - ctStartT;
20003b5a:	f7fd fd26 	bl	200015aa <osKernelSysTick>
20003b5e:	9b03      	ldr	r3, [sp, #12]
20003b60:	1ac5      	subs	r5, r0, r3
  for(y = 0; y < ysize; y++)
20003b62:	2000      	movs	r0, #0
20003b64:	e01b      	b.n	20003b9e <ReadPixelTest+0xaa>
    for(x = 0; x < xsize; x++)
20003b66:	3301      	adds	r3, #1
20003b68:	b29b      	uxth	r3, r3
20003b6a:	42bb      	cmp	r3, r7
20003b6c:	d215      	bcs.n	20003b9a <ReadPixelTest+0xa6>
      if(bitmap[y * xsize + x] != rombitmap.data[(ysize - 1 - y) * xsize + x])
20003b6e:	fa1f f288 	uxth.w	r2, r8
20003b72:	fb02 3600 	mla	r6, r2, r0, r3
20003b76:	4916      	ldr	r1, [pc, #88]	; (20003bd0 <ReadPixelTest+0xdc>)
20003b78:	f831 6016 	ldrh.w	r6, [r1, r6, lsl #1]
20003b7c:	fa1f f18a 	uxth.w	r1, sl
20003b80:	3901      	subs	r1, #1
20003b82:	1a09      	subs	r1, r1, r0
20003b84:	fb01 3202 	mla	r2, r1, r2, r3
20003b88:	3218      	adds	r2, #24
20003b8a:	4910      	ldr	r1, [pc, #64]	; (20003bcc <ReadPixelTest+0xd8>)
20003b8c:	eb01 0242 	add.w	r2, r1, r2, lsl #1
20003b90:	88d2      	ldrh	r2, [r2, #6]
20003b92:	4296      	cmp	r6, r2
20003b94:	d0e7      	beq.n	20003b66 <ReadPixelTest+0x72>
        error++;
20003b96:	3401      	adds	r4, #1
20003b98:	e7e5      	b.n	20003b66 <ReadPixelTest+0x72>
  for(y = 0; y < ysize; y++)
20003b9a:	3001      	adds	r0, #1
20003b9c:	b280      	uxth	r0, r0
20003b9e:	4548      	cmp	r0, r9
20003ba0:	d201      	bcs.n	20003ba6 <ReadPixelTest+0xb2>
20003ba2:	2300      	movs	r3, #0
20003ba4:	e7e1      	b.n	20003b6a <ReadPixelTest+0x76>
  if(error)
20003ba6:	b95c      	cbnz	r4, 20003bc0 <ReadPixelTest+0xcc>
  BSP_LCD_DrawRGB16Image(x0 + 45, y0 + 10, xsize, ysize, &bitmap[0]);
20003ba8:	4b09      	ldr	r3, [pc, #36]	; (20003bd0 <ReadPixelTest+0xdc>)
20003baa:	9300      	str	r3, [sp, #0]
20003bac:	464b      	mov	r3, r9
20003bae:	463a      	mov	r2, r7
20003bb0:	210f      	movs	r1, #15
20003bb2:	2041      	movs	r0, #65	; 0x41
20003bb4:	f001 f908 	bl	20004dc8 <BSP_LCD_DrawRGB16Image>
}
20003bb8:	4628      	mov	r0, r5
20003bba:	b005      	add	sp, #20
20003bbc:	e8bd 8ff0 	ldmia.w	sp!, {r4, r5, r6, r7, r8, r9, sl, fp, pc}
    printf("ReadPixelTest error: %d\r\n", (int)error);
20003bc0:	4621      	mov	r1, r4
20003bc2:	4804      	ldr	r0, [pc, #16]	; (20003bd4 <ReadPixelTest+0xe0>)
20003bc4:	f001 fc40 	bl	20005448 <iprintf>
20003bc8:	e7ee      	b.n	20003ba8 <ReadPixelTest+0xb4>
20003bca:	bf00      	nop
20003bcc:	20006528 	.word	0x20006528
20003bd0:	2001c264 	.word	0x2001c264
20003bd4:	2000640c 	.word	0x2000640c

20003bd8 <ReadImageTest>:
{
20003bd8:	e92d 47f0 	stmdb	sp!, {r4, r5, r6, r7, r8, r9, sl, lr}
20003bdc:	b082      	sub	sp, #8
20003bde:	4604      	mov	r4, r0
  xsize = rombitmap.infoHeader.biWidth;
20003be0:	4a29      	ldr	r2, [pc, #164]	; (20003c88 <ReadImageTest+0xb0>)
20003be2:	f8d2 6012 	ldr.w	r6, [r2, #18]
20003be6:	b2b5      	uxth	r5, r6
  ysize = rombitmap.infoHeader.biHeight;
20003be8:	f8d2 7016 	ldr.w	r7, [r2, #22]
20003bec:	fa1f f887 	uxth.w	r8, r7
  BSP_LCD_DrawBitmap(x0, y0, (uint8_t *)&rombitmap);
20003bf0:	2105      	movs	r1, #5
20003bf2:	2014      	movs	r0, #20
20003bf4:	f000 ff90 	bl	20004b18 <BSP_LCD_DrawBitmap>
  uint32_t ctStartT = GetTime();
20003bf8:	f7fd fcd7 	bl	200015aa <osKernelSysTick>
20003bfc:	4681      	mov	r9, r0
  while(n--)
20003bfe:	e008      	b.n	20003c12 <ReadImageTest+0x3a>
    BSP_LCD_ReadRGB16Image(x0, y0, xsize, ysize, &bitmap[0]);
20003c00:	4b22      	ldr	r3, [pc, #136]	; (20003c8c <ReadImageTest+0xb4>)
20003c02:	9300      	str	r3, [sp, #0]
20003c04:	4643      	mov	r3, r8
20003c06:	462a      	mov	r2, r5
20003c08:	2105      	movs	r1, #5
20003c0a:	2014      	movs	r0, #20
20003c0c:	f001 f8e8 	bl	20004de0 <BSP_LCD_ReadRGB16Image>
  while(n--)
20003c10:	4654      	mov	r4, sl
20003c12:	f104 3aff 	add.w	sl, r4, #4294967295
20003c16:	2c00      	cmp	r4, #0
20003c18:	d1f2      	bne.n	20003c00 <ReadImageTest+0x28>
  ctStartT = GetTime() - ctStartT;
20003c1a:	f7fd fcc6 	bl	200015aa <osKernelSysTick>
20003c1e:	eba0 0909 	sub.w	r9, r0, r9
  for(y = 0; y < ysize; y++)
20003c22:	2000      	movs	r0, #0
20003c24:	e019      	b.n	20003c5a <ReadImageTest+0x82>
    for(x = 0; x < xsize; x++)
20003c26:	3301      	adds	r3, #1
20003c28:	b29b      	uxth	r3, r3
20003c2a:	42ab      	cmp	r3, r5
20003c2c:	d213      	bcs.n	20003c56 <ReadImageTest+0x7e>
      if(bitmap[y * xsize + x] != rombitmap.data[(ysize - 1 - y) * xsize + x])
20003c2e:	b2b2      	uxth	r2, r6
20003c30:	fb02 3e00 	mla	lr, r2, r0, r3
20003c34:	4915      	ldr	r1, [pc, #84]	; (20003c8c <ReadImageTest+0xb4>)
20003c36:	f831 e01e 	ldrh.w	lr, [r1, lr, lsl #1]
20003c3a:	b2b9      	uxth	r1, r7
20003c3c:	3901      	subs	r1, #1
20003c3e:	1a09      	subs	r1, r1, r0
20003c40:	fb01 3202 	mla	r2, r1, r2, r3
20003c44:	3218      	adds	r2, #24
20003c46:	4910      	ldr	r1, [pc, #64]	; (20003c88 <ReadImageTest+0xb0>)
20003c48:	eb01 0242 	add.w	r2, r1, r2, lsl #1
20003c4c:	88d2      	ldrh	r2, [r2, #6]
20003c4e:	4596      	cmp	lr, r2
20003c50:	d0e9      	beq.n	20003c26 <ReadImageTest+0x4e>
        error++;
20003c52:	3401      	adds	r4, #1
20003c54:	e7e7      	b.n	20003c26 <ReadImageTest+0x4e>
  for(y = 0; y < ysize; y++)
20003c56:	3001      	adds	r0, #1
20003c58:	b280      	uxth	r0, r0
20003c5a:	4540      	cmp	r0, r8
20003c5c:	d201      	bcs.n	20003c62 <ReadImageTest+0x8a>
20003c5e:	2300      	movs	r3, #0
20003c60:	e7e3      	b.n	20003c2a <ReadImageTest+0x52>
  if(error)
20003c62:	b95c      	cbnz	r4, 20003c7c <ReadImageTest+0xa4>
  BSP_LCD_DrawRGB16Image(x0 - 15, y0 + 20, xsize, ysize, &bitmap[0]);
20003c64:	4b09      	ldr	r3, [pc, #36]	; (20003c8c <ReadImageTest+0xb4>)
20003c66:	9300      	str	r3, [sp, #0]
20003c68:	4643      	mov	r3, r8
20003c6a:	462a      	mov	r2, r5
20003c6c:	2119      	movs	r1, #25
20003c6e:	2005      	movs	r0, #5
20003c70:	f001 f8aa 	bl	20004dc8 <BSP_LCD_DrawRGB16Image>
}
20003c74:	4648      	mov	r0, r9
20003c76:	b002      	add	sp, #8
20003c78:	e8bd 87f0 	ldmia.w	sp!, {r4, r5, r6, r7, r8, r9, sl, pc}
    printf("ReadImageTest error: %d\r\n", (int)error);
20003c7c:	4621      	mov	r1, r4
20003c7e:	4804      	ldr	r0, [pc, #16]	; (20003c90 <ReadImageTest+0xb8>)
20003c80:	f001 fbe2 	bl	20005448 <iprintf>
20003c84:	e7ee      	b.n	20003c64 <ReadImageTest+0x8c>
20003c86:	bf00      	nop
20003c88:	20006528 	.word	0x20006528
20003c8c:	2001c264 	.word	0x2001c264
20003c90:	200063f0 	.word	0x200063f0

20003c94 <StartDefaultTask>:
{
20003c94:	b508      	push	{r3, lr}
  Delay(300);
20003c96:	f44f 7096 	mov.w	r0, #300	; 0x12c
20003c9a:	f7fd fcaa 	bl	200015f2 <osDelay>
  BSP_LCD_Init();
20003c9e:	f000 fdf9 	bl	20004894 <BSP_LCD_Init>
  t = random();
20003ca2:	f001 fc4d 	bl	20005540 <random>
  Delay(100);
20003ca6:	2064      	movs	r0, #100	; 0x64
20003ca8:	f7fd fca3 	bl	200015f2 <osDelay>
  printf("Display ID = %X\r\n", (unsigned int)BSP_LCD_ReadID());
20003cac:	f001 f874 	bl	20004d98 <BSP_LCD_ReadID>
20003cb0:	4601      	mov	r1, r0
20003cb2:	4859      	ldr	r0, [pc, #356]	; (20003e18 <StartDefaultTask+0x184>)
20003cb4:	f001 fbc8 	bl	20005448 <iprintf>
  Delay(100);
20003cb8:	2064      	movs	r0, #100	; 0x64
20003cba:	f7fd fc9a 	bl	200015f2 <osDelay>
    _impure_ptr->_r48->_rand_next = 0;
20003cbe:	4b57      	ldr	r3, [pc, #348]	; (20003e1c <StartDefaultTask+0x188>)
20003cc0:	681b      	ldr	r3, [r3, #0]
20003cc2:	6b9b      	ldr	r3, [r3, #56]	; 0x38
20003cc4:	2000      	movs	r0, #0
20003cc6:	2100      	movs	r1, #0
20003cc8:	e9c3 0104 	strd	r0, r1, [r3, #16]
    t = ClearTest();
20003ccc:	f7ff fc42 	bl	20003554 <ClearTest>
    printf("Clear Test: %d ms\r\n", (int)t);
20003cd0:	4601      	mov	r1, r0
20003cd2:	4853      	ldr	r0, [pc, #332]	; (20003e20 <StartDefaultTask+0x18c>)
20003cd4:	f001 fbb8 	bl	20005448 <iprintf>
    Delay(1000);
20003cd8:	f44f 707a 	mov.w	r0, #1000	; 0x3e8
20003cdc:	f7fd fc89 	bl	200015f2 <osDelay>
    t = PixelTest(100000);
20003ce0:	4850      	ldr	r0, [pc, #320]	; (20003e24 <StartDefaultTask+0x190>)
20003ce2:	f7ff fc43 	bl	2000356c <PixelTest>
    printf("Pixel Test: %d ms\r\n", (int)t);
20003ce6:	4601      	mov	r1, r0
20003ce8:	484f      	ldr	r0, [pc, #316]	; (20003e28 <StartDefaultTask+0x194>)
20003cea:	f001 fbad 	bl	20005448 <iprintf>
    Delay(1000);
20003cee:	f44f 707a 	mov.w	r0, #1000	; 0x3e8
20003cf2:	f7fd fc7e 	bl	200015f2 <osDelay>
    BSP_LCD_Clear(LCD_COLOR_BLACK);
20003cf6:	2000      	movs	r0, #0
20003cf8:	f000 fdb6 	bl	20004868 <BSP_LCD_Clear>
    t = LineTest(1000);
20003cfc:	f44f 707a 	mov.w	r0, #1000	; 0x3e8
20003d00:	f7ff fc6c 	bl	200035dc <LineTest>
    printf("Line Test: %d ms\r\n", (int)t);
20003d04:	4601      	mov	r1, r0
20003d06:	4849      	ldr	r0, [pc, #292]	; (20003e2c <StartDefaultTask+0x198>)
20003d08:	f001 fb9e 	bl	20005448 <iprintf>
    Delay(1000);
20003d0c:	f44f 707a 	mov.w	r0, #1000	; 0x3e8
20003d10:	f7fd fc6f 	bl	200015f2 <osDelay>
    BSP_LCD_Clear(LCD_COLOR_BLACK);
20003d14:	2000      	movs	r0, #0
20003d16:	f000 fda7 	bl	20004868 <BSP_LCD_Clear>
    t = FillRectTest(250);
20003d1a:	20fa      	movs	r0, #250	; 0xfa
20003d1c:	f7ff fcb2 	bl	20003684 <FillRectTest>
    printf("Fill Rect Test: %d ms\r\n", (int)t);
20003d20:	4601      	mov	r1, r0
20003d22:	4843      	ldr	r0, [pc, #268]	; (20003e30 <StartDefaultTask+0x19c>)
20003d24:	f001 fb90 	bl	20005448 <iprintf>
    Delay(1000);
20003d28:	f44f 707a 	mov.w	r0, #1000	; 0x3e8
20003d2c:	f7fd fc61 	bl	200015f2 <osDelay>
    BSP_LCD_Clear(LCD_COLOR_BLACK);
20003d30:	2000      	movs	r0, #0
20003d32:	f000 fd99 	bl	20004868 <BSP_LCD_Clear>
    t = CircleTest(1000);
20003d36:	f44f 707a 	mov.w	r0, #1000	; 0x3e8
20003d3a:	f7ff fd95 	bl	20003868 <CircleTest>
    printf("Circle Test: %d ms\r\n", (int)t);
20003d3e:	4601      	mov	r1, r0
20003d40:	483c      	ldr	r0, [pc, #240]	; (20003e34 <StartDefaultTask+0x1a0>)
20003d42:	f001 fb81 	bl	20005448 <iprintf>
    Delay(1000);
20003d46:	f44f 707a 	mov.w	r0, #1000	; 0x3e8
20003d4a:	f7fd fc52 	bl	200015f2 <osDelay>
    BSP_LCD_Clear(LCD_COLOR_BLACK);
20003d4e:	2000      	movs	r0, #0
20003d50:	f000 fd8a 	bl	20004868 <BSP_LCD_Clear>
    t = FillCircleTest(250);
20003d54:	20fa      	movs	r0, #250	; 0xfa
20003d56:	f7ff fde5 	bl	20003924 <FillCircleTest>
    printf("Fill Circle Test: %d ms\r\n", (int)t);
20003d5a:	4601      	mov	r1, r0
20003d5c:	4836      	ldr	r0, [pc, #216]	; (20003e38 <StartDefaultTask+0x1a4>)
20003d5e:	f001 fb73 	bl	20005448 <iprintf>
    Delay(1000);
20003d62:	f44f 707a 	mov.w	r0, #1000	; 0x3e8
20003d66:	f7fd fc44 	bl	200015f2 <osDelay>
    BSP_LCD_Clear(LCD_COLOR_BLACK);
20003d6a:	2000      	movs	r0, #0
20003d6c:	f000 fd7c 	bl	20004868 <BSP_LCD_Clear>
    t = CharTest(5000);
20003d70:	f241 3088 	movw	r0, #5000	; 0x1388
20003d74:	f7ff fce0 	bl	20003738 <CharTest>
    printf("Char Test: %d ms\r\n", (int)t);
20003d78:	4601      	mov	r1, r0
20003d7a:	4830      	ldr	r0, [pc, #192]	; (20003e3c <StartDefaultTask+0x1a8>)
20003d7c:	f001 fb64 	bl	20005448 <iprintf>
    Delay(1000);
20003d80:	f44f 707a 	mov.w	r0, #1000	; 0x3e8
20003d84:	f7fd fc35 	bl	200015f2 <osDelay>
    BSP_LCD_Clear(LCD_COLOR_BLACK);
20003d88:	2000      	movs	r0, #0
20003d8a:	f000 fd6d 	bl	20004868 <BSP_LCD_Clear>
    t = BitmapTest(100);
20003d8e:	2064      	movs	r0, #100	; 0x64
20003d90:	f7ff fe7e 	bl	20003a90 <BitmapTest>
    printf("Bitmap Test: %d ms\r\n", (int)t);
20003d94:	4601      	mov	r1, r0
20003d96:	482a      	ldr	r0, [pc, #168]	; (20003e40 <StartDefaultTask+0x1ac>)
20003d98:	f001 fb56 	bl	20005448 <iprintf>
    Delay(1000);
20003d9c:	f44f 707a 	mov.w	r0, #1000	; 0x3e8
20003da0:	f7fd fc27 	bl	200015f2 <osDelay>
    BSP_LCD_Clear(LCD_COLOR_BLACK);
20003da4:	2000      	movs	r0, #0
20003da6:	f000 fd5f 	bl	20004868 <BSP_LCD_Clear>
    t = ReadPixelTest(20);
20003daa:	2014      	movs	r0, #20
20003dac:	f7ff fea2 	bl	20003af4 <ReadPixelTest>
    printf("ReadPixel Test: %d ms\r\n", (int)t);
20003db0:	4601      	mov	r1, r0
20003db2:	4824      	ldr	r0, [pc, #144]	; (20003e44 <StartDefaultTask+0x1b0>)
20003db4:	f001 fb48 	bl	20005448 <iprintf>
    Delay(1000);
20003db8:	f44f 707a 	mov.w	r0, #1000	; 0x3e8
20003dbc:	f7fd fc19 	bl	200015f2 <osDelay>
    BSP_LCD_Clear(LCD_COLOR_BLACK);
20003dc0:	2000      	movs	r0, #0
20003dc2:	f000 fd51 	bl	20004868 <BSP_LCD_Clear>
    t = ReadImageTest(20);
20003dc6:	2014      	movs	r0, #20
20003dc8:	f7ff ff06 	bl	20003bd8 <ReadImageTest>
    printf("ReadImage Test: %d ms\r\n", (int)t);
20003dcc:	4601      	mov	r1, r0
20003dce:	481e      	ldr	r0, [pc, #120]	; (20003e48 <StartDefaultTask+0x1b4>)
20003dd0:	f001 fb3a 	bl	20005448 <iprintf>
    Delay(1000);
20003dd4:	f44f 707a 	mov.w	r0, #1000	; 0x3e8
20003dd8:	f7fd fc0b 	bl	200015f2 <osDelay>
    BSP_LCD_Clear(LCD_COLOR_BLACK);
20003ddc:	2000      	movs	r0, #0
20003dde:	f000 fd43 	bl	20004868 <BSP_LCD_Clear>
    t = ColorTest();
20003de2:	f7ff fdfd 	bl	200039e0 <ColorTest>
    printf("Color Test: %d ms\r\n", (int)t);
20003de6:	4601      	mov	r1, r0
20003de8:	4818      	ldr	r0, [pc, #96]	; (20003e4c <StartDefaultTask+0x1b8>)
20003dea:	f001 fb2d 	bl	20005448 <iprintf>
    Delay(3000);
20003dee:	f640 30b8 	movw	r0, #3000	; 0xbb8
20003df2:	f7fd fbfe 	bl	200015f2 <osDelay>
    BSP_LCD_DisplayOff();
20003df6:	f000 ffc7 	bl	20004d88 <BSP_LCD_DisplayOff>
    Delay(1000);
20003dfa:	f44f 707a 	mov.w	r0, #1000	; 0x3e8
20003dfe:	f7fd fbf8 	bl	200015f2 <osDelay>
    BSP_LCD_DisplayOn();
20003e02:	f000 ffb9 	bl	20004d78 <BSP_LCD_DisplayOn>
    Delay(1000);
20003e06:	f44f 707a 	mov.w	r0, #1000	; 0x3e8
20003e0a:	f7fd fbf2 	bl	200015f2 <osDelay>
    printf("\r\n");
20003e0e:	4810      	ldr	r0, [pc, #64]	; (20003e50 <StartDefaultTask+0x1bc>)
20003e10:	f001 fb8e 	bl	20005530 <puts>
20003e14:	e753      	b.n	20003cbe <StartDefaultTask+0x2a>
20003e16:	bf00      	nop
20003e18:	20006428 	.word	0x20006428
20003e1c:	2001807c 	.word	0x2001807c
20003e20:	2000643c 	.word	0x2000643c
20003e24:	000186a0 	.word	0x000186a0
20003e28:	200064e0 	.word	0x200064e0
20003e2c:	20006450 	.word	0x20006450
20003e30:	20006464 	.word	0x20006464
20003e34:	2000647c 	.word	0x2000647c
20003e38:	20006494 	.word	0x20006494
20003e3c:	200064b0 	.word	0x200064b0
20003e40:	200064c4 	.word	0x200064c4
20003e44:	200064dc 	.word	0x200064dc
20003e48:	200064f4 	.word	0x200064f4
20003e4c:	2000650c 	.word	0x2000650c
20003e50:	20006520 	.word	0x20006520

20003e54 <ili9325_GetLcdPixelWidth>:
  #if ((ILI9325_ORIENTATION == 0) || (ILI9325_ORIENTATION == 2))
  return (uint16_t)ILI9325_LCD_PIXEL_WIDTH;
  #else
  return (uint16_t)ILI9325_LCD_PIXEL_HEIGHT;
  #endif
}
20003e54:	f44f 70a0 	mov.w	r0, #320	; 0x140
20003e58:	4770      	bx	lr

20003e5a <ili9325_GetLcdPixelHeight>:
  #if ((ILI9325_ORIENTATION == 0) || (ILI9325_ORIENTATION == 2))
  return (uint16_t)ILI9325_LCD_PIXEL_HEIGHT;
  #else
  return (uint16_t)ILI9325_LCD_PIXEL_WIDTH;
  #endif
}
20003e5a:	20f0      	movs	r0, #240	; 0xf0
20003e5c:	4770      	bx	lr
	...

20003e60 <ili9325_Init>:
{
20003e60:	b508      	push	{r3, lr}
  if((Is_ili9325_Initialized & ILI9325_LCD_INITIALIZED) == 0)
20003e62:	4b95      	ldr	r3, [pc, #596]	; (200040b8 <ili9325_Init+0x258>)
20003e64:	781b      	ldrb	r3, [r3, #0]
20003e66:	f013 0f01 	tst.w	r3, #1
20003e6a:	f040 8121 	bne.w	200040b0 <ili9325_Init+0x250>
    Is_ili9325_Initialized |= ILI9325_LCD_INITIALIZED;
20003e6e:	f043 0301 	orr.w	r3, r3, #1
20003e72:	4a91      	ldr	r2, [pc, #580]	; (200040b8 <ili9325_Init+0x258>)
20003e74:	7013      	strb	r3, [r2, #0]
    if((Is_ili9325_Initialized & ILI9325_IO_INITIALIZED) == 0)
20003e76:	f013 0f02 	tst.w	r3, #2
20003e7a:	f000 811a 	beq.w	200040b2 <ili9325_Init+0x252>
    Is_ili9325_Initialized |= ILI9325_IO_INITIALIZED;
20003e7e:	4a8e      	ldr	r2, [pc, #568]	; (200040b8 <ili9325_Init+0x258>)
20003e80:	7813      	ldrb	r3, [r2, #0]
20003e82:	f043 0302 	orr.w	r3, r3, #2
20003e86:	7013      	strb	r3, [r2, #0]
    LCD_IO_WriteCmd16(RC(0xF3)); LCD_IO_WriteData16(RC(0x0008));
20003e88:	f44f 4073 	mov.w	r0, #62208	; 0xf300
20003e8c:	f000 fbfc 	bl	20004688 <LCD_IO_WriteCmd16>
20003e90:	f44f 6000 	mov.w	r0, #2048	; 0x800
20003e94:	f000 fbfc 	bl	20004690 <LCD_IO_WriteData16>
    LCD_Delay(5);
20003e98:	2005      	movs	r0, #5
20003e9a:	f000 fb91 	bl	200045c0 <LCD_Delay>
    LCD_IO_WriteCmd16(RC(ILI9325_DRIV_OUT_CTRL)); LCD_IO_WriteData16(RC(ILI9325_DRIV_OUT_CTRL_DATA));
20003e9e:	f44f 7080 	mov.w	r0, #256	; 0x100
20003ea2:	f000 fbf1 	bl	20004688 <LCD_IO_WriteCmd16>
20003ea6:	2001      	movs	r0, #1
20003ea8:	f000 fbf2 	bl	20004690 <LCD_IO_WriteData16>
    LCD_IO_WriteCmd16(RC(ILI9325_DRIV_WAV_CTRL)); LCD_IO_WriteData16(RC(0x0700));
20003eac:	f44f 7000 	mov.w	r0, #512	; 0x200
20003eb0:	f000 fbea 	bl	20004688 <LCD_IO_WriteCmd16>
20003eb4:	2007      	movs	r0, #7
20003eb6:	f000 fbeb 	bl	20004690 <LCD_IO_WriteData16>
    LCD_IO_WriteCmd16(RC(ILI9325_ENTRY_MOD)); LCD_IO_WriteData16(RC(ILI9325_ENTRY_DATA_RIGHT_THEN_DOWN));
20003eba:	f44f 7040 	mov.w	r0, #768	; 0x300
20003ebe:	f000 fbe3 	bl	20004688 <LCD_IO_WriteCmd16>
20003ec2:	f643 0010 	movw	r0, #14352	; 0x3810
20003ec6:	f000 fbe3 	bl	20004690 <LCD_IO_WriteData16>
    LCD_IO_WriteCmd16(RC(ILI9325_DISP_CTRL2)); LCD_IO_WriteData16(RC(0x0302));
20003eca:	f44f 6000 	mov.w	r0, #2048	; 0x800
20003ece:	f000 fbdb 	bl	20004688 <LCD_IO_WriteCmd16>
20003ed2:	f240 2003 	movw	r0, #515	; 0x203
20003ed6:	f000 fbdb 	bl	20004690 <LCD_IO_WriteData16>
    LCD_IO_WriteCmd16(RC(ILI9325_DISP_CTRL3)); LCD_IO_WriteData16(RC(0x0000));
20003eda:	f44f 6010 	mov.w	r0, #2304	; 0x900
20003ede:	f000 fbd3 	bl	20004688 <LCD_IO_WriteCmd16>
20003ee2:	2000      	movs	r0, #0
20003ee4:	f000 fbd4 	bl	20004690 <LCD_IO_WriteData16>
    LCD_IO_WriteCmd16(RC(ILI9325_POW_CTRL1)); LCD_IO_WriteData16(RC(0x0000));
20003ee8:	f44f 5080 	mov.w	r0, #4096	; 0x1000
20003eec:	f000 fbcc 	bl	20004688 <LCD_IO_WriteCmd16>
20003ef0:	2000      	movs	r0, #0
20003ef2:	f000 fbcd 	bl	20004690 <LCD_IO_WriteData16>
    LCD_IO_WriteCmd16(RC(ILI9325_POW_CTRL2)); LCD_IO_WriteData16(RC(0x0007));
20003ef6:	f44f 5088 	mov.w	r0, #4352	; 0x1100
20003efa:	f000 fbc5 	bl	20004688 <LCD_IO_WriteCmd16>
20003efe:	f44f 60e0 	mov.w	r0, #1792	; 0x700
20003f02:	f000 fbc5 	bl	20004690 <LCD_IO_WriteData16>
    LCD_IO_WriteCmd16(RC(ILI9325_POW_CTRL3)); LCD_IO_WriteData16(RC(0x0000));
20003f06:	f44f 5090 	mov.w	r0, #4608	; 0x1200
20003f0a:	f000 fbbd 	bl	20004688 <LCD_IO_WriteCmd16>
20003f0e:	2000      	movs	r0, #0
20003f10:	f000 fbbe 	bl	20004690 <LCD_IO_WriteData16>
    LCD_IO_WriteCmd16(RC(ILI9325_POW_CTRL4)); LCD_IO_WriteData16(RC(0x0000));
20003f14:	f44f 5098 	mov.w	r0, #4864	; 0x1300
20003f18:	f000 fbb6 	bl	20004688 <LCD_IO_WriteCmd16>
20003f1c:	2000      	movs	r0, #0
20003f1e:	f000 fbb7 	bl	20004690 <LCD_IO_WriteData16>
    LCD_Delay(5);
20003f22:	2005      	movs	r0, #5
20003f24:	f000 fb4c 	bl	200045c0 <LCD_Delay>
    LCD_IO_WriteCmd16(RC(ILI9325_POW_CTRL1)); LCD_IO_WriteData16(RC(0x14B0));
20003f28:	f44f 5080 	mov.w	r0, #4096	; 0x1000
20003f2c:	f000 fbac 	bl	20004688 <LCD_IO_WriteCmd16>
20003f30:	f24b 0014 	movw	r0, #45076	; 0xb014
20003f34:	f000 fbac 	bl	20004690 <LCD_IO_WriteData16>
    LCD_Delay(5);
20003f38:	2005      	movs	r0, #5
20003f3a:	f000 fb41 	bl	200045c0 <LCD_Delay>
    LCD_IO_WriteCmd16(RC(ILI9325_POW_CTRL2)); LCD_IO_WriteData16(RC(0x0007));
20003f3e:	f44f 5088 	mov.w	r0, #4352	; 0x1100
20003f42:	f000 fba1 	bl	20004688 <LCD_IO_WriteCmd16>
20003f46:	f44f 60e0 	mov.w	r0, #1792	; 0x700
20003f4a:	f000 fba1 	bl	20004690 <LCD_IO_WriteData16>
    LCD_Delay(5);
20003f4e:	2005      	movs	r0, #5
20003f50:	f000 fb36 	bl	200045c0 <LCD_Delay>
    LCD_IO_WriteCmd16(RC(ILI9325_POW_CTRL3)); LCD_IO_WriteData16(RC(0x008E));
20003f54:	f44f 5090 	mov.w	r0, #4608	; 0x1200
20003f58:	f000 fb96 	bl	20004688 <LCD_IO_WriteCmd16>
20003f5c:	f44f 400e 	mov.w	r0, #36352	; 0x8e00
20003f60:	f000 fb96 	bl	20004690 <LCD_IO_WriteData16>
    LCD_IO_WriteCmd16(RC(ILI9325_POW_CTRL4)); LCD_IO_WriteData16(RC(0x0C00));
20003f64:	f44f 5098 	mov.w	r0, #4864	; 0x1300
20003f68:	f000 fb8e 	bl	20004688 <LCD_IO_WriteCmd16>
20003f6c:	200c      	movs	r0, #12
20003f6e:	f000 fb8f 	bl	20004690 <LCD_IO_WriteData16>
    LCD_IO_WriteCmd16(RC(ILI9325_POW_CTRL7)); LCD_IO_WriteData16(RC(0x0015));
20003f72:	f44f 5024 	mov.w	r0, #10496	; 0x2900
20003f76:	f000 fb87 	bl	20004688 <LCD_IO_WriteCmd16>
20003f7a:	f44f 50a8 	mov.w	r0, #5376	; 0x1500
20003f7e:	f000 fb87 	bl	20004690 <LCD_IO_WriteData16>
    LCD_Delay(5);
20003f82:	2005      	movs	r0, #5
20003f84:	f000 fb1c 	bl	200045c0 <LCD_Delay>
    LCD_IO_WriteCmd16(RC(ILI9325_GAMMA_CTRL1)); LCD_IO_WriteData16(RC(0x0000));
20003f88:	f44f 5040 	mov.w	r0, #12288	; 0x3000
20003f8c:	f000 fb7c 	bl	20004688 <LCD_IO_WriteCmd16>
20003f90:	2000      	movs	r0, #0
20003f92:	f000 fb7d 	bl	20004690 <LCD_IO_WriteData16>
    LCD_IO_WriteCmd16(RC(ILI9325_GAMMA_CTRL2)); LCD_IO_WriteData16(RC(0x0107));
20003f96:	f44f 5044 	mov.w	r0, #12544	; 0x3100
20003f9a:	f000 fb75 	bl	20004688 <LCD_IO_WriteCmd16>
20003f9e:	f240 7001 	movw	r0, #1793	; 0x701
20003fa2:	f000 fb75 	bl	20004690 <LCD_IO_WriteData16>
    LCD_IO_WriteCmd16(RC(ILI9325_GAMMA_CTRL3)); LCD_IO_WriteData16(RC(0x0000));
20003fa6:	f44f 5048 	mov.w	r0, #12800	; 0x3200
20003faa:	f000 fb6d 	bl	20004688 <LCD_IO_WriteCmd16>
20003fae:	2000      	movs	r0, #0
20003fb0:	f000 fb6e 	bl	20004690 <LCD_IO_WriteData16>
    LCD_IO_WriteCmd16(RC(ILI9325_GAMMA_CTRL4)); LCD_IO_WriteData16(RC(0x0203));
20003fb4:	f44f 5054 	mov.w	r0, #13568	; 0x3500
20003fb8:	f000 fb66 	bl	20004688 <LCD_IO_WriteCmd16>
20003fbc:	f240 3002 	movw	r0, #770	; 0x302
20003fc0:	f000 fb66 	bl	20004690 <LCD_IO_WriteData16>
    LCD_IO_WriteCmd16(RC(ILI9325_GAMMA_CTRL5)); LCD_IO_WriteData16(RC(0x0402));
20003fc4:	f44f 5058 	mov.w	r0, #13824	; 0x3600
20003fc8:	f000 fb5e 	bl	20004688 <LCD_IO_WriteCmd16>
20003fcc:	f44f 7001 	mov.w	r0, #516	; 0x204
20003fd0:	f000 fb5e 	bl	20004690 <LCD_IO_WriteData16>
    LCD_IO_WriteCmd16(RC(ILI9325_GAMMA_CTRL6)); LCD_IO_WriteData16(RC(0x0000));
20003fd4:	f44f 505c 	mov.w	r0, #14080	; 0x3700
20003fd8:	f000 fb56 	bl	20004688 <LCD_IO_WriteCmd16>
20003fdc:	2000      	movs	r0, #0
20003fde:	f000 fb57 	bl	20004690 <LCD_IO_WriteData16>
    LCD_IO_WriteCmd16(RC(ILI9325_GAMMA_CTRL7)); LCD_IO_WriteData16(RC(0x0207));
20003fe2:	f44f 5060 	mov.w	r0, #14336	; 0x3800
20003fe6:	f000 fb4f 	bl	20004688 <LCD_IO_WriteCmd16>
20003fea:	f240 7002 	movw	r0, #1794	; 0x702
20003fee:	f000 fb4f 	bl	20004690 <LCD_IO_WriteData16>
    LCD_IO_WriteCmd16(RC(ILI9325_GAMMA_CTRL8)); LCD_IO_WriteData16(RC(0x0000));
20003ff2:	f44f 5064 	mov.w	r0, #14592	; 0x3900
20003ff6:	f000 fb47 	bl	20004688 <LCD_IO_WriteCmd16>
20003ffa:	2000      	movs	r0, #0
20003ffc:	f000 fb48 	bl	20004690 <LCD_IO_WriteData16>
    LCD_IO_WriteCmd16(RC(ILI9325_GAMMA_CTRL9)); LCD_IO_WriteData16(RC(0x0203));
20004000:	f44f 5070 	mov.w	r0, #15360	; 0x3c00
20004004:	f000 fb40 	bl	20004688 <LCD_IO_WriteCmd16>
20004008:	f240 3002 	movw	r0, #770	; 0x302
2000400c:	f000 fb40 	bl	20004690 <LCD_IO_WriteData16>
    LCD_IO_WriteCmd16(RC(ILI9325_GAMMA_CTRL10)); LCD_IO_WriteData16(RC(0x0403));
20004010:	f44f 5074 	mov.w	r0, #15616	; 0x3d00
20004014:	f000 fb38 	bl	20004688 <LCD_IO_WriteCmd16>
20004018:	f44f 7041 	mov.w	r0, #772	; 0x304
2000401c:	f000 fb38 	bl	20004690 <LCD_IO_WriteData16>
    LCD_IO_WriteCmd16(RC(ILI9325_HOR_START_AD)); LCD_IO_WriteData16(RC(0));
20004020:	f44f 40a0 	mov.w	r0, #20480	; 0x5000
20004024:	f000 fb30 	bl	20004688 <LCD_IO_WriteCmd16>
20004028:	2000      	movs	r0, #0
2000402a:	f000 fb31 	bl	20004690 <LCD_IO_WriteData16>
    LCD_IO_WriteCmd16(RC(ILI9325_HOR_END_AD)); LCD_IO_WriteData16(RC(ILI9325_LCD_PIXEL_WIDTH - 1));  // 240 - 1
2000402e:	f44f 40a2 	mov.w	r0, #20736	; 0x5100
20004032:	f000 fb29 	bl	20004688 <LCD_IO_WriteCmd16>
20004036:	f44f 406f 	mov.w	r0, #61184	; 0xef00
2000403a:	f000 fb29 	bl	20004690 <LCD_IO_WriteData16>
    LCD_IO_WriteCmd16(RC(ILI9325_VER_START_AD)); LCD_IO_WriteData16(RC(0));
2000403e:	f44f 40a4 	mov.w	r0, #20992	; 0x5200
20004042:	f000 fb21 	bl	20004688 <LCD_IO_WriteCmd16>
20004046:	2000      	movs	r0, #0
20004048:	f000 fb22 	bl	20004690 <LCD_IO_WriteData16>
    LCD_IO_WriteCmd16(RC(ILI9325_VER_END_AD)); LCD_IO_WriteData16(RC(ILI9325_LCD_PIXEL_HEIGHT - 1)); // 320 - 1
2000404c:	f44f 40a6 	mov.w	r0, #21248	; 0x5300
20004050:	f000 fb1a 	bl	20004688 <LCD_IO_WriteCmd16>
20004054:	f643 7001 	movw	r0, #16129	; 0x3f01
20004058:	f000 fb1a 	bl	20004690 <LCD_IO_WriteData16>
    LCD_IO_WriteCmd16(RC(ILI9325_GATE_SCAN_CTRL1)); LCD_IO_WriteData16(RC(ILI9325_GATE_SCAN_CTRL1_DATA));
2000405c:	f44f 40c0 	mov.w	r0, #24576	; 0x6000
20004060:	f000 fb12 	bl	20004688 <LCD_IO_WriteCmd16>
20004064:	2027      	movs	r0, #39	; 0x27
20004066:	f000 fb13 	bl	20004690 <LCD_IO_WriteData16>
    LCD_IO_WriteCmd16(RC(ILI9325_GATE_SCAN_CTRL2)); LCD_IO_WriteData16(RC(0x0001));
2000406a:	f44f 40c2 	mov.w	r0, #24832	; 0x6100
2000406e:	f000 fb0b 	bl	20004688 <LCD_IO_WriteCmd16>
20004072:	f44f 7080 	mov.w	r0, #256	; 0x100
20004076:	f000 fb0b 	bl	20004690 <LCD_IO_WriteData16>
    LCD_IO_WriteCmd16(RC(ILI9325_PANEL_IF_CTRL1)); LCD_IO_WriteData16(RC(0x0029)); /* RTNI setting */
2000407a:	f44f 4010 	mov.w	r0, #36864	; 0x9000
2000407e:	f000 fb03 	bl	20004688 <LCD_IO_WriteCmd16>
20004082:	f44f 5024 	mov.w	r0, #10496	; 0x2900
20004086:	f000 fb03 	bl	20004690 <LCD_IO_WriteData16>
    LCD_Delay(5);
2000408a:	2005      	movs	r0, #5
2000408c:	f000 fa98 	bl	200045c0 <LCD_Delay>
    LCD_IO_WriteCmd16(RC(ILI9325_FRM_RATE_COL_CTRL)); LCD_IO_WriteData16(RC(0x000E)); // 110Hz, hogy ne vibrljon
20004090:	f44f 502c 	mov.w	r0, #11008	; 0x2b00
20004094:	f000 faf8 	bl	20004688 <LCD_IO_WriteCmd16>
20004098:	f44f 6060 	mov.w	r0, #3584	; 0xe00
2000409c:	f000 faf8 	bl	20004690 <LCD_IO_WriteData16>
    LCD_IO_WriteCmd16(RC(ILI9325_DISP_CTRL1)); LCD_IO_WriteData16(RC(0x0133));
200040a0:	f44f 60e0 	mov.w	r0, #1792	; 0x700
200040a4:	f000 faf0 	bl	20004688 <LCD_IO_WriteCmd16>
200040a8:	f243 3001 	movw	r0, #13057	; 0x3301
200040ac:	f000 faf0 	bl	20004690 <LCD_IO_WriteData16>
200040b0:	bd08      	pop	{r3, pc}
      LCD_IO_Init();
200040b2:	f000 fa95 	bl	200045e0 <LCD_IO_Init>
200040b6:	e6e2      	b.n	20003e7e <ili9325_Init+0x1e>
200040b8:	2001bea4 	.word	0x2001bea4

200040bc <ili9325_DisplayOn>:
{
200040bc:	b508      	push	{r3, lr}
  LCD_IO_WriteCmd16(RC(ILI9325_POW_CTRL1)); LCD_IO_WriteData16(RC(0x0000)); /* SAP, BT[3:0], AP, DSTB, SLP, STB */
200040be:	f44f 5080 	mov.w	r0, #4096	; 0x1000
200040c2:	f000 fae1 	bl	20004688 <LCD_IO_WriteCmd16>
200040c6:	2000      	movs	r0, #0
200040c8:	f000 fae2 	bl	20004690 <LCD_IO_WriteData16>
  LCD_IO_WriteCmd16(RC(ILI9325_POW_CTRL2)); LCD_IO_WriteData16(RC(0x0000)); /* DC1[2:0], DC0[2:0], VC[2:0] */
200040cc:	f44f 5088 	mov.w	r0, #4352	; 0x1100
200040d0:	f000 fada 	bl	20004688 <LCD_IO_WriteCmd16>
200040d4:	2000      	movs	r0, #0
200040d6:	f000 fadb 	bl	20004690 <LCD_IO_WriteData16>
  LCD_IO_WriteCmd16(RC(ILI9325_POW_CTRL3)); LCD_IO_WriteData16(RC(0x0000)); /* VREG1OUT voltage */
200040da:	f44f 5090 	mov.w	r0, #4608	; 0x1200
200040de:	f000 fad3 	bl	20004688 <LCD_IO_WriteCmd16>
200040e2:	2000      	movs	r0, #0
200040e4:	f000 fad4 	bl	20004690 <LCD_IO_WriteData16>
  LCD_IO_WriteCmd16(RC(ILI9325_POW_CTRL4)); LCD_IO_WriteData16(RC(0x0000)); /* VDV[4:0] for VCOM amplitude*/
200040e8:	f44f 5098 	mov.w	r0, #4864	; 0x1300
200040ec:	f000 facc 	bl	20004688 <LCD_IO_WriteCmd16>
200040f0:	2000      	movs	r0, #0
200040f2:	f000 facd 	bl	20004690 <LCD_IO_WriteData16>
  LCD_Delay(5);
200040f6:	2005      	movs	r0, #5
200040f8:	f000 fa62 	bl	200045c0 <LCD_Delay>
  LCD_IO_WriteCmd16(RC(ILI9325_POW_CTRL1)); LCD_IO_WriteData16(RC(0x14B0));
200040fc:	f44f 5080 	mov.w	r0, #4096	; 0x1000
20004100:	f000 fac2 	bl	20004688 <LCD_IO_WriteCmd16>
20004104:	f24b 0014 	movw	r0, #45076	; 0xb014
20004108:	f000 fac2 	bl	20004690 <LCD_IO_WriteData16>
  LCD_IO_WriteCmd16(RC(ILI9325_POW_CTRL2)); LCD_IO_WriteData16(RC(0x0007));
2000410c:	f44f 5088 	mov.w	r0, #4352	; 0x1100
20004110:	f000 faba 	bl	20004688 <LCD_IO_WriteCmd16>
20004114:	f44f 60e0 	mov.w	r0, #1792	; 0x700
20004118:	f000 faba 	bl	20004690 <LCD_IO_WriteData16>
  LCD_IO_WriteCmd16(RC(ILI9325_POW_CTRL3)); LCD_IO_WriteData16(RC(0x008E)); /* VREG1OUT voltage */
2000411c:	f44f 5090 	mov.w	r0, #4608	; 0x1200
20004120:	f000 fab2 	bl	20004688 <LCD_IO_WriteCmd16>
20004124:	f44f 400e 	mov.w	r0, #36352	; 0x8e00
20004128:	f000 fab2 	bl	20004690 <LCD_IO_WriteData16>
  LCD_IO_WriteCmd16(RC(ILI9325_POW_CTRL4)); LCD_IO_WriteData16(RC(0x0C00));
2000412c:	f44f 5098 	mov.w	r0, #4864	; 0x1300
20004130:	f000 faaa 	bl	20004688 <LCD_IO_WriteCmd16>
20004134:	200c      	movs	r0, #12
20004136:	f000 faab 	bl	20004690 <LCD_IO_WriteData16>
  LCD_IO_WriteCmd16(RC(ILI9325_POW_CTRL7)); LCD_IO_WriteData16(RC(0x0015));
2000413a:	f44f 5024 	mov.w	r0, #10496	; 0x2900
2000413e:	f000 faa3 	bl	20004688 <LCD_IO_WriteCmd16>
20004142:	f44f 50a8 	mov.w	r0, #5376	; 0x1500
20004146:	f000 faa3 	bl	20004690 <LCD_IO_WriteData16>
  LCD_IO_WriteCmd16(RC(ILI9325_FRM_RATE_COL_CTRL)); LCD_IO_WriteData16(RC(0x000E)); // 110Hz, hogy ne vibrljon
2000414a:	f44f 502c 	mov.w	r0, #11008	; 0x2b00
2000414e:	f000 fa9b 	bl	20004688 <LCD_IO_WriteCmd16>
20004152:	f44f 6060 	mov.w	r0, #3584	; 0xe00
20004156:	f000 fa9b 	bl	20004690 <LCD_IO_WriteData16>
  LCD_IO_WriteCmd16(RC(ILI9325_DISP_CTRL1)); LCD_IO_WriteData16(RC(0x0133)); /* display ON */
2000415a:	f44f 60e0 	mov.w	r0, #1792	; 0x700
2000415e:	f000 fa93 	bl	20004688 <LCD_IO_WriteCmd16>
20004162:	f243 3001 	movw	r0, #13057	; 0x3301
20004166:	f000 fa93 	bl	20004690 <LCD_IO_WriteData16>
  LCD_IO_Bl_OnOff(1);
2000416a:	2001      	movs	r0, #1
2000416c:	f000 fa2c 	bl	200045c8 <LCD_IO_Bl_OnOff>
20004170:	bd08      	pop	{r3, pc}

20004172 <ili9325_DisplayOff>:
{
20004172:	b508      	push	{r3, lr}
  LCD_IO_WriteCmd16(RC(ILI9325_POW_CTRL1)); LCD_IO_WriteData16(RC(0x0000)); /* SAP, BT[3:0], AP, DSTB, SLP, STB */
20004174:	f44f 5080 	mov.w	r0, #4096	; 0x1000
20004178:	f000 fa86 	bl	20004688 <LCD_IO_WriteCmd16>
2000417c:	2000      	movs	r0, #0
2000417e:	f000 fa87 	bl	20004690 <LCD_IO_WriteData16>
  LCD_IO_WriteCmd16(RC(ILI9325_POW_CTRL2)); LCD_IO_WriteData16(RC(0x0000)); /* DC1[2:0], DC0[2:0], VC[2:0] */
20004182:	f44f 5088 	mov.w	r0, #4352	; 0x1100
20004186:	f000 fa7f 	bl	20004688 <LCD_IO_WriteCmd16>
2000418a:	2000      	movs	r0, #0
2000418c:	f000 fa80 	bl	20004690 <LCD_IO_WriteData16>
  LCD_IO_WriteCmd16(RC(ILI9325_POW_CTRL3)); LCD_IO_WriteData16(RC(0x0000)); /* VREG1OUT voltage */
20004190:	f44f 5090 	mov.w	r0, #4608	; 0x1200
20004194:	f000 fa78 	bl	20004688 <LCD_IO_WriteCmd16>
20004198:	2000      	movs	r0, #0
2000419a:	f000 fa79 	bl	20004690 <LCD_IO_WriteData16>
  LCD_IO_WriteCmd16(RC(ILI9325_POW_CTRL4)); LCD_IO_WriteData16(RC(0x0000)); /* VDV[4:0] for VCOM amplitude*/
2000419e:	f44f 5098 	mov.w	r0, #4864	; 0x1300
200041a2:	f000 fa71 	bl	20004688 <LCD_IO_WriteCmd16>
200041a6:	2000      	movs	r0, #0
200041a8:	f000 fa72 	bl	20004690 <LCD_IO_WriteData16>
  LCD_IO_WriteCmd16(RC(ILI9325_POW_CTRL7)); LCD_IO_WriteData16(RC(0x0000)); /* VCM[4:0] for VCOMH */
200041ac:	f44f 5024 	mov.w	r0, #10496	; 0x2900
200041b0:	f000 fa6a 	bl	20004688 <LCD_IO_WriteCmd16>
200041b4:	2000      	movs	r0, #0
200041b6:	f000 fa6b 	bl	20004690 <LCD_IO_WriteData16>
  LCD_IO_WriteCmd16(RC(ILI9325_DISP_CTRL1)); LCD_IO_WriteData16(RC(0x0));
200041ba:	f44f 60e0 	mov.w	r0, #1792	; 0x700
200041be:	f000 fa63 	bl	20004688 <LCD_IO_WriteCmd16>
200041c2:	2000      	movs	r0, #0
200041c4:	f000 fa64 	bl	20004690 <LCD_IO_WriteData16>
  LCD_IO_Bl_OnOff(0);
200041c8:	2000      	movs	r0, #0
200041ca:	f000 f9fd 	bl	200045c8 <LCD_IO_Bl_OnOff>
200041ce:	bd08      	pop	{r3, pc}

200041d0 <ili9325_SetCursor>:
  * @param  Xpos: specifies the X position.
  * @param  Ypos: specifies the Y position.
  * @retval None
  */
void ili9325_SetCursor(uint16_t Xpos, uint16_t Ypos)
{
200041d0:	b538      	push	{r3, r4, r5, lr}
200041d2:	4604      	mov	r4, r0
200041d4:	460d      	mov	r5, r1
  ILI9325_LCDMUTEX_PUSH();
  ILI9325_SETCURSOR(Xpos, Ypos);
200041d6:	f44f 5000 	mov.w	r0, #8192	; 0x2000
200041da:	f000 fa55 	bl	20004688 <LCD_IO_WriteCmd16>
200041de:	ba68      	rev16	r0, r5
200041e0:	b280      	uxth	r0, r0
200041e2:	f000 fa55 	bl	20004690 <LCD_IO_WriteData16>
200041e6:	f44f 5004 	mov.w	r0, #8448	; 0x2100
200041ea:	f000 fa4d 	bl	20004688 <LCD_IO_WriteCmd16>
200041ee:	ba60      	rev16	r0, r4
200041f0:	b280      	uxth	r0, r0
200041f2:	f000 fa4d 	bl	20004690 <LCD_IO_WriteData16>
200041f6:	bd38      	pop	{r3, r4, r5, pc}

200041f8 <ili9325_WritePixel>:
  * @param  Ypos: specifies the Y position.
  * @param  RGBCode: the RGB pixel color
  * @retval None
  */
void ili9325_WritePixel(uint16_t Xpos, uint16_t Ypos, uint16_t RGBCode)
{
200041f8:	b570      	push	{r4, r5, r6, lr}
200041fa:	4604      	mov	r4, r0
200041fc:	460d      	mov	r5, r1
200041fe:	4616      	mov	r6, r2
  ILI9325_LCDMUTEX_PUSH();
  ILI9325_SETCURSOR(Xpos, Ypos);
20004200:	f44f 5000 	mov.w	r0, #8192	; 0x2000
20004204:	f000 fa40 	bl	20004688 <LCD_IO_WriteCmd16>
20004208:	ba68      	rev16	r0, r5
2000420a:	b280      	uxth	r0, r0
2000420c:	f000 fa40 	bl	20004690 <LCD_IO_WriteData16>
20004210:	f44f 5004 	mov.w	r0, #8448	; 0x2100
20004214:	f000 fa38 	bl	20004688 <LCD_IO_WriteCmd16>
20004218:	ba60      	rev16	r0, r4
2000421a:	b280      	uxth	r0, r0
2000421c:	f000 fa38 	bl	20004690 <LCD_IO_WriteData16>
  LCD_IO_WriteCmd16(RC(ILI9325_RW_GRAM)); LCD_IO_WriteData16(RGBCode);
20004220:	f44f 5008 	mov.w	r0, #8704	; 0x2200
20004224:	f000 fa30 	bl	20004688 <LCD_IO_WriteCmd16>
20004228:	4630      	mov	r0, r6
2000422a:	f000 fa31 	bl	20004690 <LCD_IO_WriteData16>
2000422e:	bd70      	pop	{r4, r5, r6, pc}

20004230 <ili9325_SetDisplayWindow>:
  * @param  Height: display window height.
  * @param  Width:  display window width.
  * @retval None
  */
void ili9325_SetDisplayWindow(uint16_t Xpos, uint16_t Ypos, uint16_t Width, uint16_t Height)
{
20004230:	b5f8      	push	{r3, r4, r5, r6, r7, lr}
20004232:	4606      	mov	r6, r0
20004234:	460f      	mov	r7, r1
20004236:	4614      	mov	r4, r2
20004238:	461d      	mov	r5, r3
  LCD_IO_WriteCmd16(RC(ILI9325_HOR_START_AD)); LCD_IO_WriteData16(RD(Xpos));
  LCD_IO_WriteCmd16(RC(ILI9325_HOR_END_AD)); LCD_IO_WriteData16(RD(Xpos + Width - 1));
  LCD_IO_WriteCmd16(RC(ILI9325_VER_START_AD)); LCD_IO_WriteData16(RD(Ypos));
  LCD_IO_WriteCmd16(RC(ILI9325_VER_END_AD)); LCD_IO_WriteData16(RD(Ypos + Height - 1));
  #elif (ILI9325_ORIENTATION == 1) || (ILI9325_ORIENTATION == 3)
  LCD_IO_WriteCmd16(RC(ILI9325_HOR_START_AD)); LCD_IO_WriteData16(RD(Ypos));
2000423a:	f44f 40a0 	mov.w	r0, #20480	; 0x5000
2000423e:	f000 fa23 	bl	20004688 <LCD_IO_WriteCmd16>
20004242:	ba78      	rev16	r0, r7
20004244:	b280      	uxth	r0, r0
20004246:	f000 fa23 	bl	20004690 <LCD_IO_WriteData16>
  LCD_IO_WriteCmd16(RC(ILI9325_HOR_END_AD)); LCD_IO_WriteData16(RD(Ypos + Height - 1));
2000424a:	f44f 40a2 	mov.w	r0, #20736	; 0x5100
2000424e:	f000 fa1b 	bl	20004688 <LCD_IO_WriteCmd16>
20004252:	19e8      	adds	r0, r5, r7
20004254:	3801      	subs	r0, #1
20004256:	ba40      	rev16	r0, r0
20004258:	b280      	uxth	r0, r0
2000425a:	f000 fa19 	bl	20004690 <LCD_IO_WriteData16>
  LCD_IO_WriteCmd16(RC(ILI9325_VER_START_AD)); LCD_IO_WriteData16(RD(Xpos));
2000425e:	f44f 40a4 	mov.w	r0, #20992	; 0x5200
20004262:	f000 fa11 	bl	20004688 <LCD_IO_WriteCmd16>
20004266:	ba70      	rev16	r0, r6
20004268:	b280      	uxth	r0, r0
2000426a:	f000 fa11 	bl	20004690 <LCD_IO_WriteData16>
  LCD_IO_WriteCmd16(RC(ILI9325_VER_END_AD)); LCD_IO_WriteData16(RD(Xpos + Width - 1));
2000426e:	f44f 40a6 	mov.w	r0, #21248	; 0x5300
20004272:	f000 fa09 	bl	20004688 <LCD_IO_WriteCmd16>
20004276:	19a0      	adds	r0, r4, r6
20004278:	3801      	subs	r0, #1
2000427a:	ba40      	rev16	r0, r0
2000427c:	b280      	uxth	r0, r0
2000427e:	f000 fa07 	bl	20004690 <LCD_IO_WriteData16>
20004282:	bdf8      	pop	{r3, r4, r5, r6, r7, pc}

20004284 <ili9325_ReadID>:
{
20004284:	b500      	push	{lr}
20004286:	b083      	sub	sp, #12
  if(Is_ili9325_Initialized == 0)
20004288:	4b09      	ldr	r3, [pc, #36]	; (200042b0 <ili9325_ReadID+0x2c>)
2000428a:	781b      	ldrb	r3, [r3, #0]
2000428c:	b16b      	cbz	r3, 200042aa <ili9325_ReadID+0x26>
  LCD_IO_ReadCmd16MultipleData16(RC(0x00), &ret, 1, 2);
2000428e:	2302      	movs	r3, #2
20004290:	2201      	movs	r2, #1
20004292:	f10d 0106 	add.w	r1, sp, #6
20004296:	2000      	movs	r0, #0
20004298:	f000 fa74 	bl	20004784 <LCD_IO_ReadCmd16MultipleData16>
  return RD(ret);
2000429c:	f8bd 0006 	ldrh.w	r0, [sp, #6]
200042a0:	ba40      	rev16	r0, r0
}
200042a2:	b280      	uxth	r0, r0
200042a4:	b003      	add	sp, #12
200042a6:	f85d fb04 	ldr.w	pc, [sp], #4
    ili9325_Init();
200042aa:	f7ff fdd9 	bl	20003e60 <ili9325_Init>
200042ae:	e7ee      	b.n	2000428e <ili9325_ReadID+0xa>
200042b0:	2001bea4 	.word	0x2001bea4

200042b4 <ili9325_ReadPixel>:
{
200042b4:	b530      	push	{r4, r5, lr}
200042b6:	b083      	sub	sp, #12
200042b8:	4604      	mov	r4, r0
200042ba:	460d      	mov	r5, r1
  ILI9325_SETCURSOR(Xpos, Ypos);
200042bc:	f44f 5000 	mov.w	r0, #8192	; 0x2000
200042c0:	f000 f9e2 	bl	20004688 <LCD_IO_WriteCmd16>
200042c4:	ba68      	rev16	r0, r5
200042c6:	b280      	uxth	r0, r0
200042c8:	f000 f9e2 	bl	20004690 <LCD_IO_WriteData16>
200042cc:	f44f 5004 	mov.w	r0, #8448	; 0x2100
200042d0:	f000 f9da 	bl	20004688 <LCD_IO_WriteCmd16>
200042d4:	ba60      	rev16	r0, r4
200042d6:	b280      	uxth	r0, r0
200042d8:	f000 f9da 	bl	20004690 <LCD_IO_WriteData16>
  LCD_IO_ReadCmd16MultipleData16(RC(ILI9325_RW_GRAM), &ret, 1, 2);
200042dc:	2302      	movs	r3, #2
200042de:	2201      	movs	r2, #1
200042e0:	f10d 0106 	add.w	r1, sp, #6
200042e4:	f44f 5008 	mov.w	r0, #8704	; 0x2200
200042e8:	f000 fa4c 	bl	20004784 <LCD_IO_ReadCmd16MultipleData16>
}
200042ec:	f8bd 0006 	ldrh.w	r0, [sp, #6]
200042f0:	b003      	add	sp, #12
200042f2:	bd30      	pop	{r4, r5, pc}

200042f4 <ili9325_ReadRGBImage>:
  * @param  Ysize: Image Y size in the LCD
  * @retval None
  * @brief  Draw direction: right then down
  */
void ili9325_ReadRGBImage(uint16_t Xpos, uint16_t Ypos, uint16_t Xsize, uint16_t Ysize, uint8_t *pdata)
{
200042f4:	e92d 47f0 	stmdb	sp!, {r4, r5, r6, r7, r8, r9, sl, lr}
200042f8:	4607      	mov	r7, r0
200042fa:	4689      	mov	r9, r1
200042fc:	4690      	mov	r8, r2
200042fe:	469a      	mov	sl, r3
20004300:	9d08      	ldr	r5, [sp, #32]
  LCD_IO_WriteCmd16(RC(ILI9325_HOR_START_AD)); LCD_IO_WriteData16(RC(0));
  LCD_IO_WriteCmd16(RC(ILI9325_HOR_END_AD)); LCD_IO_WriteData16(RC(ILI9325_LCD_PIXEL_WIDTH - 1));
  LCD_IO_WriteCmd16(RC(ILI9325_VER_START_AD)); LCD_IO_WriteData16(RC(0));
  LCD_IO_WriteCmd16(RC(ILI9325_VER_END_AD)); LCD_IO_WriteData16(RC(ILI9325_LCD_PIXEL_HEIGHT - 1));
  #else
  for(uint16_t yp = Ypos; yp < Ypos + Ysize; yp++)
20004302:	460e      	mov	r6, r1
20004304:	e01f      	b.n	20004346 <ili9325_ReadRGBImage+0x52>
    for(uint16_t xp = Xpos; xp < Xpos + Xsize; xp++)
    { // mivel memoria olvasskor nem lpteti a memoriacimet automatikusan csak ez a modszer marad :(
      ILI9325_SETCURSOR(xp, yp);
20004306:	f44f 5000 	mov.w	r0, #8192	; 0x2000
2000430a:	f000 f9bd 	bl	20004688 <LCD_IO_WriteCmd16>
2000430e:	ba70      	rev16	r0, r6
20004310:	b280      	uxth	r0, r0
20004312:	f000 f9bd 	bl	20004690 <LCD_IO_WriteData16>
20004316:	f44f 5004 	mov.w	r0, #8448	; 0x2100
2000431a:	f000 f9b5 	bl	20004688 <LCD_IO_WriteCmd16>
2000431e:	ba60      	rev16	r0, r4
20004320:	b280      	uxth	r0, r0
20004322:	f000 f9b5 	bl	20004690 <LCD_IO_WriteData16>
      LCD_IO_ReadCmd16MultipleData16(RC(ILI9325_RW_GRAM), (uint16_t *)pdata, 1, 2);
20004326:	2302      	movs	r3, #2
20004328:	2201      	movs	r2, #1
2000432a:	4629      	mov	r1, r5
2000432c:	f44f 5008 	mov.w	r0, #8704	; 0x2200
20004330:	f000 fa28 	bl	20004784 <LCD_IO_ReadCmd16MultipleData16>
      pdata += 2;
20004334:	3502      	adds	r5, #2
    for(uint16_t xp = Xpos; xp < Xpos + Xsize; xp++)
20004336:	3401      	adds	r4, #1
20004338:	b2a4      	uxth	r4, r4
2000433a:	eb07 0308 	add.w	r3, r7, r8
2000433e:	429c      	cmp	r4, r3
20004340:	dbe1      	blt.n	20004306 <ili9325_ReadRGBImage+0x12>
  for(uint16_t yp = Ypos; yp < Ypos + Ysize; yp++)
20004342:	3601      	adds	r6, #1
20004344:	b2b6      	uxth	r6, r6
20004346:	eb09 030a 	add.w	r3, r9, sl
2000434a:	429e      	cmp	r6, r3
2000434c:	da01      	bge.n	20004352 <ili9325_ReadRGBImage+0x5e>
2000434e:	463c      	mov	r4, r7
20004350:	e7f3      	b.n	2000433a <ili9325_ReadRGBImage+0x46>
    }
  #endif
  ILI9325_LCDMUTEX_POP();
}
20004352:	e8bd 87f0 	ldmia.w	sp!, {r4, r5, r6, r7, r8, r9, sl, pc}

20004356 <ili9325_DrawHLine>:
{
20004356:	b5f8      	push	{r3, r4, r5, r6, r7, lr}
20004358:	4606      	mov	r6, r0
2000435a:	460c      	mov	r4, r1
2000435c:	4615      	mov	r5, r2
2000435e:	461f      	mov	r7, r3
  ILI9325_SETCURSOR(Xpos, Ypos);
20004360:	f44f 5000 	mov.w	r0, #8192	; 0x2000
20004364:	f000 f990 	bl	20004688 <LCD_IO_WriteCmd16>
20004368:	ba68      	rev16	r0, r5
2000436a:	b280      	uxth	r0, r0
2000436c:	f000 f990 	bl	20004690 <LCD_IO_WriteData16>
20004370:	f44f 5004 	mov.w	r0, #8448	; 0x2100
20004374:	f000 f988 	bl	20004688 <LCD_IO_WriteCmd16>
20004378:	ba60      	rev16	r0, r4
2000437a:	b280      	uxth	r0, r0
2000437c:	f000 f988 	bl	20004690 <LCD_IO_WriteData16>
  LCD_IO_WriteCmd16DataFill16(RC(ILI9325_RW_GRAM), RGBCode, Length);
20004380:	463a      	mov	r2, r7
20004382:	4631      	mov	r1, r6
20004384:	f44f 5008 	mov.w	r0, #8704	; 0x2200
20004388:	f000 f988 	bl	2000469c <LCD_IO_WriteCmd16DataFill16>
2000438c:	bdf8      	pop	{r3, r4, r5, r6, r7, pc}

2000438e <ili9325_DrawVLine>:
{
2000438e:	b5f8      	push	{r3, r4, r5, r6, r7, lr}
20004390:	4606      	mov	r6, r0
20004392:	460c      	mov	r4, r1
20004394:	4615      	mov	r5, r2
20004396:	461f      	mov	r7, r3
  LCD_IO_WriteCmd16(RC(ILI9325_ENTRY_MOD)); LCD_IO_WriteData16(RC(ILI9325_ENTRY_DATA_DOWN_THEN_RIGHT));
20004398:	f44f 7040 	mov.w	r0, #768	; 0x300
2000439c:	f000 f974 	bl	20004688 <LCD_IO_WriteCmd16>
200043a0:	f243 0010 	movw	r0, #12304	; 0x3010
200043a4:	f000 f974 	bl	20004690 <LCD_IO_WriteData16>
  ILI9325_SETCURSOR(Xpos, Ypos);
200043a8:	f44f 5000 	mov.w	r0, #8192	; 0x2000
200043ac:	f000 f96c 	bl	20004688 <LCD_IO_WriteCmd16>
200043b0:	ba68      	rev16	r0, r5
200043b2:	b280      	uxth	r0, r0
200043b4:	f000 f96c 	bl	20004690 <LCD_IO_WriteData16>
200043b8:	f44f 5004 	mov.w	r0, #8448	; 0x2100
200043bc:	f000 f964 	bl	20004688 <LCD_IO_WriteCmd16>
200043c0:	ba60      	rev16	r0, r4
200043c2:	b280      	uxth	r0, r0
200043c4:	f000 f964 	bl	20004690 <LCD_IO_WriteData16>
  LCD_IO_WriteCmd16DataFill16(RC(ILI9325_RW_GRAM), RGBCode, Length);
200043c8:	463a      	mov	r2, r7
200043ca:	4631      	mov	r1, r6
200043cc:	f44f 5008 	mov.w	r0, #8704	; 0x2200
200043d0:	f000 f964 	bl	2000469c <LCD_IO_WriteCmd16DataFill16>
  LCD_IO_WriteCmd16(RC(ILI9325_ENTRY_MOD)); LCD_IO_WriteData16(RC(ILI9325_ENTRY_DATA_RIGHT_THEN_DOWN));
200043d4:	f44f 7040 	mov.w	r0, #768	; 0x300
200043d8:	f000 f956 	bl	20004688 <LCD_IO_WriteCmd16>
200043dc:	f643 0010 	movw	r0, #14352	; 0x3810
200043e0:	f000 f956 	bl	20004690 <LCD_IO_WriteData16>
200043e4:	bdf8      	pop	{r3, r4, r5, r6, r7, pc}

200043e6 <ili9325_FillRect>:
{
200043e6:	b5f8      	push	{r3, r4, r5, r6, r7, lr}
200043e8:	4604      	mov	r4, r0
200043ea:	460d      	mov	r5, r1
200043ec:	4616      	mov	r6, r2
200043ee:	461f      	mov	r7, r3
  ili9325_SetDisplayWindow(Xpos, Ypos, Xsize, Ysize);
200043f0:	f7ff ff1e 	bl	20004230 <ili9325_SetDisplayWindow>
  ILI9325_SETCURSOR(Xpos, Ypos);
200043f4:	f44f 5000 	mov.w	r0, #8192	; 0x2000
200043f8:	f000 f946 	bl	20004688 <LCD_IO_WriteCmd16>
200043fc:	ba68      	rev16	r0, r5
200043fe:	b280      	uxth	r0, r0
20004400:	f000 f946 	bl	20004690 <LCD_IO_WriteData16>
20004404:	f44f 5004 	mov.w	r0, #8448	; 0x2100
20004408:	f000 f93e 	bl	20004688 <LCD_IO_WriteCmd16>
2000440c:	ba60      	rev16	r0, r4
2000440e:	b280      	uxth	r0, r0
20004410:	f000 f93e 	bl	20004690 <LCD_IO_WriteData16>
  LCD_IO_WriteCmd16DataFill16(RC(ILI9325_RW_GRAM), RGBCode, Xsize * Ysize);
20004414:	fb07 f206 	mul.w	r2, r7, r6
20004418:	f8bd 1018 	ldrh.w	r1, [sp, #24]
2000441c:	f44f 5008 	mov.w	r0, #8704	; 0x2200
20004420:	f000 f93c 	bl	2000469c <LCD_IO_WriteCmd16DataFill16>
  LCD_IO_WriteCmd16(RC(ILI9325_HOR_START_AD)); LCD_IO_WriteData16(RC(0));
20004424:	f44f 40a0 	mov.w	r0, #20480	; 0x5000
20004428:	f000 f92e 	bl	20004688 <LCD_IO_WriteCmd16>
2000442c:	2000      	movs	r0, #0
2000442e:	f000 f92f 	bl	20004690 <LCD_IO_WriteData16>
  LCD_IO_WriteCmd16(RC(ILI9325_HOR_END_AD)); LCD_IO_WriteData16(RC(ILI9325_LCD_PIXEL_WIDTH - 1));
20004432:	f44f 40a2 	mov.w	r0, #20736	; 0x5100
20004436:	f000 f927 	bl	20004688 <LCD_IO_WriteCmd16>
2000443a:	f44f 406f 	mov.w	r0, #61184	; 0xef00
2000443e:	f000 f927 	bl	20004690 <LCD_IO_WriteData16>
  LCD_IO_WriteCmd16(RC(ILI9325_VER_START_AD)); LCD_IO_WriteData16(RC(0));
20004442:	f44f 40a4 	mov.w	r0, #20992	; 0x5200
20004446:	f000 f91f 	bl	20004688 <LCD_IO_WriteCmd16>
2000444a:	2000      	movs	r0, #0
2000444c:	f000 f920 	bl	20004690 <LCD_IO_WriteData16>
  LCD_IO_WriteCmd16(RC(ILI9325_VER_END_AD)); LCD_IO_WriteData16(RC(ILI9325_LCD_PIXEL_HEIGHT - 1));
20004450:	f44f 40a6 	mov.w	r0, #21248	; 0x5300
20004454:	f000 f918 	bl	20004688 <LCD_IO_WriteCmd16>
20004458:	f643 7001 	movw	r0, #16129	; 0x3f01
2000445c:	f000 f918 	bl	20004690 <LCD_IO_WriteData16>
20004460:	bdf8      	pop	{r3, r4, r5, r6, r7, pc}

20004462 <ili9325_DrawBitmap>:
{
20004462:	b5f8      	push	{r3, r4, r5, r6, r7, lr}
20004464:	4607      	mov	r7, r0
  Ypos += pbmp[22] + (pbmp[23] << 8) - 1;
20004466:	7d94      	ldrb	r4, [r2, #22]
20004468:	7dd3      	ldrb	r3, [r2, #23]
2000446a:	eb04 2403 	add.w	r4, r4, r3, lsl #8
2000446e:	fa11 f484 	uxtah	r4, r1, r4
20004472:	b2a4      	uxth	r4, r4
20004474:	3c01      	subs	r4, #1
20004476:	b2a4      	uxth	r4, r4
  size = *(volatile uint16_t *) (pbmp + 2);
20004478:	8856      	ldrh	r6, [r2, #2]
2000447a:	b2b6      	uxth	r6, r6
  size |= (*(volatile uint16_t *) (pbmp + 4)) << 16;
2000447c:	8893      	ldrh	r3, [r2, #4]
2000447e:	ea46 4603 	orr.w	r6, r6, r3, lsl #16
  index = *(volatile uint16_t *) (pbmp + 10);
20004482:	8955      	ldrh	r5, [r2, #10]
20004484:	b2ad      	uxth	r5, r5
  index |= (*(volatile uint16_t *) (pbmp + 12)) << 16;
20004486:	8993      	ldrh	r3, [r2, #12]
20004488:	ea45 4503 	orr.w	r5, r5, r3, lsl #16
  size = (size - index) / 2;
2000448c:	1b76      	subs	r6, r6, r5
2000448e:	0876      	lsrs	r6, r6, #1
  pbmp += index;
20004490:	4415      	add	r5, r2
  LCD_IO_WriteCmd16(RC(ILI9325_ENTRY_MOD)); LCD_IO_WriteData16(RC(ILI9325_ENTRY_DATA_RIGHT_THEN_UP));
20004492:	f44f 7040 	mov.w	r0, #768	; 0x300
20004496:	f000 f8f7 	bl	20004688 <LCD_IO_WriteCmd16>
2000449a:	f642 0010 	movw	r0, #10256	; 0x2810
2000449e:	f000 f8f7 	bl	20004690 <LCD_IO_WriteData16>
  ILI9325_SETCURSOR(Xpos, Ypos);
200044a2:	f44f 5000 	mov.w	r0, #8192	; 0x2000
200044a6:	f000 f8ef 	bl	20004688 <LCD_IO_WriteCmd16>
200044aa:	ba60      	rev16	r0, r4
200044ac:	b280      	uxth	r0, r0
200044ae:	f000 f8ef 	bl	20004690 <LCD_IO_WriteData16>
200044b2:	f44f 5004 	mov.w	r0, #8448	; 0x2100
200044b6:	f000 f8e7 	bl	20004688 <LCD_IO_WriteCmd16>
200044ba:	ba78      	rev16	r0, r7
200044bc:	b280      	uxth	r0, r0
200044be:	f000 f8e7 	bl	20004690 <LCD_IO_WriteData16>
  LCD_IO_WriteCmd16MultipleData16(RC(ILI9325_RW_GRAM), (uint16_t *)pbmp, size);
200044c2:	4632      	mov	r2, r6
200044c4:	4629      	mov	r1, r5
200044c6:	f44f 5008 	mov.w	r0, #8704	; 0x2200
200044ca:	f000 f923 	bl	20004714 <LCD_IO_WriteCmd16MultipleData16>
  LCD_IO_WriteCmd16(RC(ILI9325_ENTRY_MOD)); LCD_IO_WriteData16(RC(ILI9325_ENTRY_DATA_RIGHT_THEN_DOWN));
200044ce:	f44f 7040 	mov.w	r0, #768	; 0x300
200044d2:	f000 f8d9 	bl	20004688 <LCD_IO_WriteCmd16>
200044d6:	f643 0010 	movw	r0, #14352	; 0x3810
200044da:	f000 f8d9 	bl	20004690 <LCD_IO_WriteData16>
  LCD_IO_WriteCmd16(RC(ILI9325_HOR_START_AD)); LCD_IO_WriteData16(RC(0));
200044de:	f44f 40a0 	mov.w	r0, #20480	; 0x5000
200044e2:	f000 f8d1 	bl	20004688 <LCD_IO_WriteCmd16>
200044e6:	2000      	movs	r0, #0
200044e8:	f000 f8d2 	bl	20004690 <LCD_IO_WriteData16>
  LCD_IO_WriteCmd16(RC(ILI9325_HOR_END_AD)); LCD_IO_WriteData16(RC(ILI9325_LCD_PIXEL_WIDTH - 1));
200044ec:	f44f 40a2 	mov.w	r0, #20736	; 0x5100
200044f0:	f000 f8ca 	bl	20004688 <LCD_IO_WriteCmd16>
200044f4:	f44f 406f 	mov.w	r0, #61184	; 0xef00
200044f8:	f000 f8ca 	bl	20004690 <LCD_IO_WriteData16>
  LCD_IO_WriteCmd16(RC(ILI9325_VER_START_AD)); LCD_IO_WriteData16(RC(0));
200044fc:	f44f 40a4 	mov.w	r0, #20992	; 0x5200
20004500:	f000 f8c2 	bl	20004688 <LCD_IO_WriteCmd16>
20004504:	2000      	movs	r0, #0
20004506:	f000 f8c3 	bl	20004690 <LCD_IO_WriteData16>
  LCD_IO_WriteCmd16(RC(ILI9325_VER_END_AD)); LCD_IO_WriteData16(RC(ILI9325_LCD_PIXEL_HEIGHT - 1));
2000450a:	f44f 40a6 	mov.w	r0, #21248	; 0x5300
2000450e:	f000 f8bb 	bl	20004688 <LCD_IO_WriteCmd16>
20004512:	f643 7001 	movw	r0, #16129	; 0x3f01
20004516:	f000 f8bb 	bl	20004690 <LCD_IO_WriteData16>
2000451a:	bdf8      	pop	{r3, r4, r5, r6, r7, pc}

2000451c <ili9325_DrawRGBImage>:
{
2000451c:	b5f8      	push	{r3, r4, r5, r6, r7, lr}
2000451e:	4604      	mov	r4, r0
20004520:	460d      	mov	r5, r1
20004522:	4616      	mov	r6, r2
20004524:	461f      	mov	r7, r3
  ili9325_SetDisplayWindow(Xpos, Ypos, Xsize, Ysize);
20004526:	f7ff fe83 	bl	20004230 <ili9325_SetDisplayWindow>
  ILI9325_SETCURSOR(Xpos, Ypos);
2000452a:	f44f 5000 	mov.w	r0, #8192	; 0x2000
2000452e:	f000 f8ab 	bl	20004688 <LCD_IO_WriteCmd16>
20004532:	ba68      	rev16	r0, r5
20004534:	b280      	uxth	r0, r0
20004536:	f000 f8ab 	bl	20004690 <LCD_IO_WriteData16>
2000453a:	f44f 5004 	mov.w	r0, #8448	; 0x2100
2000453e:	f000 f8a3 	bl	20004688 <LCD_IO_WriteCmd16>
20004542:	ba60      	rev16	r0, r4
20004544:	b280      	uxth	r0, r0
20004546:	f000 f8a3 	bl	20004690 <LCD_IO_WriteData16>
  LCD_IO_WriteCmd16MultipleData16(RC(ILI9325_RW_GRAM), (uint16_t *)pdata, Xsize * Ysize);
2000454a:	fb07 f206 	mul.w	r2, r7, r6
2000454e:	9906      	ldr	r1, [sp, #24]
20004550:	f44f 5008 	mov.w	r0, #8704	; 0x2200
20004554:	f000 f8de 	bl	20004714 <LCD_IO_WriteCmd16MultipleData16>
  LCD_IO_WriteCmd16(RC(ILI9325_HOR_START_AD)); LCD_IO_WriteData16(RC(0));
20004558:	f44f 40a0 	mov.w	r0, #20480	; 0x5000
2000455c:	f000 f894 	bl	20004688 <LCD_IO_WriteCmd16>
20004560:	2000      	movs	r0, #0
20004562:	f000 f895 	bl	20004690 <LCD_IO_WriteData16>
  LCD_IO_WriteCmd16(RC(ILI9325_HOR_END_AD)); LCD_IO_WriteData16(RC(ILI9325_LCD_PIXEL_WIDTH - 1));
20004566:	f44f 40a2 	mov.w	r0, #20736	; 0x5100
2000456a:	f000 f88d 	bl	20004688 <LCD_IO_WriteCmd16>
2000456e:	f44f 406f 	mov.w	r0, #61184	; 0xef00
20004572:	f000 f88d 	bl	20004690 <LCD_IO_WriteData16>
  LCD_IO_WriteCmd16(RC(ILI9325_VER_START_AD)); LCD_IO_WriteData16(RC(0));
20004576:	f44f 40a4 	mov.w	r0, #20992	; 0x5200
2000457a:	f000 f885 	bl	20004688 <LCD_IO_WriteCmd16>
2000457e:	2000      	movs	r0, #0
20004580:	f000 f886 	bl	20004690 <LCD_IO_WriteData16>
  LCD_IO_WriteCmd16(RC(ILI9325_VER_END_AD)); LCD_IO_WriteData16(RC(ILI9325_LCD_PIXEL_HEIGHT - 1));
20004584:	f44f 40a6 	mov.w	r0, #21248	; 0x5300
20004588:	f000 f87e 	bl	20004688 <LCD_IO_WriteCmd16>
2000458c:	f643 7001 	movw	r0, #16129	; 0x3f01
20004590:	f000 f87e 	bl	20004690 <LCD_IO_WriteData16>
20004594:	bdf8      	pop	{r3, r4, r5, r6, r7, pc}
	...

20004598 <DMA2_Stream7_IRQHandler>:

//-----------------------------------------------------------------------------
#ifdef LCD_DMA_IRQ
osSemaphoreId BinarySemDmaHandle;
void DMAX_STREAMX_IRQHANDLER(LCD_DMA)(void)
{
20004598:	b508      	push	{r3, lr}
  if(DMAX_ISR(LCD_DMA) & DMAX_ISR_TCIF(LCD_DMA))
2000459a:	4b07      	ldr	r3, [pc, #28]	; (200045b8 <DMA2_Stream7_IRQHandler+0x20>)
2000459c:	685b      	ldr	r3, [r3, #4]
2000459e:	f013 6f00 	tst.w	r3, #134217728	; 0x8000000
200045a2:	d100      	bne.n	200045a6 <DMA2_Stream7_IRQHandler+0xe>
200045a4:	bd08      	pop	{r3, pc}
  {
    DMAX_IFCR(LCD_DMA) = DMAX_IFCR_CTCIF(LCD_DMA);
200045a6:	f04f 6200 	mov.w	r2, #134217728	; 0x8000000
200045aa:	4b03      	ldr	r3, [pc, #12]	; (200045b8 <DMA2_Stream7_IRQHandler+0x20>)
200045ac:	60da      	str	r2, [r3, #12]
    osSemaphoreRelease(BinarySemDmaHandle);
200045ae:	4b03      	ldr	r3, [pc, #12]	; (200045bc <DMA2_Stream7_IRQHandler+0x24>)
200045b0:	6818      	ldr	r0, [r3, #0]
200045b2:	f7fd f8c3 	bl	2000173c <osSemaphoreRelease>
  }
}
200045b6:	e7f5      	b.n	200045a4 <DMA2_Stream7_IRQHandler+0xc>
200045b8:	40026400 	.word	0x40026400
200045bc:	2001f148 	.word	0x2001f148

200045c0 <LCD_Delay>:
}
#pragma GCC pop_options

//-----------------------------------------------------------------------------
void LCD_Delay(uint32_t Delay)
{
200045c0:	b508      	push	{r3, lr}
  HAL_Delay(Delay);
200045c2:	f7fc f809 	bl	200005d8 <HAL_Delay>
200045c6:	bd08      	pop	{r3, pc}

200045c8 <LCD_IO_Bl_OnOff>:

//-----------------------------------------------------------------------------
void LCD_IO_Bl_OnOff(uint8_t Bl)
{
  #if (GPIOX_PORTNUM(LCD_BL) >= 1) && (GPIOX_PORTNUM(LCD_BL) <= 12)
  if(Bl)
200045c8:	b918      	cbnz	r0, 200045d2 <LCD_IO_Bl_OnOff+0xa>
    GPIOX_ODR(LCD_BL) = LCD_BLON;
  else
    GPIOX_ODR(LCD_BL) = 1 - LCD_BLON;
200045ca:	2201      	movs	r2, #1
200045cc:	4b03      	ldr	r3, [pc, #12]	; (200045dc <LCD_IO_Bl_OnOff+0x14>)
200045ce:	601a      	str	r2, [r3, #0]
200045d0:	4770      	bx	lr
    GPIOX_ODR(LCD_BL) = LCD_BLON;
200045d2:	2200      	movs	r2, #0
200045d4:	4b01      	ldr	r3, [pc, #4]	; (200045dc <LCD_IO_Bl_OnOff+0x14>)
200045d6:	601a      	str	r2, [r3, #0]
200045d8:	4770      	bx	lr
200045da:	bf00      	nop
200045dc:	42408284 	.word	0x42408284

200045e0 <LCD_IO_Init>:
  #endif
}

//-----------------------------------------------------------------------------
void LCD_IO_Init(void)
{
200045e0:	b5f0      	push	{r4, r5, r6, r7, lr}
200045e2:	b083      	sub	sp, #12
  // GPIO Ports Clock Enable
  #ifdef ADCX
  RCC->APB2ENR |= GPIOX_CLOCK(LCD_RST) | GPIOX_CLOCK(TS_XM) | GPIOX_CLOCK(TS_XP) | GPIOX_CLOCK(TS_YM) | GPIOX_CLOCK(TS_YP);
  #else
  RCC->APB2ENR |= GPIOX_CLOCK(LCD_RST);
200045e4:	4d22      	ldr	r5, [pc, #136]	; (20004670 <LCD_IO_Init+0x90>)
200045e6:	6c6b      	ldr	r3, [r5, #68]	; 0x44
200045e8:	f043 0304 	orr.w	r3, r3, #4
200045ec:	646b      	str	r3, [r5, #68]	; 0x44
  #endif

  #if (GPIOX_PORTNUM(LCD_BL) >= 1) && (GPIOX_PORTNUM(LCD_BL) <= 12)
  RCC->APB2ENR |= GPIOX_CLOCK(LCD_BL);
200045ee:	6c6b      	ldr	r3, [r5, #68]	; 0x44
200045f0:	f043 0302 	orr.w	r3, r3, #2
200045f4:	646b      	str	r3, [r5, #68]	; 0x44
  GPIOX_ODR(LCD_BL) = LCD_BLON;
200045f6:	2600      	movs	r6, #0
200045f8:	4b1e      	ldr	r3, [pc, #120]	; (20004674 <LCD_IO_Init+0x94>)
200045fa:	601e      	str	r6, [r3, #0]
  GPIOX_MODER(MODE_OUT, LCD_BL);
200045fc:	4a1e      	ldr	r2, [pc, #120]	; (20004678 <LCD_IO_Init+0x98>)
200045fe:	6813      	ldr	r3, [r2, #0]
20004600:	f023 030c 	bic.w	r3, r3, #12
20004604:	f043 0304 	orr.w	r3, r3, #4
20004608:	6013      	str	r3, [r2, #0]
  #endif

  GPIOX_MODER(MODE_OUT, LCD_RST);       // RST = GPIO OUT
2000460a:	f502 6280 	add.w	r2, r2, #1024	; 0x400
2000460e:	6813      	ldr	r3, [r2, #0]
20004610:	f423 6340 	bic.w	r3, r3, #3072	; 0xc00
20004614:	f443 6380 	orr.w	r3, r3, #1024	; 0x400
20004618:	6013      	str	r3, [r2, #0]
  GPIOX_ODR(LCD_RST) = 1;               // RST = 1
2000461a:	4f18      	ldr	r7, [pc, #96]	; (2000467c <LCD_IO_Init+0x9c>)
2000461c:	2401      	movs	r4, #1
2000461e:	603c      	str	r4, [r7, #0]

  /* Set or Reset the control line */
  LCD_Delay(1);
20004620:	4620      	mov	r0, r4
20004622:	f7ff ffcd 	bl	200045c0 <LCD_Delay>
  GPIOX_ODR(LCD_RST) = 0;               // RST = 0
20004626:	603e      	str	r6, [r7, #0]
  LCD_Delay(1);
20004628:	4620      	mov	r0, r4
2000462a:	f7ff ffc9 	bl	200045c0 <LCD_Delay>
  GPIOX_ODR(LCD_RST) = 1;               // RST = 1
2000462e:	603c      	str	r4, [r7, #0]
  LCD_Delay(1);
20004630:	4620      	mov	r0, r4
20004632:	f7ff ffc5 	bl	200045c0 <LCD_Delay>

  GPIOX_ODR(LCD_CS) = 1;
20004636:	4b12      	ldr	r3, [pc, #72]	; (20004680 <LCD_IO_Init+0xa0>)
20004638:	601c      	str	r4, [r3, #0]
  #endif // #ifdef ADCX

  #if DMANUM(LCD_DMA) == 1
  RCC->AHB1ENR |= RCC_AHB1ENR_DMA1EN;
  #elif DMANUM(LCD_DMA) == 2
  RCC->AHB1ENR |= RCC_AHB1ENR_DMA2EN;
2000463a:	6b2b      	ldr	r3, [r5, #48]	; 0x30
2000463c:	f443 0380 	orr.w	r3, r3, #4194304	; 0x400000
20004640:	632b      	str	r3, [r5, #48]	; 0x30
  #endif

  #ifdef LCD_DMA_IRQ
  osSemaphoreDef(myBinarySem01);
20004642:	a802      	add	r0, sp, #8
20004644:	f840 6d04 	str.w	r6, [r0, #-4]!
  BinarySemDmaHandle = osSemaphoreCreate(osSemaphore(myBinarySem01), 1);
20004648:	4621      	mov	r1, r4
2000464a:	f7fd f82a 	bl	200016a2 <osSemaphoreCreate>
2000464e:	4d0d      	ldr	r5, [pc, #52]	; (20004684 <LCD_IO_Init+0xa4>)
20004650:	6028      	str	r0, [r5, #0]
  HAL_NVIC_SetPriority(DMAX_STREAMX_IRQ(LCD_DMA), configLIBRARY_MAX_SYSCALL_INTERRUPT_PRIORITY, 0);
20004652:	4632      	mov	r2, r6
20004654:	2105      	movs	r1, #5
20004656:	2046      	movs	r0, #70	; 0x46
20004658:	f7fb ffe4 	bl	20000624 <HAL_NVIC_SetPriority>
  HAL_NVIC_EnableIRQ(DMAX_STREAMX_IRQ(LCD_DMA));
2000465c:	2046      	movs	r0, #70	; 0x46
2000465e:	f7fc f813 	bl	20000688 <HAL_NVIC_EnableIRQ>
  osSemaphoreWait(BinarySemDmaHandle, 1);
20004662:	4621      	mov	r1, r4
20004664:	6828      	ldr	r0, [r5, #0]
20004666:	f7fd f82f 	bl	200016c8 <osSemaphoreWait>
  #endif
}
2000466a:	b003      	add	sp, #12
2000466c:	bdf0      	pop	{r4, r5, r6, r7, pc}
2000466e:	bf00      	nop
20004670:	40023800 	.word	0x40023800
20004674:	42408284 	.word	0x42408284
20004678:	40020400 	.word	0x40020400
2000467c:	42410294 	.word	0x42410294
20004680:	4241829c 	.word	0x4241829c
20004684:	2001f148 	.word	0x2001f148

20004688 <LCD_IO_WriteCmd16>:
}

//-----------------------------------------------------------------------------
void LCD_IO_WriteCmd16(uint16_t Cmd)
{
  *(volatile uint16_t *)LCD_ADDR_BASE = RD(Cmd);
20004688:	f04f 43c0 	mov.w	r3, #1610612736	; 0x60000000
2000468c:	8018      	strh	r0, [r3, #0]
2000468e:	4770      	bx	lr

20004690 <LCD_IO_WriteData16>:
}

//-----------------------------------------------------------------------------
void LCD_IO_WriteData16(uint16_t Data)
{
  *(volatile uint16_t *)LCD_ADDR_DATA = RD(Data);
20004690:	4b01      	ldr	r3, [pc, #4]	; (20004698 <LCD_IO_WriteData16+0x8>)
20004692:	8018      	strh	r0, [r3, #0]
20004694:	4770      	bx	lr
20004696:	bf00      	nop
20004698:	60040000 	.word	0x60040000

2000469c <LCD_IO_WriteCmd16DataFill16>:
  #endif
}

//-----------------------------------------------------------------------------
void LCD_IO_WriteCmd16DataFill16(uint16_t Cmd, uint16_t Data, uint32_t Size)
{
2000469c:	b510      	push	{r4, lr}
2000469e:	b082      	sub	sp, #8
200046a0:	4614      	mov	r4, r2
  *(volatile uint16_t *)LCD_ADDR_BASE = RD(Cmd);
200046a2:	f04f 43c0 	mov.w	r3, #1610612736	; 0x60000000
200046a6:	8018      	strh	r0, [r3, #0]
  uint16_t d = RD(Data);
200046a8:	f8ad 1006 	strh.w	r1, [sp, #6]
  #if DMANUM(LCD_DMA) == 0
  while(Size--)
    *(volatile uint16_t *)LCD_ADDR_DATA = d;

  #else
  LCD_FSMC_DMA(&d, LCD_ADDR_DATA, 0, 0, Size, 1);
200046ac:	e00f      	b.n	200046ce <LCD_IO_WriteCmd16DataFill16+0x32>
200046ae:	4b14      	ldr	r3, [pc, #80]	; (20004700 <LCD_IO_WriteCmd16DataFill16+0x64>)
200046b0:	605c      	str	r4, [r3, #4]
200046b2:	2400      	movs	r4, #0
200046b4:	4b12      	ldr	r3, [pc, #72]	; (20004700 <LCD_IO_WriteCmd16DataFill16+0x64>)
200046b6:	4a13      	ldr	r2, [pc, #76]	; (20004704 <LCD_IO_WriteCmd16DataFill16+0x68>)
200046b8:	601a      	str	r2, [r3, #0]
200046ba:	681a      	ldr	r2, [r3, #0]
200046bc:	f042 0201 	orr.w	r2, r2, #1
200046c0:	601a      	str	r2, [r3, #0]
200046c2:	f04f 31ff 	mov.w	r1, #4294967295
200046c6:	4b10      	ldr	r3, [pc, #64]	; (20004708 <LCD_IO_WriteCmd16DataFill16+0x6c>)
200046c8:	6818      	ldr	r0, [r3, #0]
200046ca:	f7fc fffd 	bl	200016c8 <osSemaphoreWait>
200046ce:	b1ac      	cbz	r4, 200046fc <LCD_IO_WriteCmd16DataFill16+0x60>
200046d0:	4b0b      	ldr	r3, [pc, #44]	; (20004700 <LCD_IO_WriteCmd16DataFill16+0x64>)
200046d2:	2200      	movs	r2, #0
200046d4:	601a      	str	r2, [r3, #0]
200046d6:	f04f 6100 	mov.w	r1, #134217728	; 0x8000000
200046da:	4a0c      	ldr	r2, [pc, #48]	; (2000470c <LCD_IO_WriteCmd16DataFill16+0x70>)
200046dc:	60d1      	str	r1, [r2, #12]
200046de:	f10d 0206 	add.w	r2, sp, #6
200046e2:	609a      	str	r2, [r3, #8]
200046e4:	4a0a      	ldr	r2, [pc, #40]	; (20004710 <LCD_IO_WriteCmd16DataFill16+0x74>)
200046e6:	60da      	str	r2, [r3, #12]
200046e8:	f5b4 3f80 	cmp.w	r4, #65536	; 0x10000
200046ec:	d3df      	bcc.n	200046ae <LCD_IO_WriteCmd16DataFill16+0x12>
200046ee:	f64f 72ff 	movw	r2, #65535	; 0xffff
200046f2:	605a      	str	r2, [r3, #4]
200046f4:	f5a4 447f 	sub.w	r4, r4, #65280	; 0xff00
200046f8:	3cff      	subs	r4, #255	; 0xff
200046fa:	e7db      	b.n	200046b4 <LCD_IO_WriteCmd16DataFill16+0x18>
  #endif
}
200046fc:	b002      	add	sp, #8
200046fe:	bd10      	pop	{r4, pc}
20004700:	400264b8 	.word	0x400264b8
20004704:	0e002890 	.word	0x0e002890
20004708:	2001f148 	.word	0x2001f148
2000470c:	40026400 	.word	0x40026400
20004710:	60040000 	.word	0x60040000

20004714 <LCD_IO_WriteCmd16MultipleData16>:
  #endif
}

//-----------------------------------------------------------------------------
void LCD_IO_WriteCmd16MultipleData16(uint16_t Cmd, uint16_t *pData, uint32_t Size)
{
20004714:	b538      	push	{r3, r4, r5, lr}
20004716:	460d      	mov	r5, r1
20004718:	4614      	mov	r4, r2
  *(volatile uint16_t *)LCD_ADDR_BASE = RD(Cmd);
2000471a:	f04f 43c0 	mov.w	r3, #1610612736	; 0x60000000
2000471e:	8018      	strh	r0, [r3, #0]
    *(volatile uint16_t *)LCD_ADDR_DATA = RD(*pData);
    pData++;
  }

  #else
  LCD_FSMC_DMA(pData, LCD_ADDR_DATA, 1, 0, Size, 1);
20004720:	e00f      	b.n	20004742 <LCD_IO_WriteCmd16MultipleData16+0x2e>
20004722:	4b13      	ldr	r3, [pc, #76]	; (20004770 <LCD_IO_WriteCmd16MultipleData16+0x5c>)
20004724:	605c      	str	r4, [r3, #4]
20004726:	2400      	movs	r4, #0
20004728:	4b11      	ldr	r3, [pc, #68]	; (20004770 <LCD_IO_WriteCmd16MultipleData16+0x5c>)
2000472a:	4a12      	ldr	r2, [pc, #72]	; (20004774 <LCD_IO_WriteCmd16MultipleData16+0x60>)
2000472c:	601a      	str	r2, [r3, #0]
2000472e:	681a      	ldr	r2, [r3, #0]
20004730:	f042 0201 	orr.w	r2, r2, #1
20004734:	601a      	str	r2, [r3, #0]
20004736:	f04f 31ff 	mov.w	r1, #4294967295
2000473a:	4b0f      	ldr	r3, [pc, #60]	; (20004778 <LCD_IO_WriteCmd16MultipleData16+0x64>)
2000473c:	6818      	ldr	r0, [r3, #0]
2000473e:	f7fc ffc3 	bl	200016c8 <osSemaphoreWait>
20004742:	b19c      	cbz	r4, 2000476c <LCD_IO_WriteCmd16MultipleData16+0x58>
20004744:	4b0a      	ldr	r3, [pc, #40]	; (20004770 <LCD_IO_WriteCmd16MultipleData16+0x5c>)
20004746:	2200      	movs	r2, #0
20004748:	601a      	str	r2, [r3, #0]
2000474a:	f04f 6100 	mov.w	r1, #134217728	; 0x8000000
2000474e:	4a0b      	ldr	r2, [pc, #44]	; (2000477c <LCD_IO_WriteCmd16MultipleData16+0x68>)
20004750:	60d1      	str	r1, [r2, #12]
20004752:	609d      	str	r5, [r3, #8]
20004754:	4a0a      	ldr	r2, [pc, #40]	; (20004780 <LCD_IO_WriteCmd16MultipleData16+0x6c>)
20004756:	60da      	str	r2, [r3, #12]
20004758:	f5b4 3f80 	cmp.w	r4, #65536	; 0x10000
2000475c:	d3e1      	bcc.n	20004722 <LCD_IO_WriteCmd16MultipleData16+0xe>
2000475e:	f64f 72ff 	movw	r2, #65535	; 0xffff
20004762:	605a      	str	r2, [r3, #4]
20004764:	f5a4 447f 	sub.w	r4, r4, #65280	; 0xff00
20004768:	3cff      	subs	r4, #255	; 0xff
2000476a:	e7dd      	b.n	20004728 <LCD_IO_WriteCmd16MultipleData16+0x14>
  #endif
}
2000476c:	bd38      	pop	{r3, r4, r5, pc}
2000476e:	bf00      	nop
20004770:	400264b8 	.word	0x400264b8
20004774:	0e002a90 	.word	0x0e002a90
20004778:	2001f148 	.word	0x2001f148
2000477c:	40026400 	.word	0x40026400
20004780:	60040000 	.word	0x60040000

20004784 <LCD_IO_ReadCmd16MultipleData16>:
  #endif
}

//-----------------------------------------------------------------------------
void LCD_IO_ReadCmd16MultipleData16(uint16_t Cmd, uint16_t *pData, uint32_t Size, uint32_t DummySize)
{
20004784:	b570      	push	{r4, r5, r6, lr}
20004786:	460e      	mov	r6, r1
20004788:	4614      	mov	r4, r2
2000478a:	461d      	mov	r5, r3
  #pragma GCC diagnostic push
  #pragma GCC diagnostic ignored "-Wunused-but-set-variable"
  uint8_t DummyData;
  #pragma GCC diagnostic pop

  *(volatile uint16_t *)LCD_ADDR_BASE = RD(Cmd);
2000478c:	f04f 43c0 	mov.w	r3, #1610612736	; 0x60000000
20004790:	8018      	strh	r0, [r3, #0]

  while(DummySize--)
20004792:	e002      	b.n	2000479a <LCD_IO_ReadCmd16MultipleData16+0x16>
    DummyData = *(volatile uint8_t *)LCD_ADDR_DATA;
20004794:	4a16      	ldr	r2, [pc, #88]	; (200047f0 <LCD_IO_ReadCmd16MultipleData16+0x6c>)
20004796:	7812      	ldrb	r2, [r2, #0]
  while(DummySize--)
20004798:	461d      	mov	r5, r3
2000479a:	1e6b      	subs	r3, r5, #1
2000479c:	2d00      	cmp	r5, #0
2000479e:	d1f9      	bne.n	20004794 <LCD_IO_ReadCmd16MultipleData16+0x10>
200047a0:	e00f      	b.n	200047c2 <LCD_IO_ReadCmd16MultipleData16+0x3e>
    pData++;
    Size--;
  }

  #else
  LCD_FSMC_DMA(LCD_ADDR_DATA, pData, 0, 1, Size, 1);
200047a2:	4b14      	ldr	r3, [pc, #80]	; (200047f4 <LCD_IO_ReadCmd16MultipleData16+0x70>)
200047a4:	605c      	str	r4, [r3, #4]
200047a6:	462c      	mov	r4, r5
200047a8:	4b12      	ldr	r3, [pc, #72]	; (200047f4 <LCD_IO_ReadCmd16MultipleData16+0x70>)
200047aa:	4a13      	ldr	r2, [pc, #76]	; (200047f8 <LCD_IO_ReadCmd16MultipleData16+0x74>)
200047ac:	601a      	str	r2, [r3, #0]
200047ae:	681a      	ldr	r2, [r3, #0]
200047b0:	f042 0201 	orr.w	r2, r2, #1
200047b4:	601a      	str	r2, [r3, #0]
200047b6:	f04f 31ff 	mov.w	r1, #4294967295
200047ba:	4b10      	ldr	r3, [pc, #64]	; (200047fc <LCD_IO_ReadCmd16MultipleData16+0x78>)
200047bc:	6818      	ldr	r0, [r3, #0]
200047be:	f7fc ff83 	bl	200016c8 <osSemaphoreWait>
200047c2:	b19c      	cbz	r4, 200047ec <LCD_IO_ReadCmd16MultipleData16+0x68>
200047c4:	4b0b      	ldr	r3, [pc, #44]	; (200047f4 <LCD_IO_ReadCmd16MultipleData16+0x70>)
200047c6:	2200      	movs	r2, #0
200047c8:	601a      	str	r2, [r3, #0]
200047ca:	f04f 6100 	mov.w	r1, #134217728	; 0x8000000
200047ce:	4a0c      	ldr	r2, [pc, #48]	; (20004800 <LCD_IO_ReadCmd16MultipleData16+0x7c>)
200047d0:	60d1      	str	r1, [r2, #12]
200047d2:	4a07      	ldr	r2, [pc, #28]	; (200047f0 <LCD_IO_ReadCmd16MultipleData16+0x6c>)
200047d4:	609a      	str	r2, [r3, #8]
200047d6:	60de      	str	r6, [r3, #12]
200047d8:	f5b4 3f80 	cmp.w	r4, #65536	; 0x10000
200047dc:	d3e1      	bcc.n	200047a2 <LCD_IO_ReadCmd16MultipleData16+0x1e>
200047de:	f64f 72ff 	movw	r2, #65535	; 0xffff
200047e2:	605a      	str	r2, [r3, #4]
200047e4:	f5a4 447f 	sub.w	r4, r4, #65280	; 0xff00
200047e8:	3cff      	subs	r4, #255	; 0xff
200047ea:	e7dd      	b.n	200047a8 <LCD_IO_ReadCmd16MultipleData16+0x24>
  #endif
}
200047ec:	bd70      	pop	{r4, r5, r6, pc}
200047ee:	bf00      	nop
200047f0:	60040000 	.word	0x60040000
200047f4:	400264b8 	.word	0x400264b8
200047f8:	0e002c90 	.word	0x0e002c90
200047fc:	2001f148 	.word	0x2001f148
20004800:	40026400 	.word	0x40026400

20004804 <SetDisplayWindow>:
  * @param  Width: LCD window width
  * @param  Height: LCD window height  
  * @retval None
  */
static void SetDisplayWindow(uint16_t Xpos, uint16_t Ypos, uint16_t Width, uint16_t Height)
{
20004804:	b510      	push	{r4, lr}
  if(lcd_drv->SetDisplayWindow != NULL)
20004806:	4c03      	ldr	r4, [pc, #12]	; (20004814 <SetDisplayWindow+0x10>)
20004808:	6824      	ldr	r4, [r4, #0]
2000480a:	69e4      	ldr	r4, [r4, #28]
2000480c:	b104      	cbz	r4, 20004810 <SetDisplayWindow+0xc>
  {
    lcd_drv->SetDisplayWindow(Xpos, Ypos, Width, Height);
2000480e:	47a0      	blx	r4
20004810:	bd10      	pop	{r4, pc}
20004812:	bf00      	nop
20004814:	20018074 	.word	0x20018074

20004818 <BSP_LCD_GetXSize>:
{
20004818:	b508      	push	{r3, lr}
  return(lcd_drv->GetLcdPixelWidth());
2000481a:	4b02      	ldr	r3, [pc, #8]	; (20004824 <BSP_LCD_GetXSize+0xc>)
2000481c:	681b      	ldr	r3, [r3, #0]
2000481e:	6a9b      	ldr	r3, [r3, #40]	; 0x28
20004820:	4798      	blx	r3
}
20004822:	bd08      	pop	{r3, pc}
20004824:	20018074 	.word	0x20018074

20004828 <BSP_LCD_GetYSize>:
{
20004828:	b508      	push	{r3, lr}
  return(lcd_drv->GetLcdPixelHeight());
2000482a:	4b02      	ldr	r3, [pc, #8]	; (20004834 <BSP_LCD_GetYSize+0xc>)
2000482c:	681b      	ldr	r3, [r3, #0]
2000482e:	6adb      	ldr	r3, [r3, #44]	; 0x2c
20004830:	4798      	blx	r3
}
20004832:	bd08      	pop	{r3, pc}
20004834:	20018074 	.word	0x20018074

20004838 <BSP_LCD_SetTextColor>:
  DrawProp.TextColor = Color;
20004838:	4b01      	ldr	r3, [pc, #4]	; (20004840 <BSP_LCD_SetTextColor+0x8>)
2000483a:	6018      	str	r0, [r3, #0]
2000483c:	4770      	bx	lr
2000483e:	bf00      	nop
20004840:	2001f14c 	.word	0x2001f14c

20004844 <BSP_LCD_SetBackColor>:
  DrawProp.BackColor = Color;
20004844:	4b01      	ldr	r3, [pc, #4]	; (2000484c <BSP_LCD_SetBackColor+0x8>)
20004846:	6058      	str	r0, [r3, #4]
20004848:	4770      	bx	lr
2000484a:	bf00      	nop
2000484c:	2001f14c 	.word	0x2001f14c

20004850 <BSP_LCD_SetFont>:
  DrawProp.pFont = pFonts;
20004850:	4b01      	ldr	r3, [pc, #4]	; (20004858 <BSP_LCD_SetFont+0x8>)
20004852:	6098      	str	r0, [r3, #8]
20004854:	4770      	bx	lr
20004856:	bf00      	nop
20004858:	2001f14c 	.word	0x2001f14c

2000485c <BSP_LCD_GetFont>:
}
2000485c:	4b01      	ldr	r3, [pc, #4]	; (20004864 <BSP_LCD_GetFont+0x8>)
2000485e:	6898      	ldr	r0, [r3, #8]
20004860:	4770      	bx	lr
20004862:	bf00      	nop
20004864:	2001f14c 	.word	0x2001f14c

20004868 <BSP_LCD_Clear>:
{
20004868:	b570      	push	{r4, r5, r6, lr}
2000486a:	b082      	sub	sp, #8
2000486c:	4606      	mov	r6, r0
  lcd_drv->FillRect(0, 0, BSP_LCD_GetXSize(), BSP_LCD_GetYSize(), Color);
2000486e:	4b08      	ldr	r3, [pc, #32]	; (20004890 <BSP_LCD_Clear+0x28>)
20004870:	681b      	ldr	r3, [r3, #0]
20004872:	6b9c      	ldr	r4, [r3, #56]	; 0x38
20004874:	f7ff ffd0 	bl	20004818 <BSP_LCD_GetXSize>
20004878:	4605      	mov	r5, r0
2000487a:	f7ff ffd5 	bl	20004828 <BSP_LCD_GetYSize>
2000487e:	9600      	str	r6, [sp, #0]
20004880:	4603      	mov	r3, r0
20004882:	462a      	mov	r2, r5
20004884:	2100      	movs	r1, #0
20004886:	4608      	mov	r0, r1
20004888:	47a0      	blx	r4
}
2000488a:	b002      	add	sp, #8
2000488c:	bd70      	pop	{r4, r5, r6, pc}
2000488e:	bf00      	nop
20004890:	20018074 	.word	0x20018074

20004894 <BSP_LCD_Init>:
{ 
20004894:	b538      	push	{r3, r4, r5, lr}
  DrawProp.BackColor = 0xFFFF;
20004896:	4b0a      	ldr	r3, [pc, #40]	; (200048c0 <BSP_LCD_Init+0x2c>)
20004898:	f64f 75ff 	movw	r5, #65535	; 0xffff
2000489c:	605d      	str	r5, [r3, #4]
  DrawProp.pFont     = &Font24;
2000489e:	4a09      	ldr	r2, [pc, #36]	; (200048c4 <BSP_LCD_Init+0x30>)
200048a0:	609a      	str	r2, [r3, #8]
  DrawProp.TextColor = 0x0000;
200048a2:	2400      	movs	r4, #0
200048a4:	601c      	str	r4, [r3, #0]
  lcd_drv->Init();
200048a6:	4b08      	ldr	r3, [pc, #32]	; (200048c8 <BSP_LCD_Init+0x34>)
200048a8:	681b      	ldr	r3, [r3, #0]
200048aa:	681b      	ldr	r3, [r3, #0]
200048ac:	4798      	blx	r3
  BSP_LCD_Clear(LCD_COLOR_WHITE);
200048ae:	4628      	mov	r0, r5
200048b0:	f7ff ffda 	bl	20004868 <BSP_LCD_Clear>
  BSP_LCD_SetFont(&LCD_DEFAULT_FONT);
200048b4:	4805      	ldr	r0, [pc, #20]	; (200048cc <BSP_LCD_Init+0x38>)
200048b6:	f7ff ffcb 	bl	20004850 <BSP_LCD_SetFont>
}
200048ba:	4620      	mov	r0, r4
200048bc:	bd38      	pop	{r3, r4, r5, pc}
200048be:	bf00      	nop
200048c0:	2001f14c 	.word	0x2001f14c
200048c4:	20018024 	.word	0x20018024
200048c8:	20018074 	.word	0x20018074
200048cc:	2001802c 	.word	0x2001802c

200048d0 <BSP_LCD_DrawPixel>:
{
200048d0:	b508      	push	{r3, lr}
  if(lcd_drv->WritePixel != NULL)
200048d2:	4b03      	ldr	r3, [pc, #12]	; (200048e0 <BSP_LCD_DrawPixel+0x10>)
200048d4:	681b      	ldr	r3, [r3, #0]
200048d6:	695b      	ldr	r3, [r3, #20]
200048d8:	b103      	cbz	r3, 200048dc <BSP_LCD_DrawPixel+0xc>
    lcd_drv->WritePixel(Xpos, Ypos, RGB_Code);
200048da:	4798      	blx	r3
200048dc:	bd08      	pop	{r3, pc}
200048de:	bf00      	nop
200048e0:	20018074 	.word	0x20018074

200048e4 <BSP_LCD_DrawHLine>:
{
200048e4:	b5f8      	push	{r3, r4, r5, r6, r7, lr}
200048e6:	4606      	mov	r6, r0
200048e8:	460f      	mov	r7, r1
200048ea:	4615      	mov	r5, r2
  if(lcd_drv->DrawHLine != NULL)
200048ec:	4b0b      	ldr	r3, [pc, #44]	; (2000491c <BSP_LCD_DrawHLine+0x38>)
200048ee:	681b      	ldr	r3, [r3, #0]
200048f0:	6a1c      	ldr	r4, [r3, #32]
200048f2:	b18c      	cbz	r4, 20004918 <BSP_LCD_DrawHLine+0x34>
    lcd_drv->DrawHLine(DrawProp.TextColor, Xpos, Ypos, Length);
200048f4:	4613      	mov	r3, r2
200048f6:	460a      	mov	r2, r1
200048f8:	4601      	mov	r1, r0
200048fa:	4809      	ldr	r0, [pc, #36]	; (20004920 <BSP_LCD_DrawHLine+0x3c>)
200048fc:	8800      	ldrh	r0, [r0, #0]
200048fe:	47a0      	blx	r4
20004900:	bdf8      	pop	{r3, r4, r5, r6, r7, pc}
      BSP_LCD_DrawPixel((Xpos + index), Ypos, DrawProp.TextColor);
20004902:	1930      	adds	r0, r6, r4
20004904:	4b06      	ldr	r3, [pc, #24]	; (20004920 <BSP_LCD_DrawHLine+0x3c>)
20004906:	881a      	ldrh	r2, [r3, #0]
20004908:	4639      	mov	r1, r7
2000490a:	b280      	uxth	r0, r0
2000490c:	f7ff ffe0 	bl	200048d0 <BSP_LCD_DrawPixel>
    for(index = 0; index < Length; index++)
20004910:	3401      	adds	r4, #1
20004912:	42ac      	cmp	r4, r5
20004914:	d3f5      	bcc.n	20004902 <BSP_LCD_DrawHLine+0x1e>
20004916:	bdf8      	pop	{r3, r4, r5, r6, r7, pc}
20004918:	2400      	movs	r4, #0
2000491a:	e7fa      	b.n	20004912 <BSP_LCD_DrawHLine+0x2e>
2000491c:	20018074 	.word	0x20018074
20004920:	2001f14c 	.word	0x2001f14c

20004924 <BSP_LCD_DrawVLine>:
{
20004924:	b5f8      	push	{r3, r4, r5, r6, r7, lr}
20004926:	4606      	mov	r6, r0
20004928:	460f      	mov	r7, r1
2000492a:	4615      	mov	r5, r2
  if(lcd_drv->DrawVLine != NULL)
2000492c:	4b0b      	ldr	r3, [pc, #44]	; (2000495c <BSP_LCD_DrawVLine+0x38>)
2000492e:	681b      	ldr	r3, [r3, #0]
20004930:	6a5c      	ldr	r4, [r3, #36]	; 0x24
20004932:	b18c      	cbz	r4, 20004958 <BSP_LCD_DrawVLine+0x34>
    lcd_drv->DrawVLine(DrawProp.TextColor, Xpos, Ypos, Length);
20004934:	4613      	mov	r3, r2
20004936:	460a      	mov	r2, r1
20004938:	4601      	mov	r1, r0
2000493a:	4809      	ldr	r0, [pc, #36]	; (20004960 <BSP_LCD_DrawVLine+0x3c>)
2000493c:	8800      	ldrh	r0, [r0, #0]
2000493e:	47a0      	blx	r4
20004940:	bdf8      	pop	{r3, r4, r5, r6, r7, pc}
      BSP_LCD_DrawPixel(Xpos, Ypos + index, DrawProp.TextColor);
20004942:	1939      	adds	r1, r7, r4
20004944:	4b06      	ldr	r3, [pc, #24]	; (20004960 <BSP_LCD_DrawVLine+0x3c>)
20004946:	881a      	ldrh	r2, [r3, #0]
20004948:	b289      	uxth	r1, r1
2000494a:	4630      	mov	r0, r6
2000494c:	f7ff ffc0 	bl	200048d0 <BSP_LCD_DrawPixel>
    for(index = 0; index < Length; index++)
20004950:	3401      	adds	r4, #1
20004952:	42ac      	cmp	r4, r5
20004954:	d3f5      	bcc.n	20004942 <BSP_LCD_DrawVLine+0x1e>
20004956:	bdf8      	pop	{r3, r4, r5, r6, r7, pc}
20004958:	2400      	movs	r4, #0
2000495a:	e7fa      	b.n	20004952 <BSP_LCD_DrawVLine+0x2e>
2000495c:	20018074 	.word	0x20018074
20004960:	2001f14c 	.word	0x2001f14c

20004964 <BSP_LCD_DrawLine>:
{
20004964:	e92d 4ff0 	stmdb	sp!, {r4, r5, r6, r7, r8, r9, sl, fp, lr}
20004968:	b085      	sub	sp, #20
  deltax = ABS(x2 - x1);        /* The difference between the x's */
2000496a:	eba2 0a00 	sub.w	sl, r2, r0
2000496e:	f1ba 0f00 	cmp.w	sl, #0
20004972:	bfb8      	it	lt
20004974:	f1ca 0a00 	rsblt	sl, sl, #0
20004978:	fa0f fa8a 	sxth.w	sl, sl
  deltay = ABS(y2 - y1);        /* The difference between the y's */
2000497c:	eba3 0b01 	sub.w	fp, r3, r1
20004980:	f1bb 0f00 	cmp.w	fp, #0
20004984:	bfb8      	it	lt
20004986:	f1cb 0b00 	rsblt	fp, fp, #0
2000498a:	fa0f fb8b 	sxth.w	fp, fp
  x = x1;                       /* Start x off at the first pixel */
2000498e:	b205      	sxth	r5, r0
  y = y1;                       /* Start y off at the first pixel */
20004990:	b20f      	sxth	r7, r1
  if (x2 >= x1)                 /* The x-values are increasing */
20004992:	4282      	cmp	r2, r0
20004994:	d313      	bcc.n	200049be <BSP_LCD_DrawLine+0x5a>
    xinc1 = 1;
20004996:	2201      	movs	r2, #1
20004998:	9202      	str	r2, [sp, #8]
  if (y2 >= y1)                 /* The y-values are increasing */
2000499a:	428b      	cmp	r3, r1
2000499c:	d313      	bcc.n	200049c6 <BSP_LCD_DrawLine+0x62>
    yinc1 = 1;
2000499e:	2301      	movs	r3, #1
200049a0:	9303      	str	r3, [sp, #12]
  if (deltax >= deltay)         /* There is at least one x-value for every y-value */
200049a2:	45da      	cmp	sl, fp
200049a4:	db13      	blt.n	200049ce <BSP_LCD_DrawLine+0x6a>
    num = deltax / 2;
200049a6:	eb0a 74da 	add.w	r4, sl, sl, lsr #31
200049aa:	f344 044f 	sbfx	r4, r4, #1, #16
200049ae:	9b02      	ldr	r3, [sp, #8]
200049b0:	9300      	str	r3, [sp, #0]
    yinc2 = 0;                  /* Don't change the y for every iteration */
200049b2:	2300      	movs	r3, #0
200049b4:	9302      	str	r3, [sp, #8]
    xinc1 = 0;                  /* Don't change the x when numerator >= denominator */
200049b6:	9301      	str	r3, [sp, #4]
  for (curpixel = 0; curpixel <= numpixels; curpixel++)
200049b8:	f04f 0900 	mov.w	r9, #0
200049bc:	e01e      	b.n	200049fc <BSP_LCD_DrawLine+0x98>
    xinc1 = -1;
200049be:	f04f 32ff 	mov.w	r2, #4294967295
200049c2:	9202      	str	r2, [sp, #8]
200049c4:	e7e9      	b.n	2000499a <BSP_LCD_DrawLine+0x36>
    yinc1 = -1;
200049c6:	f04f 33ff 	mov.w	r3, #4294967295
200049ca:	9303      	str	r3, [sp, #12]
200049cc:	e7e9      	b.n	200049a2 <BSP_LCD_DrawLine+0x3e>
    num = deltay / 2;
200049ce:	eb0b 74db 	add.w	r4, fp, fp, lsr #31
200049d2:	f344 044f 	sbfx	r4, r4, #1, #16
200049d6:	4653      	mov	r3, sl
    den = deltay;
200049d8:	46da      	mov	sl, fp
    numadd = deltax;
200049da:	469b      	mov	fp, r3
    num = deltay / 2;
200049dc:	9b03      	ldr	r3, [sp, #12]
200049de:	9301      	str	r3, [sp, #4]
    yinc1 = 0;                  /* Don't change the y when numerator >= denominator */
200049e0:	2300      	movs	r3, #0
200049e2:	9303      	str	r3, [sp, #12]
    xinc2 = 0;                  /* Don't change the x for every iteration */
200049e4:	9300      	str	r3, [sp, #0]
200049e6:	e7e7      	b.n	200049b8 <BSP_LCD_DrawLine+0x54>
    x += xinc2;                               /* Change the x as appropriate */
200049e8:	9b00      	ldr	r3, [sp, #0]
200049ea:	441d      	add	r5, r3
200049ec:	b22d      	sxth	r5, r5
    y += yinc2;                               /* Change the y as appropriate */
200049ee:	9b01      	ldr	r3, [sp, #4]
200049f0:	441f      	add	r7, r3
200049f2:	b23f      	sxth	r7, r7
  for (curpixel = 0; curpixel <= numpixels; curpixel++)
200049f4:	f109 0901 	add.w	r9, r9, #1
200049f8:	fa0f f989 	sxth.w	r9, r9
200049fc:	45ca      	cmp	sl, r9
200049fe:	db18      	blt.n	20004a32 <BSP_LCD_DrawLine+0xce>
    BSP_LCD_DrawPixel(x, y, DrawProp.TextColor);  /* Draw the current pixel */
20004a00:	fa1f f885 	uxth.w	r8, r5
20004a04:	b2be      	uxth	r6, r7
20004a06:	4b0c      	ldr	r3, [pc, #48]	; (20004a38 <BSP_LCD_DrawLine+0xd4>)
20004a08:	881a      	ldrh	r2, [r3, #0]
20004a0a:	4631      	mov	r1, r6
20004a0c:	4640      	mov	r0, r8
20004a0e:	f7ff ff5f 	bl	200048d0 <BSP_LCD_DrawPixel>
    num += numadd;                            /* Increase the numerator by the top of the fraction */
20004a12:	445c      	add	r4, fp
20004a14:	b2a3      	uxth	r3, r4
20004a16:	b21c      	sxth	r4, r3
    if (num >= den)                           /* Check if numerator >= denominator */
20004a18:	45a2      	cmp	sl, r4
20004a1a:	dce5      	bgt.n	200049e8 <BSP_LCD_DrawLine+0x84>
      num -= den;                             /* Calculate the new numerator value */
20004a1c:	eba3 040a 	sub.w	r4, r3, sl
20004a20:	b224      	sxth	r4, r4
      x += xinc1;                             /* Change the x as appropriate */
20004a22:	9b02      	ldr	r3, [sp, #8]
20004a24:	eb08 0503 	add.w	r5, r8, r3
20004a28:	b22d      	sxth	r5, r5
      y += yinc1;                             /* Change the y as appropriate */
20004a2a:	9b03      	ldr	r3, [sp, #12]
20004a2c:	18f7      	adds	r7, r6, r3
20004a2e:	b23f      	sxth	r7, r7
20004a30:	e7da      	b.n	200049e8 <BSP_LCD_DrawLine+0x84>
}
20004a32:	b005      	add	sp, #20
20004a34:	e8bd 8ff0 	ldmia.w	sp!, {r4, r5, r6, r7, r8, r9, sl, fp, pc}
20004a38:	2001f14c 	.word	0x2001f14c

20004a3c <BSP_LCD_DrawCircle>:
{
20004a3c:	e92d 4ff0 	stmdb	sp!, {r4, r5, r6, r7, r8, r9, sl, fp, lr}
20004a40:	b087      	sub	sp, #28
20004a42:	4682      	mov	sl, r0
20004a44:	468b      	mov	fp, r1
  D = 3 - (Radius << 1);
20004a46:	0053      	lsls	r3, r2, #1
20004a48:	f1c3 0303 	rsb	r3, r3, #3
20004a4c:	9301      	str	r3, [sp, #4]
  CurY = Radius;
20004a4e:	4691      	mov	r9, r2
  CurX = 0;
20004a50:	f04f 0800 	mov.w	r8, #0
  while (CurX <= CurY)
20004a54:	e005      	b.n	20004a62 <BSP_LCD_DrawCircle+0x26>
      D += (CurX << 2) + 6;
20004a56:	eb03 0388 	add.w	r3, r3, r8, lsl #2
20004a5a:	3306      	adds	r3, #6
20004a5c:	9301      	str	r3, [sp, #4]
    CurX++;
20004a5e:	f108 0801 	add.w	r8, r8, #1
  while (CurX <= CurY)
20004a62:	45c8      	cmp	r8, r9
20004a64:	d853      	bhi.n	20004b0e <BSP_LCD_DrawCircle+0xd2>
    BSP_LCD_DrawPixel((Xpos + CurX), (Ypos - CurY), DrawProp.TextColor);
20004a66:	fa1f f488 	uxth.w	r4, r8
20004a6a:	eb04 030a 	add.w	r3, r4, sl
20004a6e:	b29b      	uxth	r3, r3
20004a70:	fa1f f589 	uxth.w	r5, r9
20004a74:	ebab 0705 	sub.w	r7, fp, r5
20004a78:	b2bf      	uxth	r7, r7
20004a7a:	4e26      	ldr	r6, [pc, #152]	; (20004b14 <BSP_LCD_DrawCircle+0xd8>)
20004a7c:	8832      	ldrh	r2, [r6, #0]
20004a7e:	4639      	mov	r1, r7
20004a80:	9302      	str	r3, [sp, #8]
20004a82:	4618      	mov	r0, r3
20004a84:	f7ff ff24 	bl	200048d0 <BSP_LCD_DrawPixel>
    BSP_LCD_DrawPixel((Xpos - CurX), (Ypos - CurY), DrawProp.TextColor);
20004a88:	ebaa 0304 	sub.w	r3, sl, r4
20004a8c:	b29a      	uxth	r2, r3
20004a8e:	4610      	mov	r0, r2
20004a90:	8832      	ldrh	r2, [r6, #0]
20004a92:	4639      	mov	r1, r7
20004a94:	9003      	str	r0, [sp, #12]
20004a96:	f7ff ff1b 	bl	200048d0 <BSP_LCD_DrawPixel>
    BSP_LCD_DrawPixel((Xpos + CurY), (Ypos - CurX), DrawProp.TextColor);
20004a9a:	eb0a 0305 	add.w	r3, sl, r5
20004a9e:	b299      	uxth	r1, r3
20004aa0:	460f      	mov	r7, r1
20004aa2:	ebab 0304 	sub.w	r3, fp, r4
20004aa6:	b299      	uxth	r1, r3
20004aa8:	8832      	ldrh	r2, [r6, #0]
20004aaa:	9105      	str	r1, [sp, #20]
20004aac:	9704      	str	r7, [sp, #16]
20004aae:	4638      	mov	r0, r7
20004ab0:	f7ff ff0e 	bl	200048d0 <BSP_LCD_DrawPixel>
    BSP_LCD_DrawPixel((Xpos - CurY), (Ypos - CurX), DrawProp.TextColor);
20004ab4:	ebaa 0705 	sub.w	r7, sl, r5
20004ab8:	b2bf      	uxth	r7, r7
20004aba:	8832      	ldrh	r2, [r6, #0]
20004abc:	9905      	ldr	r1, [sp, #20]
20004abe:	4638      	mov	r0, r7
20004ac0:	f7ff ff06 	bl	200048d0 <BSP_LCD_DrawPixel>
    BSP_LCD_DrawPixel((Xpos + CurX), (Ypos + CurY), DrawProp.TextColor);
20004ac4:	445d      	add	r5, fp
20004ac6:	b2ad      	uxth	r5, r5
20004ac8:	8832      	ldrh	r2, [r6, #0]
20004aca:	4629      	mov	r1, r5
20004acc:	9802      	ldr	r0, [sp, #8]
20004ace:	f7ff feff 	bl	200048d0 <BSP_LCD_DrawPixel>
    BSP_LCD_DrawPixel((Xpos - CurX), (Ypos + CurY), DrawProp.TextColor);
20004ad2:	8832      	ldrh	r2, [r6, #0]
20004ad4:	4629      	mov	r1, r5
20004ad6:	9803      	ldr	r0, [sp, #12]
20004ad8:	f7ff fefa 	bl	200048d0 <BSP_LCD_DrawPixel>
    BSP_LCD_DrawPixel((Xpos + CurY), (Ypos + CurX), DrawProp.TextColor);
20004adc:	445c      	add	r4, fp
20004ade:	b2a4      	uxth	r4, r4
20004ae0:	8832      	ldrh	r2, [r6, #0]
20004ae2:	4621      	mov	r1, r4
20004ae4:	9804      	ldr	r0, [sp, #16]
20004ae6:	f7ff fef3 	bl	200048d0 <BSP_LCD_DrawPixel>
    BSP_LCD_DrawPixel((Xpos - CurY), (Ypos + CurX), DrawProp.TextColor);   
20004aea:	8832      	ldrh	r2, [r6, #0]
20004aec:	4621      	mov	r1, r4
20004aee:	4638      	mov	r0, r7
20004af0:	f7ff feee 	bl	200048d0 <BSP_LCD_DrawPixel>
    if (D < 0)
20004af4:	9b01      	ldr	r3, [sp, #4]
20004af6:	2b00      	cmp	r3, #0
20004af8:	dbad      	blt.n	20004a56 <BSP_LCD_DrawCircle+0x1a>
      D += ((CurX - CurY) << 2) + 10;
20004afa:	eba8 0309 	sub.w	r3, r8, r9
20004afe:	9a01      	ldr	r2, [sp, #4]
20004b00:	eb02 0383 	add.w	r3, r2, r3, lsl #2
20004b04:	330a      	adds	r3, #10
20004b06:	9301      	str	r3, [sp, #4]
      CurY--;
20004b08:	f109 39ff 	add.w	r9, r9, #4294967295
20004b0c:	e7a7      	b.n	20004a5e <BSP_LCD_DrawCircle+0x22>
}
20004b0e:	b007      	add	sp, #28
20004b10:	e8bd 8ff0 	ldmia.w	sp!, {r4, r5, r6, r7, r8, r9, sl, fp, pc}
20004b14:	2001f14c 	.word	0x2001f14c

20004b18 <BSP_LCD_DrawBitmap>:
{
20004b18:	b5f8      	push	{r3, r4, r5, r6, r7, lr}
20004b1a:	4605      	mov	r5, r0
20004b1c:	460e      	mov	r6, r1
20004b1e:	4614      	mov	r4, r2
  width = pBmp[18] + (pBmp[19] << 8) + (pBmp[20] << 16)  + (pBmp[21] << 24);
20004b20:	7c92      	ldrb	r2, [r2, #18]
20004b22:	7ce3      	ldrb	r3, [r4, #19]
20004b24:	eb02 2203 	add.w	r2, r2, r3, lsl #8
  height = pBmp[22] + (pBmp[23] << 8) + (pBmp[24] << 16)  + (pBmp[25] << 24);
20004b28:	7da3      	ldrb	r3, [r4, #22]
20004b2a:	7de7      	ldrb	r7, [r4, #23]
20004b2c:	eb03 2307 	add.w	r3, r3, r7, lsl #8
  SetDisplayWindow(Xpos, Ypos, width, height);
20004b30:	b29b      	uxth	r3, r3
20004b32:	b292      	uxth	r2, r2
20004b34:	f7ff fe66 	bl	20004804 <SetDisplayWindow>
  if(lcd_drv->DrawBitmap != NULL)
20004b38:	4b09      	ldr	r3, [pc, #36]	; (20004b60 <BSP_LCD_DrawBitmap+0x48>)
20004b3a:	681b      	ldr	r3, [r3, #0]
20004b3c:	6b1b      	ldr	r3, [r3, #48]	; 0x30
20004b3e:	b11b      	cbz	r3, 20004b48 <BSP_LCD_DrawBitmap+0x30>
    lcd_drv->DrawBitmap(Xpos, Ypos, pBmp);
20004b40:	4622      	mov	r2, r4
20004b42:	4631      	mov	r1, r6
20004b44:	4628      	mov	r0, r5
20004b46:	4798      	blx	r3
  SetDisplayWindow(0, 0, BSP_LCD_GetXSize(), BSP_LCD_GetYSize());
20004b48:	f7ff fe66 	bl	20004818 <BSP_LCD_GetXSize>
20004b4c:	4604      	mov	r4, r0
20004b4e:	f7ff fe6b 	bl	20004828 <BSP_LCD_GetYSize>
20004b52:	4603      	mov	r3, r0
20004b54:	4622      	mov	r2, r4
20004b56:	2100      	movs	r1, #0
20004b58:	4608      	mov	r0, r1
20004b5a:	f7ff fe53 	bl	20004804 <SetDisplayWindow>
20004b5e:	bdf8      	pop	{r3, r4, r5, r6, r7, pc}
20004b60:	20018074 	.word	0x20018074

20004b64 <DrawChar>:
{
20004b64:	e92d 4ff0 	stmdb	sp!, {r4, r5, r6, r7, r8, r9, sl, fp, lr}
20004b68:	b083      	sub	sp, #12
20004b6a:	9000      	str	r0, [sp, #0]
20004b6c:	9101      	str	r1, [sp, #4]
  height = DrawProp.pFont->Height;
20004b6e:	4b40      	ldr	r3, [pc, #256]	; (20004c70 <DrawChar+0x10c>)
20004b70:	689b      	ldr	r3, [r3, #8]
20004b72:	f8b3 a006 	ldrh.w	sl, [r3, #6]
  width  = DrawProp.pFont->Width;
20004b76:	f8b3 9004 	ldrh.w	r9, [r3, #4]
  *(uint16_t *) (bitmap + 2) = (uint16_t)(height*width*2+OFFSET_BITMAP);
20004b7a:	fb1a f109 	smulbb	r1, sl, r9
20004b7e:	311b      	adds	r1, #27
20004b80:	0049      	lsls	r1, r1, #1
20004b82:	4b3c      	ldr	r3, [pc, #240]	; (20004c74 <DrawChar+0x110>)
20004b84:	8059      	strh	r1, [r3, #2]
  *(uint16_t *) (bitmap + 4) = (uint16_t)((height*width*2+OFFSET_BITMAP)>>16);
20004b86:	fb09 f10a 	mul.w	r1, r9, sl
20004b8a:	311b      	adds	r1, #27
20004b8c:	f3c1 31cf 	ubfx	r1, r1, #15, #16
20004b90:	8099      	strh	r1, [r3, #4]
  *(uint16_t *) (bitmap + 10) = OFFSET_BITMAP;
20004b92:	2136      	movs	r1, #54	; 0x36
20004b94:	8159      	strh	r1, [r3, #10]
  *(uint16_t *) (bitmap + 18) = (uint16_t)(width);
20004b96:	f8a3 9012 	strh.w	r9, [r3, #18]
  *(uint16_t *) (bitmap + 20) = (uint16_t)((width)>>16);
20004b9a:	2100      	movs	r1, #0
20004b9c:	8299      	strh	r1, [r3, #20]
  *(uint16_t *) (bitmap + 22) = (uint16_t)(height);
20004b9e:	f8a3 a016 	strh.w	sl, [r3, #22]
  *(uint16_t *) (bitmap + 24) = (uint16_t)((height)>>16);
20004ba2:	8319      	strh	r1, [r3, #24]
  offset =  8 *((width + 7)/8) - width ;
20004ba4:	f109 0b07 	add.w	fp, r9, #7
20004ba8:	ea4f 0beb 	mov.w	fp, fp, asr #3
20004bac:	ea4f 08cb 	mov.w	r8, fp, lsl #3
20004bb0:	fa5f f888 	uxtb.w	r8, r8
20004bb4:	fa5f f389 	uxtb.w	r3, r9
20004bb8:	eba8 0803 	sub.w	r8, r8, r3
20004bbc:	fa5f f888 	uxtb.w	r8, r8
  uint32_t line = 0;
20004bc0:	460f      	mov	r7, r1
  for(counterh = 0; counterh < height; counterh++)
20004bc2:	468e      	mov	lr, r1
20004bc4:	e02b      	b.n	20004c1e <DrawChar+0xba>
        bitmap[index] = (uint8_t)DrawProp.BackColor;
20004bc6:	492a      	ldr	r1, [pc, #168]	; (20004c70 <DrawChar+0x10c>)
20004bc8:	6849      	ldr	r1, [r1, #4]
20004bca:	f8df c0a8 	ldr.w	ip, [pc, #168]	; 20004c74 <DrawChar+0x110>
20004bce:	f80c 1013 	strb.w	r1, [ip, r3, lsl #1]
        bitmap[index+1] = (uint8_t)(DrawProp.BackColor >> 8);
20004bd2:	3401      	adds	r4, #1
20004bd4:	f3c1 2107 	ubfx	r1, r1, #8, #8
20004bd8:	f80c 1004 	strb.w	r1, [ip, r4]
    for (counterw = 0; counterw < width; counterw++)
20004bdc:	3001      	adds	r0, #1
20004bde:	42a8      	cmp	r0, r5
20004be0:	d21b      	bcs.n	20004c1a <DrawChar+0xb6>
      index = (((height-counterh-1)*width)+(counterw))*2+OFFSET_BITMAP;
20004be2:	eba6 030e 	sub.w	r3, r6, lr
20004be6:	3b01      	subs	r3, #1
20004be8:	fb03 0305 	mla	r3, r3, r5, r0
20004bec:	331b      	adds	r3, #27
20004bee:	005c      	lsls	r4, r3, #1
      if(line & (1 << (width- counterw + offset- 1))) 
20004bf0:	1a29      	subs	r1, r5, r0
20004bf2:	4441      	add	r1, r8
20004bf4:	3901      	subs	r1, #1
20004bf6:	f04f 0c01 	mov.w	ip, #1
20004bfa:	fa0c f101 	lsl.w	r1, ip, r1
20004bfe:	420f      	tst	r7, r1
20004c00:	d0e1      	beq.n	20004bc6 <DrawChar+0x62>
        bitmap[index] = (uint8_t)DrawProp.TextColor;
20004c02:	491b      	ldr	r1, [pc, #108]	; (20004c70 <DrawChar+0x10c>)
20004c04:	6809      	ldr	r1, [r1, #0]
20004c06:	f8df c06c 	ldr.w	ip, [pc, #108]	; 20004c74 <DrawChar+0x110>
20004c0a:	f80c 1013 	strb.w	r1, [ip, r3, lsl #1]
        bitmap[index+1] = (uint8_t)(DrawProp.TextColor >> 8);
20004c0e:	3401      	adds	r4, #1
20004c10:	f3c1 2107 	ubfx	r1, r1, #8, #8
20004c14:	f80c 1004 	strb.w	r1, [ip, r4]
20004c18:	e7e0      	b.n	20004bdc <DrawChar+0x78>
  for(counterh = 0; counterh < height; counterh++)
20004c1a:	f10e 0e01 	add.w	lr, lr, #1
20004c1e:	4656      	mov	r6, sl
20004c20:	45d6      	cmp	lr, sl
20004c22:	d21d      	bcs.n	20004c60 <DrawChar+0xfc>
    pchar = ((uint8_t *)pChar + (width + 7)/8 * counterh);
20004c24:	fb0b f30e 	mul.w	r3, fp, lr
20004c28:	18d1      	adds	r1, r2, r3
    if(((width + 7)/8) == 3)
20004c2a:	464d      	mov	r5, r9
20004c2c:	f1a9 0011 	sub.w	r0, r9, #17
20004c30:	2807      	cmp	r0, #7
20004c32:	d806      	bhi.n	20004c42 <DrawChar+0xde>
      line =  (pchar[0]<< 16) | (pchar[1]<< 8) | pchar[2];
20004c34:	5cd0      	ldrb	r0, [r2, r3]
20004c36:	784f      	ldrb	r7, [r1, #1]
20004c38:	023f      	lsls	r7, r7, #8
20004c3a:	ea47 4700 	orr.w	r7, r7, r0, lsl #16
20004c3e:	7888      	ldrb	r0, [r1, #2]
20004c40:	4307      	orrs	r7, r0
    if(((width + 7)/8) == 2)
20004c42:	f1a9 0009 	sub.w	r0, r9, #9
20004c46:	2807      	cmp	r0, #7
20004c48:	d803      	bhi.n	20004c52 <DrawChar+0xee>
      line =  (pchar[0]<< 8) | pchar[1];
20004c4a:	5cd0      	ldrb	r0, [r2, r3]
20004c4c:	784f      	ldrb	r7, [r1, #1]
20004c4e:	ea47 2700 	orr.w	r7, r7, r0, lsl #8
    if(((width + 7)/8) == 1)
20004c52:	f109 31ff 	add.w	r1, r9, #4294967295
20004c56:	2907      	cmp	r1, #7
20004c58:	d800      	bhi.n	20004c5c <DrawChar+0xf8>
      line =  pchar[0];
20004c5a:	5cd7      	ldrb	r7, [r2, r3]
    for (counterw = 0; counterw < width; counterw++)
20004c5c:	2000      	movs	r0, #0
20004c5e:	e7be      	b.n	20004bde <DrawChar+0x7a>
  BSP_LCD_DrawBitmap(Xpos, Ypos, bitmap);
20004c60:	4a04      	ldr	r2, [pc, #16]	; (20004c74 <DrawChar+0x110>)
20004c62:	9901      	ldr	r1, [sp, #4]
20004c64:	9800      	ldr	r0, [sp, #0]
20004c66:	f7ff ff57 	bl	20004b18 <BSP_LCD_DrawBitmap>
}
20004c6a:	b003      	add	sp, #12
20004c6c:	e8bd 8ff0 	ldmia.w	sp!, {r4, r5, r6, r7, r8, r9, sl, fp, pc}
20004c70:	2001f14c 	.word	0x2001f14c
20004c74:	2001bea8 	.word	0x2001bea8

20004c78 <BSP_LCD_DisplayChar>:
{
20004c78:	b538      	push	{r3, r4, r5, lr}
  DrawChar(Xpos, Ypos, &DrawProp.pFont->table[(Ascii-' ') *\
20004c7a:	4b08      	ldr	r3, [pc, #32]	; (20004c9c <BSP_LCD_DisplayChar+0x24>)
20004c7c:	689b      	ldr	r3, [r3, #8]
20004c7e:	681c      	ldr	r4, [r3, #0]
20004c80:	f1a2 0520 	sub.w	r5, r2, #32
    DrawProp.pFont->Height * ((DrawProp.pFont->Width + 7) / 8)]);
20004c84:	88da      	ldrh	r2, [r3, #6]
  DrawChar(Xpos, Ypos, &DrawProp.pFont->table[(Ascii-' ') *\
20004c86:	fb02 f205 	mul.w	r2, r2, r5
    DrawProp.pFont->Height * ((DrawProp.pFont->Width + 7) / 8)]);
20004c8a:	889b      	ldrh	r3, [r3, #4]
20004c8c:	3307      	adds	r3, #7
20004c8e:	10db      	asrs	r3, r3, #3
  DrawChar(Xpos, Ypos, &DrawProp.pFont->table[(Ascii-' ') *\
20004c90:	fb03 4202 	mla	r2, r3, r2, r4
20004c94:	f7ff ff66 	bl	20004b64 <DrawChar>
20004c98:	bd38      	pop	{r3, r4, r5, pc}
20004c9a:	bf00      	nop
20004c9c:	2001f14c 	.word	0x2001f14c

20004ca0 <BSP_LCD_FillRect>:
{
20004ca0:	b530      	push	{r4, r5, lr}
20004ca2:	b083      	sub	sp, #12
  lcd_drv->FillRect(Xpos, Ypos, Width, Height, DrawProp.TextColor);
20004ca4:	4c04      	ldr	r4, [pc, #16]	; (20004cb8 <BSP_LCD_FillRect+0x18>)
20004ca6:	6824      	ldr	r4, [r4, #0]
20004ca8:	6ba4      	ldr	r4, [r4, #56]	; 0x38
20004caa:	4d04      	ldr	r5, [pc, #16]	; (20004cbc <BSP_LCD_FillRect+0x1c>)
20004cac:	882d      	ldrh	r5, [r5, #0]
20004cae:	9500      	str	r5, [sp, #0]
20004cb0:	47a0      	blx	r4
}
20004cb2:	b003      	add	sp, #12
20004cb4:	bd30      	pop	{r4, r5, pc}
20004cb6:	bf00      	nop
20004cb8:	20018074 	.word	0x20018074
20004cbc:	2001f14c 	.word	0x2001f14c

20004cc0 <BSP_LCD_FillCircle>:
{
20004cc0:	e92d 4ff0 	stmdb	sp!, {r4, r5, r6, r7, r8, r9, sl, fp, lr}
20004cc4:	b083      	sub	sp, #12
20004cc6:	4682      	mov	sl, r0
20004cc8:	4689      	mov	r9, r1
20004cca:	9201      	str	r2, [sp, #4]
  D = 3 - (Radius << 1);
20004ccc:	0056      	lsls	r6, r2, #1
20004cce:	f1c6 0603 	rsb	r6, r6, #3
  CurY = Radius;
20004cd2:	4615      	mov	r5, r2
  BSP_LCD_SetTextColor(DrawProp.TextColor);
20004cd4:	4b27      	ldr	r3, [pc, #156]	; (20004d74 <BSP_LCD_FillCircle+0xb4>)
20004cd6:	8818      	ldrh	r0, [r3, #0]
20004cd8:	f7ff fdae 	bl	20004838 <BSP_LCD_SetTextColor>
  CurX = 0;
20004cdc:	2400      	movs	r4, #0
  while (CurX <= CurY)
20004cde:	e01f      	b.n	20004d20 <BSP_LCD_FillCircle+0x60>
      BSP_LCD_DrawHLine(Xpos - CurY, Ypos + CurX, 2*CurY);
20004ce0:	b2af      	uxth	r7, r5
20004ce2:	ebaa 0b07 	sub.w	fp, sl, r7
20004ce6:	fa1f fb8b 	uxth.w	fp, fp
20004cea:	fa1f f884 	uxth.w	r8, r4
20004cee:	007f      	lsls	r7, r7, #1
20004cf0:	b2bf      	uxth	r7, r7
20004cf2:	eb08 0109 	add.w	r1, r8, r9
20004cf6:	463a      	mov	r2, r7
20004cf8:	b289      	uxth	r1, r1
20004cfa:	4658      	mov	r0, fp
20004cfc:	f7ff fdf2 	bl	200048e4 <BSP_LCD_DrawHLine>
      BSP_LCD_DrawHLine(Xpos - CurY, Ypos - CurX, 2*CurY);
20004d00:	eba9 0108 	sub.w	r1, r9, r8
20004d04:	463a      	mov	r2, r7
20004d06:	b289      	uxth	r1, r1
20004d08:	4658      	mov	r0, fp
20004d0a:	f7ff fdeb 	bl	200048e4 <BSP_LCD_DrawHLine>
20004d0e:	e00b      	b.n	20004d28 <BSP_LCD_FillCircle+0x68>
    if (D < 0)
20004d10:	2e00      	cmp	r6, #0
20004d12:	db23      	blt.n	20004d5c <BSP_LCD_FillCircle+0x9c>
      D += ((CurX - CurY) << 2) + 10;
20004d14:	1b63      	subs	r3, r4, r5
20004d16:	eb06 0683 	add.w	r6, r6, r3, lsl #2
20004d1a:	360a      	adds	r6, #10
      CurY--;
20004d1c:	3d01      	subs	r5, #1
    CurX++;
20004d1e:	3401      	adds	r4, #1
  while (CurX <= CurY)
20004d20:	42ac      	cmp	r4, r5
20004d22:	d81f      	bhi.n	20004d64 <BSP_LCD_FillCircle+0xa4>
    if(CurY > 0) 
20004d24:	2d00      	cmp	r5, #0
20004d26:	d1db      	bne.n	20004ce0 <BSP_LCD_FillCircle+0x20>
    if(CurX > 0) 
20004d28:	2c00      	cmp	r4, #0
20004d2a:	d0f1      	beq.n	20004d10 <BSP_LCD_FillCircle+0x50>
      BSP_LCD_DrawHLine(Xpos - CurX, Ypos - CurY, 2*CurX);
20004d2c:	b2a7      	uxth	r7, r4
20004d2e:	ebaa 0b07 	sub.w	fp, sl, r7
20004d32:	fa1f fb8b 	uxth.w	fp, fp
20004d36:	fa1f f885 	uxth.w	r8, r5
20004d3a:	007f      	lsls	r7, r7, #1
20004d3c:	b2bf      	uxth	r7, r7
20004d3e:	eba9 0108 	sub.w	r1, r9, r8
20004d42:	463a      	mov	r2, r7
20004d44:	b289      	uxth	r1, r1
20004d46:	4658      	mov	r0, fp
20004d48:	f7ff fdcc 	bl	200048e4 <BSP_LCD_DrawHLine>
      BSP_LCD_DrawHLine(Xpos - CurX, Ypos + CurY, 2*CurX);
20004d4c:	eb09 0108 	add.w	r1, r9, r8
20004d50:	463a      	mov	r2, r7
20004d52:	b289      	uxth	r1, r1
20004d54:	4658      	mov	r0, fp
20004d56:	f7ff fdc5 	bl	200048e4 <BSP_LCD_DrawHLine>
20004d5a:	e7d9      	b.n	20004d10 <BSP_LCD_FillCircle+0x50>
      D += (CurX << 2) + 6;
20004d5c:	eb06 0684 	add.w	r6, r6, r4, lsl #2
20004d60:	3606      	adds	r6, #6
20004d62:	e7dc      	b.n	20004d1e <BSP_LCD_FillCircle+0x5e>
  BSP_LCD_DrawCircle(Xpos, Ypos, Radius);
20004d64:	9a01      	ldr	r2, [sp, #4]
20004d66:	4649      	mov	r1, r9
20004d68:	4650      	mov	r0, sl
20004d6a:	f7ff fe67 	bl	20004a3c <BSP_LCD_DrawCircle>
}
20004d6e:	b003      	add	sp, #12
20004d70:	e8bd 8ff0 	ldmia.w	sp!, {r4, r5, r6, r7, r8, r9, sl, fp, pc}
20004d74:	2001f14c 	.word	0x2001f14c

20004d78 <BSP_LCD_DisplayOn>:
{
20004d78:	b508      	push	{r3, lr}
  lcd_drv->DisplayOn();
20004d7a:	4b02      	ldr	r3, [pc, #8]	; (20004d84 <BSP_LCD_DisplayOn+0xc>)
20004d7c:	681b      	ldr	r3, [r3, #0]
20004d7e:	689b      	ldr	r3, [r3, #8]
20004d80:	4798      	blx	r3
20004d82:	bd08      	pop	{r3, pc}
20004d84:	20018074 	.word	0x20018074

20004d88 <BSP_LCD_DisplayOff>:
{
20004d88:	b508      	push	{r3, lr}
  lcd_drv->DisplayOff();
20004d8a:	4b02      	ldr	r3, [pc, #8]	; (20004d94 <BSP_LCD_DisplayOff+0xc>)
20004d8c:	681b      	ldr	r3, [r3, #0]
20004d8e:	68db      	ldr	r3, [r3, #12]
20004d90:	4798      	blx	r3
20004d92:	bd08      	pop	{r3, pc}
20004d94:	20018074 	.word	0x20018074

20004d98 <BSP_LCD_ReadID>:
  }  
}

#ifdef   LCD_DRVTYPE_V1_1
uint16_t BSP_LCD_ReadID(void)
{
20004d98:	b508      	push	{r3, lr}
  if(lcd_drv->ReadID)
20004d9a:	4b04      	ldr	r3, [pc, #16]	; (20004dac <BSP_LCD_ReadID+0x14>)
20004d9c:	681b      	ldr	r3, [r3, #0]
20004d9e:	685b      	ldr	r3, [r3, #4]
20004da0:	b10b      	cbz	r3, 20004da6 <BSP_LCD_ReadID+0xe>
    return lcd_drv->ReadID();
20004da2:	4798      	blx	r3
20004da4:	bd08      	pop	{r3, pc}
  else
    return 0;
20004da6:	2000      	movs	r0, #0
}
20004da8:	bd08      	pop	{r3, pc}
20004daa:	bf00      	nop
20004dac:	20018074 	.word	0x20018074

20004db0 <BSP_LCD_ReadPixel>:

uint16_t BSP_LCD_ReadPixel(uint16_t Xpos, uint16_t Ypos)
{
20004db0:	b508      	push	{r3, lr}
  if(lcd_drv->ReadPixel != NULL)
20004db2:	4b04      	ldr	r3, [pc, #16]	; (20004dc4 <BSP_LCD_ReadPixel+0x14>)
20004db4:	681b      	ldr	r3, [r3, #0]
20004db6:	699b      	ldr	r3, [r3, #24]
20004db8:	b10b      	cbz	r3, 20004dbe <BSP_LCD_ReadPixel+0xe>
    return lcd_drv->ReadPixel(Xpos, Ypos);
20004dba:	4798      	blx	r3
20004dbc:	bd08      	pop	{r3, pc}
  else
    return 0;
20004dbe:	2000      	movs	r0, #0
}
20004dc0:	bd08      	pop	{r3, pc}
20004dc2:	bf00      	nop
20004dc4:	20018074 	.word	0x20018074

20004dc8 <BSP_LCD_DrawRGB16Image>:

void BSP_LCD_DrawRGB16Image(uint16_t Xpos, uint16_t Ypos, uint16_t Xsize, uint16_t Ysize, uint16_t *pData)
{
20004dc8:	b530      	push	{r4, r5, lr}
20004dca:	b083      	sub	sp, #12
  lcd_drv->DrawRGBImage(Xpos, Ypos, Xsize, Ysize, (uint8_t *)pData);
20004dcc:	4c03      	ldr	r4, [pc, #12]	; (20004ddc <BSP_LCD_DrawRGB16Image+0x14>)
20004dce:	6824      	ldr	r4, [r4, #0]
20004dd0:	6b64      	ldr	r4, [r4, #52]	; 0x34
20004dd2:	9d06      	ldr	r5, [sp, #24]
20004dd4:	9500      	str	r5, [sp, #0]
20004dd6:	47a0      	blx	r4
}
20004dd8:	b003      	add	sp, #12
20004dda:	bd30      	pop	{r4, r5, pc}
20004ddc:	20018074 	.word	0x20018074

20004de0 <BSP_LCD_ReadRGB16Image>:

void BSP_LCD_ReadRGB16Image(uint16_t Xpos, uint16_t Ypos, uint16_t Xsize, uint16_t Ysize, uint16_t *pData)
{
20004de0:	b530      	push	{r4, r5, lr}
20004de2:	b083      	sub	sp, #12
  lcd_drv->ReadRGBImage(Xpos, Ypos, Xsize, Ysize, (uint8_t *)pData);
20004de4:	4c03      	ldr	r4, [pc, #12]	; (20004df4 <BSP_LCD_ReadRGB16Image+0x14>)
20004de6:	6824      	ldr	r4, [r4, #0]
20004de8:	6be4      	ldr	r4, [r4, #60]	; 0x3c
20004dea:	9d06      	ldr	r5, [sp, #24]
20004dec:	9500      	str	r5, [sp, #0]
20004dee:	47a0      	blx	r4
}
20004df0:	b003      	add	sp, #12
20004df2:	bd30      	pop	{r4, r5, pc}
20004df4:	20018074 	.word	0x20018074

20004df8 <MX_GPIO_Init>:
        * Output
        * EVENT_OUT
        * EXTI
*/
static void MX_GPIO_Init(void)
{
20004df8:	b086      	sub	sp, #24

  /* GPIO Ports Clock Enable */
  __HAL_RCC_GPIOC_CLK_ENABLE();
20004dfa:	2200      	movs	r2, #0
20004dfc:	9200      	str	r2, [sp, #0]
20004dfe:	4b1f      	ldr	r3, [pc, #124]	; (20004e7c <MX_GPIO_Init+0x84>)
20004e00:	6b19      	ldr	r1, [r3, #48]	; 0x30
20004e02:	f041 0104 	orr.w	r1, r1, #4
20004e06:	6319      	str	r1, [r3, #48]	; 0x30
20004e08:	6b19      	ldr	r1, [r3, #48]	; 0x30
20004e0a:	f001 0104 	and.w	r1, r1, #4
20004e0e:	9100      	str	r1, [sp, #0]
20004e10:	9900      	ldr	r1, [sp, #0]
  __HAL_RCC_GPIOH_CLK_ENABLE();
20004e12:	9201      	str	r2, [sp, #4]
20004e14:	6b19      	ldr	r1, [r3, #48]	; 0x30
20004e16:	f041 0180 	orr.w	r1, r1, #128	; 0x80
20004e1a:	6319      	str	r1, [r3, #48]	; 0x30
20004e1c:	6b19      	ldr	r1, [r3, #48]	; 0x30
20004e1e:	f001 0180 	and.w	r1, r1, #128	; 0x80
20004e22:	9101      	str	r1, [sp, #4]
20004e24:	9901      	ldr	r1, [sp, #4]
  __HAL_RCC_GPIOE_CLK_ENABLE();
20004e26:	9202      	str	r2, [sp, #8]
20004e28:	6b19      	ldr	r1, [r3, #48]	; 0x30
20004e2a:	f041 0110 	orr.w	r1, r1, #16
20004e2e:	6319      	str	r1, [r3, #48]	; 0x30
20004e30:	6b19      	ldr	r1, [r3, #48]	; 0x30
20004e32:	f001 0110 	and.w	r1, r1, #16
20004e36:	9102      	str	r1, [sp, #8]
20004e38:	9902      	ldr	r1, [sp, #8]
  __HAL_RCC_GPIOD_CLK_ENABLE();
20004e3a:	9203      	str	r2, [sp, #12]
20004e3c:	6b19      	ldr	r1, [r3, #48]	; 0x30
20004e3e:	f041 0108 	orr.w	r1, r1, #8
20004e42:	6319      	str	r1, [r3, #48]	; 0x30
20004e44:	6b19      	ldr	r1, [r3, #48]	; 0x30
20004e46:	f001 0108 	and.w	r1, r1, #8
20004e4a:	9103      	str	r1, [sp, #12]
20004e4c:	9903      	ldr	r1, [sp, #12]
  __HAL_RCC_GPIOA_CLK_ENABLE();
20004e4e:	9204      	str	r2, [sp, #16]
20004e50:	6b19      	ldr	r1, [r3, #48]	; 0x30
20004e52:	f041 0101 	orr.w	r1, r1, #1
20004e56:	6319      	str	r1, [r3, #48]	; 0x30
20004e58:	6b19      	ldr	r1, [r3, #48]	; 0x30
20004e5a:	f001 0101 	and.w	r1, r1, #1
20004e5e:	9104      	str	r1, [sp, #16]
20004e60:	9904      	ldr	r1, [sp, #16]
  __HAL_RCC_GPIOB_CLK_ENABLE();
20004e62:	9205      	str	r2, [sp, #20]
20004e64:	6b1a      	ldr	r2, [r3, #48]	; 0x30
20004e66:	f042 0202 	orr.w	r2, r2, #2
20004e6a:	631a      	str	r2, [r3, #48]	; 0x30
20004e6c:	6b1b      	ldr	r3, [r3, #48]	; 0x30
20004e6e:	f003 0302 	and.w	r3, r3, #2
20004e72:	9305      	str	r3, [sp, #20]
20004e74:	9b05      	ldr	r3, [sp, #20]

}
20004e76:	b006      	add	sp, #24
20004e78:	4770      	bx	lr
20004e7a:	bf00      	nop
20004e7c:	40023800 	.word	0x40023800

20004e80 <StartLopriority>:
* @param argument: Not used
* @retval None
*/
/* USER CODE END Header_StartLopriority */
__weak void StartLopriority(void const * argument)
{
20004e80:	b508      	push	{r3, lr}
  /* USER CODE BEGIN StartLopriority */
  /* Infinite loop */
  for(;;)
  {
    osDelay(1);
20004e82:	2001      	movs	r0, #1
20004e84:	f7fc fbb5 	bl	200015f2 <osDelay>
20004e88:	e7fb      	b.n	20004e82 <StartLopriority+0x2>
	...

20004e8c <HAL_TIM_PeriodElapsedCallback>:
  * a global variable "uwTick" used as application time base.
  * @param  htim : TIM handle
  * @retval None
  */
void HAL_TIM_PeriodElapsedCallback(TIM_HandleTypeDef *htim)
{
20004e8c:	b508      	push	{r3, lr}
  /* USER CODE BEGIN Callback 0 */

  /* USER CODE END Callback 0 */
  if (htim->Instance == TIM6) {
20004e8e:	6802      	ldr	r2, [r0, #0]
20004e90:	4b03      	ldr	r3, [pc, #12]	; (20004ea0 <HAL_TIM_PeriodElapsedCallback+0x14>)
20004e92:	429a      	cmp	r2, r3
20004e94:	d000      	beq.n	20004e98 <HAL_TIM_PeriodElapsedCallback+0xc>
20004e96:	bd08      	pop	{r3, pc}
    HAL_IncTick();
20004e98:	f7fb fb8c 	bl	200005b4 <HAL_IncTick>
  }
  /* USER CODE BEGIN Callback 1 */

  /* USER CODE END Callback 1 */
}
20004e9c:	e7fb      	b.n	20004e96 <HAL_TIM_PeriodElapsedCallback+0xa>
20004e9e:	bf00      	nop
20004ea0:	40001000 	.word	0x40001000

20004ea4 <_Error_Handler>:
  * @param  file: The file name as string.
  * @param  line: The line in file as a number.
  * @retval None
  */
void _Error_Handler(char *file, int line)
{
20004ea4:	e7fe      	b.n	20004ea4 <_Error_Handler>
	...

20004ea8 <MX_RTC_Init>:
{
20004ea8:	b508      	push	{r3, lr}
  hrtc.Instance = RTC;
20004eaa:	480a      	ldr	r0, [pc, #40]	; (20004ed4 <MX_RTC_Init+0x2c>)
20004eac:	4b0a      	ldr	r3, [pc, #40]	; (20004ed8 <MX_RTC_Init+0x30>)
20004eae:	6003      	str	r3, [r0, #0]
  hrtc.Init.HourFormat = RTC_HOURFORMAT_24;
20004eb0:	2300      	movs	r3, #0
20004eb2:	6043      	str	r3, [r0, #4]
  hrtc.Init.AsynchPrediv = 127;
20004eb4:	227f      	movs	r2, #127	; 0x7f
20004eb6:	6082      	str	r2, [r0, #8]
  hrtc.Init.SynchPrediv = 255;
20004eb8:	22ff      	movs	r2, #255	; 0xff
20004eba:	60c2      	str	r2, [r0, #12]
  hrtc.Init.OutPut = RTC_OUTPUT_DISABLE;
20004ebc:	6103      	str	r3, [r0, #16]
  hrtc.Init.OutPutPolarity = RTC_OUTPUT_POLARITY_HIGH;
20004ebe:	6143      	str	r3, [r0, #20]
  hrtc.Init.OutPutType = RTC_OUTPUT_TYPE_OPENDRAIN;
20004ec0:	6183      	str	r3, [r0, #24]
  if (HAL_RTC_Init(&hrtc) != HAL_OK)
20004ec2:	f7fc f8f0 	bl	200010a6 <HAL_RTC_Init>
20004ec6:	b900      	cbnz	r0, 20004eca <MX_RTC_Init+0x22>
20004ec8:	bd08      	pop	{r3, pc}
    _Error_Handler(__FILE__, __LINE__);
20004eca:	f44f 718a 	mov.w	r1, #276	; 0x114
20004ece:	4803      	ldr	r0, [pc, #12]	; (20004edc <MX_RTC_Init+0x34>)
20004ed0:	f7ff ffe8 	bl	20004ea4 <_Error_Handler>
20004ed4:	2001f1b0 	.word	0x2001f1b0
20004ed8:	40002800 	.word	0x40002800
20004edc:	2000d11c 	.word	0x2000d11c

20004ee0 <MX_FSMC_Init>:
{
20004ee0:	b500      	push	{lr}
20004ee2:	b089      	sub	sp, #36	; 0x24
  hsram1.Instance = FSMC_NORSRAM_DEVICE;
20004ee4:	4818      	ldr	r0, [pc, #96]	; (20004f48 <MX_FSMC_Init+0x68>)
20004ee6:	f04f 4320 	mov.w	r3, #2684354560	; 0xa0000000
20004eea:	6003      	str	r3, [r0, #0]
  hsram1.Extended = FSMC_NORSRAM_EXTENDED_DEVICE;
20004eec:	f503 7382 	add.w	r3, r3, #260	; 0x104
20004ef0:	6043      	str	r3, [r0, #4]
  hsram1.Init.NSBank = FSMC_NORSRAM_BANK1;
20004ef2:	2200      	movs	r2, #0
20004ef4:	6082      	str	r2, [r0, #8]
  hsram1.Init.DataAddressMux = FSMC_DATA_ADDRESS_MUX_DISABLE;
20004ef6:	60c2      	str	r2, [r0, #12]
  hsram1.Init.MemoryType = FSMC_MEMORY_TYPE_SRAM;
20004ef8:	6102      	str	r2, [r0, #16]
  hsram1.Init.MemoryDataWidth = FSMC_NORSRAM_MEM_BUS_WIDTH_8;
20004efa:	6142      	str	r2, [r0, #20]
  hsram1.Init.BurstAccessMode = FSMC_BURST_ACCESS_MODE_DISABLE;
20004efc:	6182      	str	r2, [r0, #24]
  hsram1.Init.WaitSignalPolarity = FSMC_WAIT_SIGNAL_POLARITY_LOW;
20004efe:	61c2      	str	r2, [r0, #28]
  hsram1.Init.WrapMode = FSMC_WRAP_MODE_DISABLE;
20004f00:	6202      	str	r2, [r0, #32]
  hsram1.Init.WaitSignalActive = FSMC_WAIT_TIMING_BEFORE_WS;
20004f02:	6242      	str	r2, [r0, #36]	; 0x24
  hsram1.Init.WriteOperation = FSMC_WRITE_OPERATION_ENABLE;
20004f04:	f44f 5380 	mov.w	r3, #4096	; 0x1000
20004f08:	6283      	str	r3, [r0, #40]	; 0x28
  hsram1.Init.WaitSignal = FSMC_WAIT_SIGNAL_DISABLE;
20004f0a:	62c2      	str	r2, [r0, #44]	; 0x2c
  hsram1.Init.ExtendedMode = FSMC_EXTENDED_MODE_DISABLE;
20004f0c:	6302      	str	r2, [r0, #48]	; 0x30
  hsram1.Init.AsynchronousWait = FSMC_ASYNCHRONOUS_WAIT_DISABLE;
20004f0e:	6342      	str	r2, [r0, #52]	; 0x34
  hsram1.Init.WriteBurst = FSMC_WRITE_BURST_DISABLE;
20004f10:	6382      	str	r2, [r0, #56]	; 0x38
  hsram1.Init.PageSize = FSMC_PAGE_SIZE_NONE;
20004f12:	6442      	str	r2, [r0, #68]	; 0x44
  Timing.AddressSetupTime = 5;
20004f14:	2305      	movs	r3, #5
20004f16:	9301      	str	r3, [sp, #4]
  Timing.AddressHoldTime = 15;
20004f18:	230f      	movs	r3, #15
20004f1a:	9302      	str	r3, [sp, #8]
  Timing.DataSetupTime = 8;
20004f1c:	2308      	movs	r3, #8
20004f1e:	9303      	str	r3, [sp, #12]
  Timing.BusTurnAroundDuration = 1;
20004f20:	2301      	movs	r3, #1
20004f22:	9304      	str	r3, [sp, #16]
  Timing.CLKDivision = 16;
20004f24:	2310      	movs	r3, #16
20004f26:	9305      	str	r3, [sp, #20]
  Timing.DataLatency = 17;
20004f28:	2311      	movs	r3, #17
20004f2a:	9306      	str	r3, [sp, #24]
  Timing.AccessMode = FSMC_ACCESS_MODE_A;
20004f2c:	9207      	str	r2, [sp, #28]
  if (HAL_SRAM_Init(&hsram1, &Timing, NULL) != HAL_OK)
20004f2e:	a901      	add	r1, sp, #4
20004f30:	f7fc f91b 	bl	2000116a <HAL_SRAM_Init>
20004f34:	b910      	cbnz	r0, 20004f3c <MX_FSMC_Init+0x5c>
}
20004f36:	b009      	add	sp, #36	; 0x24
20004f38:	f85d fb04 	ldr.w	pc, [sp], #4
    _Error_Handler(__FILE__, __LINE__);
20004f3c:	f240 1151 	movw	r1, #337	; 0x151
20004f40:	4802      	ldr	r0, [pc, #8]	; (20004f4c <MX_FSMC_Init+0x6c>)
20004f42:	f7ff ffaf 	bl	20004ea4 <_Error_Handler>
20004f46:	bf00      	nop
20004f48:	2001f15c 	.word	0x2001f15c
20004f4c:	2000d11c 	.word	0x2000d11c

20004f50 <SystemClock_Config>:
{
20004f50:	b500      	push	{lr}
20004f52:	b099      	sub	sp, #100	; 0x64
  __HAL_RCC_PWR_CLK_ENABLE();
20004f54:	2300      	movs	r3, #0
20004f56:	9301      	str	r3, [sp, #4]
20004f58:	4a31      	ldr	r2, [pc, #196]	; (20005020 <SystemClock_Config+0xd0>)
20004f5a:	6c11      	ldr	r1, [r2, #64]	; 0x40
20004f5c:	f041 5180 	orr.w	r1, r1, #268435456	; 0x10000000
20004f60:	6411      	str	r1, [r2, #64]	; 0x40
20004f62:	6c12      	ldr	r2, [r2, #64]	; 0x40
20004f64:	f002 5280 	and.w	r2, r2, #268435456	; 0x10000000
20004f68:	9201      	str	r2, [sp, #4]
20004f6a:	9a01      	ldr	r2, [sp, #4]
  __HAL_PWR_VOLTAGESCALING_CONFIG(PWR_REGULATOR_VOLTAGE_SCALE1);
20004f6c:	9302      	str	r3, [sp, #8]
20004f6e:	4a2d      	ldr	r2, [pc, #180]	; (20005024 <SystemClock_Config+0xd4>)
20004f70:	6811      	ldr	r1, [r2, #0]
20004f72:	f441 4180 	orr.w	r1, r1, #16384	; 0x4000
20004f76:	6011      	str	r1, [r2, #0]
20004f78:	6812      	ldr	r2, [r2, #0]
20004f7a:	f402 4280 	and.w	r2, r2, #16384	; 0x4000
20004f7e:	9202      	str	r2, [sp, #8]
20004f80:	9a02      	ldr	r2, [sp, #8]
  RCC_OscInitStruct.OscillatorType = RCC_OSCILLATORTYPE_HSI|RCC_OSCILLATORTYPE_LSE;
20004f82:	2206      	movs	r2, #6
20004f84:	920c      	str	r2, [sp, #48]	; 0x30
  RCC_OscInitStruct.LSEState = RCC_LSE_ON;
20004f86:	2201      	movs	r2, #1
20004f88:	920e      	str	r2, [sp, #56]	; 0x38
  RCC_OscInitStruct.HSIState = RCC_HSI_ON;
20004f8a:	920f      	str	r2, [sp, #60]	; 0x3c
  RCC_OscInitStruct.HSICalibrationValue = 16;
20004f8c:	2210      	movs	r2, #16
20004f8e:	9210      	str	r2, [sp, #64]	; 0x40
  RCC_OscInitStruct.PLL.PLLState = RCC_PLL_ON;
20004f90:	2202      	movs	r2, #2
20004f92:	9212      	str	r2, [sp, #72]	; 0x48
  RCC_OscInitStruct.PLL.PLLSource = RCC_PLLSOURCE_HSI;
20004f94:	9313      	str	r3, [sp, #76]	; 0x4c
  RCC_OscInitStruct.PLL.PLLM = 8;
20004f96:	2308      	movs	r3, #8
20004f98:	9314      	str	r3, [sp, #80]	; 0x50
  RCC_OscInitStruct.PLL.PLLN = 168;
20004f9a:	23a8      	movs	r3, #168	; 0xa8
20004f9c:	9315      	str	r3, [sp, #84]	; 0x54
  RCC_OscInitStruct.PLL.PLLP = RCC_PLLP_DIV2;
20004f9e:	9216      	str	r2, [sp, #88]	; 0x58
  RCC_OscInitStruct.PLL.PLLQ = 4;
20004fa0:	2304      	movs	r3, #4
20004fa2:	9317      	str	r3, [sp, #92]	; 0x5c
  if (HAL_RCC_OscConfig(&RCC_OscInitStruct) != HAL_OK)
20004fa4:	a80c      	add	r0, sp, #48	; 0x30
20004fa6:	f7fb fc87 	bl	200008b8 <HAL_RCC_OscConfig>
20004faa:	bb68      	cbnz	r0, 20005008 <SystemClock_Config+0xb8>
  RCC_ClkInitStruct.ClockType = RCC_CLOCKTYPE_HCLK|RCC_CLOCKTYPE_SYSCLK
20004fac:	230f      	movs	r3, #15
20004fae:	9307      	str	r3, [sp, #28]
  RCC_ClkInitStruct.SYSCLKSource = RCC_SYSCLKSOURCE_PLLCLK;
20004fb0:	2302      	movs	r3, #2
20004fb2:	9308      	str	r3, [sp, #32]
  RCC_ClkInitStruct.AHBCLKDivider = RCC_SYSCLK_DIV1;
20004fb4:	2300      	movs	r3, #0
20004fb6:	9309      	str	r3, [sp, #36]	; 0x24
  RCC_ClkInitStruct.APB1CLKDivider = RCC_HCLK_DIV4;
20004fb8:	f44f 53a0 	mov.w	r3, #5120	; 0x1400
20004fbc:	930a      	str	r3, [sp, #40]	; 0x28
  RCC_ClkInitStruct.APB2CLKDivider = RCC_HCLK_DIV2;
20004fbe:	f44f 5380 	mov.w	r3, #4096	; 0x1000
20004fc2:	930b      	str	r3, [sp, #44]	; 0x2c
  if (HAL_RCC_ClockConfig(&RCC_ClkInitStruct, FLASH_LATENCY_5) != HAL_OK)
20004fc4:	2105      	movs	r1, #5
20004fc6:	a807      	add	r0, sp, #28
20004fc8:	f7fb feac 	bl	20000d24 <HAL_RCC_ClockConfig>
20004fcc:	bb00      	cbnz	r0, 20005010 <SystemClock_Config+0xc0>
  PeriphClkInitStruct.PeriphClockSelection = RCC_PERIPHCLK_RTC;
20004fce:	2302      	movs	r3, #2
20004fd0:	9303      	str	r3, [sp, #12]
  PeriphClkInitStruct.RTCClockSelection = RCC_RTCCLKSOURCE_LSE;
20004fd2:	f44f 7380 	mov.w	r3, #256	; 0x100
20004fd6:	9306      	str	r3, [sp, #24]
  if (HAL_RCCEx_PeriphCLKConfig(&PeriphClkInitStruct) != HAL_OK)
20004fd8:	a803      	add	r0, sp, #12
20004fda:	f7fb ff83 	bl	20000ee4 <HAL_RCCEx_PeriphCLKConfig>
20004fde:	b9d8      	cbnz	r0, 20005018 <SystemClock_Config+0xc8>
  HAL_SYSTICK_Config(HAL_RCC_GetHCLKFreq()/1000);
20004fe0:	f7fb ff4c 	bl	20000e7c <HAL_RCC_GetHCLKFreq>
20004fe4:	4b10      	ldr	r3, [pc, #64]	; (20005028 <SystemClock_Config+0xd8>)
20004fe6:	fba3 3000 	umull	r3, r0, r3, r0
20004fea:	0980      	lsrs	r0, r0, #6
20004fec:	f7fb fb58 	bl	200006a0 <HAL_SYSTICK_Config>
  HAL_SYSTICK_CLKSourceConfig(SYSTICK_CLKSOURCE_HCLK);
20004ff0:	2004      	movs	r0, #4
20004ff2:	f7fb fb6b 	bl	200006cc <HAL_SYSTICK_CLKSourceConfig>
  HAL_NVIC_SetPriority(SysTick_IRQn, 15, 0);
20004ff6:	2200      	movs	r2, #0
20004ff8:	210f      	movs	r1, #15
20004ffa:	f04f 30ff 	mov.w	r0, #4294967295
20004ffe:	f7fb fb11 	bl	20000624 <HAL_NVIC_SetPriority>
}
20005002:	b019      	add	sp, #100	; 0x64
20005004:	f85d fb04 	ldr.w	pc, [sp], #4
    _Error_Handler(__FILE__, __LINE__);
20005008:	21d9      	movs	r1, #217	; 0xd9
2000500a:	4808      	ldr	r0, [pc, #32]	; (2000502c <SystemClock_Config+0xdc>)
2000500c:	f7ff ff4a 	bl	20004ea4 <_Error_Handler>
    _Error_Handler(__FILE__, __LINE__);
20005010:	21e7      	movs	r1, #231	; 0xe7
20005012:	4806      	ldr	r0, [pc, #24]	; (2000502c <SystemClock_Config+0xdc>)
20005014:	f7ff ff46 	bl	20004ea4 <_Error_Handler>
    _Error_Handler(__FILE__, __LINE__);
20005018:	21ee      	movs	r1, #238	; 0xee
2000501a:	4804      	ldr	r0, [pc, #16]	; (2000502c <SystemClock_Config+0xdc>)
2000501c:	f7ff ff42 	bl	20004ea4 <_Error_Handler>
20005020:	40023800 	.word	0x40023800
20005024:	40007000 	.word	0x40007000
20005028:	10624dd3 	.word	0x10624dd3
2000502c:	2000d11c 	.word	0x2000d11c

20005030 <main>:
{
20005030:	b580      	push	{r7, lr}
20005032:	b08c      	sub	sp, #48	; 0x30
  HAL_Init();
20005034:	f7fb faa4 	bl	20000580 <HAL_Init>
  SystemClock_Config();
20005038:	f7ff ff8a 	bl	20004f50 <SystemClock_Config>
  MX_GPIO_Init();
2000503c:	f7ff fedc 	bl	20004df8 <MX_GPIO_Init>
  MX_RTC_Init();
20005040:	f7ff ff32 	bl	20004ea8 <MX_RTC_Init>
  MX_FSMC_Init();
20005044:	f7ff ff4c 	bl	20004ee0 <MX_FSMC_Init>
  osMutexDef(myLcdDma);
20005048:	2700      	movs	r7, #0
2000504a:	a80c      	add	r0, sp, #48	; 0x30
2000504c:	f840 7d04 	str.w	r7, [r0, #-4]!
  myLcdDmaHandle = osMutexCreate(osMutex(myLcdDma));
20005050:	f7fc fb22 	bl	20001698 <osMutexCreate>
20005054:	4b15      	ldr	r3, [pc, #84]	; (200050ac <main+0x7c>)
20005056:	6018      	str	r0, [r3, #0]
  osTimerDef(myTimer01, cbTimer);
20005058:	a80c      	add	r0, sp, #48	; 0x30
2000505a:	4b15      	ldr	r3, [pc, #84]	; (200050b0 <main+0x80>)
2000505c:	f840 3d08 	str.w	r3, [r0, #-8]!
  myTimer01Handle = osTimerCreate(osTimer(myTimer01), osTimerPeriodic, NULL);
20005060:	463a      	mov	r2, r7
20005062:	2101      	movs	r1, #1
20005064:	f7fc face 	bl	20001604 <osTimerCreate>
20005068:	4b12      	ldr	r3, [pc, #72]	; (200050b4 <main+0x84>)
2000506a:	6018      	str	r0, [r3, #0]
  osTimerStart(myTimer01Handle, 250);
2000506c:	21fa      	movs	r1, #250	; 0xfa
2000506e:	f7fc fadd 	bl	2000162c <osTimerStart>
  osThreadDef(defaultTask, StartDefaultTask, osPriorityNormal, 0, 256);
20005072:	4c11      	ldr	r4, [pc, #68]	; (200050b8 <main+0x88>)
20005074:	ad05      	add	r5, sp, #20
20005076:	4626      	mov	r6, r4
20005078:	ce0f      	ldmia	r6!, {r0, r1, r2, r3}
2000507a:	c50f      	stmia	r5!, {r0, r1, r2, r3}
2000507c:	6833      	ldr	r3, [r6, #0]
2000507e:	602b      	str	r3, [r5, #0]
  defaultTaskHandle = osThreadCreate(osThread(defaultTask), NULL);
20005080:	4639      	mov	r1, r7
20005082:	a805      	add	r0, sp, #20
20005084:	f7fc fa9b 	bl	200015be <osThreadCreate>
20005088:	4b0c      	ldr	r3, [pc, #48]	; (200050bc <main+0x8c>)
2000508a:	6018      	str	r0, [r3, #0]
  osThreadDef(myLopriority, StartLopriority, osPriorityIdle, 0, 128);
2000508c:	466d      	mov	r5, sp
2000508e:	3414      	adds	r4, #20
20005090:	cc0f      	ldmia	r4!, {r0, r1, r2, r3}
20005092:	c50f      	stmia	r5!, {r0, r1, r2, r3}
20005094:	6823      	ldr	r3, [r4, #0]
20005096:	602b      	str	r3, [r5, #0]
  myLopriorityHandle = osThreadCreate(osThread(myLopriority), NULL);
20005098:	4639      	mov	r1, r7
2000509a:	4668      	mov	r0, sp
2000509c:	f7fc fa8f 	bl	200015be <osThreadCreate>
200050a0:	4b07      	ldr	r3, [pc, #28]	; (200050c0 <main+0x90>)
200050a2:	6018      	str	r0, [r3, #0]
  osKernelStart();
200050a4:	f7fc fa7c 	bl	200015a0 <osKernelStart>
200050a8:	e7fe      	b.n	200050a8 <main+0x78>
200050aa:	bf00      	nop
200050ac:	2001f1ac 	.word	0x2001f1ac
200050b0:	200034bd 	.word	0x200034bd
200050b4:	2001f144 	.word	0x2001f144
200050b8:	200063b0 	.word	0x200063b0
200050bc:	2001f158 	.word	0x2001f158
200050c0:	2001f1d0 	.word	0x2001f1d0

200050c4 <HAL_FSMC_MspInit>:
static void HAL_FSMC_MspInit(void){
  /* USER CODE BEGIN FSMC_MspInit 0 */

  /* USER CODE END FSMC_MspInit 0 */
  GPIO_InitTypeDef GPIO_InitStruct;
  if (FSMC_Initialized) {
200050c4:	4b17      	ldr	r3, [pc, #92]	; (20005124 <HAL_FSMC_MspInit+0x60>)
200050c6:	681b      	ldr	r3, [r3, #0]
200050c8:	b103      	cbz	r3, 200050cc <HAL_FSMC_MspInit+0x8>
200050ca:	4770      	bx	lr
static void HAL_FSMC_MspInit(void){
200050cc:	b5f0      	push	{r4, r5, r6, r7, lr}
200050ce:	b087      	sub	sp, #28
    return;
  }
  FSMC_Initialized = 1;
200050d0:	2201      	movs	r2, #1
200050d2:	4b14      	ldr	r3, [pc, #80]	; (20005124 <HAL_FSMC_MspInit+0x60>)
200050d4:	601a      	str	r2, [r3, #0]
  /* Peripheral clock enable */
  __HAL_RCC_FSMC_CLK_ENABLE();
200050d6:	2400      	movs	r4, #0
200050d8:	9400      	str	r4, [sp, #0]
200050da:	4b13      	ldr	r3, [pc, #76]	; (20005128 <HAL_FSMC_MspInit+0x64>)
200050dc:	6b9a      	ldr	r2, [r3, #56]	; 0x38
200050de:	f042 0201 	orr.w	r2, r2, #1
200050e2:	639a      	str	r2, [r3, #56]	; 0x38
200050e4:	6b9b      	ldr	r3, [r3, #56]	; 0x38
200050e6:	f003 0301 	and.w	r3, r3, #1
200050ea:	9300      	str	r3, [sp, #0]
200050ec:	9b00      	ldr	r3, [sp, #0]
  PD1   ------> FSMC_D3
  PD4   ------> FSMC_NOE
  PD5   ------> FSMC_NWE
  PD7   ------> FSMC_NE1
  */
  GPIO_InitStruct.Pin = GPIO_PIN_7|GPIO_PIN_8|GPIO_PIN_9|GPIO_PIN_10;
200050ee:	f44f 63f0 	mov.w	r3, #1920	; 0x780
200050f2:	9301      	str	r3, [sp, #4]
  GPIO_InitStruct.Mode = GPIO_MODE_AF_PP;
200050f4:	2702      	movs	r7, #2
200050f6:	9702      	str	r7, [sp, #8]
  GPIO_InitStruct.Pull = GPIO_NOPULL;
200050f8:	9403      	str	r4, [sp, #12]
  GPIO_InitStruct.Speed = GPIO_SPEED_FREQ_VERY_HIGH;
200050fa:	2603      	movs	r6, #3
200050fc:	9604      	str	r6, [sp, #16]
  GPIO_InitStruct.Alternate = GPIO_AF12_FSMC;
200050fe:	250c      	movs	r5, #12
20005100:	9505      	str	r5, [sp, #20]
  HAL_GPIO_Init(GPIOE, &GPIO_InitStruct);
20005102:	a901      	add	r1, sp, #4
20005104:	4809      	ldr	r0, [pc, #36]	; (2000512c <HAL_FSMC_MspInit+0x68>)
20005106:	f7fb faf1 	bl	200006ec <HAL_GPIO_Init>

  GPIO_InitStruct.Pin = GPIO_PIN_13|GPIO_PIN_14|GPIO_PIN_15|GPIO_PIN_0 
2000510a:	f24e 03b3 	movw	r3, #57523	; 0xe0b3
2000510e:	9301      	str	r3, [sp, #4]
                          |GPIO_PIN_1|GPIO_PIN_4|GPIO_PIN_5|GPIO_PIN_7;
  GPIO_InitStruct.Mode = GPIO_MODE_AF_PP;
20005110:	9702      	str	r7, [sp, #8]
  GPIO_InitStruct.Pull = GPIO_NOPULL;
20005112:	9403      	str	r4, [sp, #12]
  GPIO_InitStruct.Speed = GPIO_SPEED_FREQ_VERY_HIGH;
20005114:	9604      	str	r6, [sp, #16]
  GPIO_InitStruct.Alternate = GPIO_AF12_FSMC;
20005116:	9505      	str	r5, [sp, #20]
  HAL_GPIO_Init(GPIOD, &GPIO_InitStruct);
20005118:	a901      	add	r1, sp, #4
2000511a:	4805      	ldr	r0, [pc, #20]	; (20005130 <HAL_FSMC_MspInit+0x6c>)
2000511c:	f7fb fae6 	bl	200006ec <HAL_GPIO_Init>

  /* USER CODE BEGIN FSMC_MspInit 1 */

  /* USER CODE END FSMC_MspInit 1 */
}
20005120:	b007      	add	sp, #28
20005122:	bdf0      	pop	{r4, r5, r6, r7, pc}
20005124:	2001c210 	.word	0x2001c210
20005128:	40023800 	.word	0x40023800
2000512c:	40021000 	.word	0x40021000
20005130:	40020c00 	.word	0x40020c00

20005134 <HAL_MspInit>:
{
20005134:	b510      	push	{r4, lr}
20005136:	b082      	sub	sp, #8
  __HAL_RCC_SYSCFG_CLK_ENABLE();
20005138:	2400      	movs	r4, #0
2000513a:	9400      	str	r4, [sp, #0]
2000513c:	4b21      	ldr	r3, [pc, #132]	; (200051c4 <HAL_MspInit+0x90>)
2000513e:	6c5a      	ldr	r2, [r3, #68]	; 0x44
20005140:	f442 4280 	orr.w	r2, r2, #16384	; 0x4000
20005144:	645a      	str	r2, [r3, #68]	; 0x44
20005146:	6c5a      	ldr	r2, [r3, #68]	; 0x44
20005148:	f402 4280 	and.w	r2, r2, #16384	; 0x4000
2000514c:	9200      	str	r2, [sp, #0]
2000514e:	9a00      	ldr	r2, [sp, #0]
  __HAL_RCC_PWR_CLK_ENABLE();
20005150:	9401      	str	r4, [sp, #4]
20005152:	6c1a      	ldr	r2, [r3, #64]	; 0x40
20005154:	f042 5280 	orr.w	r2, r2, #268435456	; 0x10000000
20005158:	641a      	str	r2, [r3, #64]	; 0x40
2000515a:	6c1b      	ldr	r3, [r3, #64]	; 0x40
2000515c:	f003 5380 	and.w	r3, r3, #268435456	; 0x10000000
20005160:	9301      	str	r3, [sp, #4]
20005162:	9b01      	ldr	r3, [sp, #4]
  HAL_NVIC_SetPriorityGrouping(NVIC_PRIORITYGROUP_4);
20005164:	2003      	movs	r0, #3
20005166:	f7fb fa4b 	bl	20000600 <HAL_NVIC_SetPriorityGrouping>
  HAL_NVIC_SetPriority(MemoryManagement_IRQn, 0, 0);
2000516a:	4622      	mov	r2, r4
2000516c:	4621      	mov	r1, r4
2000516e:	f06f 000b 	mvn.w	r0, #11
20005172:	f7fb fa57 	bl	20000624 <HAL_NVIC_SetPriority>
  HAL_NVIC_SetPriority(BusFault_IRQn, 0, 0);
20005176:	4622      	mov	r2, r4
20005178:	4621      	mov	r1, r4
2000517a:	f06f 000a 	mvn.w	r0, #10
2000517e:	f7fb fa51 	bl	20000624 <HAL_NVIC_SetPriority>
  HAL_NVIC_SetPriority(UsageFault_IRQn, 0, 0);
20005182:	4622      	mov	r2, r4
20005184:	4621      	mov	r1, r4
20005186:	f06f 0009 	mvn.w	r0, #9
2000518a:	f7fb fa4b 	bl	20000624 <HAL_NVIC_SetPriority>
  HAL_NVIC_SetPriority(SVCall_IRQn, 0, 0);
2000518e:	4622      	mov	r2, r4
20005190:	4621      	mov	r1, r4
20005192:	f06f 0004 	mvn.w	r0, #4
20005196:	f7fb fa45 	bl	20000624 <HAL_NVIC_SetPriority>
  HAL_NVIC_SetPriority(DebugMonitor_IRQn, 0, 0);
2000519a:	4622      	mov	r2, r4
2000519c:	4621      	mov	r1, r4
2000519e:	f06f 0003 	mvn.w	r0, #3
200051a2:	f7fb fa3f 	bl	20000624 <HAL_NVIC_SetPriority>
  HAL_NVIC_SetPriority(PendSV_IRQn, 15, 0);
200051a6:	4622      	mov	r2, r4
200051a8:	210f      	movs	r1, #15
200051aa:	f06f 0001 	mvn.w	r0, #1
200051ae:	f7fb fa39 	bl	20000624 <HAL_NVIC_SetPriority>
  HAL_NVIC_SetPriority(SysTick_IRQn, 15, 0);
200051b2:	4622      	mov	r2, r4
200051b4:	210f      	movs	r1, #15
200051b6:	f04f 30ff 	mov.w	r0, #4294967295
200051ba:	f7fb fa33 	bl	20000624 <HAL_NVIC_SetPriority>
}
200051be:	b002      	add	sp, #8
200051c0:	bd10      	pop	{r4, pc}
200051c2:	bf00      	nop
200051c4:	40023800 	.word	0x40023800

200051c8 <HAL_RTC_MspInit>:
  if(hrtc->Instance==RTC)
200051c8:	6802      	ldr	r2, [r0, #0]
200051ca:	4b04      	ldr	r3, [pc, #16]	; (200051dc <HAL_RTC_MspInit+0x14>)
200051cc:	429a      	cmp	r2, r3
200051ce:	d000      	beq.n	200051d2 <HAL_RTC_MspInit+0xa>
200051d0:	4770      	bx	lr
    __HAL_RCC_RTC_ENABLE();
200051d2:	2201      	movs	r2, #1
200051d4:	4b02      	ldr	r3, [pc, #8]	; (200051e0 <HAL_RTC_MspInit+0x18>)
200051d6:	601a      	str	r2, [r3, #0]
}
200051d8:	e7fa      	b.n	200051d0 <HAL_RTC_MspInit+0x8>
200051da:	bf00      	nop
200051dc:	40002800 	.word	0x40002800
200051e0:	42470e3c 	.word	0x42470e3c

200051e4 <HAL_SRAM_MspInit>:

void HAL_SRAM_MspInit(SRAM_HandleTypeDef* hsram){
200051e4:	b508      	push	{r3, lr}
  /* USER CODE BEGIN SRAM_MspInit 0 */

  /* USER CODE END SRAM_MspInit 0 */
  HAL_FSMC_MspInit();
200051e6:	f7ff ff6d 	bl	200050c4 <HAL_FSMC_MspInit>
200051ea:	bd08      	pop	{r3, pc}

200051ec <HAL_InitTick>:
  *         reset by HAL_Init() or at any time when clock is configured, by HAL_RCC_ClockConfig(). 
  * @param  TickPriority: Tick interrupt priorty.
  * @retval HAL status
  */
HAL_StatusTypeDef HAL_InitTick(uint32_t TickPriority)
{
200051ec:	b510      	push	{r4, lr}
200051ee:	b088      	sub	sp, #32
  uint32_t              uwTimclock = 0;
  uint32_t              uwPrescalerValue = 0;
  uint32_t              pFLatency;
  
  /*Configure the TIM6 IRQ priority */
  HAL_NVIC_SetPriority(TIM6_DAC_IRQn, TickPriority ,0); 
200051f0:	2200      	movs	r2, #0
200051f2:	4601      	mov	r1, r0
200051f4:	2036      	movs	r0, #54	; 0x36
200051f6:	f7fb fa15 	bl	20000624 <HAL_NVIC_SetPriority>
  
  /* Enable the TIM6 global Interrupt */
  HAL_NVIC_EnableIRQ(TIM6_DAC_IRQn); 
200051fa:	2036      	movs	r0, #54	; 0x36
200051fc:	f7fb fa44 	bl	20000688 <HAL_NVIC_EnableIRQ>
  
  /* Enable TIM6 clock */
  __HAL_RCC_TIM6_CLK_ENABLE();
20005200:	2400      	movs	r4, #0
20005202:	9401      	str	r4, [sp, #4]
20005204:	4b14      	ldr	r3, [pc, #80]	; (20005258 <HAL_InitTick+0x6c>)
20005206:	6c1a      	ldr	r2, [r3, #64]	; 0x40
20005208:	f042 0210 	orr.w	r2, r2, #16
2000520c:	641a      	str	r2, [r3, #64]	; 0x40
2000520e:	6c1b      	ldr	r3, [r3, #64]	; 0x40
20005210:	f003 0310 	and.w	r3, r3, #16
20005214:	9301      	str	r3, [sp, #4]
20005216:	9b01      	ldr	r3, [sp, #4]
  
  /* Get clock configuration */
  HAL_RCC_GetClockConfig(&clkconfig, &pFLatency);
20005218:	a902      	add	r1, sp, #8
2000521a:	a803      	add	r0, sp, #12
2000521c:	f7fb fe44 	bl	20000ea8 <HAL_RCC_GetClockConfig>
  
  /* Compute TIM6 clock */
  uwTimclock = 2*HAL_RCC_GetPCLK1Freq();
20005220:	f7fb fe32 	bl	20000e88 <HAL_RCC_GetPCLK1Freq>
20005224:	0043      	lsls	r3, r0, #1
   
  /* Compute the prescaler value to have TIM6 counter clock equal to 1MHz */
  uwPrescalerValue = (uint32_t) ((uwTimclock / 1000000) - 1);
20005226:	480d      	ldr	r0, [pc, #52]	; (2000525c <HAL_InitTick+0x70>)
20005228:	fba0 2303 	umull	r2, r3, r0, r3
2000522c:	0c9b      	lsrs	r3, r3, #18
2000522e:	3b01      	subs	r3, #1
  
  /* Initialize TIM6 */
  htim6.Instance = TIM6;
20005230:	480b      	ldr	r0, [pc, #44]	; (20005260 <HAL_InitTick+0x74>)
20005232:	4a0c      	ldr	r2, [pc, #48]	; (20005264 <HAL_InitTick+0x78>)
20005234:	6002      	str	r2, [r0, #0]
  + Period = [(TIM6CLK/1000) - 1]. to have a (1/1000) s time base.
  + Prescaler = (uwTimclock/1000000 - 1) to have a 1MHz counter clock.
  + ClockDivision = 0
  + Counter direction = Up
  */
  htim6.Init.Period = (1000000 / 1000) - 1;
20005236:	f240 32e7 	movw	r2, #999	; 0x3e7
2000523a:	60c2      	str	r2, [r0, #12]
  htim6.Init.Prescaler = uwPrescalerValue;
2000523c:	6043      	str	r3, [r0, #4]
  htim6.Init.ClockDivision = 0;
2000523e:	6104      	str	r4, [r0, #16]
  htim6.Init.CounterMode = TIM_COUNTERMODE_UP;
20005240:	6084      	str	r4, [r0, #8]
  if(HAL_TIM_Base_Init(&htim6) == HAL_OK)
20005242:	f7fc f917 	bl	20001474 <HAL_TIM_Base_Init>
20005246:	b110      	cbz	r0, 2000524e <HAL_InitTick+0x62>
    /* Start the TIM time Base generation in interrupt mode */
    return HAL_TIM_Base_Start_IT(&htim6);
  }
  
  /* Return function status */
  return HAL_ERROR;
20005248:	2001      	movs	r0, #1
}
2000524a:	b008      	add	sp, #32
2000524c:	bd10      	pop	{r4, pc}
    return HAL_TIM_Base_Start_IT(&htim6);
2000524e:	4804      	ldr	r0, [pc, #16]	; (20005260 <HAL_InitTick+0x74>)
20005250:	f7fb ffb5 	bl	200011be <HAL_TIM_Base_Start_IT>
20005254:	e7f9      	b.n	2000524a <HAL_InitTick+0x5e>
20005256:	bf00      	nop
20005258:	40023800 	.word	0x40023800
2000525c:	431bde83 	.word	0x431bde83
20005260:	2001f1d4 	.word	0x2001f1d4
20005264:	40001000 	.word	0x40001000

20005268 <NMI_Handler>:

/**
* @brief This function handles Non maskable interrupt.
*/
void NMI_Handler(void)
{
20005268:	4770      	bx	lr

2000526a <HardFault_Handler>:

/**
* @brief This function handles Hard fault interrupt.
*/
void HardFault_Handler(void)
{
2000526a:	e7fe      	b.n	2000526a <HardFault_Handler>

2000526c <MemManage_Handler>:

/**
* @brief This function handles Memory management fault.
*/
void MemManage_Handler(void)
{
2000526c:	e7fe      	b.n	2000526c <MemManage_Handler>

2000526e <BusFault_Handler>:

/**
* @brief This function handles Pre-fetch fault, memory access fault.
*/
void BusFault_Handler(void)
{
2000526e:	e7fe      	b.n	2000526e <BusFault_Handler>

20005270 <UsageFault_Handler>:

/**
* @brief This function handles Undefined instruction or illegal state.
*/
void UsageFault_Handler(void)
{
20005270:	e7fe      	b.n	20005270 <UsageFault_Handler>

20005272 <DebugMon_Handler>:

/**
* @brief This function handles Debug monitor.
*/
void DebugMon_Handler(void)
{
20005272:	4770      	bx	lr

20005274 <SysTick_Handler>:

/**
* @brief This function handles System tick timer.
*/
void SysTick_Handler(void)
{
20005274:	b508      	push	{r3, lr}
  /* USER CODE BEGIN SysTick_IRQn 0 */

  /* USER CODE END SysTick_IRQn 0 */
  osSystickHandler();
20005276:	f7fc fa8f 	bl	20001798 <osSystickHandler>
2000527a:	bd08      	pop	{r3, pc}

2000527c <TIM6_DAC_IRQHandler>:

/**
* @brief This function handles TIM6 global interrupt, DAC1 and DAC2 underrun error interrupts.
*/
void TIM6_DAC_IRQHandler(void)
{
2000527c:	b508      	push	{r3, lr}
  /* USER CODE BEGIN TIM6_DAC_IRQn 0 */

  /* USER CODE END TIM6_DAC_IRQn 0 */
  HAL_TIM_IRQHandler(&htim6);
2000527e:	4802      	ldr	r0, [pc, #8]	; (20005288 <TIM6_DAC_IRQHandler+0xc>)
20005280:	f7fb ffad 	bl	200011de <HAL_TIM_IRQHandler>
20005284:	bd08      	pop	{r3, pc}
20005286:	bf00      	nop
20005288:	2001f1d4 	.word	0x2001f1d4

2000528c <_write>:
{
	while (1) {}		/* Make sure we hang here */
}

int _write(int32_t file, uint8_t *ptr, int32_t len)
{
2000528c:	b430      	push	{r4, r5}
	/* Implement your write code here, this is used by puts and printf for example */
	/* return len; */
	int i;
	for(i = 0; i < len; i++)
2000528e:	2400      	movs	r4, #0
20005290:	e00a      	b.n	200052a8 <_write+0x1c>
  __ASM volatile ("nop");
20005292:	bf00      	nop
__STATIC_INLINE uint32_t ITM_SendChar (uint32_t ch)
{
  if (((ITM->TCR & ITM_TCR_ITMENA_Msk) != 0UL) &&      /* ITM enabled */
      ((ITM->TER & 1UL               ) != 0UL)   )     /* ITM Port #0 enabled */
  {
    while (ITM->PORT[0U].u32 == 0UL)
20005294:	f04f 4360 	mov.w	r3, #3758096384	; 0xe0000000
20005298:	681b      	ldr	r3, [r3, #0]
2000529a:	2b00      	cmp	r3, #0
2000529c:	d0f9      	beq.n	20005292 <_write+0x6>
    {
      __NOP();
    }
    ITM->PORT[0U].u8 = (uint8_t)ch;
2000529e:	f04f 4360 	mov.w	r3, #3758096384	; 0xe0000000
200052a2:	7019      	strb	r1, [r3, #0]
200052a4:	3401      	adds	r4, #1
		ITM_SendChar(*ptr++);
200052a6:	4629      	mov	r1, r5
	for(i = 0; i < len; i++)
200052a8:	4294      	cmp	r4, r2
200052aa:	da10      	bge.n	200052ce <_write+0x42>
		ITM_SendChar(*ptr++);
200052ac:	1c4d      	adds	r5, r1, #1
200052ae:	7809      	ldrb	r1, [r1, #0]
  if (((ITM->TCR & ITM_TCR_ITMENA_Msk) != 0UL) &&      /* ITM enabled */
200052b0:	f04f 4360 	mov.w	r3, #3758096384	; 0xe0000000
200052b4:	f8d3 3e80 	ldr.w	r3, [r3, #3712]	; 0xe80
200052b8:	f013 0f01 	tst.w	r3, #1
200052bc:	d0f2      	beq.n	200052a4 <_write+0x18>
      ((ITM->TER & 1UL               ) != 0UL)   )     /* ITM Port #0 enabled */
200052be:	f04f 4360 	mov.w	r3, #3758096384	; 0xe0000000
200052c2:	f8d3 3e00 	ldr.w	r3, [r3, #3584]	; 0xe00
  if (((ITM->TCR & ITM_TCR_ITMENA_Msk) != 0UL) &&      /* ITM enabled */
200052c6:	f013 0f01 	tst.w	r3, #1
200052ca:	d1e3      	bne.n	20005294 <_write+0x8>
200052cc:	e7ea      	b.n	200052a4 <_write+0x18>
	return len;
}
200052ce:	4610      	mov	r0, r2
200052d0:	bc30      	pop	{r4, r5}
200052d2:	4770      	bx	lr

200052d4 <_sbrk>:

void * _sbrk(int32_t incr)
{
200052d4:	4603      	mov	r3, r0
	extern char   end; /* Set by linker.  */
	static char * heap_end;
	char *        prev_heap_end;

	if (heap_end == 0) {
200052d6:	4a06      	ldr	r2, [pc, #24]	; (200052f0 <_sbrk+0x1c>)
200052d8:	6812      	ldr	r2, [r2, #0]
200052da:	b122      	cbz	r2, 200052e6 <_sbrk+0x12>
		heap_end = & end;
	}

	prev_heap_end = heap_end;
200052dc:	4a04      	ldr	r2, [pc, #16]	; (200052f0 <_sbrk+0x1c>)
200052de:	6810      	ldr	r0, [r2, #0]
	heap_end += incr;
200052e0:	4403      	add	r3, r0
200052e2:	6013      	str	r3, [r2, #0]

	return (void *) prev_heap_end;
}
200052e4:	4770      	bx	lr
		heap_end = & end;
200052e6:	4903      	ldr	r1, [pc, #12]	; (200052f4 <_sbrk+0x20>)
200052e8:	4a01      	ldr	r2, [pc, #4]	; (200052f0 <_sbrk+0x1c>)
200052ea:	6011      	str	r1, [r2, #0]
200052ec:	e7f6      	b.n	200052dc <_sbrk+0x8>
200052ee:	bf00      	nop
200052f0:	2001c214 	.word	0x2001c214
200052f4:	2001f214 	.word	0x2001f214

200052f8 <_close>:

int _close(int32_t file)
{
	errno = ENOSYS;
200052f8:	2258      	movs	r2, #88	; 0x58
200052fa:	4b02      	ldr	r3, [pc, #8]	; (20005304 <_close+0xc>)
200052fc:	601a      	str	r2, [r3, #0]
	return -1;
}
200052fe:	f04f 30ff 	mov.w	r0, #4294967295
20005302:	4770      	bx	lr
20005304:	2001f210 	.word	0x2001f210

20005308 <_fstat>:


int _fstat(int32_t file, struct stat *st)
{
	errno = ENOSYS;
20005308:	2258      	movs	r2, #88	; 0x58
2000530a:	4b02      	ldr	r3, [pc, #8]	; (20005314 <_fstat+0xc>)
2000530c:	601a      	str	r2, [r3, #0]
	return -1;
}
2000530e:	f04f 30ff 	mov.w	r0, #4294967295
20005312:	4770      	bx	lr
20005314:	2001f210 	.word	0x2001f210

20005318 <_isatty>:

int _isatty(int32_t file)
{
	errno = ENOSYS;
20005318:	2258      	movs	r2, #88	; 0x58
2000531a:	4b02      	ldr	r3, [pc, #8]	; (20005324 <_isatty+0xc>)
2000531c:	601a      	str	r2, [r3, #0]
	return 0;
}
2000531e:	2000      	movs	r0, #0
20005320:	4770      	bx	lr
20005322:	bf00      	nop
20005324:	2001f210 	.word	0x2001f210

20005328 <_lseek>:

int _lseek(int32_t file, int32_t ptr, int32_t dir)
{
	errno = ENOSYS;
20005328:	2258      	movs	r2, #88	; 0x58
2000532a:	4b02      	ldr	r3, [pc, #8]	; (20005334 <_lseek+0xc>)
2000532c:	601a      	str	r2, [r3, #0]
	return -1;
}
2000532e:	f04f 30ff 	mov.w	r0, #4294967295
20005332:	4770      	bx	lr
20005334:	2001f210 	.word	0x2001f210

20005338 <_read>:

int _read(int32_t file, uint8_t *ptr, int32_t len)
{
	errno = ENOSYS;
20005338:	2258      	movs	r2, #88	; 0x58
2000533a:	4b02      	ldr	r3, [pc, #8]	; (20005344 <_read+0xc>)
2000533c:	601a      	str	r2, [r3, #0]
	return -1;
}
2000533e:	f04f 30ff 	mov.w	r0, #4294967295
20005342:	4770      	bx	lr
20005344:	2001f210 	.word	0x2001f210

20005348 <SystemInit>:
  */
void SystemInit(void)
{
  /* FPU settings ------------------------------------------------------------*/
  #if (__FPU_PRESENT == 1) && (__FPU_USED == 1)
    SCB->CPACR |= ((3UL << 10*2)|(3UL << 11*2));  /* set CP10 and CP11 Full Access */
20005348:	490f      	ldr	r1, [pc, #60]	; (20005388 <SystemInit+0x40>)
2000534a:	f8d1 3088 	ldr.w	r3, [r1, #136]	; 0x88
2000534e:	f443 0370 	orr.w	r3, r3, #15728640	; 0xf00000
20005352:	f8c1 3088 	str.w	r3, [r1, #136]	; 0x88
  #endif
  /* Reset the RCC clock configuration to the default reset state ------------*/
  /* Set HSION bit */
  RCC->CR |= (uint32_t)0x00000001;
20005356:	4b0d      	ldr	r3, [pc, #52]	; (2000538c <SystemInit+0x44>)
20005358:	681a      	ldr	r2, [r3, #0]
2000535a:	f042 0201 	orr.w	r2, r2, #1
2000535e:	601a      	str	r2, [r3, #0]

  /* Reset CFGR register */
  RCC->CFGR = 0x00000000;
20005360:	2000      	movs	r0, #0
20005362:	6098      	str	r0, [r3, #8]

  /* Reset HSEON, CSSON and PLLON bits */
  RCC->CR &= (uint32_t)0xFEF6FFFF;
20005364:	681a      	ldr	r2, [r3, #0]
20005366:	f022 7284 	bic.w	r2, r2, #17301504	; 0x1080000
2000536a:	f422 3280 	bic.w	r2, r2, #65536	; 0x10000
2000536e:	601a      	str	r2, [r3, #0]

  /* Reset PLLCFGR register */
  RCC->PLLCFGR = 0x24003010;
20005370:	4a07      	ldr	r2, [pc, #28]	; (20005390 <SystemInit+0x48>)
20005372:	605a      	str	r2, [r3, #4]

  /* Reset HSEBYP bit */
  RCC->CR &= (uint32_t)0xFFFBFFFF;
20005374:	681a      	ldr	r2, [r3, #0]
20005376:	f422 2280 	bic.w	r2, r2, #262144	; 0x40000
2000537a:	601a      	str	r2, [r3, #0]

  /* Disable all interrupts */
  RCC->CIR = 0x00000000;
2000537c:	60d8      	str	r0, [r3, #12]
  SystemInit_ExtMemCtl(); 
#endif /* DATA_IN_ExtSRAM || DATA_IN_ExtSDRAM */

  /* Configure the Vector Table location add offset address ------------------*/
#ifdef VECT_TAB_SRAM
  SCB->VTOR = SRAM_BASE | VECT_TAB_OFFSET; /* Vector Table Relocation in Internal SRAM */
2000537e:	f04f 5300 	mov.w	r3, #536870912	; 0x20000000
20005382:	608b      	str	r3, [r1, #8]
20005384:	4770      	bx	lr
20005386:	bf00      	nop
20005388:	e000ed00 	.word	0xe000ed00
2000538c:	40023800 	.word	0x40023800
20005390:	24003010 	.word	0x24003010

20005394 <Reset_Handler>:

    .section  .text.Reset_Handler
  .weak  Reset_Handler
  .type  Reset_Handler, %function
Reset_Handler:  
  ldr   sp, =_estack     /* set stack pointer */
20005394:	f8df d034 	ldr.w	sp, [pc, #52]	; 200053cc <LoopFillZerobss+0x14>

/* Copy the data segment initializers from flash to SRAM */  
  movs  r1, #0
20005398:	2100      	movs	r1, #0
  b  LoopCopyDataInit
2000539a:	e003      	b.n	200053a4 <LoopCopyDataInit>

2000539c <CopyDataInit>:

CopyDataInit:
  ldr  r3, =_sidata
2000539c:	4b0c      	ldr	r3, [pc, #48]	; (200053d0 <LoopFillZerobss+0x18>)
  ldr  r3, [r3, r1]
2000539e:	585b      	ldr	r3, [r3, r1]
  str  r3, [r0, r1]
200053a0:	5043      	str	r3, [r0, r1]
  adds  r1, r1, #4
200053a2:	3104      	adds	r1, #4

200053a4 <LoopCopyDataInit>:
    
LoopCopyDataInit:
  ldr  r0, =_sdata
200053a4:	480b      	ldr	r0, [pc, #44]	; (200053d4 <LoopFillZerobss+0x1c>)
  ldr  r3, =_edata
200053a6:	4b0c      	ldr	r3, [pc, #48]	; (200053d8 <LoopFillZerobss+0x20>)
  adds  r2, r0, r1
200053a8:	1842      	adds	r2, r0, r1
  cmp  r2, r3
200053aa:	429a      	cmp	r2, r3
  bcc  CopyDataInit
200053ac:	d3f6      	bcc.n	2000539c <CopyDataInit>
  ldr  r2, =_sbss
200053ae:	4a0b      	ldr	r2, [pc, #44]	; (200053dc <LoopFillZerobss+0x24>)
  b  LoopFillZerobss
200053b0:	e002      	b.n	200053b8 <LoopFillZerobss>

200053b2 <FillZerobss>:
/* Zero fill the bss segment. */  
FillZerobss:
  movs  r3, #0
200053b2:	2300      	movs	r3, #0
  str  r3, [r2], #4
200053b4:	f842 3b04 	str.w	r3, [r2], #4

200053b8 <LoopFillZerobss>:
    
LoopFillZerobss:
  ldr  r3, = _ebss
200053b8:	4b09      	ldr	r3, [pc, #36]	; (200053e0 <LoopFillZerobss+0x28>)
  cmp  r2, r3
200053ba:	429a      	cmp	r2, r3
  bcc  FillZerobss
200053bc:	d3f9      	bcc.n	200053b2 <FillZerobss>

/* Call the clock system intitialization function.*/
  bl  SystemInit   
200053be:	f7ff ffc3 	bl	20005348 <SystemInit>
/* Call static constructors */
    bl __libc_init_array
200053c2:	f000 f811 	bl	200053e8 <__libc_init_array>
/* Call the application's entry point.*/
  bl  main
200053c6:	f7ff fe33 	bl	20005030 <main>
  bx  lr    
200053ca:	4770      	bx	lr
  ldr   sp, =_estack     /* set stack pointer */
200053cc:	20020000 	.word	0x20020000
  ldr  r3, =_sidata
200053d0:	2000d208 	.word	0x2000d208
  ldr  r0, =_sdata
200053d4:	20018000 	.word	0x20018000
  ldr  r3, =_edata
200053d8:	200180e0 	.word	0x200180e0
  ldr  r2, =_sbss
200053dc:	200180e0 	.word	0x200180e0
  ldr  r3, = _ebss
200053e0:	2001f214 	.word	0x2001f214

200053e4 <ADC_IRQHandler>:
 * @retval None       
*/
    .section  .text.Default_Handler,"ax",%progbits
Default_Handler:
Infinite_Loop:
  b  Infinite_Loop
200053e4:	e7fe      	b.n	200053e4 <ADC_IRQHandler>
	...

200053e8 <__libc_init_array>:
200053e8:	b570      	push	{r4, r5, r6, lr}
200053ea:	4e0d      	ldr	r6, [pc, #52]	; (20005420 <__libc_init_array+0x38>)
200053ec:	4c0d      	ldr	r4, [pc, #52]	; (20005424 <__libc_init_array+0x3c>)
200053ee:	1ba4      	subs	r4, r4, r6
200053f0:	10a4      	asrs	r4, r4, #2
200053f2:	2500      	movs	r5, #0
200053f4:	42a5      	cmp	r5, r4
200053f6:	d109      	bne.n	2000540c <__libc_init_array+0x24>
200053f8:	4e0b      	ldr	r6, [pc, #44]	; (20005428 <__libc_init_array+0x40>)
200053fa:	4c0c      	ldr	r4, [pc, #48]	; (2000542c <__libc_init_array+0x44>)
200053fc:	f000 ffca 	bl	20006394 <_init>
20005400:	1ba4      	subs	r4, r4, r6
20005402:	10a4      	asrs	r4, r4, #2
20005404:	2500      	movs	r5, #0
20005406:	42a5      	cmp	r5, r4
20005408:	d105      	bne.n	20005416 <__libc_init_array+0x2e>
2000540a:	bd70      	pop	{r4, r5, r6, pc}
2000540c:	f856 3025 	ldr.w	r3, [r6, r5, lsl #2]
20005410:	4798      	blx	r3
20005412:	3501      	adds	r5, #1
20005414:	e7ee      	b.n	200053f4 <__libc_init_array+0xc>
20005416:	f856 3025 	ldr.w	r3, [r6, r5, lsl #2]
2000541a:	4798      	blx	r3
2000541c:	3501      	adds	r5, #1
2000541e:	e7f2      	b.n	20005406 <__libc_init_array+0x1e>
20005420:	2000d200 	.word	0x2000d200
20005424:	2000d200 	.word	0x2000d200
20005428:	2000d200 	.word	0x2000d200
2000542c:	2000d204 	.word	0x2000d204

20005430 <memcpy>:
20005430:	b510      	push	{r4, lr}
20005432:	1e43      	subs	r3, r0, #1
20005434:	440a      	add	r2, r1
20005436:	4291      	cmp	r1, r2
20005438:	d100      	bne.n	2000543c <memcpy+0xc>
2000543a:	bd10      	pop	{r4, pc}
2000543c:	f811 4b01 	ldrb.w	r4, [r1], #1
20005440:	f803 4f01 	strb.w	r4, [r3, #1]!
20005444:	e7f7      	b.n	20005436 <memcpy+0x6>
	...

20005448 <iprintf>:
20005448:	b40f      	push	{r0, r1, r2, r3}
2000544a:	4b0a      	ldr	r3, [pc, #40]	; (20005474 <iprintf+0x2c>)
2000544c:	b513      	push	{r0, r1, r4, lr}
2000544e:	681c      	ldr	r4, [r3, #0]
20005450:	b124      	cbz	r4, 2000545c <iprintf+0x14>
20005452:	69a3      	ldr	r3, [r4, #24]
20005454:	b913      	cbnz	r3, 2000545c <iprintf+0x14>
20005456:	4620      	mov	r0, r4
20005458:	f000 fa5e 	bl	20005918 <__sinit>
2000545c:	ab05      	add	r3, sp, #20
2000545e:	9a04      	ldr	r2, [sp, #16]
20005460:	68a1      	ldr	r1, [r4, #8]
20005462:	9301      	str	r3, [sp, #4]
20005464:	4620      	mov	r0, r4
20005466:	f000 fc2b 	bl	20005cc0 <_vfiprintf_r>
2000546a:	b002      	add	sp, #8
2000546c:	e8bd 4010 	ldmia.w	sp!, {r4, lr}
20005470:	b004      	add	sp, #16
20005472:	4770      	bx	lr
20005474:	2001807c 	.word	0x2001807c

20005478 <_puts_r>:
20005478:	b570      	push	{r4, r5, r6, lr}
2000547a:	460e      	mov	r6, r1
2000547c:	4605      	mov	r5, r0
2000547e:	b118      	cbz	r0, 20005488 <_puts_r+0x10>
20005480:	6983      	ldr	r3, [r0, #24]
20005482:	b90b      	cbnz	r3, 20005488 <_puts_r+0x10>
20005484:	f000 fa48 	bl	20005918 <__sinit>
20005488:	69ab      	ldr	r3, [r5, #24]
2000548a:	68ac      	ldr	r4, [r5, #8]
2000548c:	b913      	cbnz	r3, 20005494 <_puts_r+0x1c>
2000548e:	4628      	mov	r0, r5
20005490:	f000 fa42 	bl	20005918 <__sinit>
20005494:	4b23      	ldr	r3, [pc, #140]	; (20005524 <_puts_r+0xac>)
20005496:	429c      	cmp	r4, r3
20005498:	d117      	bne.n	200054ca <_puts_r+0x52>
2000549a:	686c      	ldr	r4, [r5, #4]
2000549c:	89a3      	ldrh	r3, [r4, #12]
2000549e:	071b      	lsls	r3, r3, #28
200054a0:	d51d      	bpl.n	200054de <_puts_r+0x66>
200054a2:	6923      	ldr	r3, [r4, #16]
200054a4:	b1db      	cbz	r3, 200054de <_puts_r+0x66>
200054a6:	3e01      	subs	r6, #1
200054a8:	68a3      	ldr	r3, [r4, #8]
200054aa:	f816 1f01 	ldrb.w	r1, [r6, #1]!
200054ae:	3b01      	subs	r3, #1
200054b0:	60a3      	str	r3, [r4, #8]
200054b2:	b9e9      	cbnz	r1, 200054f0 <_puts_r+0x78>
200054b4:	2b00      	cmp	r3, #0
200054b6:	da2e      	bge.n	20005516 <_puts_r+0x9e>
200054b8:	4622      	mov	r2, r4
200054ba:	210a      	movs	r1, #10
200054bc:	4628      	mov	r0, r5
200054be:	f000 f879 	bl	200055b4 <__swbuf_r>
200054c2:	3001      	adds	r0, #1
200054c4:	d011      	beq.n	200054ea <_puts_r+0x72>
200054c6:	200a      	movs	r0, #10
200054c8:	bd70      	pop	{r4, r5, r6, pc}
200054ca:	4b17      	ldr	r3, [pc, #92]	; (20005528 <_puts_r+0xb0>)
200054cc:	429c      	cmp	r4, r3
200054ce:	d101      	bne.n	200054d4 <_puts_r+0x5c>
200054d0:	68ac      	ldr	r4, [r5, #8]
200054d2:	e7e3      	b.n	2000549c <_puts_r+0x24>
200054d4:	4b15      	ldr	r3, [pc, #84]	; (2000552c <_puts_r+0xb4>)
200054d6:	429c      	cmp	r4, r3
200054d8:	bf08      	it	eq
200054da:	68ec      	ldreq	r4, [r5, #12]
200054dc:	e7de      	b.n	2000549c <_puts_r+0x24>
200054de:	4621      	mov	r1, r4
200054e0:	4628      	mov	r0, r5
200054e2:	f000 f8b9 	bl	20005658 <__swsetup_r>
200054e6:	2800      	cmp	r0, #0
200054e8:	d0dd      	beq.n	200054a6 <_puts_r+0x2e>
200054ea:	f04f 30ff 	mov.w	r0, #4294967295
200054ee:	bd70      	pop	{r4, r5, r6, pc}
200054f0:	2b00      	cmp	r3, #0
200054f2:	da04      	bge.n	200054fe <_puts_r+0x86>
200054f4:	69a2      	ldr	r2, [r4, #24]
200054f6:	4293      	cmp	r3, r2
200054f8:	db06      	blt.n	20005508 <_puts_r+0x90>
200054fa:	290a      	cmp	r1, #10
200054fc:	d004      	beq.n	20005508 <_puts_r+0x90>
200054fe:	6823      	ldr	r3, [r4, #0]
20005500:	1c5a      	adds	r2, r3, #1
20005502:	6022      	str	r2, [r4, #0]
20005504:	7019      	strb	r1, [r3, #0]
20005506:	e7cf      	b.n	200054a8 <_puts_r+0x30>
20005508:	4622      	mov	r2, r4
2000550a:	4628      	mov	r0, r5
2000550c:	f000 f852 	bl	200055b4 <__swbuf_r>
20005510:	3001      	adds	r0, #1
20005512:	d1c9      	bne.n	200054a8 <_puts_r+0x30>
20005514:	e7e9      	b.n	200054ea <_puts_r+0x72>
20005516:	6823      	ldr	r3, [r4, #0]
20005518:	200a      	movs	r0, #10
2000551a:	1c5a      	adds	r2, r3, #1
2000551c:	6022      	str	r2, [r4, #0]
2000551e:	7018      	strb	r0, [r3, #0]
20005520:	bd70      	pop	{r4, r5, r6, pc}
20005522:	bf00      	nop
20005524:	2000d184 	.word	0x2000d184
20005528:	2000d1a4 	.word	0x2000d1a4
2000552c:	2000d164 	.word	0x2000d164

20005530 <puts>:
20005530:	4b02      	ldr	r3, [pc, #8]	; (2000553c <puts+0xc>)
20005532:	4601      	mov	r1, r0
20005534:	6818      	ldr	r0, [r3, #0]
20005536:	f7ff bf9f 	b.w	20005478 <_puts_r>
2000553a:	bf00      	nop
2000553c:	2001807c 	.word	0x2001807c

20005540 <random>:
20005540:	4b19      	ldr	r3, [pc, #100]	; (200055a8 <random+0x68>)
20005542:	b510      	push	{r4, lr}
20005544:	681c      	ldr	r4, [r3, #0]
20005546:	6ba3      	ldr	r3, [r4, #56]	; 0x38
20005548:	b9d3      	cbnz	r3, 20005580 <random+0x40>
2000554a:	2018      	movs	r0, #24
2000554c:	f000 fad2 	bl	20005af4 <malloc>
20005550:	f243 330e 	movw	r3, #13070	; 0x330e
20005554:	63a0      	str	r0, [r4, #56]	; 0x38
20005556:	8003      	strh	r3, [r0, #0]
20005558:	f64a 33cd 	movw	r3, #43981	; 0xabcd
2000555c:	8043      	strh	r3, [r0, #2]
2000555e:	f241 2334 	movw	r3, #4660	; 0x1234
20005562:	8083      	strh	r3, [r0, #4]
20005564:	f24e 636d 	movw	r3, #58989	; 0xe66d
20005568:	80c3      	strh	r3, [r0, #6]
2000556a:	f64d 63ec 	movw	r3, #57068	; 0xdeec
2000556e:	8103      	strh	r3, [r0, #8]
20005570:	2305      	movs	r3, #5
20005572:	8143      	strh	r3, [r0, #10]
20005574:	230b      	movs	r3, #11
20005576:	8183      	strh	r3, [r0, #12]
20005578:	2201      	movs	r2, #1
2000557a:	2300      	movs	r3, #0
2000557c:	e9c0 2304 	strd	r2, r3, [r0, #16]
20005580:	6ba1      	ldr	r1, [r4, #56]	; 0x38
20005582:	480a      	ldr	r0, [pc, #40]	; (200055ac <random+0x6c>)
20005584:	690a      	ldr	r2, [r1, #16]
20005586:	694b      	ldr	r3, [r1, #20]
20005588:	4c09      	ldr	r4, [pc, #36]	; (200055b0 <random+0x70>)
2000558a:	4350      	muls	r0, r2
2000558c:	fb04 0003 	mla	r0, r4, r3, r0
20005590:	fba2 2304 	umull	r2, r3, r2, r4
20005594:	3201      	adds	r2, #1
20005596:	4403      	add	r3, r0
20005598:	f143 0300 	adc.w	r3, r3, #0
2000559c:	e9c1 2304 	strd	r2, r3, [r1, #16]
200055a0:	f023 4000 	bic.w	r0, r3, #2147483648	; 0x80000000
200055a4:	bd10      	pop	{r4, pc}
200055a6:	bf00      	nop
200055a8:	2001807c 	.word	0x2001807c
200055ac:	5851f42d 	.word	0x5851f42d
200055b0:	4c957f2d 	.word	0x4c957f2d

200055b4 <__swbuf_r>:
200055b4:	b5f8      	push	{r3, r4, r5, r6, r7, lr}
200055b6:	460e      	mov	r6, r1
200055b8:	4614      	mov	r4, r2
200055ba:	4605      	mov	r5, r0
200055bc:	b118      	cbz	r0, 200055c6 <__swbuf_r+0x12>
200055be:	6983      	ldr	r3, [r0, #24]
200055c0:	b90b      	cbnz	r3, 200055c6 <__swbuf_r+0x12>
200055c2:	f000 f9a9 	bl	20005918 <__sinit>
200055c6:	4b21      	ldr	r3, [pc, #132]	; (2000564c <__swbuf_r+0x98>)
200055c8:	429c      	cmp	r4, r3
200055ca:	d12a      	bne.n	20005622 <__swbuf_r+0x6e>
200055cc:	686c      	ldr	r4, [r5, #4]
200055ce:	69a3      	ldr	r3, [r4, #24]
200055d0:	60a3      	str	r3, [r4, #8]
200055d2:	89a3      	ldrh	r3, [r4, #12]
200055d4:	071a      	lsls	r2, r3, #28
200055d6:	d52e      	bpl.n	20005636 <__swbuf_r+0x82>
200055d8:	6923      	ldr	r3, [r4, #16]
200055da:	b363      	cbz	r3, 20005636 <__swbuf_r+0x82>
200055dc:	6923      	ldr	r3, [r4, #16]
200055de:	6820      	ldr	r0, [r4, #0]
200055e0:	1ac0      	subs	r0, r0, r3
200055e2:	6963      	ldr	r3, [r4, #20]
200055e4:	b2f6      	uxtb	r6, r6
200055e6:	4298      	cmp	r0, r3
200055e8:	4637      	mov	r7, r6
200055ea:	db04      	blt.n	200055f6 <__swbuf_r+0x42>
200055ec:	4621      	mov	r1, r4
200055ee:	4628      	mov	r0, r5
200055f0:	f000 f928 	bl	20005844 <_fflush_r>
200055f4:	bb28      	cbnz	r0, 20005642 <__swbuf_r+0x8e>
200055f6:	68a3      	ldr	r3, [r4, #8]
200055f8:	3b01      	subs	r3, #1
200055fa:	60a3      	str	r3, [r4, #8]
200055fc:	6823      	ldr	r3, [r4, #0]
200055fe:	1c5a      	adds	r2, r3, #1
20005600:	6022      	str	r2, [r4, #0]
20005602:	701e      	strb	r6, [r3, #0]
20005604:	6963      	ldr	r3, [r4, #20]
20005606:	3001      	adds	r0, #1
20005608:	4298      	cmp	r0, r3
2000560a:	d004      	beq.n	20005616 <__swbuf_r+0x62>
2000560c:	89a3      	ldrh	r3, [r4, #12]
2000560e:	07db      	lsls	r3, r3, #31
20005610:	d519      	bpl.n	20005646 <__swbuf_r+0x92>
20005612:	2e0a      	cmp	r6, #10
20005614:	d117      	bne.n	20005646 <__swbuf_r+0x92>
20005616:	4621      	mov	r1, r4
20005618:	4628      	mov	r0, r5
2000561a:	f000 f913 	bl	20005844 <_fflush_r>
2000561e:	b190      	cbz	r0, 20005646 <__swbuf_r+0x92>
20005620:	e00f      	b.n	20005642 <__swbuf_r+0x8e>
20005622:	4b0b      	ldr	r3, [pc, #44]	; (20005650 <__swbuf_r+0x9c>)
20005624:	429c      	cmp	r4, r3
20005626:	d101      	bne.n	2000562c <__swbuf_r+0x78>
20005628:	68ac      	ldr	r4, [r5, #8]
2000562a:	e7d0      	b.n	200055ce <__swbuf_r+0x1a>
2000562c:	4b09      	ldr	r3, [pc, #36]	; (20005654 <__swbuf_r+0xa0>)
2000562e:	429c      	cmp	r4, r3
20005630:	bf08      	it	eq
20005632:	68ec      	ldreq	r4, [r5, #12]
20005634:	e7cb      	b.n	200055ce <__swbuf_r+0x1a>
20005636:	4621      	mov	r1, r4
20005638:	4628      	mov	r0, r5
2000563a:	f000 f80d 	bl	20005658 <__swsetup_r>
2000563e:	2800      	cmp	r0, #0
20005640:	d0cc      	beq.n	200055dc <__swbuf_r+0x28>
20005642:	f04f 37ff 	mov.w	r7, #4294967295
20005646:	4638      	mov	r0, r7
20005648:	bdf8      	pop	{r3, r4, r5, r6, r7, pc}
2000564a:	bf00      	nop
2000564c:	2000d184 	.word	0x2000d184
20005650:	2000d1a4 	.word	0x2000d1a4
20005654:	2000d164 	.word	0x2000d164

20005658 <__swsetup_r>:
20005658:	4b32      	ldr	r3, [pc, #200]	; (20005724 <__swsetup_r+0xcc>)
2000565a:	b570      	push	{r4, r5, r6, lr}
2000565c:	681d      	ldr	r5, [r3, #0]
2000565e:	4606      	mov	r6, r0
20005660:	460c      	mov	r4, r1
20005662:	b125      	cbz	r5, 2000566e <__swsetup_r+0x16>
20005664:	69ab      	ldr	r3, [r5, #24]
20005666:	b913      	cbnz	r3, 2000566e <__swsetup_r+0x16>
20005668:	4628      	mov	r0, r5
2000566a:	f000 f955 	bl	20005918 <__sinit>
2000566e:	4b2e      	ldr	r3, [pc, #184]	; (20005728 <__swsetup_r+0xd0>)
20005670:	429c      	cmp	r4, r3
20005672:	d10f      	bne.n	20005694 <__swsetup_r+0x3c>
20005674:	686c      	ldr	r4, [r5, #4]
20005676:	f9b4 300c 	ldrsh.w	r3, [r4, #12]
2000567a:	b29a      	uxth	r2, r3
2000567c:	0715      	lsls	r5, r2, #28
2000567e:	d42c      	bmi.n	200056da <__swsetup_r+0x82>
20005680:	06d0      	lsls	r0, r2, #27
20005682:	d411      	bmi.n	200056a8 <__swsetup_r+0x50>
20005684:	2209      	movs	r2, #9
20005686:	6032      	str	r2, [r6, #0]
20005688:	f043 0340 	orr.w	r3, r3, #64	; 0x40
2000568c:	81a3      	strh	r3, [r4, #12]
2000568e:	f04f 30ff 	mov.w	r0, #4294967295
20005692:	bd70      	pop	{r4, r5, r6, pc}
20005694:	4b25      	ldr	r3, [pc, #148]	; (2000572c <__swsetup_r+0xd4>)
20005696:	429c      	cmp	r4, r3
20005698:	d101      	bne.n	2000569e <__swsetup_r+0x46>
2000569a:	68ac      	ldr	r4, [r5, #8]
2000569c:	e7eb      	b.n	20005676 <__swsetup_r+0x1e>
2000569e:	4b24      	ldr	r3, [pc, #144]	; (20005730 <__swsetup_r+0xd8>)
200056a0:	429c      	cmp	r4, r3
200056a2:	bf08      	it	eq
200056a4:	68ec      	ldreq	r4, [r5, #12]
200056a6:	e7e6      	b.n	20005676 <__swsetup_r+0x1e>
200056a8:	0751      	lsls	r1, r2, #29
200056aa:	d512      	bpl.n	200056d2 <__swsetup_r+0x7a>
200056ac:	6b61      	ldr	r1, [r4, #52]	; 0x34
200056ae:	b141      	cbz	r1, 200056c2 <__swsetup_r+0x6a>
200056b0:	f104 0344 	add.w	r3, r4, #68	; 0x44
200056b4:	4299      	cmp	r1, r3
200056b6:	d002      	beq.n	200056be <__swsetup_r+0x66>
200056b8:	4630      	mov	r0, r6
200056ba:	f000 fa2b 	bl	20005b14 <_free_r>
200056be:	2300      	movs	r3, #0
200056c0:	6363      	str	r3, [r4, #52]	; 0x34
200056c2:	89a3      	ldrh	r3, [r4, #12]
200056c4:	f023 0324 	bic.w	r3, r3, #36	; 0x24
200056c8:	81a3      	strh	r3, [r4, #12]
200056ca:	2300      	movs	r3, #0
200056cc:	6063      	str	r3, [r4, #4]
200056ce:	6923      	ldr	r3, [r4, #16]
200056d0:	6023      	str	r3, [r4, #0]
200056d2:	89a3      	ldrh	r3, [r4, #12]
200056d4:	f043 0308 	orr.w	r3, r3, #8
200056d8:	81a3      	strh	r3, [r4, #12]
200056da:	6923      	ldr	r3, [r4, #16]
200056dc:	b94b      	cbnz	r3, 200056f2 <__swsetup_r+0x9a>
200056de:	89a3      	ldrh	r3, [r4, #12]
200056e0:	f403 7320 	and.w	r3, r3, #640	; 0x280
200056e4:	f5b3 7f00 	cmp.w	r3, #512	; 0x200
200056e8:	d003      	beq.n	200056f2 <__swsetup_r+0x9a>
200056ea:	4621      	mov	r1, r4
200056ec:	4630      	mov	r0, r6
200056ee:	f000 f9c1 	bl	20005a74 <__smakebuf_r>
200056f2:	89a2      	ldrh	r2, [r4, #12]
200056f4:	f012 0301 	ands.w	r3, r2, #1
200056f8:	d00c      	beq.n	20005714 <__swsetup_r+0xbc>
200056fa:	2300      	movs	r3, #0
200056fc:	60a3      	str	r3, [r4, #8]
200056fe:	6963      	ldr	r3, [r4, #20]
20005700:	425b      	negs	r3, r3
20005702:	61a3      	str	r3, [r4, #24]
20005704:	6923      	ldr	r3, [r4, #16]
20005706:	b953      	cbnz	r3, 2000571e <__swsetup_r+0xc6>
20005708:	f9b4 300c 	ldrsh.w	r3, [r4, #12]
2000570c:	f013 0080 	ands.w	r0, r3, #128	; 0x80
20005710:	d1ba      	bne.n	20005688 <__swsetup_r+0x30>
20005712:	bd70      	pop	{r4, r5, r6, pc}
20005714:	0792      	lsls	r2, r2, #30
20005716:	bf58      	it	pl
20005718:	6963      	ldrpl	r3, [r4, #20]
2000571a:	60a3      	str	r3, [r4, #8]
2000571c:	e7f2      	b.n	20005704 <__swsetup_r+0xac>
2000571e:	2000      	movs	r0, #0
20005720:	e7f7      	b.n	20005712 <__swsetup_r+0xba>
20005722:	bf00      	nop
20005724:	2001807c 	.word	0x2001807c
20005728:	2000d184 	.word	0x2000d184
2000572c:	2000d1a4 	.word	0x2000d1a4
20005730:	2000d164 	.word	0x2000d164

20005734 <__sflush_r>:
20005734:	898a      	ldrh	r2, [r1, #12]
20005736:	e92d 41f0 	stmdb	sp!, {r4, r5, r6, r7, r8, lr}
2000573a:	4605      	mov	r5, r0
2000573c:	0710      	lsls	r0, r2, #28
2000573e:	460c      	mov	r4, r1
20005740:	d45a      	bmi.n	200057f8 <__sflush_r+0xc4>
20005742:	684b      	ldr	r3, [r1, #4]
20005744:	2b00      	cmp	r3, #0
20005746:	dc05      	bgt.n	20005754 <__sflush_r+0x20>
20005748:	6c0b      	ldr	r3, [r1, #64]	; 0x40
2000574a:	2b00      	cmp	r3, #0
2000574c:	dc02      	bgt.n	20005754 <__sflush_r+0x20>
2000574e:	2000      	movs	r0, #0
20005750:	e8bd 81f0 	ldmia.w	sp!, {r4, r5, r6, r7, r8, pc}
20005754:	6ae6      	ldr	r6, [r4, #44]	; 0x2c
20005756:	2e00      	cmp	r6, #0
20005758:	d0f9      	beq.n	2000574e <__sflush_r+0x1a>
2000575a:	2300      	movs	r3, #0
2000575c:	f412 5280 	ands.w	r2, r2, #4096	; 0x1000
20005760:	682f      	ldr	r7, [r5, #0]
20005762:	602b      	str	r3, [r5, #0]
20005764:	d033      	beq.n	200057ce <__sflush_r+0x9a>
20005766:	6d60      	ldr	r0, [r4, #84]	; 0x54
20005768:	89a3      	ldrh	r3, [r4, #12]
2000576a:	075a      	lsls	r2, r3, #29
2000576c:	d505      	bpl.n	2000577a <__sflush_r+0x46>
2000576e:	6863      	ldr	r3, [r4, #4]
20005770:	1ac0      	subs	r0, r0, r3
20005772:	6b63      	ldr	r3, [r4, #52]	; 0x34
20005774:	b10b      	cbz	r3, 2000577a <__sflush_r+0x46>
20005776:	6c23      	ldr	r3, [r4, #64]	; 0x40
20005778:	1ac0      	subs	r0, r0, r3
2000577a:	2300      	movs	r3, #0
2000577c:	4602      	mov	r2, r0
2000577e:	6ae6      	ldr	r6, [r4, #44]	; 0x2c
20005780:	6a21      	ldr	r1, [r4, #32]
20005782:	4628      	mov	r0, r5
20005784:	47b0      	blx	r6
20005786:	1c43      	adds	r3, r0, #1
20005788:	89a3      	ldrh	r3, [r4, #12]
2000578a:	d106      	bne.n	2000579a <__sflush_r+0x66>
2000578c:	6829      	ldr	r1, [r5, #0]
2000578e:	291d      	cmp	r1, #29
20005790:	d84b      	bhi.n	2000582a <__sflush_r+0xf6>
20005792:	4a2b      	ldr	r2, [pc, #172]	; (20005840 <__sflush_r+0x10c>)
20005794:	40ca      	lsrs	r2, r1
20005796:	07d6      	lsls	r6, r2, #31
20005798:	d547      	bpl.n	2000582a <__sflush_r+0xf6>
2000579a:	2200      	movs	r2, #0
2000579c:	6062      	str	r2, [r4, #4]
2000579e:	04d9      	lsls	r1, r3, #19
200057a0:	6922      	ldr	r2, [r4, #16]
200057a2:	6022      	str	r2, [r4, #0]
200057a4:	d504      	bpl.n	200057b0 <__sflush_r+0x7c>
200057a6:	1c42      	adds	r2, r0, #1
200057a8:	d101      	bne.n	200057ae <__sflush_r+0x7a>
200057aa:	682b      	ldr	r3, [r5, #0]
200057ac:	b903      	cbnz	r3, 200057b0 <__sflush_r+0x7c>
200057ae:	6560      	str	r0, [r4, #84]	; 0x54
200057b0:	6b61      	ldr	r1, [r4, #52]	; 0x34
200057b2:	602f      	str	r7, [r5, #0]
200057b4:	2900      	cmp	r1, #0
200057b6:	d0ca      	beq.n	2000574e <__sflush_r+0x1a>
200057b8:	f104 0344 	add.w	r3, r4, #68	; 0x44
200057bc:	4299      	cmp	r1, r3
200057be:	d002      	beq.n	200057c6 <__sflush_r+0x92>
200057c0:	4628      	mov	r0, r5
200057c2:	f000 f9a7 	bl	20005b14 <_free_r>
200057c6:	2000      	movs	r0, #0
200057c8:	6360      	str	r0, [r4, #52]	; 0x34
200057ca:	e8bd 81f0 	ldmia.w	sp!, {r4, r5, r6, r7, r8, pc}
200057ce:	6a21      	ldr	r1, [r4, #32]
200057d0:	2301      	movs	r3, #1
200057d2:	4628      	mov	r0, r5
200057d4:	47b0      	blx	r6
200057d6:	1c41      	adds	r1, r0, #1
200057d8:	d1c6      	bne.n	20005768 <__sflush_r+0x34>
200057da:	682b      	ldr	r3, [r5, #0]
200057dc:	2b00      	cmp	r3, #0
200057de:	d0c3      	beq.n	20005768 <__sflush_r+0x34>
200057e0:	2b1d      	cmp	r3, #29
200057e2:	d001      	beq.n	200057e8 <__sflush_r+0xb4>
200057e4:	2b16      	cmp	r3, #22
200057e6:	d101      	bne.n	200057ec <__sflush_r+0xb8>
200057e8:	602f      	str	r7, [r5, #0]
200057ea:	e7b0      	b.n	2000574e <__sflush_r+0x1a>
200057ec:	89a3      	ldrh	r3, [r4, #12]
200057ee:	f043 0340 	orr.w	r3, r3, #64	; 0x40
200057f2:	81a3      	strh	r3, [r4, #12]
200057f4:	e8bd 81f0 	ldmia.w	sp!, {r4, r5, r6, r7, r8, pc}
200057f8:	690f      	ldr	r7, [r1, #16]
200057fa:	2f00      	cmp	r7, #0
200057fc:	d0a7      	beq.n	2000574e <__sflush_r+0x1a>
200057fe:	0793      	lsls	r3, r2, #30
20005800:	680e      	ldr	r6, [r1, #0]
20005802:	bf08      	it	eq
20005804:	694b      	ldreq	r3, [r1, #20]
20005806:	600f      	str	r7, [r1, #0]
20005808:	bf18      	it	ne
2000580a:	2300      	movne	r3, #0
2000580c:	eba6 0807 	sub.w	r8, r6, r7
20005810:	608b      	str	r3, [r1, #8]
20005812:	f1b8 0f00 	cmp.w	r8, #0
20005816:	dd9a      	ble.n	2000574e <__sflush_r+0x1a>
20005818:	4643      	mov	r3, r8
2000581a:	463a      	mov	r2, r7
2000581c:	6a21      	ldr	r1, [r4, #32]
2000581e:	6aa6      	ldr	r6, [r4, #40]	; 0x28
20005820:	4628      	mov	r0, r5
20005822:	47b0      	blx	r6
20005824:	2800      	cmp	r0, #0
20005826:	dc07      	bgt.n	20005838 <__sflush_r+0x104>
20005828:	89a3      	ldrh	r3, [r4, #12]
2000582a:	f043 0340 	orr.w	r3, r3, #64	; 0x40
2000582e:	81a3      	strh	r3, [r4, #12]
20005830:	f04f 30ff 	mov.w	r0, #4294967295
20005834:	e8bd 81f0 	ldmia.w	sp!, {r4, r5, r6, r7, r8, pc}
20005838:	4407      	add	r7, r0
2000583a:	eba8 0800 	sub.w	r8, r8, r0
2000583e:	e7e8      	b.n	20005812 <__sflush_r+0xde>
20005840:	20400001 	.word	0x20400001

20005844 <_fflush_r>:
20005844:	b538      	push	{r3, r4, r5, lr}
20005846:	690b      	ldr	r3, [r1, #16]
20005848:	4605      	mov	r5, r0
2000584a:	460c      	mov	r4, r1
2000584c:	b1db      	cbz	r3, 20005886 <_fflush_r+0x42>
2000584e:	b118      	cbz	r0, 20005858 <_fflush_r+0x14>
20005850:	6983      	ldr	r3, [r0, #24]
20005852:	b90b      	cbnz	r3, 20005858 <_fflush_r+0x14>
20005854:	f000 f860 	bl	20005918 <__sinit>
20005858:	4b0c      	ldr	r3, [pc, #48]	; (2000588c <_fflush_r+0x48>)
2000585a:	429c      	cmp	r4, r3
2000585c:	d109      	bne.n	20005872 <_fflush_r+0x2e>
2000585e:	686c      	ldr	r4, [r5, #4]
20005860:	f9b4 300c 	ldrsh.w	r3, [r4, #12]
20005864:	b17b      	cbz	r3, 20005886 <_fflush_r+0x42>
20005866:	4621      	mov	r1, r4
20005868:	4628      	mov	r0, r5
2000586a:	e8bd 4038 	ldmia.w	sp!, {r3, r4, r5, lr}
2000586e:	f7ff bf61 	b.w	20005734 <__sflush_r>
20005872:	4b07      	ldr	r3, [pc, #28]	; (20005890 <_fflush_r+0x4c>)
20005874:	429c      	cmp	r4, r3
20005876:	d101      	bne.n	2000587c <_fflush_r+0x38>
20005878:	68ac      	ldr	r4, [r5, #8]
2000587a:	e7f1      	b.n	20005860 <_fflush_r+0x1c>
2000587c:	4b05      	ldr	r3, [pc, #20]	; (20005894 <_fflush_r+0x50>)
2000587e:	429c      	cmp	r4, r3
20005880:	bf08      	it	eq
20005882:	68ec      	ldreq	r4, [r5, #12]
20005884:	e7ec      	b.n	20005860 <_fflush_r+0x1c>
20005886:	2000      	movs	r0, #0
20005888:	bd38      	pop	{r3, r4, r5, pc}
2000588a:	bf00      	nop
2000588c:	2000d184 	.word	0x2000d184
20005890:	2000d1a4 	.word	0x2000d1a4
20005894:	2000d164 	.word	0x2000d164

20005898 <_cleanup_r>:
20005898:	4901      	ldr	r1, [pc, #4]	; (200058a0 <_cleanup_r+0x8>)
2000589a:	f000 b8a9 	b.w	200059f0 <_fwalk_reent>
2000589e:	bf00      	nop
200058a0:	20005845 	.word	0x20005845

200058a4 <std.isra.0>:
200058a4:	2300      	movs	r3, #0
200058a6:	b510      	push	{r4, lr}
200058a8:	4604      	mov	r4, r0
200058aa:	6003      	str	r3, [r0, #0]
200058ac:	6043      	str	r3, [r0, #4]
200058ae:	6083      	str	r3, [r0, #8]
200058b0:	8181      	strh	r1, [r0, #12]
200058b2:	6643      	str	r3, [r0, #100]	; 0x64
200058b4:	81c2      	strh	r2, [r0, #14]
200058b6:	6103      	str	r3, [r0, #16]
200058b8:	6143      	str	r3, [r0, #20]
200058ba:	6183      	str	r3, [r0, #24]
200058bc:	4619      	mov	r1, r3
200058be:	2208      	movs	r2, #8
200058c0:	305c      	adds	r0, #92	; 0x5c
200058c2:	f000 f91f 	bl	20005b04 <memset>
200058c6:	4b05      	ldr	r3, [pc, #20]	; (200058dc <std.isra.0+0x38>)
200058c8:	6263      	str	r3, [r4, #36]	; 0x24
200058ca:	4b05      	ldr	r3, [pc, #20]	; (200058e0 <std.isra.0+0x3c>)
200058cc:	62a3      	str	r3, [r4, #40]	; 0x28
200058ce:	4b05      	ldr	r3, [pc, #20]	; (200058e4 <std.isra.0+0x40>)
200058d0:	62e3      	str	r3, [r4, #44]	; 0x2c
200058d2:	4b05      	ldr	r3, [pc, #20]	; (200058e8 <std.isra.0+0x44>)
200058d4:	6224      	str	r4, [r4, #32]
200058d6:	6323      	str	r3, [r4, #48]	; 0x30
200058d8:	bd10      	pop	{r4, pc}
200058da:	bf00      	nop
200058dc:	20006239 	.word	0x20006239
200058e0:	2000625b 	.word	0x2000625b
200058e4:	20006293 	.word	0x20006293
200058e8:	200062b7 	.word	0x200062b7

200058ec <__sfmoreglue>:
200058ec:	b570      	push	{r4, r5, r6, lr}
200058ee:	1e4a      	subs	r2, r1, #1
200058f0:	2568      	movs	r5, #104	; 0x68
200058f2:	4355      	muls	r5, r2
200058f4:	460e      	mov	r6, r1
200058f6:	f105 0174 	add.w	r1, r5, #116	; 0x74
200058fa:	f000 f959 	bl	20005bb0 <_malloc_r>
200058fe:	4604      	mov	r4, r0
20005900:	b140      	cbz	r0, 20005914 <__sfmoreglue+0x28>
20005902:	2100      	movs	r1, #0
20005904:	e880 0042 	stmia.w	r0, {r1, r6}
20005908:	300c      	adds	r0, #12
2000590a:	60a0      	str	r0, [r4, #8]
2000590c:	f105 0268 	add.w	r2, r5, #104	; 0x68
20005910:	f000 f8f8 	bl	20005b04 <memset>
20005914:	4620      	mov	r0, r4
20005916:	bd70      	pop	{r4, r5, r6, pc}

20005918 <__sinit>:
20005918:	6983      	ldr	r3, [r0, #24]
2000591a:	b510      	push	{r4, lr}
2000591c:	4604      	mov	r4, r0
2000591e:	bb33      	cbnz	r3, 2000596e <__sinit+0x56>
20005920:	6483      	str	r3, [r0, #72]	; 0x48
20005922:	64c3      	str	r3, [r0, #76]	; 0x4c
20005924:	6503      	str	r3, [r0, #80]	; 0x50
20005926:	4b12      	ldr	r3, [pc, #72]	; (20005970 <__sinit+0x58>)
20005928:	4a12      	ldr	r2, [pc, #72]	; (20005974 <__sinit+0x5c>)
2000592a:	681b      	ldr	r3, [r3, #0]
2000592c:	6282      	str	r2, [r0, #40]	; 0x28
2000592e:	4298      	cmp	r0, r3
20005930:	bf04      	itt	eq
20005932:	2301      	moveq	r3, #1
20005934:	6183      	streq	r3, [r0, #24]
20005936:	f000 f81f 	bl	20005978 <__sfp>
2000593a:	6060      	str	r0, [r4, #4]
2000593c:	4620      	mov	r0, r4
2000593e:	f000 f81b 	bl	20005978 <__sfp>
20005942:	60a0      	str	r0, [r4, #8]
20005944:	4620      	mov	r0, r4
20005946:	f000 f817 	bl	20005978 <__sfp>
2000594a:	2200      	movs	r2, #0
2000594c:	60e0      	str	r0, [r4, #12]
2000594e:	2104      	movs	r1, #4
20005950:	6860      	ldr	r0, [r4, #4]
20005952:	f7ff ffa7 	bl	200058a4 <std.isra.0>
20005956:	2201      	movs	r2, #1
20005958:	2109      	movs	r1, #9
2000595a:	68a0      	ldr	r0, [r4, #8]
2000595c:	f7ff ffa2 	bl	200058a4 <std.isra.0>
20005960:	2202      	movs	r2, #2
20005962:	2112      	movs	r1, #18
20005964:	68e0      	ldr	r0, [r4, #12]
20005966:	f7ff ff9d 	bl	200058a4 <std.isra.0>
2000596a:	2301      	movs	r3, #1
2000596c:	61a3      	str	r3, [r4, #24]
2000596e:	bd10      	pop	{r4, pc}
20005970:	2000d160 	.word	0x2000d160
20005974:	20005899 	.word	0x20005899

20005978 <__sfp>:
20005978:	b5f8      	push	{r3, r4, r5, r6, r7, lr}
2000597a:	4b1c      	ldr	r3, [pc, #112]	; (200059ec <__sfp+0x74>)
2000597c:	681e      	ldr	r6, [r3, #0]
2000597e:	69b3      	ldr	r3, [r6, #24]
20005980:	4607      	mov	r7, r0
20005982:	b913      	cbnz	r3, 2000598a <__sfp+0x12>
20005984:	4630      	mov	r0, r6
20005986:	f7ff ffc7 	bl	20005918 <__sinit>
2000598a:	3648      	adds	r6, #72	; 0x48
2000598c:	68b4      	ldr	r4, [r6, #8]
2000598e:	6873      	ldr	r3, [r6, #4]
20005990:	3b01      	subs	r3, #1
20005992:	d503      	bpl.n	2000599c <__sfp+0x24>
20005994:	6833      	ldr	r3, [r6, #0]
20005996:	b133      	cbz	r3, 200059a6 <__sfp+0x2e>
20005998:	6836      	ldr	r6, [r6, #0]
2000599a:	e7f7      	b.n	2000598c <__sfp+0x14>
2000599c:	f9b4 500c 	ldrsh.w	r5, [r4, #12]
200059a0:	b16d      	cbz	r5, 200059be <__sfp+0x46>
200059a2:	3468      	adds	r4, #104	; 0x68
200059a4:	e7f4      	b.n	20005990 <__sfp+0x18>
200059a6:	2104      	movs	r1, #4
200059a8:	4638      	mov	r0, r7
200059aa:	f7ff ff9f 	bl	200058ec <__sfmoreglue>
200059ae:	6030      	str	r0, [r6, #0]
200059b0:	2800      	cmp	r0, #0
200059b2:	d1f1      	bne.n	20005998 <__sfp+0x20>
200059b4:	230c      	movs	r3, #12
200059b6:	603b      	str	r3, [r7, #0]
200059b8:	4604      	mov	r4, r0
200059ba:	4620      	mov	r0, r4
200059bc:	bdf8      	pop	{r3, r4, r5, r6, r7, pc}
200059be:	f64f 73ff 	movw	r3, #65535	; 0xffff
200059c2:	81e3      	strh	r3, [r4, #14]
200059c4:	2301      	movs	r3, #1
200059c6:	81a3      	strh	r3, [r4, #12]
200059c8:	6665      	str	r5, [r4, #100]	; 0x64
200059ca:	6025      	str	r5, [r4, #0]
200059cc:	60a5      	str	r5, [r4, #8]
200059ce:	6065      	str	r5, [r4, #4]
200059d0:	6125      	str	r5, [r4, #16]
200059d2:	6165      	str	r5, [r4, #20]
200059d4:	61a5      	str	r5, [r4, #24]
200059d6:	2208      	movs	r2, #8
200059d8:	4629      	mov	r1, r5
200059da:	f104 005c 	add.w	r0, r4, #92	; 0x5c
200059de:	f000 f891 	bl	20005b04 <memset>
200059e2:	6365      	str	r5, [r4, #52]	; 0x34
200059e4:	63a5      	str	r5, [r4, #56]	; 0x38
200059e6:	64a5      	str	r5, [r4, #72]	; 0x48
200059e8:	64e5      	str	r5, [r4, #76]	; 0x4c
200059ea:	e7e6      	b.n	200059ba <__sfp+0x42>
200059ec:	2000d160 	.word	0x2000d160

200059f0 <_fwalk_reent>:
200059f0:	e92d 43f8 	stmdb	sp!, {r3, r4, r5, r6, r7, r8, r9, lr}
200059f4:	4680      	mov	r8, r0
200059f6:	4689      	mov	r9, r1
200059f8:	f100 0448 	add.w	r4, r0, #72	; 0x48
200059fc:	2600      	movs	r6, #0
200059fe:	b914      	cbnz	r4, 20005a06 <_fwalk_reent+0x16>
20005a00:	4630      	mov	r0, r6
20005a02:	e8bd 83f8 	ldmia.w	sp!, {r3, r4, r5, r6, r7, r8, r9, pc}
20005a06:	68a5      	ldr	r5, [r4, #8]
20005a08:	6867      	ldr	r7, [r4, #4]
20005a0a:	3f01      	subs	r7, #1
20005a0c:	d501      	bpl.n	20005a12 <_fwalk_reent+0x22>
20005a0e:	6824      	ldr	r4, [r4, #0]
20005a10:	e7f5      	b.n	200059fe <_fwalk_reent+0xe>
20005a12:	89ab      	ldrh	r3, [r5, #12]
20005a14:	2b01      	cmp	r3, #1
20005a16:	d907      	bls.n	20005a28 <_fwalk_reent+0x38>
20005a18:	f9b5 300e 	ldrsh.w	r3, [r5, #14]
20005a1c:	3301      	adds	r3, #1
20005a1e:	d003      	beq.n	20005a28 <_fwalk_reent+0x38>
20005a20:	4629      	mov	r1, r5
20005a22:	4640      	mov	r0, r8
20005a24:	47c8      	blx	r9
20005a26:	4306      	orrs	r6, r0
20005a28:	3568      	adds	r5, #104	; 0x68
20005a2a:	e7ee      	b.n	20005a0a <_fwalk_reent+0x1a>

20005a2c <__swhatbuf_r>:
20005a2c:	b570      	push	{r4, r5, r6, lr}
20005a2e:	460e      	mov	r6, r1
20005a30:	f9b1 100e 	ldrsh.w	r1, [r1, #14]
20005a34:	2900      	cmp	r1, #0
20005a36:	b090      	sub	sp, #64	; 0x40
20005a38:	4614      	mov	r4, r2
20005a3a:	461d      	mov	r5, r3
20005a3c:	da07      	bge.n	20005a4e <__swhatbuf_r+0x22>
20005a3e:	2300      	movs	r3, #0
20005a40:	602b      	str	r3, [r5, #0]
20005a42:	89b3      	ldrh	r3, [r6, #12]
20005a44:	061a      	lsls	r2, r3, #24
20005a46:	d410      	bmi.n	20005a6a <__swhatbuf_r+0x3e>
20005a48:	f44f 6380 	mov.w	r3, #1024	; 0x400
20005a4c:	e00e      	b.n	20005a6c <__swhatbuf_r+0x40>
20005a4e:	aa01      	add	r2, sp, #4
20005a50:	f000 fc58 	bl	20006304 <_fstat_r>
20005a54:	2800      	cmp	r0, #0
20005a56:	dbf2      	blt.n	20005a3e <__swhatbuf_r+0x12>
20005a58:	9a02      	ldr	r2, [sp, #8]
20005a5a:	f402 4270 	and.w	r2, r2, #61440	; 0xf000
20005a5e:	f5a2 5300 	sub.w	r3, r2, #8192	; 0x2000
20005a62:	425a      	negs	r2, r3
20005a64:	415a      	adcs	r2, r3
20005a66:	602a      	str	r2, [r5, #0]
20005a68:	e7ee      	b.n	20005a48 <__swhatbuf_r+0x1c>
20005a6a:	2340      	movs	r3, #64	; 0x40
20005a6c:	2000      	movs	r0, #0
20005a6e:	6023      	str	r3, [r4, #0]
20005a70:	b010      	add	sp, #64	; 0x40
20005a72:	bd70      	pop	{r4, r5, r6, pc}

20005a74 <__smakebuf_r>:
20005a74:	898b      	ldrh	r3, [r1, #12]
20005a76:	b573      	push	{r0, r1, r4, r5, r6, lr}
20005a78:	079d      	lsls	r5, r3, #30
20005a7a:	4606      	mov	r6, r0
20005a7c:	460c      	mov	r4, r1
20005a7e:	d507      	bpl.n	20005a90 <__smakebuf_r+0x1c>
20005a80:	f104 0347 	add.w	r3, r4, #71	; 0x47
20005a84:	6023      	str	r3, [r4, #0]
20005a86:	6123      	str	r3, [r4, #16]
20005a88:	2301      	movs	r3, #1
20005a8a:	6163      	str	r3, [r4, #20]
20005a8c:	b002      	add	sp, #8
20005a8e:	bd70      	pop	{r4, r5, r6, pc}
20005a90:	ab01      	add	r3, sp, #4
20005a92:	466a      	mov	r2, sp
20005a94:	f7ff ffca 	bl	20005a2c <__swhatbuf_r>
20005a98:	9900      	ldr	r1, [sp, #0]
20005a9a:	4605      	mov	r5, r0
20005a9c:	4630      	mov	r0, r6
20005a9e:	f000 f887 	bl	20005bb0 <_malloc_r>
20005aa2:	b948      	cbnz	r0, 20005ab8 <__smakebuf_r+0x44>
20005aa4:	f9b4 300c 	ldrsh.w	r3, [r4, #12]
20005aa8:	059a      	lsls	r2, r3, #22
20005aaa:	d4ef      	bmi.n	20005a8c <__smakebuf_r+0x18>
20005aac:	f023 0303 	bic.w	r3, r3, #3
20005ab0:	f043 0302 	orr.w	r3, r3, #2
20005ab4:	81a3      	strh	r3, [r4, #12]
20005ab6:	e7e3      	b.n	20005a80 <__smakebuf_r+0xc>
20005ab8:	4b0d      	ldr	r3, [pc, #52]	; (20005af0 <__smakebuf_r+0x7c>)
20005aba:	62b3      	str	r3, [r6, #40]	; 0x28
20005abc:	89a3      	ldrh	r3, [r4, #12]
20005abe:	6020      	str	r0, [r4, #0]
20005ac0:	f043 0380 	orr.w	r3, r3, #128	; 0x80
20005ac4:	81a3      	strh	r3, [r4, #12]
20005ac6:	9b00      	ldr	r3, [sp, #0]
20005ac8:	6163      	str	r3, [r4, #20]
20005aca:	9b01      	ldr	r3, [sp, #4]
20005acc:	6120      	str	r0, [r4, #16]
20005ace:	b15b      	cbz	r3, 20005ae8 <__smakebuf_r+0x74>
20005ad0:	f9b4 100e 	ldrsh.w	r1, [r4, #14]
20005ad4:	4630      	mov	r0, r6
20005ad6:	f000 fc27 	bl	20006328 <_isatty_r>
20005ada:	b128      	cbz	r0, 20005ae8 <__smakebuf_r+0x74>
20005adc:	89a3      	ldrh	r3, [r4, #12]
20005ade:	f023 0303 	bic.w	r3, r3, #3
20005ae2:	f043 0301 	orr.w	r3, r3, #1
20005ae6:	81a3      	strh	r3, [r4, #12]
20005ae8:	89a3      	ldrh	r3, [r4, #12]
20005aea:	431d      	orrs	r5, r3
20005aec:	81a5      	strh	r5, [r4, #12]
20005aee:	e7cd      	b.n	20005a8c <__smakebuf_r+0x18>
20005af0:	20005899 	.word	0x20005899

20005af4 <malloc>:
20005af4:	4b02      	ldr	r3, [pc, #8]	; (20005b00 <malloc+0xc>)
20005af6:	4601      	mov	r1, r0
20005af8:	6818      	ldr	r0, [r3, #0]
20005afa:	f000 b859 	b.w	20005bb0 <_malloc_r>
20005afe:	bf00      	nop
20005b00:	2001807c 	.word	0x2001807c

20005b04 <memset>:
20005b04:	4402      	add	r2, r0
20005b06:	4603      	mov	r3, r0
20005b08:	4293      	cmp	r3, r2
20005b0a:	d100      	bne.n	20005b0e <memset+0xa>
20005b0c:	4770      	bx	lr
20005b0e:	f803 1b01 	strb.w	r1, [r3], #1
20005b12:	e7f9      	b.n	20005b08 <memset+0x4>

20005b14 <_free_r>:
20005b14:	b538      	push	{r3, r4, r5, lr}
20005b16:	4605      	mov	r5, r0
20005b18:	2900      	cmp	r1, #0
20005b1a:	d045      	beq.n	20005ba8 <_free_r+0x94>
20005b1c:	f851 3c04 	ldr.w	r3, [r1, #-4]
20005b20:	1f0c      	subs	r4, r1, #4
20005b22:	2b00      	cmp	r3, #0
20005b24:	bfb8      	it	lt
20005b26:	18e4      	addlt	r4, r4, r3
20005b28:	f000 fc20 	bl	2000636c <__malloc_lock>
20005b2c:	4a1f      	ldr	r2, [pc, #124]	; (20005bac <_free_r+0x98>)
20005b2e:	6813      	ldr	r3, [r2, #0]
20005b30:	4610      	mov	r0, r2
20005b32:	b933      	cbnz	r3, 20005b42 <_free_r+0x2e>
20005b34:	6063      	str	r3, [r4, #4]
20005b36:	6014      	str	r4, [r2, #0]
20005b38:	4628      	mov	r0, r5
20005b3a:	e8bd 4038 	ldmia.w	sp!, {r3, r4, r5, lr}
20005b3e:	f000 bc16 	b.w	2000636e <__malloc_unlock>
20005b42:	42a3      	cmp	r3, r4
20005b44:	d90c      	bls.n	20005b60 <_free_r+0x4c>
20005b46:	6821      	ldr	r1, [r4, #0]
20005b48:	1862      	adds	r2, r4, r1
20005b4a:	4293      	cmp	r3, r2
20005b4c:	bf04      	itt	eq
20005b4e:	681a      	ldreq	r2, [r3, #0]
20005b50:	685b      	ldreq	r3, [r3, #4]
20005b52:	6063      	str	r3, [r4, #4]
20005b54:	bf04      	itt	eq
20005b56:	1852      	addeq	r2, r2, r1
20005b58:	6022      	streq	r2, [r4, #0]
20005b5a:	6004      	str	r4, [r0, #0]
20005b5c:	e7ec      	b.n	20005b38 <_free_r+0x24>
20005b5e:	4613      	mov	r3, r2
20005b60:	685a      	ldr	r2, [r3, #4]
20005b62:	b10a      	cbz	r2, 20005b68 <_free_r+0x54>
20005b64:	42a2      	cmp	r2, r4
20005b66:	d9fa      	bls.n	20005b5e <_free_r+0x4a>
20005b68:	6819      	ldr	r1, [r3, #0]
20005b6a:	1858      	adds	r0, r3, r1
20005b6c:	42a0      	cmp	r0, r4
20005b6e:	d10b      	bne.n	20005b88 <_free_r+0x74>
20005b70:	6820      	ldr	r0, [r4, #0]
20005b72:	4401      	add	r1, r0
20005b74:	1858      	adds	r0, r3, r1
20005b76:	4282      	cmp	r2, r0
20005b78:	6019      	str	r1, [r3, #0]
20005b7a:	d1dd      	bne.n	20005b38 <_free_r+0x24>
20005b7c:	6810      	ldr	r0, [r2, #0]
20005b7e:	6852      	ldr	r2, [r2, #4]
20005b80:	605a      	str	r2, [r3, #4]
20005b82:	4401      	add	r1, r0
20005b84:	6019      	str	r1, [r3, #0]
20005b86:	e7d7      	b.n	20005b38 <_free_r+0x24>
20005b88:	d902      	bls.n	20005b90 <_free_r+0x7c>
20005b8a:	230c      	movs	r3, #12
20005b8c:	602b      	str	r3, [r5, #0]
20005b8e:	e7d3      	b.n	20005b38 <_free_r+0x24>
20005b90:	6820      	ldr	r0, [r4, #0]
20005b92:	1821      	adds	r1, r4, r0
20005b94:	428a      	cmp	r2, r1
20005b96:	bf04      	itt	eq
20005b98:	6811      	ldreq	r1, [r2, #0]
20005b9a:	6852      	ldreq	r2, [r2, #4]
20005b9c:	6062      	str	r2, [r4, #4]
20005b9e:	bf04      	itt	eq
20005ba0:	1809      	addeq	r1, r1, r0
20005ba2:	6021      	streq	r1, [r4, #0]
20005ba4:	605c      	str	r4, [r3, #4]
20005ba6:	e7c7      	b.n	20005b38 <_free_r+0x24>
20005ba8:	bd38      	pop	{r3, r4, r5, pc}
20005baa:	bf00      	nop
20005bac:	2001c218 	.word	0x2001c218

20005bb0 <_malloc_r>:
20005bb0:	b570      	push	{r4, r5, r6, lr}
20005bb2:	1ccd      	adds	r5, r1, #3
20005bb4:	f025 0503 	bic.w	r5, r5, #3
20005bb8:	3508      	adds	r5, #8
20005bba:	2d0c      	cmp	r5, #12
20005bbc:	bf38      	it	cc
20005bbe:	250c      	movcc	r5, #12
20005bc0:	2d00      	cmp	r5, #0
20005bc2:	4606      	mov	r6, r0
20005bc4:	db01      	blt.n	20005bca <_malloc_r+0x1a>
20005bc6:	42a9      	cmp	r1, r5
20005bc8:	d903      	bls.n	20005bd2 <_malloc_r+0x22>
20005bca:	230c      	movs	r3, #12
20005bcc:	6033      	str	r3, [r6, #0]
20005bce:	2000      	movs	r0, #0
20005bd0:	bd70      	pop	{r4, r5, r6, pc}
20005bd2:	f000 fbcb 	bl	2000636c <__malloc_lock>
20005bd6:	4a23      	ldr	r2, [pc, #140]	; (20005c64 <_malloc_r+0xb4>)
20005bd8:	6814      	ldr	r4, [r2, #0]
20005bda:	4621      	mov	r1, r4
20005bdc:	b991      	cbnz	r1, 20005c04 <_malloc_r+0x54>
20005bde:	4c22      	ldr	r4, [pc, #136]	; (20005c68 <_malloc_r+0xb8>)
20005be0:	6823      	ldr	r3, [r4, #0]
20005be2:	b91b      	cbnz	r3, 20005bec <_malloc_r+0x3c>
20005be4:	4630      	mov	r0, r6
20005be6:	f000 fb17 	bl	20006218 <_sbrk_r>
20005bea:	6020      	str	r0, [r4, #0]
20005bec:	4629      	mov	r1, r5
20005bee:	4630      	mov	r0, r6
20005bf0:	f000 fb12 	bl	20006218 <_sbrk_r>
20005bf4:	1c43      	adds	r3, r0, #1
20005bf6:	d126      	bne.n	20005c46 <_malloc_r+0x96>
20005bf8:	230c      	movs	r3, #12
20005bfa:	6033      	str	r3, [r6, #0]
20005bfc:	4630      	mov	r0, r6
20005bfe:	f000 fbb6 	bl	2000636e <__malloc_unlock>
20005c02:	e7e4      	b.n	20005bce <_malloc_r+0x1e>
20005c04:	680b      	ldr	r3, [r1, #0]
20005c06:	1b5b      	subs	r3, r3, r5
20005c08:	d41a      	bmi.n	20005c40 <_malloc_r+0x90>
20005c0a:	2b0b      	cmp	r3, #11
20005c0c:	d90f      	bls.n	20005c2e <_malloc_r+0x7e>
20005c0e:	600b      	str	r3, [r1, #0]
20005c10:	50cd      	str	r5, [r1, r3]
20005c12:	18cc      	adds	r4, r1, r3
20005c14:	4630      	mov	r0, r6
20005c16:	f000 fbaa 	bl	2000636e <__malloc_unlock>
20005c1a:	f104 000b 	add.w	r0, r4, #11
20005c1e:	1d23      	adds	r3, r4, #4
20005c20:	f020 0007 	bic.w	r0, r0, #7
20005c24:	1ac3      	subs	r3, r0, r3
20005c26:	d01b      	beq.n	20005c60 <_malloc_r+0xb0>
20005c28:	425a      	negs	r2, r3
20005c2a:	50e2      	str	r2, [r4, r3]
20005c2c:	bd70      	pop	{r4, r5, r6, pc}
20005c2e:	428c      	cmp	r4, r1
20005c30:	bf0d      	iteet	eq
20005c32:	6863      	ldreq	r3, [r4, #4]
20005c34:	684b      	ldrne	r3, [r1, #4]
20005c36:	6063      	strne	r3, [r4, #4]
20005c38:	6013      	streq	r3, [r2, #0]
20005c3a:	bf18      	it	ne
20005c3c:	460c      	movne	r4, r1
20005c3e:	e7e9      	b.n	20005c14 <_malloc_r+0x64>
20005c40:	460c      	mov	r4, r1
20005c42:	6849      	ldr	r1, [r1, #4]
20005c44:	e7ca      	b.n	20005bdc <_malloc_r+0x2c>
20005c46:	1cc4      	adds	r4, r0, #3
20005c48:	f024 0403 	bic.w	r4, r4, #3
20005c4c:	42a0      	cmp	r0, r4
20005c4e:	d005      	beq.n	20005c5c <_malloc_r+0xac>
20005c50:	1a21      	subs	r1, r4, r0
20005c52:	4630      	mov	r0, r6
20005c54:	f000 fae0 	bl	20006218 <_sbrk_r>
20005c58:	3001      	adds	r0, #1
20005c5a:	d0cd      	beq.n	20005bf8 <_malloc_r+0x48>
20005c5c:	6025      	str	r5, [r4, #0]
20005c5e:	e7d9      	b.n	20005c14 <_malloc_r+0x64>
20005c60:	bd70      	pop	{r4, r5, r6, pc}
20005c62:	bf00      	nop
20005c64:	2001c218 	.word	0x2001c218
20005c68:	2001c21c 	.word	0x2001c21c

20005c6c <__sfputc_r>:
20005c6c:	6893      	ldr	r3, [r2, #8]
20005c6e:	3b01      	subs	r3, #1
20005c70:	2b00      	cmp	r3, #0
20005c72:	b410      	push	{r4}
20005c74:	6093      	str	r3, [r2, #8]
20005c76:	da09      	bge.n	20005c8c <__sfputc_r+0x20>
20005c78:	6994      	ldr	r4, [r2, #24]
20005c7a:	42a3      	cmp	r3, r4
20005c7c:	db02      	blt.n	20005c84 <__sfputc_r+0x18>
20005c7e:	b2cb      	uxtb	r3, r1
20005c80:	2b0a      	cmp	r3, #10
20005c82:	d103      	bne.n	20005c8c <__sfputc_r+0x20>
20005c84:	f85d 4b04 	ldr.w	r4, [sp], #4
20005c88:	f7ff bc94 	b.w	200055b4 <__swbuf_r>
20005c8c:	6813      	ldr	r3, [r2, #0]
20005c8e:	1c58      	adds	r0, r3, #1
20005c90:	6010      	str	r0, [r2, #0]
20005c92:	7019      	strb	r1, [r3, #0]
20005c94:	b2c8      	uxtb	r0, r1
20005c96:	f85d 4b04 	ldr.w	r4, [sp], #4
20005c9a:	4770      	bx	lr

20005c9c <__sfputs_r>:
20005c9c:	b5f8      	push	{r3, r4, r5, r6, r7, lr}
20005c9e:	4606      	mov	r6, r0
20005ca0:	460f      	mov	r7, r1
20005ca2:	4614      	mov	r4, r2
20005ca4:	18d5      	adds	r5, r2, r3
20005ca6:	42ac      	cmp	r4, r5
20005ca8:	d101      	bne.n	20005cae <__sfputs_r+0x12>
20005caa:	2000      	movs	r0, #0
20005cac:	e007      	b.n	20005cbe <__sfputs_r+0x22>
20005cae:	463a      	mov	r2, r7
20005cb0:	f814 1b01 	ldrb.w	r1, [r4], #1
20005cb4:	4630      	mov	r0, r6
20005cb6:	f7ff ffd9 	bl	20005c6c <__sfputc_r>
20005cba:	1c43      	adds	r3, r0, #1
20005cbc:	d1f3      	bne.n	20005ca6 <__sfputs_r+0xa>
20005cbe:	bdf8      	pop	{r3, r4, r5, r6, r7, pc}

20005cc0 <_vfiprintf_r>:
20005cc0:	e92d 4ff0 	stmdb	sp!, {r4, r5, r6, r7, r8, r9, sl, fp, lr}
20005cc4:	b09d      	sub	sp, #116	; 0x74
20005cc6:	460c      	mov	r4, r1
20005cc8:	4617      	mov	r7, r2
20005cca:	9303      	str	r3, [sp, #12]
20005ccc:	4606      	mov	r6, r0
20005cce:	b118      	cbz	r0, 20005cd8 <_vfiprintf_r+0x18>
20005cd0:	6983      	ldr	r3, [r0, #24]
20005cd2:	b90b      	cbnz	r3, 20005cd8 <_vfiprintf_r+0x18>
20005cd4:	f7ff fe20 	bl	20005918 <__sinit>
20005cd8:	4b7c      	ldr	r3, [pc, #496]	; (20005ecc <_vfiprintf_r+0x20c>)
20005cda:	429c      	cmp	r4, r3
20005cdc:	d157      	bne.n	20005d8e <_vfiprintf_r+0xce>
20005cde:	6874      	ldr	r4, [r6, #4]
20005ce0:	89a3      	ldrh	r3, [r4, #12]
20005ce2:	0718      	lsls	r0, r3, #28
20005ce4:	d55d      	bpl.n	20005da2 <_vfiprintf_r+0xe2>
20005ce6:	6923      	ldr	r3, [r4, #16]
20005ce8:	2b00      	cmp	r3, #0
20005cea:	d05a      	beq.n	20005da2 <_vfiprintf_r+0xe2>
20005cec:	2300      	movs	r3, #0
20005cee:	9309      	str	r3, [sp, #36]	; 0x24
20005cf0:	2320      	movs	r3, #32
20005cf2:	f88d 3029 	strb.w	r3, [sp, #41]	; 0x29
20005cf6:	2330      	movs	r3, #48	; 0x30
20005cf8:	f88d 302a 	strb.w	r3, [sp, #42]	; 0x2a
20005cfc:	f04f 0b01 	mov.w	fp, #1
20005d00:	46b8      	mov	r8, r7
20005d02:	4645      	mov	r5, r8
20005d04:	f815 3b01 	ldrb.w	r3, [r5], #1
20005d08:	2b00      	cmp	r3, #0
20005d0a:	d155      	bne.n	20005db8 <_vfiprintf_r+0xf8>
20005d0c:	ebb8 0a07 	subs.w	sl, r8, r7
20005d10:	d00b      	beq.n	20005d2a <_vfiprintf_r+0x6a>
20005d12:	4653      	mov	r3, sl
20005d14:	463a      	mov	r2, r7
20005d16:	4621      	mov	r1, r4
20005d18:	4630      	mov	r0, r6
20005d1a:	f7ff ffbf 	bl	20005c9c <__sfputs_r>
20005d1e:	3001      	adds	r0, #1
20005d20:	f000 80c4 	beq.w	20005eac <_vfiprintf_r+0x1ec>
20005d24:	9b09      	ldr	r3, [sp, #36]	; 0x24
20005d26:	4453      	add	r3, sl
20005d28:	9309      	str	r3, [sp, #36]	; 0x24
20005d2a:	f898 3000 	ldrb.w	r3, [r8]
20005d2e:	2b00      	cmp	r3, #0
20005d30:	f000 80bc 	beq.w	20005eac <_vfiprintf_r+0x1ec>
20005d34:	2300      	movs	r3, #0
20005d36:	f04f 32ff 	mov.w	r2, #4294967295
20005d3a:	9304      	str	r3, [sp, #16]
20005d3c:	9307      	str	r3, [sp, #28]
20005d3e:	9205      	str	r2, [sp, #20]
20005d40:	9306      	str	r3, [sp, #24]
20005d42:	f88d 3053 	strb.w	r3, [sp, #83]	; 0x53
20005d46:	931a      	str	r3, [sp, #104]	; 0x68
20005d48:	2205      	movs	r2, #5
20005d4a:	7829      	ldrb	r1, [r5, #0]
20005d4c:	4860      	ldr	r0, [pc, #384]	; (20005ed0 <_vfiprintf_r+0x210>)
20005d4e:	f7fa fa3f 	bl	200001d0 <memchr>
20005d52:	f105 0801 	add.w	r8, r5, #1
20005d56:	9b04      	ldr	r3, [sp, #16]
20005d58:	2800      	cmp	r0, #0
20005d5a:	d131      	bne.n	20005dc0 <_vfiprintf_r+0x100>
20005d5c:	06d9      	lsls	r1, r3, #27
20005d5e:	bf44      	itt	mi
20005d60:	2220      	movmi	r2, #32
20005d62:	f88d 2053 	strbmi.w	r2, [sp, #83]	; 0x53
20005d66:	071a      	lsls	r2, r3, #28
20005d68:	bf44      	itt	mi
20005d6a:	222b      	movmi	r2, #43	; 0x2b
20005d6c:	f88d 2053 	strbmi.w	r2, [sp, #83]	; 0x53
20005d70:	782a      	ldrb	r2, [r5, #0]
20005d72:	2a2a      	cmp	r2, #42	; 0x2a
20005d74:	d02c      	beq.n	20005dd0 <_vfiprintf_r+0x110>
20005d76:	9a07      	ldr	r2, [sp, #28]
20005d78:	2100      	movs	r1, #0
20005d7a:	200a      	movs	r0, #10
20005d7c:	46a8      	mov	r8, r5
20005d7e:	3501      	adds	r5, #1
20005d80:	f898 3000 	ldrb.w	r3, [r8]
20005d84:	3b30      	subs	r3, #48	; 0x30
20005d86:	2b09      	cmp	r3, #9
20005d88:	d96d      	bls.n	20005e66 <_vfiprintf_r+0x1a6>
20005d8a:	b371      	cbz	r1, 20005dea <_vfiprintf_r+0x12a>
20005d8c:	e026      	b.n	20005ddc <_vfiprintf_r+0x11c>
20005d8e:	4b51      	ldr	r3, [pc, #324]	; (20005ed4 <_vfiprintf_r+0x214>)
20005d90:	429c      	cmp	r4, r3
20005d92:	d101      	bne.n	20005d98 <_vfiprintf_r+0xd8>
20005d94:	68b4      	ldr	r4, [r6, #8]
20005d96:	e7a3      	b.n	20005ce0 <_vfiprintf_r+0x20>
20005d98:	4b4f      	ldr	r3, [pc, #316]	; (20005ed8 <_vfiprintf_r+0x218>)
20005d9a:	429c      	cmp	r4, r3
20005d9c:	bf08      	it	eq
20005d9e:	68f4      	ldreq	r4, [r6, #12]
20005da0:	e79e      	b.n	20005ce0 <_vfiprintf_r+0x20>
20005da2:	4621      	mov	r1, r4
20005da4:	4630      	mov	r0, r6
20005da6:	f7ff fc57 	bl	20005658 <__swsetup_r>
20005daa:	2800      	cmp	r0, #0
20005dac:	d09e      	beq.n	20005cec <_vfiprintf_r+0x2c>
20005dae:	f04f 30ff 	mov.w	r0, #4294967295
20005db2:	b01d      	add	sp, #116	; 0x74
20005db4:	e8bd 8ff0 	ldmia.w	sp!, {r4, r5, r6, r7, r8, r9, sl, fp, pc}
20005db8:	2b25      	cmp	r3, #37	; 0x25
20005dba:	d0a7      	beq.n	20005d0c <_vfiprintf_r+0x4c>
20005dbc:	46a8      	mov	r8, r5
20005dbe:	e7a0      	b.n	20005d02 <_vfiprintf_r+0x42>
20005dc0:	4a43      	ldr	r2, [pc, #268]	; (20005ed0 <_vfiprintf_r+0x210>)
20005dc2:	1a80      	subs	r0, r0, r2
20005dc4:	fa0b f000 	lsl.w	r0, fp, r0
20005dc8:	4318      	orrs	r0, r3
20005dca:	9004      	str	r0, [sp, #16]
20005dcc:	4645      	mov	r5, r8
20005dce:	e7bb      	b.n	20005d48 <_vfiprintf_r+0x88>
20005dd0:	9a03      	ldr	r2, [sp, #12]
20005dd2:	1d11      	adds	r1, r2, #4
20005dd4:	6812      	ldr	r2, [r2, #0]
20005dd6:	9103      	str	r1, [sp, #12]
20005dd8:	2a00      	cmp	r2, #0
20005dda:	db01      	blt.n	20005de0 <_vfiprintf_r+0x120>
20005ddc:	9207      	str	r2, [sp, #28]
20005dde:	e004      	b.n	20005dea <_vfiprintf_r+0x12a>
20005de0:	4252      	negs	r2, r2
20005de2:	f043 0302 	orr.w	r3, r3, #2
20005de6:	9207      	str	r2, [sp, #28]
20005de8:	9304      	str	r3, [sp, #16]
20005dea:	f898 3000 	ldrb.w	r3, [r8]
20005dee:	2b2e      	cmp	r3, #46	; 0x2e
20005df0:	d110      	bne.n	20005e14 <_vfiprintf_r+0x154>
20005df2:	f898 3001 	ldrb.w	r3, [r8, #1]
20005df6:	2b2a      	cmp	r3, #42	; 0x2a
20005df8:	f108 0101 	add.w	r1, r8, #1
20005dfc:	d137      	bne.n	20005e6e <_vfiprintf_r+0x1ae>
20005dfe:	9b03      	ldr	r3, [sp, #12]
20005e00:	1d1a      	adds	r2, r3, #4
20005e02:	681b      	ldr	r3, [r3, #0]
20005e04:	9203      	str	r2, [sp, #12]
20005e06:	2b00      	cmp	r3, #0
20005e08:	bfb8      	it	lt
20005e0a:	f04f 33ff 	movlt.w	r3, #4294967295
20005e0e:	f108 0802 	add.w	r8, r8, #2
20005e12:	9305      	str	r3, [sp, #20]
20005e14:	4d31      	ldr	r5, [pc, #196]	; (20005edc <_vfiprintf_r+0x21c>)
20005e16:	f898 1000 	ldrb.w	r1, [r8]
20005e1a:	2203      	movs	r2, #3
20005e1c:	4628      	mov	r0, r5
20005e1e:	f7fa f9d7 	bl	200001d0 <memchr>
20005e22:	b140      	cbz	r0, 20005e36 <_vfiprintf_r+0x176>
20005e24:	2340      	movs	r3, #64	; 0x40
20005e26:	1b40      	subs	r0, r0, r5
20005e28:	fa03 f000 	lsl.w	r0, r3, r0
20005e2c:	9b04      	ldr	r3, [sp, #16]
20005e2e:	4303      	orrs	r3, r0
20005e30:	9304      	str	r3, [sp, #16]
20005e32:	f108 0801 	add.w	r8, r8, #1
20005e36:	f898 1000 	ldrb.w	r1, [r8]
20005e3a:	4829      	ldr	r0, [pc, #164]	; (20005ee0 <_vfiprintf_r+0x220>)
20005e3c:	f88d 1028 	strb.w	r1, [sp, #40]	; 0x28
20005e40:	2206      	movs	r2, #6
20005e42:	f108 0701 	add.w	r7, r8, #1
20005e46:	f7fa f9c3 	bl	200001d0 <memchr>
20005e4a:	2800      	cmp	r0, #0
20005e4c:	d034      	beq.n	20005eb8 <_vfiprintf_r+0x1f8>
20005e4e:	4b25      	ldr	r3, [pc, #148]	; (20005ee4 <_vfiprintf_r+0x224>)
20005e50:	bb03      	cbnz	r3, 20005e94 <_vfiprintf_r+0x1d4>
20005e52:	9b03      	ldr	r3, [sp, #12]
20005e54:	3307      	adds	r3, #7
20005e56:	f023 0307 	bic.w	r3, r3, #7
20005e5a:	3308      	adds	r3, #8
20005e5c:	9303      	str	r3, [sp, #12]
20005e5e:	9b09      	ldr	r3, [sp, #36]	; 0x24
20005e60:	444b      	add	r3, r9
20005e62:	9309      	str	r3, [sp, #36]	; 0x24
20005e64:	e74c      	b.n	20005d00 <_vfiprintf_r+0x40>
20005e66:	fb00 3202 	mla	r2, r0, r2, r3
20005e6a:	2101      	movs	r1, #1
20005e6c:	e786      	b.n	20005d7c <_vfiprintf_r+0xbc>
20005e6e:	2300      	movs	r3, #0
20005e70:	9305      	str	r3, [sp, #20]
20005e72:	4618      	mov	r0, r3
20005e74:	250a      	movs	r5, #10
20005e76:	4688      	mov	r8, r1
20005e78:	3101      	adds	r1, #1
20005e7a:	f898 2000 	ldrb.w	r2, [r8]
20005e7e:	3a30      	subs	r2, #48	; 0x30
20005e80:	2a09      	cmp	r2, #9
20005e82:	d903      	bls.n	20005e8c <_vfiprintf_r+0x1cc>
20005e84:	2b00      	cmp	r3, #0
20005e86:	d0c5      	beq.n	20005e14 <_vfiprintf_r+0x154>
20005e88:	9005      	str	r0, [sp, #20]
20005e8a:	e7c3      	b.n	20005e14 <_vfiprintf_r+0x154>
20005e8c:	fb05 2000 	mla	r0, r5, r0, r2
20005e90:	2301      	movs	r3, #1
20005e92:	e7f0      	b.n	20005e76 <_vfiprintf_r+0x1b6>
20005e94:	ab03      	add	r3, sp, #12
20005e96:	9300      	str	r3, [sp, #0]
20005e98:	4622      	mov	r2, r4
20005e9a:	4b13      	ldr	r3, [pc, #76]	; (20005ee8 <_vfiprintf_r+0x228>)
20005e9c:	a904      	add	r1, sp, #16
20005e9e:	4630      	mov	r0, r6
20005ea0:	f3af 8000 	nop.w
20005ea4:	f1b0 3fff 	cmp.w	r0, #4294967295
20005ea8:	4681      	mov	r9, r0
20005eaa:	d1d8      	bne.n	20005e5e <_vfiprintf_r+0x19e>
20005eac:	89a3      	ldrh	r3, [r4, #12]
20005eae:	065b      	lsls	r3, r3, #25
20005eb0:	f53f af7d 	bmi.w	20005dae <_vfiprintf_r+0xee>
20005eb4:	9809      	ldr	r0, [sp, #36]	; 0x24
20005eb6:	e77c      	b.n	20005db2 <_vfiprintf_r+0xf2>
20005eb8:	ab03      	add	r3, sp, #12
20005eba:	9300      	str	r3, [sp, #0]
20005ebc:	4622      	mov	r2, r4
20005ebe:	4b0a      	ldr	r3, [pc, #40]	; (20005ee8 <_vfiprintf_r+0x228>)
20005ec0:	a904      	add	r1, sp, #16
20005ec2:	4630      	mov	r0, r6
20005ec4:	f000 f888 	bl	20005fd8 <_printf_i>
20005ec8:	e7ec      	b.n	20005ea4 <_vfiprintf_r+0x1e4>
20005eca:	bf00      	nop
20005ecc:	2000d184 	.word	0x2000d184
20005ed0:	2000d1c4 	.word	0x2000d1c4
20005ed4:	2000d1a4 	.word	0x2000d1a4
20005ed8:	2000d164 	.word	0x2000d164
20005edc:	2000d1ca 	.word	0x2000d1ca
20005ee0:	2000d1ce 	.word	0x2000d1ce
20005ee4:	00000000 	.word	0x00000000
20005ee8:	20005c9d 	.word	0x20005c9d

20005eec <_printf_common>:
20005eec:	e92d 47f0 	stmdb	sp!, {r4, r5, r6, r7, r8, r9, sl, lr}
20005ef0:	4691      	mov	r9, r2
20005ef2:	461f      	mov	r7, r3
20005ef4:	688a      	ldr	r2, [r1, #8]
20005ef6:	690b      	ldr	r3, [r1, #16]
20005ef8:	f8dd 8020 	ldr.w	r8, [sp, #32]
20005efc:	4293      	cmp	r3, r2
20005efe:	bfb8      	it	lt
20005f00:	4613      	movlt	r3, r2
20005f02:	f8c9 3000 	str.w	r3, [r9]
20005f06:	f891 2043 	ldrb.w	r2, [r1, #67]	; 0x43
20005f0a:	4606      	mov	r6, r0
20005f0c:	460c      	mov	r4, r1
20005f0e:	b112      	cbz	r2, 20005f16 <_printf_common+0x2a>
20005f10:	3301      	adds	r3, #1
20005f12:	f8c9 3000 	str.w	r3, [r9]
20005f16:	6823      	ldr	r3, [r4, #0]
20005f18:	0699      	lsls	r1, r3, #26
20005f1a:	bf42      	ittt	mi
20005f1c:	f8d9 3000 	ldrmi.w	r3, [r9]
20005f20:	3302      	addmi	r3, #2
20005f22:	f8c9 3000 	strmi.w	r3, [r9]
20005f26:	6825      	ldr	r5, [r4, #0]
20005f28:	f015 0506 	ands.w	r5, r5, #6
20005f2c:	d107      	bne.n	20005f3e <_printf_common+0x52>
20005f2e:	f104 0a19 	add.w	sl, r4, #25
20005f32:	68e3      	ldr	r3, [r4, #12]
20005f34:	f8d9 2000 	ldr.w	r2, [r9]
20005f38:	1a9b      	subs	r3, r3, r2
20005f3a:	429d      	cmp	r5, r3
20005f3c:	db29      	blt.n	20005f92 <_printf_common+0xa6>
20005f3e:	f894 3043 	ldrb.w	r3, [r4, #67]	; 0x43
20005f42:	6822      	ldr	r2, [r4, #0]
20005f44:	3300      	adds	r3, #0
20005f46:	bf18      	it	ne
20005f48:	2301      	movne	r3, #1
20005f4a:	0692      	lsls	r2, r2, #26
20005f4c:	d42e      	bmi.n	20005fac <_printf_common+0xc0>
20005f4e:	f104 0243 	add.w	r2, r4, #67	; 0x43
20005f52:	4639      	mov	r1, r7
20005f54:	4630      	mov	r0, r6
20005f56:	47c0      	blx	r8
20005f58:	3001      	adds	r0, #1
20005f5a:	d021      	beq.n	20005fa0 <_printf_common+0xb4>
20005f5c:	6823      	ldr	r3, [r4, #0]
20005f5e:	68e5      	ldr	r5, [r4, #12]
20005f60:	f8d9 2000 	ldr.w	r2, [r9]
20005f64:	f003 0306 	and.w	r3, r3, #6
20005f68:	2b04      	cmp	r3, #4
20005f6a:	bf08      	it	eq
20005f6c:	1aad      	subeq	r5, r5, r2
20005f6e:	68a3      	ldr	r3, [r4, #8]
20005f70:	6922      	ldr	r2, [r4, #16]
20005f72:	bf0c      	ite	eq
20005f74:	ea25 75e5 	biceq.w	r5, r5, r5, asr #31
20005f78:	2500      	movne	r5, #0
20005f7a:	4293      	cmp	r3, r2
20005f7c:	bfc4      	itt	gt
20005f7e:	1a9b      	subgt	r3, r3, r2
20005f80:	18ed      	addgt	r5, r5, r3
20005f82:	f04f 0900 	mov.w	r9, #0
20005f86:	341a      	adds	r4, #26
20005f88:	454d      	cmp	r5, r9
20005f8a:	d11b      	bne.n	20005fc4 <_printf_common+0xd8>
20005f8c:	2000      	movs	r0, #0
20005f8e:	e8bd 87f0 	ldmia.w	sp!, {r4, r5, r6, r7, r8, r9, sl, pc}
20005f92:	2301      	movs	r3, #1
20005f94:	4652      	mov	r2, sl
20005f96:	4639      	mov	r1, r7
20005f98:	4630      	mov	r0, r6
20005f9a:	47c0      	blx	r8
20005f9c:	3001      	adds	r0, #1
20005f9e:	d103      	bne.n	20005fa8 <_printf_common+0xbc>
20005fa0:	f04f 30ff 	mov.w	r0, #4294967295
20005fa4:	e8bd 87f0 	ldmia.w	sp!, {r4, r5, r6, r7, r8, r9, sl, pc}
20005fa8:	3501      	adds	r5, #1
20005faa:	e7c2      	b.n	20005f32 <_printf_common+0x46>
20005fac:	18e1      	adds	r1, r4, r3
20005fae:	1c5a      	adds	r2, r3, #1
20005fb0:	2030      	movs	r0, #48	; 0x30
20005fb2:	f881 0043 	strb.w	r0, [r1, #67]	; 0x43
20005fb6:	4422      	add	r2, r4
20005fb8:	f894 1045 	ldrb.w	r1, [r4, #69]	; 0x45
20005fbc:	f882 1043 	strb.w	r1, [r2, #67]	; 0x43
20005fc0:	3302      	adds	r3, #2
20005fc2:	e7c4      	b.n	20005f4e <_printf_common+0x62>
20005fc4:	2301      	movs	r3, #1
20005fc6:	4622      	mov	r2, r4
20005fc8:	4639      	mov	r1, r7
20005fca:	4630      	mov	r0, r6
20005fcc:	47c0      	blx	r8
20005fce:	3001      	adds	r0, #1
20005fd0:	d0e6      	beq.n	20005fa0 <_printf_common+0xb4>
20005fd2:	f109 0901 	add.w	r9, r9, #1
20005fd6:	e7d7      	b.n	20005f88 <_printf_common+0x9c>

20005fd8 <_printf_i>:
20005fd8:	e92d 43f0 	stmdb	sp!, {r4, r5, r6, r7, r8, r9, lr}
20005fdc:	4617      	mov	r7, r2
20005fde:	7e0a      	ldrb	r2, [r1, #24]
20005fe0:	b085      	sub	sp, #20
20005fe2:	2a6e      	cmp	r2, #110	; 0x6e
20005fe4:	4698      	mov	r8, r3
20005fe6:	4606      	mov	r6, r0
20005fe8:	460c      	mov	r4, r1
20005fea:	9b0c      	ldr	r3, [sp, #48]	; 0x30
20005fec:	f101 0e43 	add.w	lr, r1, #67	; 0x43
20005ff0:	f000 80bc 	beq.w	2000616c <_printf_i+0x194>
20005ff4:	d81a      	bhi.n	2000602c <_printf_i+0x54>
20005ff6:	2a63      	cmp	r2, #99	; 0x63
20005ff8:	d02e      	beq.n	20006058 <_printf_i+0x80>
20005ffa:	d80a      	bhi.n	20006012 <_printf_i+0x3a>
20005ffc:	2a00      	cmp	r2, #0
20005ffe:	f000 80c8 	beq.w	20006192 <_printf_i+0x1ba>
20006002:	2a58      	cmp	r2, #88	; 0x58
20006004:	f000 808a 	beq.w	2000611c <_printf_i+0x144>
20006008:	f104 0542 	add.w	r5, r4, #66	; 0x42
2000600c:	f884 2042 	strb.w	r2, [r4, #66]	; 0x42
20006010:	e02a      	b.n	20006068 <_printf_i+0x90>
20006012:	2a64      	cmp	r2, #100	; 0x64
20006014:	d001      	beq.n	2000601a <_printf_i+0x42>
20006016:	2a69      	cmp	r2, #105	; 0x69
20006018:	d1f6      	bne.n	20006008 <_printf_i+0x30>
2000601a:	6821      	ldr	r1, [r4, #0]
2000601c:	681a      	ldr	r2, [r3, #0]
2000601e:	f011 0f80 	tst.w	r1, #128	; 0x80
20006022:	d023      	beq.n	2000606c <_printf_i+0x94>
20006024:	1d11      	adds	r1, r2, #4
20006026:	6019      	str	r1, [r3, #0]
20006028:	6813      	ldr	r3, [r2, #0]
2000602a:	e027      	b.n	2000607c <_printf_i+0xa4>
2000602c:	2a73      	cmp	r2, #115	; 0x73
2000602e:	f000 80b4 	beq.w	2000619a <_printf_i+0x1c2>
20006032:	d808      	bhi.n	20006046 <_printf_i+0x6e>
20006034:	2a6f      	cmp	r2, #111	; 0x6f
20006036:	d02a      	beq.n	2000608e <_printf_i+0xb6>
20006038:	2a70      	cmp	r2, #112	; 0x70
2000603a:	d1e5      	bne.n	20006008 <_printf_i+0x30>
2000603c:	680a      	ldr	r2, [r1, #0]
2000603e:	f042 0220 	orr.w	r2, r2, #32
20006042:	600a      	str	r2, [r1, #0]
20006044:	e003      	b.n	2000604e <_printf_i+0x76>
20006046:	2a75      	cmp	r2, #117	; 0x75
20006048:	d021      	beq.n	2000608e <_printf_i+0xb6>
2000604a:	2a78      	cmp	r2, #120	; 0x78
2000604c:	d1dc      	bne.n	20006008 <_printf_i+0x30>
2000604e:	2278      	movs	r2, #120	; 0x78
20006050:	f884 2045 	strb.w	r2, [r4, #69]	; 0x45
20006054:	496e      	ldr	r1, [pc, #440]	; (20006210 <_printf_i+0x238>)
20006056:	e064      	b.n	20006122 <_printf_i+0x14a>
20006058:	681a      	ldr	r2, [r3, #0]
2000605a:	f101 0542 	add.w	r5, r1, #66	; 0x42
2000605e:	1d11      	adds	r1, r2, #4
20006060:	6019      	str	r1, [r3, #0]
20006062:	6813      	ldr	r3, [r2, #0]
20006064:	f884 3042 	strb.w	r3, [r4, #66]	; 0x42
20006068:	2301      	movs	r3, #1
2000606a:	e0a3      	b.n	200061b4 <_printf_i+0x1dc>
2000606c:	f011 0f40 	tst.w	r1, #64	; 0x40
20006070:	f102 0104 	add.w	r1, r2, #4
20006074:	6019      	str	r1, [r3, #0]
20006076:	d0d7      	beq.n	20006028 <_printf_i+0x50>
20006078:	f9b2 3000 	ldrsh.w	r3, [r2]
2000607c:	2b00      	cmp	r3, #0
2000607e:	da03      	bge.n	20006088 <_printf_i+0xb0>
20006080:	222d      	movs	r2, #45	; 0x2d
20006082:	425b      	negs	r3, r3
20006084:	f884 2043 	strb.w	r2, [r4, #67]	; 0x43
20006088:	4962      	ldr	r1, [pc, #392]	; (20006214 <_printf_i+0x23c>)
2000608a:	220a      	movs	r2, #10
2000608c:	e017      	b.n	200060be <_printf_i+0xe6>
2000608e:	6820      	ldr	r0, [r4, #0]
20006090:	6819      	ldr	r1, [r3, #0]
20006092:	f010 0f80 	tst.w	r0, #128	; 0x80
20006096:	d003      	beq.n	200060a0 <_printf_i+0xc8>
20006098:	1d08      	adds	r0, r1, #4
2000609a:	6018      	str	r0, [r3, #0]
2000609c:	680b      	ldr	r3, [r1, #0]
2000609e:	e006      	b.n	200060ae <_printf_i+0xd6>
200060a0:	f010 0f40 	tst.w	r0, #64	; 0x40
200060a4:	f101 0004 	add.w	r0, r1, #4
200060a8:	6018      	str	r0, [r3, #0]
200060aa:	d0f7      	beq.n	2000609c <_printf_i+0xc4>
200060ac:	880b      	ldrh	r3, [r1, #0]
200060ae:	4959      	ldr	r1, [pc, #356]	; (20006214 <_printf_i+0x23c>)
200060b0:	2a6f      	cmp	r2, #111	; 0x6f
200060b2:	bf14      	ite	ne
200060b4:	220a      	movne	r2, #10
200060b6:	2208      	moveq	r2, #8
200060b8:	2000      	movs	r0, #0
200060ba:	f884 0043 	strb.w	r0, [r4, #67]	; 0x43
200060be:	6865      	ldr	r5, [r4, #4]
200060c0:	60a5      	str	r5, [r4, #8]
200060c2:	2d00      	cmp	r5, #0
200060c4:	f2c0 809c 	blt.w	20006200 <_printf_i+0x228>
200060c8:	6820      	ldr	r0, [r4, #0]
200060ca:	f020 0004 	bic.w	r0, r0, #4
200060ce:	6020      	str	r0, [r4, #0]
200060d0:	2b00      	cmp	r3, #0
200060d2:	d13f      	bne.n	20006154 <_printf_i+0x17c>
200060d4:	2d00      	cmp	r5, #0
200060d6:	f040 8095 	bne.w	20006204 <_printf_i+0x22c>
200060da:	4675      	mov	r5, lr
200060dc:	2a08      	cmp	r2, #8
200060de:	d10b      	bne.n	200060f8 <_printf_i+0x120>
200060e0:	6823      	ldr	r3, [r4, #0]
200060e2:	07da      	lsls	r2, r3, #31
200060e4:	d508      	bpl.n	200060f8 <_printf_i+0x120>
200060e6:	6923      	ldr	r3, [r4, #16]
200060e8:	6862      	ldr	r2, [r4, #4]
200060ea:	429a      	cmp	r2, r3
200060ec:	bfde      	ittt	le
200060ee:	2330      	movle	r3, #48	; 0x30
200060f0:	f805 3c01 	strble.w	r3, [r5, #-1]
200060f4:	f105 35ff 	addle.w	r5, r5, #4294967295
200060f8:	ebae 0305 	sub.w	r3, lr, r5
200060fc:	6123      	str	r3, [r4, #16]
200060fe:	f8cd 8000 	str.w	r8, [sp]
20006102:	463b      	mov	r3, r7
20006104:	aa03      	add	r2, sp, #12
20006106:	4621      	mov	r1, r4
20006108:	4630      	mov	r0, r6
2000610a:	f7ff feef 	bl	20005eec <_printf_common>
2000610e:	3001      	adds	r0, #1
20006110:	d155      	bne.n	200061be <_printf_i+0x1e6>
20006112:	f04f 30ff 	mov.w	r0, #4294967295
20006116:	b005      	add	sp, #20
20006118:	e8bd 83f0 	ldmia.w	sp!, {r4, r5, r6, r7, r8, r9, pc}
2000611c:	f881 2045 	strb.w	r2, [r1, #69]	; 0x45
20006120:	493c      	ldr	r1, [pc, #240]	; (20006214 <_printf_i+0x23c>)
20006122:	6822      	ldr	r2, [r4, #0]
20006124:	6818      	ldr	r0, [r3, #0]
20006126:	f012 0f80 	tst.w	r2, #128	; 0x80
2000612a:	f100 0504 	add.w	r5, r0, #4
2000612e:	601d      	str	r5, [r3, #0]
20006130:	d001      	beq.n	20006136 <_printf_i+0x15e>
20006132:	6803      	ldr	r3, [r0, #0]
20006134:	e002      	b.n	2000613c <_printf_i+0x164>
20006136:	0655      	lsls	r5, r2, #25
20006138:	d5fb      	bpl.n	20006132 <_printf_i+0x15a>
2000613a:	8803      	ldrh	r3, [r0, #0]
2000613c:	07d0      	lsls	r0, r2, #31
2000613e:	bf44      	itt	mi
20006140:	f042 0220 	orrmi.w	r2, r2, #32
20006144:	6022      	strmi	r2, [r4, #0]
20006146:	b91b      	cbnz	r3, 20006150 <_printf_i+0x178>
20006148:	6822      	ldr	r2, [r4, #0]
2000614a:	f022 0220 	bic.w	r2, r2, #32
2000614e:	6022      	str	r2, [r4, #0]
20006150:	2210      	movs	r2, #16
20006152:	e7b1      	b.n	200060b8 <_printf_i+0xe0>
20006154:	4675      	mov	r5, lr
20006156:	fbb3 f0f2 	udiv	r0, r3, r2
2000615a:	fb02 3310 	mls	r3, r2, r0, r3
2000615e:	5ccb      	ldrb	r3, [r1, r3]
20006160:	f805 3d01 	strb.w	r3, [r5, #-1]!
20006164:	4603      	mov	r3, r0
20006166:	2800      	cmp	r0, #0
20006168:	d1f5      	bne.n	20006156 <_printf_i+0x17e>
2000616a:	e7b7      	b.n	200060dc <_printf_i+0x104>
2000616c:	6808      	ldr	r0, [r1, #0]
2000616e:	681a      	ldr	r2, [r3, #0]
20006170:	6949      	ldr	r1, [r1, #20]
20006172:	f010 0f80 	tst.w	r0, #128	; 0x80
20006176:	d004      	beq.n	20006182 <_printf_i+0x1aa>
20006178:	1d10      	adds	r0, r2, #4
2000617a:	6018      	str	r0, [r3, #0]
2000617c:	6813      	ldr	r3, [r2, #0]
2000617e:	6019      	str	r1, [r3, #0]
20006180:	e007      	b.n	20006192 <_printf_i+0x1ba>
20006182:	f010 0f40 	tst.w	r0, #64	; 0x40
20006186:	f102 0004 	add.w	r0, r2, #4
2000618a:	6018      	str	r0, [r3, #0]
2000618c:	6813      	ldr	r3, [r2, #0]
2000618e:	d0f6      	beq.n	2000617e <_printf_i+0x1a6>
20006190:	8019      	strh	r1, [r3, #0]
20006192:	2300      	movs	r3, #0
20006194:	6123      	str	r3, [r4, #16]
20006196:	4675      	mov	r5, lr
20006198:	e7b1      	b.n	200060fe <_printf_i+0x126>
2000619a:	681a      	ldr	r2, [r3, #0]
2000619c:	1d11      	adds	r1, r2, #4
2000619e:	6019      	str	r1, [r3, #0]
200061a0:	6815      	ldr	r5, [r2, #0]
200061a2:	6862      	ldr	r2, [r4, #4]
200061a4:	2100      	movs	r1, #0
200061a6:	4628      	mov	r0, r5
200061a8:	f7fa f812 	bl	200001d0 <memchr>
200061ac:	b108      	cbz	r0, 200061b2 <_printf_i+0x1da>
200061ae:	1b40      	subs	r0, r0, r5
200061b0:	6060      	str	r0, [r4, #4]
200061b2:	6863      	ldr	r3, [r4, #4]
200061b4:	6123      	str	r3, [r4, #16]
200061b6:	2300      	movs	r3, #0
200061b8:	f884 3043 	strb.w	r3, [r4, #67]	; 0x43
200061bc:	e79f      	b.n	200060fe <_printf_i+0x126>
200061be:	6923      	ldr	r3, [r4, #16]
200061c0:	462a      	mov	r2, r5
200061c2:	4639      	mov	r1, r7
200061c4:	4630      	mov	r0, r6
200061c6:	47c0      	blx	r8
200061c8:	3001      	adds	r0, #1
200061ca:	d0a2      	beq.n	20006112 <_printf_i+0x13a>
200061cc:	6823      	ldr	r3, [r4, #0]
200061ce:	079b      	lsls	r3, r3, #30
200061d0:	d507      	bpl.n	200061e2 <_printf_i+0x20a>
200061d2:	2500      	movs	r5, #0
200061d4:	f104 0919 	add.w	r9, r4, #25
200061d8:	68e3      	ldr	r3, [r4, #12]
200061da:	9a03      	ldr	r2, [sp, #12]
200061dc:	1a9b      	subs	r3, r3, r2
200061de:	429d      	cmp	r5, r3
200061e0:	db05      	blt.n	200061ee <_printf_i+0x216>
200061e2:	68e0      	ldr	r0, [r4, #12]
200061e4:	9b03      	ldr	r3, [sp, #12]
200061e6:	4298      	cmp	r0, r3
200061e8:	bfb8      	it	lt
200061ea:	4618      	movlt	r0, r3
200061ec:	e793      	b.n	20006116 <_printf_i+0x13e>
200061ee:	2301      	movs	r3, #1
200061f0:	464a      	mov	r2, r9
200061f2:	4639      	mov	r1, r7
200061f4:	4630      	mov	r0, r6
200061f6:	47c0      	blx	r8
200061f8:	3001      	adds	r0, #1
200061fa:	d08a      	beq.n	20006112 <_printf_i+0x13a>
200061fc:	3501      	adds	r5, #1
200061fe:	e7eb      	b.n	200061d8 <_printf_i+0x200>
20006200:	2b00      	cmp	r3, #0
20006202:	d1a7      	bne.n	20006154 <_printf_i+0x17c>
20006204:	780b      	ldrb	r3, [r1, #0]
20006206:	f884 3042 	strb.w	r3, [r4, #66]	; 0x42
2000620a:	f104 0542 	add.w	r5, r4, #66	; 0x42
2000620e:	e765      	b.n	200060dc <_printf_i+0x104>
20006210:	2000d1e6 	.word	0x2000d1e6
20006214:	2000d1d5 	.word	0x2000d1d5

20006218 <_sbrk_r>:
20006218:	b538      	push	{r3, r4, r5, lr}
2000621a:	4c06      	ldr	r4, [pc, #24]	; (20006234 <_sbrk_r+0x1c>)
2000621c:	2300      	movs	r3, #0
2000621e:	4605      	mov	r5, r0
20006220:	4608      	mov	r0, r1
20006222:	6023      	str	r3, [r4, #0]
20006224:	f7ff f856 	bl	200052d4 <_sbrk>
20006228:	1c43      	adds	r3, r0, #1
2000622a:	d102      	bne.n	20006232 <_sbrk_r+0x1a>
2000622c:	6823      	ldr	r3, [r4, #0]
2000622e:	b103      	cbz	r3, 20006232 <_sbrk_r+0x1a>
20006230:	602b      	str	r3, [r5, #0]
20006232:	bd38      	pop	{r3, r4, r5, pc}
20006234:	2001f210 	.word	0x2001f210

20006238 <__sread>:
20006238:	b510      	push	{r4, lr}
2000623a:	460c      	mov	r4, r1
2000623c:	f9b1 100e 	ldrsh.w	r1, [r1, #14]
20006240:	f000 f896 	bl	20006370 <_read_r>
20006244:	2800      	cmp	r0, #0
20006246:	bfab      	itete	ge
20006248:	6d63      	ldrge	r3, [r4, #84]	; 0x54
2000624a:	89a3      	ldrhlt	r3, [r4, #12]
2000624c:	181b      	addge	r3, r3, r0
2000624e:	f423 5380 	biclt.w	r3, r3, #4096	; 0x1000
20006252:	bfac      	ite	ge
20006254:	6563      	strge	r3, [r4, #84]	; 0x54
20006256:	81a3      	strhlt	r3, [r4, #12]
20006258:	bd10      	pop	{r4, pc}

2000625a <__swrite>:
2000625a:	e92d 41f0 	stmdb	sp!, {r4, r5, r6, r7, r8, lr}
2000625e:	461f      	mov	r7, r3
20006260:	898b      	ldrh	r3, [r1, #12]
20006262:	05db      	lsls	r3, r3, #23
20006264:	4605      	mov	r5, r0
20006266:	460c      	mov	r4, r1
20006268:	4616      	mov	r6, r2
2000626a:	d505      	bpl.n	20006278 <__swrite+0x1e>
2000626c:	2302      	movs	r3, #2
2000626e:	2200      	movs	r2, #0
20006270:	f9b1 100e 	ldrsh.w	r1, [r1, #14]
20006274:	f000 f868 	bl	20006348 <_lseek_r>
20006278:	89a3      	ldrh	r3, [r4, #12]
2000627a:	f9b4 100e 	ldrsh.w	r1, [r4, #14]
2000627e:	f423 5380 	bic.w	r3, r3, #4096	; 0x1000
20006282:	81a3      	strh	r3, [r4, #12]
20006284:	4632      	mov	r2, r6
20006286:	463b      	mov	r3, r7
20006288:	4628      	mov	r0, r5
2000628a:	e8bd 41f0 	ldmia.w	sp!, {r4, r5, r6, r7, r8, lr}
2000628e:	f000 b817 	b.w	200062c0 <_write_r>

20006292 <__sseek>:
20006292:	b510      	push	{r4, lr}
20006294:	460c      	mov	r4, r1
20006296:	f9b1 100e 	ldrsh.w	r1, [r1, #14]
2000629a:	f000 f855 	bl	20006348 <_lseek_r>
2000629e:	1c43      	adds	r3, r0, #1
200062a0:	89a3      	ldrh	r3, [r4, #12]
200062a2:	bf15      	itete	ne
200062a4:	6560      	strne	r0, [r4, #84]	; 0x54
200062a6:	f423 5380 	biceq.w	r3, r3, #4096	; 0x1000
200062aa:	f443 5380 	orrne.w	r3, r3, #4096	; 0x1000
200062ae:	81a3      	strheq	r3, [r4, #12]
200062b0:	bf18      	it	ne
200062b2:	81a3      	strhne	r3, [r4, #12]
200062b4:	bd10      	pop	{r4, pc}

200062b6 <__sclose>:
200062b6:	f9b1 100e 	ldrsh.w	r1, [r1, #14]
200062ba:	f000 b813 	b.w	200062e4 <_close_r>
	...

200062c0 <_write_r>:
200062c0:	b538      	push	{r3, r4, r5, lr}
200062c2:	4c07      	ldr	r4, [pc, #28]	; (200062e0 <_write_r+0x20>)
200062c4:	4605      	mov	r5, r0
200062c6:	4608      	mov	r0, r1
200062c8:	4611      	mov	r1, r2
200062ca:	2200      	movs	r2, #0
200062cc:	6022      	str	r2, [r4, #0]
200062ce:	461a      	mov	r2, r3
200062d0:	f7fe ffdc 	bl	2000528c <_write>
200062d4:	1c43      	adds	r3, r0, #1
200062d6:	d102      	bne.n	200062de <_write_r+0x1e>
200062d8:	6823      	ldr	r3, [r4, #0]
200062da:	b103      	cbz	r3, 200062de <_write_r+0x1e>
200062dc:	602b      	str	r3, [r5, #0]
200062de:	bd38      	pop	{r3, r4, r5, pc}
200062e0:	2001f210 	.word	0x2001f210

200062e4 <_close_r>:
200062e4:	b538      	push	{r3, r4, r5, lr}
200062e6:	4c06      	ldr	r4, [pc, #24]	; (20006300 <_close_r+0x1c>)
200062e8:	2300      	movs	r3, #0
200062ea:	4605      	mov	r5, r0
200062ec:	4608      	mov	r0, r1
200062ee:	6023      	str	r3, [r4, #0]
200062f0:	f7ff f802 	bl	200052f8 <_close>
200062f4:	1c43      	adds	r3, r0, #1
200062f6:	d102      	bne.n	200062fe <_close_r+0x1a>
200062f8:	6823      	ldr	r3, [r4, #0]
200062fa:	b103      	cbz	r3, 200062fe <_close_r+0x1a>
200062fc:	602b      	str	r3, [r5, #0]
200062fe:	bd38      	pop	{r3, r4, r5, pc}
20006300:	2001f210 	.word	0x2001f210

20006304 <_fstat_r>:
20006304:	b538      	push	{r3, r4, r5, lr}
20006306:	4c07      	ldr	r4, [pc, #28]	; (20006324 <_fstat_r+0x20>)
20006308:	2300      	movs	r3, #0
2000630a:	4605      	mov	r5, r0
2000630c:	4608      	mov	r0, r1
2000630e:	4611      	mov	r1, r2
20006310:	6023      	str	r3, [r4, #0]
20006312:	f7fe fff9 	bl	20005308 <_fstat>
20006316:	1c43      	adds	r3, r0, #1
20006318:	d102      	bne.n	20006320 <_fstat_r+0x1c>
2000631a:	6823      	ldr	r3, [r4, #0]
2000631c:	b103      	cbz	r3, 20006320 <_fstat_r+0x1c>
2000631e:	602b      	str	r3, [r5, #0]
20006320:	bd38      	pop	{r3, r4, r5, pc}
20006322:	bf00      	nop
20006324:	2001f210 	.word	0x2001f210

20006328 <_isatty_r>:
20006328:	b538      	push	{r3, r4, r5, lr}
2000632a:	4c06      	ldr	r4, [pc, #24]	; (20006344 <_isatty_r+0x1c>)
2000632c:	2300      	movs	r3, #0
2000632e:	4605      	mov	r5, r0
20006330:	4608      	mov	r0, r1
20006332:	6023      	str	r3, [r4, #0]
20006334:	f7fe fff0 	bl	20005318 <_isatty>
20006338:	1c43      	adds	r3, r0, #1
2000633a:	d102      	bne.n	20006342 <_isatty_r+0x1a>
2000633c:	6823      	ldr	r3, [r4, #0]
2000633e:	b103      	cbz	r3, 20006342 <_isatty_r+0x1a>
20006340:	602b      	str	r3, [r5, #0]
20006342:	bd38      	pop	{r3, r4, r5, pc}
20006344:	2001f210 	.word	0x2001f210

20006348 <_lseek_r>:
20006348:	b538      	push	{r3, r4, r5, lr}
2000634a:	4c07      	ldr	r4, [pc, #28]	; (20006368 <_lseek_r+0x20>)
2000634c:	4605      	mov	r5, r0
2000634e:	4608      	mov	r0, r1
20006350:	4611      	mov	r1, r2
20006352:	2200      	movs	r2, #0
20006354:	6022      	str	r2, [r4, #0]
20006356:	461a      	mov	r2, r3
20006358:	f7fe ffe6 	bl	20005328 <_lseek>
2000635c:	1c43      	adds	r3, r0, #1
2000635e:	d102      	bne.n	20006366 <_lseek_r+0x1e>
20006360:	6823      	ldr	r3, [r4, #0]
20006362:	b103      	cbz	r3, 20006366 <_lseek_r+0x1e>
20006364:	602b      	str	r3, [r5, #0]
20006366:	bd38      	pop	{r3, r4, r5, pc}
20006368:	2001f210 	.word	0x2001f210

2000636c <__malloc_lock>:
2000636c:	4770      	bx	lr

2000636e <__malloc_unlock>:
2000636e:	4770      	bx	lr

20006370 <_read_r>:
20006370:	b538      	push	{r3, r4, r5, lr}
20006372:	4c07      	ldr	r4, [pc, #28]	; (20006390 <_read_r+0x20>)
20006374:	4605      	mov	r5, r0
20006376:	4608      	mov	r0, r1
20006378:	4611      	mov	r1, r2
2000637a:	2200      	movs	r2, #0
2000637c:	6022      	str	r2, [r4, #0]
2000637e:	461a      	mov	r2, r3
20006380:	f7fe ffda 	bl	20005338 <_read>
20006384:	1c43      	adds	r3, r0, #1
20006386:	d102      	bne.n	2000638e <_read_r+0x1e>
20006388:	6823      	ldr	r3, [r4, #0]
2000638a:	b103      	cbz	r3, 2000638e <_read_r+0x1e>
2000638c:	602b      	str	r3, [r5, #0]
2000638e:	bd38      	pop	{r3, r4, r5, pc}
20006390:	2001f210 	.word	0x2001f210

20006394 <_init>:
20006394:	b5f8      	push	{r3, r4, r5, r6, r7, lr}
20006396:	bf00      	nop
20006398:	bcf8      	pop	{r3, r4, r5, r6, r7}
2000639a:	bc08      	pop	{r3}
2000639c:	469e      	mov	lr, r3
2000639e:	4770      	bx	lr

200063a0 <_fini>:
200063a0:	b5f8      	push	{r3, r4, r5, r6, r7, lr}
200063a2:	bf00      	nop
200063a4:	bcf8      	pop	{r3, r4, r5, r6, r7}
200063a6:	bc08      	pop	{r3}
200063a8:	469e      	mov	lr, r3
200063aa:	4770      	bx	lr
